     VMA      LMA     Size Align Out     In      Symbol
42000000        0        8     1 .header
42000000        0        4     1         LONG ( 0xaedb041d )
42000004        4        4     1         LONG ( 0xaedb041d )
42000008        8        0     1 _stext = ORIGIN ( IROM ) + 8
42000008        8        0     1 PROVIDE ( _stack_start = ORIGIN ( REGION_STACK ) + LENGTH ( REGION_STACK ) )
42000008        8        0     1 PROVIDE ( _max_hart_id = 0 )
42000008        8        0     1 PROVIDE ( _hart_stack_size = 2K )
42000008        8        0     1 PROVIDE ( _heap_size = 0 )
42000008        8        0     1 PROVIDE ( UserSoft = DefaultHandler )
42000008        8        0     1 PROVIDE ( SupervisorSoft = DefaultHandler )
42000008        8        0     1 PROVIDE ( MachineSoft = DefaultHandler )
42000008        8        0     1 PROVIDE ( UserTimer = DefaultHandler )
42000008        8        0     1 PROVIDE ( SupervisorTimer = DefaultHandler )
42000008        8        0     1 PROVIDE ( MachineTimer = DefaultHandler )
42000008        8        0     1 PROVIDE ( UserExternal = DefaultHandler )
42000008        8        0     1 PROVIDE ( SupervisorExternal = DefaultHandler )
42000008        8        0     1 PROVIDE ( MachineExternal = DefaultHandler )
42000008        8        0     1 PROVIDE ( DefaultHandler = DefaultInterruptHandler )
42000008        8        0     1 PROVIDE ( __pre_init = default_pre_init )
42000008        8        0     1 PROVIDE ( _setup_interrupts = default_setup_interrupts )
42000008        8        0     1 PROVIDE ( _mp_hook = default_mp_hook )
42000008        8        0     1 .text.dummy
42000008        8        0     1         . = ABSOLUTE ( _stext )
42000008        8     6c5a     2 .text
42000008        8       82     1         /home/mabez/development/rust/embedded/experiments/esp32c3/target/riscv32imac-unknown-none-elf/debug/deps/libriscv_rt-9f6ededa1f4c9759.rlib(riscv-rt.o):(.init)
42000008        8        0     1                 .L0 
42000008        8        0     1                 .L0 
42000008        8        0     1                 .L0 
42000008        8        0     1                 _start
4200000c        c        0     1                 .L0 
42000010       10        0     1                 _abs_start
42000010       10        0     1                 .L0 
42000010       10        0     1                 .L0 
42000012       12        0     1                 .L0 
42000014       14        0     1                 .L0 
42000016       16        0     1                 .L0 
42000018       18        0     1                 .L0 
4200001a       1a        0     1                 .L0 
4200001c       1c        0     1                 .L0 
4200001e       1e        0     1                 .L0 
42000020       20        0     1                 .L0 
42000022       22        0     1                 .L0 
42000024       24        0     1                 .L0 
42000026       26        0     1                 .L0 
42000028       28        0     1                 .L0 
4200002a       2a        0     1                 .L0 
4200002c       2c        0     1                 .L0 
4200002e       2e        0     1                 .L0 
42000030       30        0     1                 .L0 
42000032       32        0     1                 .L0 
42000034       34        0     1                 .L0 
42000036       36        0     1                 .L0 
42000038       38        0     1                 .L0 
4200003a       3a        0     1                 .L0 
4200003c       3c        0     1                 .L0 
4200003e       3e        0     1                 .L0 
42000040       40        0     1                 .L0 
42000042       42        0     1                 .L0 
42000044       44        0     1                 .L0 
42000046       46        0     1                 .L0 
42000048       48        0     1                 .L0 
4200004a       4a        0     1                 .L0 
4200004c       4c        0     1                 .L0 
4200004e       4e        0     1                 .L0 
4200004e       4e        0     1                 .L0 
42000056       56        0     1                 .L0 
4200005a       5a        0     1                 .L0 
4200005e       5e        0     1                 .L0 
42000062       62        0     1                 .L0 
4200006a       6a        0     1                 .L0 
4200006a       6a        0     1                 .L0 
42000072       72        0     1                 .L0 
42000076       76        0     1                 .L0 
4200007a       7a        0     1                 .L0 
4200007e       7e        0     1                 .L0 
42000082       82        0     1                 .L0 
42000086       86        0     1                 .L0 
4200008a       8a        0     1                 .L0 
4200008a       8a        0     1                 .L0 
4200008a       8a        0     1                 .L0 
4200008a       8a       74     2         /home/mabez/development/rust/embedded/experiments/esp32c3/target/riscv32imac-unknown-none-elf/debug/deps/libriscv_rt-9f6ededa1f4c9759.rlib(riscv_rt-9f6ededa1f4c9759.riscv_rt.da5378fb-cgu.3.rcgu.o):(.init.rust)
4200008a       8a        0     1                 
4200008a       8a        0     1                 
4200008a       8a        0     1                 
4200008a       8a       74     1                 _start_rust
4200008c       8c        0     1                 
4200008c       8c        0     1                 
4200008e       8e        0     1                 
4200009a       9a        0     1                 
4200009e       9e        0     1                 
420000a4       a4        0     1                 
420000ae       ae        0     1                 
420000b8       b8        0     1                 
420000d2       d2        0     1                 
420000f4       f4        0     1                 
420000fe       fe        0     1                 
420000fe       fe        0     1                 
420000fe       fe        0     1                 
420000fe       fe        2     1         . = ALIGN ( 4 )
42000100      100       98     1         /home/mabez/development/rust/embedded/experiments/esp32c3/target/riscv32imac-unknown-none-elf/debug/deps/libriscv_atomic_emulation_trap-fab535a27fe2d765.rlib(riscv-atomic-emulation-trap.o):(.trap)
42000100      100        0     1                 .L0 
42000100      100        0     1                 .L0 
42000100      100        0     1                 _start_trap
42000102      102        0     1                 .L0 
42000104      104        0     1                 .L0 
42000106      106        0     1                 .L0 
42000108      108        0     1                 .L0 
4200010a      10a        0     1                 .L0 
4200010c      10c        0     1                 .L0 
4200010e      10e        0     1                 .L0 
42000110      110        0     1                 .L0 
42000112      112        0     1                 .L0 
42000114      114        0     1                 .L0 
42000116      116        0     1                 .L0 
42000118      118        0     1                 .L0 
4200011a      11a        0     1                 .L0 
4200011c      11c        0     1                 .L0 
4200011e      11e        0     1                 .L0 
42000120      120        0     1                 .L0 
42000122      122        0     1                 .L0 
42000124      124        0     1                 .L0 
42000126      126        0     1                 .L0 
42000128      128        0     1                 .L0 
4200012a      12a        0     1                 .L0 
4200012c      12c        0     1                 .L0 
4200012e      12e        0     1                 .L0 
42000130      130        0     1                 .L0 
42000132      132        0     1                 .L0 
42000134      134        0     1                 .L0 
42000136      136        0     1                 .L0 
42000138      138        0     1                 .L0 
4200013a      13a        0     1                 .L0 
4200013c      13c        0     1                 .L0 
4200013e      13e        0     1                 .L0 
42000140      140        0     1                 .L0 
42000144      144        0     1                 .L0 
42000146      146        0     1                 .L0 
4200014a      14a        0     1                 .L0 
4200014e      14e        0     1                 .L0 
42000150      150        0     1                 .L0 
42000152      152        0     1                 .L0 
42000154      154        0     1                 .L0 
42000156      156        0     1                 .L0 
42000158      158        0     1                 .L0 
4200015a      15a        0     1                 .L0 
4200015c      15c        0     1                 .L0 
4200015e      15e        0     1                 .L0 
42000160      160        0     1                 .L0 
42000162      162        0     1                 .L0 
42000164      164        0     1                 .L0 
42000166      166        0     1                 .L0 
42000168      168        0     1                 .L0 
4200016a      16a        0     1                 .L0 
4200016c      16c        0     1                 .L0 
4200016e      16e        0     1                 .L0 
42000170      170        0     1                 .L0 
42000172      172        0     1                 .L0 
42000174      174        0     1                 .L0 
42000176      176        0     1                 .L0 
42000178      178        0     1                 .L0 
4200017a      17a        0     1                 .L0 
4200017c      17c        0     1                 .L0 
4200017e      17e        0     1                 .L0 
42000180      180        0     1                 .L0 
42000182      182        0     1                 .L0 
42000184      184        0     1                 .L0 
42000186      186        0     1                 .L0 
42000188      188        0     1                 .L0 
4200018a      18a        0     1                 .L0 
4200018c      18c        0     1                 .L0 
4200018e      18e        0     1                 .L0 
42000192      192        0     1                 .L0 
42000194      194        0     1                 .L0 
42000198      198        0     1                 .L0 
42000198      198        0     1                 .L0 
42000198      198      14a     2         /home/mabez/development/rust/embedded/experiments/esp32c3/target/riscv32imac-unknown-none-elf/debug/deps/libriscv_atomic_emulation_trap-fab535a27fe2d765.rlib(riscv_atomic_emulation_trap-fab535a27fe2d765.riscv_atomic_emulation_trap.b3d57533-cgu.0.rcgu.o):(.trap.rust)
42000198      198        0     1                 
42000198      198        0     1                 
42000198      198        0     1                 
42000198      198      14a     1                 _start_trap_atomic_rust
4200019a      19a        0     1                 
4200019c      19c        0     1                 
420001a0      1a0        0     1                 
420001ac      1ac        0     1                 
420001ac      1ac        0     1                 
420001b2      1b2        0     1                 
420001b2      1b2        0     1                 
420001cc      1cc        0     1                 
420001d4      1d4        0     1                 
420001d6      1d6        0     1                 
420001d8      1d8        0     1                 
420001e8      1e8        0     1                 
420001f2      1f2        0     1                 
420001f2      1f2        0     1                 
420001f8      1f8        0     1                 
42000206      206        0     1                 
42000214      214        0     1                 
42000216      216        0     1                 
42000220      220        0     1                 
42000220      220        0     1                 
42000226      226        0     1                 
4200022a      22a        0     1                 
4200022a      22a        0     1                 
42000230      230        0     1                 
4200023e      23e        0     1                 
42000240      240        0     1                 
42000256      256        0     1                 
42000258      258        0     1                 
42000274      274        0     1                 
42000276      276        0     1                 
42000280      280        0     1                 
42000280      280        0     1                 
42000284      284        0     1                 
42000284      284        0     1                 
4200028a      28a        0     1                 
42000294      294        0     1                 
42000298      298        0     1                 
4200029e      29e        0     1                 
420002b0      2b0        0     1                 
420002b0      2b0        0     1                 
420002ba      2ba        0     1                 
420002ba      2ba        0     1                 
420002d0      2d0        0     1                 
420002d0      2d0        0     1                 
420002da      2da        0     1                 
420002e2      2e2        0     1                 
420002e2      2e2        0     1                 
420002e2      2e2        0     1                 
420002e2      2e2        0     1                 
420002e2      2e2       14     2         /home/mabez/development/rust/embedded/experiments/esp32c3/target/riscv32imac-unknown-none-elf/debug/deps/esp32c3-6c8eecfb34724107.16oo1rtpmbk0weq7.rcgu.o:(.text._ZN4core4sync6atomic11AtomicUsize3new17h123bbd6ddb9ec9b8E)
420002e2      2e2        0     1                 
420002e2      2e2        0     1                 
420002e2      2e2        0     1                 
420002e2      2e2       14     1                 core::sync::atomic::AtomicUsize::new::h123bbd6ddb9ec9b8
420002e4      2e4        0     1                 
420002e8      2e8        0     1                 
420002e8      2e8        0     1                 
420002ea      2ea        0     1                 
420002ea      2ea        0     1                 
420002ee      2ee        0     1                 
420002f2      2f2        0     1                 
420002f6      2f6        0     1                 
420002f6      2f6        0     1                 
420002f6      2f6        0     1                 
420002f6      2f6       2e     2         /home/mabez/development/rust/embedded/experiments/esp32c3/target/riscv32imac-unknown-none-elf/debug/deps/esp32c3-6c8eecfb34724107.16oo1rtpmbk0weq7.rcgu.o:(.text._ZN4core4sync6atomic11AtomicUsize4load17h266574b8433f6f67E)
420002f6      2f6        0     1                 
420002f6      2f6        0     1                 
420002f6      2f6        0     1                 
420002f6      2f6       2e     1                 core::sync::atomic::AtomicUsize::load::h266574b8433f6f67
420002f8      2f8        0     1                 
420002fa      2fa        0     1                 
42000304      304        0     1                 
4200030c      30c        0     1                 
4200031c      31c        0     1                 
42000324      324        0     1                 
42000324      324        0     1                 
42000324      324        0     1                 
42000324      324       48     2         /home/mabez/development/rust/embedded/experiments/esp32c3/target/riscv32imac-unknown-none-elf/debug/deps/esp32c3-6c8eecfb34724107.16oo1rtpmbk0weq7.rcgu.o:(.text._ZN4core4sync6atomic11AtomicUsize16compare_exchange17h2762e720ab09cea1E)
42000324      324        0     1                 
42000324      324        0     1                 
42000324      324        0     1                 
42000324      324       48     1                 core::sync::atomic::AtomicUsize::compare_exchange::h2762e720ab09cea1
42000326      326        0     1                 
42000328      328        0     1                 
42000342      342        0     1                 
4200034a      34a        0     1                 
42000362      362        0     1                 
4200036c      36c        0     1                 
4200036c      36c        0     1                 
4200036c      36c        0     1                 
4200036c      36c       34     2         /home/mabez/development/rust/embedded/experiments/esp32c3/target/riscv32imac-unknown-none-elf/debug/deps/esp32c3-6c8eecfb34724107.16oo1rtpmbk0weq7.rcgu.o:(.text._ZN4core4sync6atomic11AtomicUsize9fetch_add17hf7d3297706c05e34E)
4200036c      36c        0     1                 
4200036c      36c        0     1                 
4200036c      36c        0     1                 
4200036c      36c       34     1                 core::sync::atomic::AtomicUsize::fetch_add::hf7d3297706c05e34
4200036e      36e        0     1                 
42000370      370        0     1                 
4200037e      37e        0     1                 
42000386      386        0     1                 
42000398      398        0     1                 
420003a0      3a0        0     1                 
420003a0      3a0        0     1                 
420003a0      3a0        0     1                 
420003a0      3a0       24     2         /home/mabez/development/rust/embedded/experiments/esp32c3/target/riscv32imac-unknown-none-elf/debug/deps/esp32c3-6c8eecfb34724107.1idhibzi0mpmbahx.rcgu.o:(.text._ZN4core10intrinsics11write_bytes17h2e5bf02c86b3f990E)
420003a0      3a0        0     1                 
420003a0      3a0        0     1                 
420003a0      3a0        0     1                 
420003a0      3a0       24     1                 core::intrinsics::write_bytes::h2e5bf02c86b3f990
420003a2      3a2        0     1                 
420003a4      3a4        0     1                 
420003b0      3b0        0     1                 
420003be      3be        0     1                 
420003c4      3c4        0     1                 
420003c4      3c4        0     1                 
420003c4      3c4        0     1                 
420003c4      3c4       3a     2         /home/mabez/development/rust/embedded/experiments/esp32c3/target/riscv32imac-unknown-none-elf/debug/deps/esp32c3-6c8eecfb34724107.1phwpl9yylfc3qa9.rcgu.o:(.text._ZN4core6result19Result$LT$T$C$E$GT$6unwrap17h1a61df70740135aaE)
420003c4      3c4        0     1                 
420003c4      3c4        0     1                 
420003c4      3c4        0     1                 
420003c4      3c4       3a     1                 core::result::Result$LT$T$C$E$GT$::unwrap::h1a61df70740135aa
420003c6      3c6        0     1                 
420003ce      3ce        0     1                 
420003d6      3d6        0     1                 
420003d8      3d8        0     1                 
420003dc      3dc        0     1                 
420003dc      3dc        0     1                 
420003fe      3fe        0     1                 
420003fe      3fe        0     1                 
420003fe      3fe        0     1                 
420003fe      3fe        0     1                 
420003fe      3fe       38     2         /home/mabez/development/rust/embedded/experiments/esp32c3/target/riscv32imac-unknown-none-elf/debug/deps/esp32c3-6c8eecfb34724107.1phwpl9yylfc3qa9.rcgu.o:(.text._ZN4core6result19Result$LT$T$C$E$GT$6unwrap17ha4415297a1a8d3c4E)
420003fe      3fe        0     1                 
420003fe      3fe        0     1                 
420003fe      3fe        0     1                 
420003fe      3fe       38     1                 core::result::Result$LT$T$C$E$GT$::unwrap::ha4415297a1a8d3c4
42000400      400        0     1                 
42000406      406        0     1                 
4200040e      40e        0     1                 
42000410      410        0     1                 
42000414      414        0     1                 
42000414      414        0     1                 
42000436      436        0     1                 
42000436      436        0     1                 
42000436      436        0     1                 
42000436      436        0     1                 
42000436      436       3a     2         /home/mabez/development/rust/embedded/experiments/esp32c3/target/riscv32imac-unknown-none-elf/debug/deps/esp32c3-6c8eecfb34724107.1phwpl9yylfc3qa9.rcgu.o:(.text._ZN4core6result19Result$LT$T$C$E$GT$6unwrap17hae33489342660157E)
42000436      436        0     1                 
42000436      436        0     1                 
42000436      436        0     1                 
42000436      436       3a     1                 core::result::Result$LT$T$C$E$GT$::unwrap::hae33489342660157
42000438      438        0     1                 
42000440      440        0     1                 
42000448      448        0     1                 
4200044a      44a        0     1                 
4200044e      44e        0     1                 
4200044e      44e        0     1                 
42000470      470        0     1                 
42000470      470        0     1                 
42000470      470        0     1                 
42000470      470        0     1                 
42000470      470       42     2         /home/mabez/development/rust/embedded/experiments/esp32c3/target/riscv32imac-unknown-none-elf/debug/deps/esp32c3-6c8eecfb34724107.1phwpl9yylfc3qa9.rcgu.o:(.text._ZN4core6result19Result$LT$T$C$E$GT$6unwrap17hd65de0024e745794E)
42000470      470        0     1                 
42000470      470        0     1                 
42000470      470        0     1                 
42000470      470       42     1                 core::result::Result$LT$T$C$E$GT$::unwrap::hd65de0024e745794
42000472      472        0     1                 
4200047a      47a        0     1                 
42000482      482        0     1                 
42000484      484        0     1                 
42000488      488        0     1                 
4200048c      48c        0     1                 
42000492      492        0     1                 
42000492      492        0     1                 
420004b2      4b2        0     1                 
420004b2      4b2        0     1                 
420004b2      4b2        0     1                 
420004b2      4b2        0     1                 
420004b2      4b2       86     2         /home/mabez/development/rust/embedded/experiments/esp32c3/target/riscv32imac-unknown-none-elf/debug/deps/esp32c3-6c8eecfb34724107.31w2p0rmtqdazjy9.rcgu.o:(.text._ZN4core3fmt3num52_$LT$impl$u20$core..fmt..Debug$u20$for$u20$usize$GT$3fmt17h1ae86fc35690cd3dE)
420004b2      4b2        0     1                 
420004b2      4b2        0     1                 
420004b2      4b2        0     1                 
420004b2      4b2       86     1                 core::fmt::num::_$LT$impl$u20$core..fmt..Debug$u20$for$u20$usize$GT$::fmt::h1ae86fc35690cd3d
420004b4      4b4        0     1                 
420004b6      4b6        0     1                 
420004c2      4c2        0     1                 
420004ce      4ce        0     1                 
420004d2      4d2        0     1                 
420004d8      4d8        0     1                 
420004e6      4e6        0     1                 
420004f8      4f8        0     1                 
420004fa      4fa        0     1                 
42000504      504        0     1                 
42000508      508        0     1                 
4200050e      50e        0     1                 
42000520      520        0     1                 
42000532      532        0     1                 
42000534      534        0     1                 
42000536      536        0     1                 
42000538      538        0     1                 
42000538      538        0     1                 
42000538      538        0     1                 
42000538      538        8     2         /home/mabez/development/rust/embedded/experiments/esp32c3/target/riscv32imac-unknown-none-elf/debug/deps/esp32c3-6c8eecfb34724107.360z2ancvg6ixrl4.rcgu.o:(.text._ZN4core3ptr26drop_in_place$LT$usize$GT$17h352e7c62a4f47015E)
42000538      538        0     1                 
42000538      538        0     1                 
42000538      538        0     1                 
42000538      538        8     1                 core::ptr::drop_in_place$LT$usize$GT$::h352e7c62a4f47015
4200053a      53a        0     1                 
4200053c      53c        0     1                 
42000540      540        0     1                 
42000540      540        0     1                 
42000540      540        0     1                 
42000540      540        8     2         /home/mabez/development/rust/embedded/experiments/esp32c3/target/riscv32imac-unknown-none-elf/debug/deps/esp32c3-6c8eecfb34724107.360z2ancvg6ixrl4.rcgu.o:(.text._ZN4core3ptr29drop_in_place$LT$$LP$$RP$$GT$17h52b2ff2d4aa20ebfE)
42000540      540        0     1                 
42000540      540        0     1                 
42000540      540        0     1                 
42000540      540        8     1                 core::ptr::drop_in_place$LT$$LP$$RP$$GT$::h52b2ff2d4aa20ebf
42000542      542        0     1                 
42000544      544        0     1                 
42000548      548        0     1                 
42000548      548        0     1                 
42000548      548        0     1                 
42000548      548        8     2         /home/mabez/development/rust/embedded/experiments/esp32c3/target/riscv32imac-unknown-none-elf/debug/deps/esp32c3-6c8eecfb34724107.360z2ancvg6ixrl4.rcgu.o:(.text._ZN4core3ptr31drop_in_place$LT$void..Void$GT$17hbbeb7dfe1336f601E)
42000548      548        0     1                 
42000548      548        0     1                 
42000548      548        0     1                 
42000548      548        8     1                 core::ptr::drop_in_place$LT$void..Void$GT$::hbbeb7dfe1336f601
4200054a      54a        0     1                 
4200054c      54c        0     1                 
42000550      550        0     1                 
42000550      550        0     1                 
42000550      550        0     1                 
42000550      550        8     2         /home/mabez/development/rust/embedded/experiments/esp32c3/target/riscv32imac-unknown-none-elf/debug/deps/esp32c3-6c8eecfb34724107.360z2ancvg6ixrl4.rcgu.o:(.text._ZN4core3ptr37drop_in_place$LT$core..fmt..Error$GT$17hc3bfbab7db1d988cE)
42000550      550        0     1                 
42000550      550        0     1                 
42000550      550        0     1                 
42000550      550        8     1                 core::ptr::drop_in_place$LT$core..fmt..Error$GT$::hc3bfbab7db1d988c
42000552      552        0     1                 
42000554      554        0     1                 
42000558      558        0     1                 
42000558      558        0     1                 
42000558      558        0     1                 
42000558      558        8     2         /home/mabez/development/rust/embedded/experiments/esp32c3/target/riscv32imac-unknown-none-elf/debug/deps/esp32c3-6c8eecfb34724107.360z2ancvg6ixrl4.rcgu.o:(.text._ZN4core3ptr50drop_in_place$LT$$RF$mut$u20$esp32c3_lib..Uart$GT$17h0c5d3f5685a3b012E)
42000558      558        0     1                 
42000558      558        0     1                 
42000558      558        0     1                 
42000558      558        8     1                 core::ptr::drop_in_place$LT$$RF$mut$u20$esp32c3_lib..Uart$GT$::h0c5d3f5685a3b012
4200055a      55a        0     1                 
4200055c      55c        0     1                 
42000560      560        0     1                 
42000560      560        0     1                 
42000560      560        0     1                 
42000560      560       72     2         /home/mabez/development/rust/embedded/experiments/esp32c3/target/riscv32imac-unknown-none-elf/debug/deps/esp32c3-6c8eecfb34724107.3dax6gsnt3idpsze.rcgu.o:(.text.rust_begin_unwind)
42000560      560        0     1                 
42000560      560        0     1                 
42000560      560        0     1                 
42000560      560       72     1                 rust_begin_unwind
42000562      562        0     1                 
42000564      564        0     1                 
42000568      568        0     1                 
4200056c      56c        0     1                 
4200056c      56c        0     1                 
4200058c      58c        0     1                 
4200058c      58c        0     1                 
420005b4      5b4        0     1                 
420005b8      5b8        0     1                 
420005d0      5d0        0     1                 
420005d2      5d2        0     1                 
420005d2      5d2        0     1                 
420005d2      5d2        0     1                 
420005d2      5d2       74     2         /home/mabez/development/rust/embedded/experiments/esp32c3/target/riscv32imac-unknown-none-elf/debug/deps/esp32c3-6c8eecfb34724107.3dax6gsnt3idpsze.rcgu.o:(.text.ExceptionHandler)
420005d2      5d2        0     1                 
420005d2      5d2        0     1                 
420005d2      5d2        0     1                 
420005d2      5d2       74     1                 ExceptionHandler
420005d4      5d4        0     1                 
420005d6      5d6        0     1                 
420005d8      5d8        0     1                 
420005e4      5e4        0     1                 
420005e6      5e6        0     1                 
420005ea      5ea        0     1                 
420005ea      5ea        0     1                 
4200060a      60a        0     1                 
4200060a      60a        0     1                 
42000646      646        0     1                 
42000646      646        0     1                 
42000646      646        0     1                 
42000646      646      62c     2         /home/mabez/development/rust/embedded/experiments/esp32c3/target/riscv32imac-unknown-none-elf/debug/deps/esp32c3-6c8eecfb34724107.3dax6gsnt3idpsze.rcgu.o:(.text.main)
42000646      646        0     1                 
42000646      646        0     1                 
42000646      646        0     1                 
42000646      646      62c     1                 main
4200064a      64a        0     1                 
4200064a      64a        0     1                 
4200064a      64a        0     1                 
4200064e      64e        0     1                 
42000656      656        0     1                 
42000656      656        0     1                 
42000660      660        0     1                 
4200066c      66c        0     1                 
42000684      684        0     1                 
42000690      690        0     1                 
420006a0      6a0        0     1                 
420006a0      6a0        0     1                 
420006a4      6a4        0     1                 
420006ba      6ba        0     1                 
420006ba      6ba        0     1                 
420006c2      6c2        0     1                 
420006c2      6c2        0     1                 
420006e6      6e6        0     1                 
420006e6      6e6        0     1                 
4200072a      72a        0     1                 
42000734      734        0     1                 
42000746      746        0     1                 
42000746      746        0     1                 
42000750      750        0     1                 
42000752      752        0     1                 
4200075e      75e        0     1                 
4200075e      75e        0     1                 
4200077e      77e        0     1                 
42000782      782        0     1                 
420007a2      7a2        0     1                 
420007b0      7b0        0     1                 
420007b0      7b0        0     1                 
420007ce      7ce        0     1                 
420007ce      7ce        0     1                 
420007e8      7e8        0     1                 
420007ec      7ec        0     1                 
4200080c      80c        0     1                 
42000814      814        0     1                 
42000820      820        0     1                 
42000822      822        0     1                 
42000822      822        0     1                 
42000832      832        0     1                 
42000834      834        0     1                 
42000834      834        0     1                 
4200083a      83a        0     1                 
42000842      842        0     1                 
4200086a      86a        0     1                 
4200086c      86c        0     1                 
4200086c      86c        0     1                 
42000874      874        0     1                 
42000874      874        0     1                 
42000896      896        0     1                 
42000896      896        0     1                 
420008b0      8b0        0     1                 
420008b4      8b4        0     1                 
420008d4      8d4        0     1                 
420008d6      8d6        0     1                 
420008de      8de        0     1                 
420008ec      8ec        0     1                 
420008ee      8ee        0     1                 
420008ee      8ee        0     1                 
420008f6      8f6        0     1                 
420008f6      8f6        0     1                 
42000918      918        0     1                 
42000918      918        0     1                 
42000932      932        0     1                 
42000936      936        0     1                 
42000956      956        0     1                 
42000958      958        0     1                 
42000960      960        0     1                 
4200096e      96e        0     1                 
42000970      970        0     1                 
42000970      970        0     1                 
42000978      978        0     1                 
42000978      978        0     1                 
4200099a      99a        0     1                 
4200099a      99a        0     1                 
420009b4      9b4        0     1                 
420009b8      9b8        0     1                 
420009d8      9d8        0     1                 
420009da      9da        0     1                 
420009e0      9e0        0     1                 
420009ee      9ee        0     1                 
420009f0      9f0        0     1                 
420009f0      9f0        0     1                 
420009f8      9f8        0     1                 
420009f8      9f8        0     1                 
42000a1a      a1a        0     1                 
42000a1a      a1a        0     1                 
42000a34      a34        0     1                 
42000a38      a38        0     1                 
42000a58      a58        0     1                 
42000a6e      a6e        0     1                 
42000a70      a70        0     1                 
42000a74      a74        0     1                 
42000a74      a74        0     1                 
42000a76      a76        0     1                 
42000a96      a96        0     1                 
42000a9a      a9a        0     1                 
42000aba      aba        0     1                 
42000ad0      ad0        0     1                 
42000ad2      ad2        0     1                 
42000af2      af2        0     1                 
42000af4      af4        0     1                 
42000b0a      b0a        0     1                 
42000b12      b12        0     1                 
42000b14      b14        0     1                 
42000b26      b26        0     1                 
42000b2a      b2a        0     1                 
42000b30      b30        0     1                 
42000b50      b50        0     1                 
42000b54      b54        0     1                 
42000b74      b74        0     1                 
42000b8a      b8a        0     1                 
42000b8c      b8c        0     1                 
42000bac      bac        0     1                 
42000bae      bae        0     1                 
42000bc4      bc4        0     1                 
42000bcc      bcc        0     1                 
42000bce      bce        0     1                 
42000be0      be0        0     1                 
42000be4      be4        0     1                 
42000bea      bea        0     1                 
42000bec      bec        0     1                 
42000bf4      bf4        0     1                 
42000bf4      bf4        0     1                 
42000c16      c16        0     1                 
42000c16      c16        0     1                 
42000c30      c30        0     1                 
42000c34      c34        0     1                 
42000c3e      c3e        0     1                 
42000c54      c54        0     1                 
42000c56      c56        0     1                 
42000c72      c72        0     1                 
42000c72      c72        0     1                 
42000c72      c72        0     1                 
42000c72      c72        0     1                 
42000c72      c72       1e     2         /home/mabez/development/rust/embedded/experiments/esp32c3/target/riscv32imac-unknown-none-elf/debug/deps/esp32c3-6c8eecfb34724107.3e2vhcvnvpvomz83.rcgu.o:(.text._ZN42_$LT$$RF$T$u20$as$u20$core..fmt..Debug$GT$3fmt17h86aac747faead6e5E)
42000c72      c72        0     1                 
42000c72      c72        0     1                 
42000c72      c72        0     1                 
42000c72      c72       1e     1                 _$LT$$RF$T$u20$as$u20$core..fmt..Debug$GT$::fmt::h86aac747faead6e5
42000c74      c74        0     1                 
42000c76      c76        0     1                 
42000c7a      c7a        0     1                 
42000c7c      c7c        0     1                 
42000c88      c88        0     1                 
42000c90      c90        0     1                 
42000c90      c90        0     1                 
42000c90      c90        0     1                 
42000c90      c90       22     2         /home/mabez/development/rust/embedded/experiments/esp32c3/target/riscv32imac-unknown-none-elf/debug/deps/esp32c3-6c8eecfb34724107.3hh2vqqri9noju8i.rcgu.o:(.text._ZN4core3fmt10ArgumentV13new17h17b3bcb6b672e194E)
42000c90      c90        0     1                 
42000c90      c90        0     1                 
42000c90      c90        0     1                 
42000c90      c90       22     1                 core::fmt::ArgumentV1::new::h17b3bcb6b672e194
42000c92      c92        0     1                 
42000c98      c98        0     1                 
42000c9e      c9e        0     1                 
42000ca6      ca6        0     1                 
42000cae      cae        0     1                 
42000cb2      cb2        0     1                 
42000cb2      cb2        0     1                 
42000cb2      cb2        0     1                 
42000cb2      cb2       22     2         /home/mabez/development/rust/embedded/experiments/esp32c3/target/riscv32imac-unknown-none-elf/debug/deps/esp32c3-6c8eecfb34724107.3hh2vqqri9noju8i.rcgu.o:(.text._ZN4core3fmt10ArgumentV13new17h26085050ec4ed2ceE)
42000cb2      cb2        0     1                 
42000cb2      cb2        0     1                 
42000cb2      cb2        0     1                 
42000cb2      cb2       22     1                 core::fmt::ArgumentV1::new::h26085050ec4ed2ce
42000cb4      cb4        0     1                 
42000cba      cba        0     1                 
42000cc0      cc0        0     1                 
42000cc8      cc8        0     1                 
42000cd0      cd0        0     1                 
42000cd4      cd4        0     1                 
42000cd4      cd4        0     1                 
42000cd4      cd4        0     1                 
42000cd4      cd4       22     2         /home/mabez/development/rust/embedded/experiments/esp32c3/target/riscv32imac-unknown-none-elf/debug/deps/esp32c3-6c8eecfb34724107.3hh2vqqri9noju8i.rcgu.o:(.text._ZN4core3fmt10ArgumentV13new17ha76018350b95861aE)
42000cd4      cd4        0     1                 
42000cd4      cd4        0     1                 
42000cd4      cd4        0     1                 
42000cd4      cd4       22     1                 core::fmt::ArgumentV1::new::ha76018350b95861a
42000cd6      cd6        0     1                 
42000cdc      cdc        0     1                 
42000ce2      ce2        0     1                 
42000cea      cea        0     1                 
42000cf2      cf2        0     1                 
42000cf6      cf6        0     1                 
42000cf6      cf6        0     1                 
42000cf6      cf6        0     1                 
42000cf6      cf6       24     2         /home/mabez/development/rust/embedded/experiments/esp32c3/target/riscv32imac-unknown-none-elf/debug/deps/esp32c3-6c8eecfb34724107.3hh2vqqri9noju8i.rcgu.o:(.text._ZN44_$LT$$RF$T$u20$as$u20$core..fmt..Display$GT$3fmt17h34b4f7635c89f20dE)
42000cf6      cf6        0     1                 
42000cf6      cf6        0     1                 
42000cf6      cf6        0     1                 
42000cf6      cf6       24     1                 _$LT$$RF$T$u20$as$u20$core..fmt..Display$GT$::fmt::h34b4f7635c89f20d
42000cf8      cf8        0     1                 
42000cfa      cfa        0     1                 
42000d02      d02        0     1                 
42000d06      d06        0     1                 
42000d12      d12        0     1                 
42000d1a      d1a        0     1                 
42000d1a      d1a        0     1                 
42000d1a      d1a        0     1                 
42000d1a      d1a       9a     2         /home/mabez/development/rust/embedded/experiments/esp32c3/target/riscv32imac-unknown-none-elf/debug/deps/esp32c3-6c8eecfb34724107.46dv6jlxri7vu0zk.rcgu.o:(.text._ZN4core3fmt9Arguments6new_v117hd6f20670f698819eE)
42000d1a      d1a        0     1                 
42000d1a      d1a        0     1                 
42000d1a      d1a        0     1                 
42000d1a      d1a       9a     1                 core::fmt::Arguments::new_v1::hd6f20670f698819e
42000d1c      d1c        0     1                 
42000d1e      d1e        0     1                 
42000d30      d30        0     1                 
42000d36      d36        0     1                 
42000d3c      d3c        0     1                 
42000d40      d40        0     1                 
42000d46      d46        0     1                 
42000d48      d48        0     1                 
42000d5c      d5c        0     1                 
42000d68      d68        0     1                 
42000d6a      d6a        0     1                 
42000d7a      d7a        0     1                 
42000d80      d80        0     1                 
42000db4      db4        0     1                 
42000db4      db4        0     1                 
42000db4      db4        0     1                 
42000db4      db4       26     2         /home/mabez/development/rust/embedded/experiments/esp32c3/target/riscv32imac-unknown-none-elf/debug/deps/esp32c3-6c8eecfb34724107.46dv6jlxri7vu0zk.rcgu.o:(.text._ZN4core3fmt9Arguments16new_v1_formatted17h691945fee8f26704E)
42000db4      db4        0     1                 
42000db4      db4        0     1                 
42000db4      db4        0     1                 
42000db4      db4       26     1                 core::fmt::Arguments::new_v1_formatted::h691945fee8f26704
42000db6      db6        0     1                 
42000dc2      dc2        0     1                 
42000dc6      dc6        0     1                 
42000dd6      dd6        0     1                 
42000dda      dda        0     1                 
42000dda      dda        0     1                 
42000dda      dda        0     1                 
42000dda      dda       2c     2         /home/mabez/development/rust/embedded/experiments/esp32c3/target/riscv32imac-unknown-none-elf/debug/deps/esp32c3-6c8eecfb34724107.46dv6jlxri7vu0zk.rcgu.o:(.text._ZN45_$LT$$LP$$RP$$u20$as$u20$core..fmt..Debug$GT$3fmt17h1c5406fee3dc7a29E)
42000dda      dda        0     1                 
42000dda      dda        0     1                 
42000dda      dda        0     1                 
42000dda      dda       2c     1                 _$LT$$LP$$RP$$u20$as$u20$core..fmt..Debug$GT$::fmt::h1c5406fee3dc7a29
42000ddc      ddc        0     1                 
42000dde      dde        0     1                 
42000de8      de8        0     1                 
42000dfe      dfe        0     1                 
42000e06      e06        0     1                 
42000e06      e06        0     1                 
42000e06      e06        0     1                 
42000e06      e06        a     2         /home/mabez/development/rust/embedded/experiments/esp32c3/target/riscv32imac-unknown-none-elf/debug/deps/esp32c3-6c8eecfb34724107.59383vjg8ah1nwp0.rcgu.o:(.text._ZN4core3str8converts23from_utf8_unchecked_mut17ha2bf642a2a5c40e8E)
42000e06      e06        0     1                 
42000e06      e06        0     1                 
42000e06      e06        0     1                 
42000e06      e06        a     1                 core::str::converts::from_utf8_unchecked_mut::ha2bf642a2a5c40e8
42000e08      e08        0     1                 
42000e0c      e0c        0     1                 
42000e10      e10        0     1                 
42000e10      e10        0     1                 
42000e10      e10        0     1                 
42000e10      e10       18     2         /home/mabez/development/rust/embedded/experiments/esp32c3/target/riscv32imac-unknown-none-elf/debug/deps/esp32c3-6c8eecfb34724107.h4h1jg4d5ugkhbg.rcgu.o:(.text._ZN5riscv8register4mepc4read17h3bffc8480716a79aE)
42000e10      e10        0     1                 
42000e10      e10        0     1                 
42000e10      e10        0     1                 
42000e10      e10       18     1                 riscv::register::mepc::read::h3bffc8480716a79a
42000e12      e12        0     1                 
42000e12      e12        0     1                 
42000e14      e14        0     1                 
42000e20      e20        0     1                 
42000e28      e28        0     1                 
42000e28      e28        0     1                 
42000e28      e28        0     1                 
42000e28      e28       18     2         /home/mabez/development/rust/embedded/experiments/esp32c3/target/riscv32imac-unknown-none-elf/debug/deps/esp32c3-6c8eecfb34724107.h4h1jg4d5ugkhbg.rcgu.o:(.text._ZN5riscv8register4mepc5_read17hdd8864a24005cc7dE)
42000e28      e28       18     1                 riscv::register::mepc::_read::hdd8864a24005cc7d
42000e28      e28        0     1                 
42000e28      e28        0     1                 
42000e28      e28        0     1                 
42000e2a      e2a        0     1                 
42000e2a      e2a        0     1                 
42000e2c      e2c        0     1                 
42000e38      e38        0     1                 
42000e40      e40        0     1                 
42000e40      e40        0     1                 
42000e40      e40        0     1                 
42000e40      e40       74     2         /home/mabez/development/rust/embedded/experiments/esp32c3/target/riscv32imac-unknown-none-elf/debug/deps/esp32c3-6c8eecfb34724107.p5cpnu5dso05alz.rcgu.o:(.text._ZN4core4sync6atomic10atomic_add17h14bc10f1a0834057E)
42000e40      e40        0     1                 
42000e40      e40        0     1                 
42000e40      e40        0     1                 
42000e40      e40       74     1                 core::sync::atomic::atomic_add::h14bc10f1a0834057
42000e42      e42        0     1                 
42000e4e      e4e        0     1                 
42000e54      e54        0     1                 
42000e66      e66        0     1                 
42000e68      e68        0     1                 .LBB0_3
42000e68      e68        0     1                 
42000e74      e74        0     1                 .LBB0_4
42000e74      e74        0     1                 
42000e80      e80        0     1                 .LBB0_5
42000e80      e80        0     1                 
42000e8c      e8c        0     1                 .LBB0_6
42000e8c      e8c        0     1                 
42000e98      e98        0     1                 .LBB0_7
42000e98      e98        0     1                 
42000ea4      ea4        0     1                 
42000ea6      ea6        0     1                 
42000eac      eac        0     1                 
42000eae      eae        0     1                 
42000eb0      eb0        0     1                 
42000eb2      eb2        0     1                 
42000eb4      eb4        0     1                 
42000eb4      eb4        0     1                 
42000eb4      eb4        0     1                 
42000eb4      eb4      2d8     2         /home/mabez/development/rust/embedded/experiments/esp32c3/target/riscv32imac-unknown-none-elf/debug/deps/esp32c3-6c8eecfb34724107.p5cpnu5dso05alz.rcgu.o:(.text._ZN4core4sync6atomic23atomic_compare_exchange17haf4746b7cb18a7d1E)
42000eb4      eb4        0     1                 
42000eb4      eb4        0     1                 
42000eb4      eb4        0     1                 
42000eb4      eb4      2d8     1                 core::sync::atomic::atomic_compare_exchange::haf4746b7cb18a7d1
42000eb6      eb6        0     1                 
42000eb8      eb8        0     1                 
42000ecc      ecc        0     1                 
42000edc      edc        0     1                 
42000ee0      ee0        0     1                 
42000ef2      ef2        0     1                 
42000efa      efa        0     1                 
42000f00      f00        0     1                 
42000f04      f04        0     1                 
42000f0a      f0a        0     1                 .LBB1_4
42000f0a      f0a        0     1                 
42000f10      f10        0     1                 
42000f16      f16        0     1                 .LBB1_5
42000f16      f16        0     1                 
42000f1c      f1c        0     1                 
42000f22      f22        0     1                 .LBB1_6
42000f22      f22        0     1                 
42000f2a      f2a        0     1                 
42000f30      f30        0     1                 
42000f34      f34        0     1                 
42000f3a      f3a        0     1                 .LBB1_8
42000f3a      f3a        0     1                 
42000f42      f42        0     1                 
42000f48      f48        0     1                 
42000f4c      f4c        0     1                 
42000f52      f52        0     1                 .LBB1_10
42000f52      f52        0     1                 
42000f5a      f5a        0     1                 
42000f60      f60        0     1                 
42000f64      f64        0     1                 
42000f6a      f6a        0     1                 
42000f6e      f6e        0     1                 
42000f74      f74        0     1                 
42000f96      f96        0     1                 
42000fb8      fb8        0     1                 
42000fda      fda        0     1                 
42000fdc      fdc        0     1                 
42000fe2      fe2        0     1                 
42000ff0      ff0        0     1                 
42000ff0      ff0        0     1                 
42000ff6      ff6        0     1                 
42000ff6      ff6        0     1                 
42000ff8      ff8        0     1                 
42000ffa      ffa        0     1                 
4200101c     101c        0     1                 
4200103e     103e        0     1                 
42001040     1040        0     1                 
42001042     1042        0     1                 
42001064     1064        0     1                 
42001086     1086        0     1                 
42001088     1088        0     1                 
4200108a     108a        0     1                 
420010ac     10ac        0     1                 
420010ae     10ae        0     1                 
420010d0     10d0        0     1                 
420010f0     10f0        0     1                 
42001110     1110        0     1                 
42001130     1130        0     1                 
42001144     1144        0     1                 
42001158     1158        0     1                 
4200116c     116c        0     1                 
4200116e     116e        0     1                 
4200116e     116e        0     1                 
42001176     1176        0     1                 
42001178     1178        0     1                 
42001180     1180        0     1                 
42001182     1182        0     1                 
42001182     1182        0     1                 
4200118c     118c        0     1                 
4200118c     118c        0     1                 
4200118c     118c        0     1                 
4200118c     118c       40     2         /home/mabez/development/rust/embedded/experiments/esp32c3/target/riscv32imac-unknown-none-elf/debug/deps/esp32c3-6c8eecfb34724107.v0f7at9a6qkyll5.rcgu.o:(.text._ZN4core3fmt5Write10write_char17he283c9a1641c83e7E)
4200118c     118c       40     1                 core::fmt::Write::write_char::he283c9a1641c83e7
4200118c     118c        0     1                 
4200118c     118c        0     1                 
4200118c     118c        0     1                 
4200118e     118e        0     1                 
42001190     1190        0     1                 
4200119e     119e        0     1                 
420011a4     11a4        0     1                 
420011b2     11b2        0     1                 
420011c4     11c4        0     1                 
420011cc     11cc        0     1                 
420011cc     11cc        0     1                 
420011cc     11cc        0     1                 
420011cc     11cc       3e     2         /home/mabez/development/rust/embedded/experiments/esp32c3/target/riscv32imac-unknown-none-elf/debug/deps/esp32c3-6c8eecfb34724107.v0f7at9a6qkyll5.rcgu.o:(.text._ZN4core3fmt5Write9write_fmt17he3c55e3ab61afeeeE)
420011cc     11cc        0     1                 
420011cc     11cc        0     1                 
420011cc     11cc        0     1                 
420011cc     11cc       3e     1                 core::fmt::Write::write_fmt::he3c55e3ab61afeee
420011ce     11ce        0     1                 
420011d0     11d0        0     1                 
420011d2     11d2        0     1                 
420011ea     11ea        0     1                 
420011f2     11f2        0     1                 
420011f2     11f2        0     1                 
420011f6     11f6        0     1                 
42001202     1202        0     1                 
4200120a     120a        0     1                 
4200120a     120a        0     1                 
4200120a     120a        0     1                 
4200120a     120a       20     2         /home/mabez/development/rust/embedded/experiments/esp32c3/target/riscv32imac-unknown-none-elf/debug/deps/esp32c3-6c8eecfb34724107.v0f7at9a6qkyll5.rcgu.o:(.text._ZN50_$LT$$RF$mut$u20$W$u20$as$u20$core..fmt..Write$GT$9write_str17h04d19d02b9013575E)
4200120a     120a       20     1                 _$LT$$RF$mut$u20$W$u20$as$u20$core..fmt..Write$GT$::write_str::h04d19d02b9013575
4200120a     120a        0     1                 
4200120a     120a        0     1                 
4200120a     120a        0     1                 
4200120c     120c        0     1                 
4200120e     120e        0     1                 
42001214     1214        0     1                 
42001222     1222        0     1                 
4200122a     122a        0     1                 
4200122a     122a        0     1                 
4200122a     122a        0     1                 
4200122a     122a       1e     2         /home/mabez/development/rust/embedded/experiments/esp32c3/target/riscv32imac-unknown-none-elf/debug/deps/esp32c3-6c8eecfb34724107.v0f7at9a6qkyll5.rcgu.o:(.text._ZN50_$LT$$RF$mut$u20$W$u20$as$u20$core..fmt..Write$GT$10write_char17hd4129e65d694accfE)
4200122a     122a       1e     1                 _$LT$$RF$mut$u20$W$u20$as$u20$core..fmt..Write$GT$::write_char::hd4129e65d694accf
4200122a     122a        0     1                 
4200122a     122a        0     1                 
4200122a     122a        0     1                 
4200122c     122c        0     1                 
4200122e     122e        0     1                 
42001232     1232        0     1                 
42001240     1240        0     1                 
42001248     1248        0     1                 
42001248     1248        0     1                 
42001248     1248        0     1                 
42001248     1248       36     2         /home/mabez/development/rust/embedded/experiments/esp32c3/target/riscv32imac-unknown-none-elf/debug/deps/esp32c3-6c8eecfb34724107.v0f7at9a6qkyll5.rcgu.o:(.text._ZN50_$LT$$RF$mut$u20$W$u20$as$u20$core..fmt..Write$GT$9write_fmt17h0bd0546aae8b0406E)
42001248     1248       36     1                 _$LT$$RF$mut$u20$W$u20$as$u20$core..fmt..Write$GT$::write_fmt::h0bd0546aae8b0406
42001248     1248        0     1                 
42001248     1248        0     1                 
42001248     1248        0     1                 
4200124a     124a        0     1                 
4200124c     124c        0     1                 
4200124e     124e        0     1                 
42001250     1250        0     1                 
42001266     1266        0     1                 
4200126a     126a        0     1                 
42001276     1276        0     1                 
4200127e     127e        0     1                 
4200127e     127e        0     1                 
4200127e     127e        0     1                 
4200127e     127e       34     2         /home/mabez/development/rust/embedded/experiments/esp32c3/target/riscv32imac-unknown-none-elf/debug/deps/esp32c3-6c8eecfb34724107.zvsvxmou5gfsy4h.rcgu.o:(.text._ZN4core4char7methods22_$LT$impl$u20$char$GT$11encode_utf817hfd86a9ea3aada46dE)
4200127e     127e        0     1                 
4200127e     127e        0     1                 
4200127e     127e        0     1                 
4200127e     127e       34     1                 core::char::methods::_$LT$impl$u20$char$GT$::encode_utf8::hfd86a9ea3aada46d
42001280     1280        0     1                 
42001282     1282        0     1                 
42001288     1288        0     1                 
42001296     1296        0     1                 
420012a8     12a8        0     1                 
420012b2     12b2        0     1                 
420012b2     12b2        0     1                 
420012b2     12b2        0     1                 
420012b2     12b2       4a     2         /home/mabez/development/rust/embedded/experiments/esp32c3/target/riscv32imac-unknown-none-elf/debug/deps/esp32c3-6c8eecfb34724107.zvsvxmou5gfsy4h.rcgu.o:(.text._ZN4core4char7methods8len_utf817hc3bee023ad72c415E)
420012b2     12b2       4a     1                 core::char::methods::len_utf8::hc3bee023ad72c415
420012b2     12b2        0     1                 
420012b2     12b2        0     1                 
420012b2     12b2        0     1                 
420012b4     12b4        0     1                 
420012bc     12bc        0     1                 
420012c2     12c2        0     1                 
420012ce     12ce        0     1                 
420012d0     12d0        0     1                 
420012d2     12d2        0     1                 
420012d4     12d4        0     1                 
420012da     12da        0     1                 
420012e6     12e6        0     1                 
420012e8     12e8        0     1                 
420012ea     12ea        0     1                 
420012ec     12ec        0     1                 
420012ee     12ee        0     1                 
420012f0     12f0        0     1                 
420012f2     12f2        0     1                 
420012f4     12f4        0     1                 
420012f6     12f6        0     1                 
420012f8     12f8        0     1                 
420012fa     12fa        0     1                 
420012fc     12fc        0     1                 
420012fc     12fc        0     1                 
420012fc     12fc        0     1                 
420012fc     12fc      22e     2         /home/mabez/development/rust/embedded/experiments/esp32c3/target/riscv32imac-unknown-none-elf/debug/deps/esp32c3-6c8eecfb34724107.zvsvxmou5gfsy4h.rcgu.o:(.text._ZN4core4char7methods15encode_utf8_raw17h7617e2f967d5f132E)
420012fc     12fc      22e     1                 core::char::methods::encode_utf8_raw::h7617e2f967d5f132
420012fc     12fc        0     1                 
420012fc     12fc        0     1                 
420012fc     12fc        0     1                 
420012fe     12fe        0     1                 
42001300     1300        0     1                 
4200130a     130a        0     1                 
42001316     1316        0     1                 
42001316     1316        0     1                 
4200131c     131c        0     1                 
42001334     1334        0     1                 
42001340     1340        0     1                 
4200134c     134c        0     1                 
42001350     1350        0     1                 
42001356     1356        0     1                 
4200135a     135a        0     1                 
42001360     1360        0     1                 
42001364     1364        0     1                 
4200136a     136a        0     1                 
42001370     1370        0     1                 
42001380     1380        0     1                 
42001380     1380        0     1                 
42001396     1396        0     1                 
42001396     1396        0     1                 
420013a0     13a0        0     1                 
420013aa     13aa        0     1                 
420013b4     13b4        0     1                 
420013be     13be        0     1                 
420013c4     13c4        0     1                 
420013ca     13ca        0     1                 
420013d0     13d0        0     1                 
420013d6     13d6        0     1                 
420013d6     13d6        0     1                 
420013da     13da        0     1                 
420013dc     13dc        0     1                 
420013e4     13e4        0     1                 
420013e8     13e8        0     1                 
420013ec     13ec        0     1                 
420013f4     13f4        0     1                 
420013f8     13f8        0     1                 
420013fc     13fc        0     1                 
42001404     1404        0     1                 
42001408     1408        0     1                 
4200140c     140c        0     1                 
42001414     1414        0     1                 
42001414     1414        0     1                 
42001416     1416        0     1                 
4200141c     141c        0     1                 
4200141e     141e        0     1                 
42001434     1434        0     1                 
42001438     1438        0     1                 
4200143e     143e        0     1                 
42001444     1444        0     1                 
42001444     1444        0     1                 
42001448     1448        0     1                 
4200144a     144a        0     1                 
42001452     1452        0     1                 
42001456     1456        0     1                 
4200145a     145a        0     1                 
42001462     1462        0     1                 
42001466     1466        0     1                 
4200146a     146a        0     1                 
42001472     1472        0     1                 
42001472     1472        0     1                 
42001474     1474        0     1                 
42001478     1478        0     1                 
4200147e     147e        0     1                 
4200147e     147e        0     1                 
42001482     1482        0     1                 
42001484     1484        0     1                 
4200148c     148c        0     1                 
42001490     1490        0     1                 
42001494     1494        0     1                 
4200149c     149c        0     1                 
4200149c     149c        0     1                 
4200149e     149e        0     1                 
420014a2     14a2        0     1                 
420014a2     14a2        0     1                 
420014a4     14a4        0     1                 
420014a8     14a8        0     1                 
420014a8     14a8        0     1                 
420014aa     14aa        0     1                 
420014aa     14aa        0     1                 
420014b4     14b4        0     1                 
420014b4     14b4        0     1                 
420014fc     14fc        0     1                 
420014fc     14fc        0     1                 
4200152a     152a        0     1                 
4200152a     152a        0     1                 
4200152a     152a        0     1                 
4200152a     152a        0     1                 
4200152a     152a       9c     2         /home/mabez/development/rust/embedded/experiments/esp32c3/target/riscv32imac-unknown-none-elf/debug/deps/librtt_target-ba817fabe6541e78.rlib(rtt_target-ba817fabe6541e78.rtt_target.a5746e51-cgu.0.rcgu.o):(.text._ZN10rtt_target3rtt9RttHeader4init17h94ef0dd3435fdf2aE)
4200152a     152a        0     1                 
4200152a     152a        0     1                 
4200152a     152a        0     1                 
4200152a     152a       9c     1                 rtt_target::rtt::RttHeader::init::h94ef0dd3435fdf2a
4200152c     152c        0     1                 
4200152e     152e        0     1                 
42001538     1538        0     1                 
4200153a     153a        0     1                 
42001544     1544        0     1                 
4200154a     154a        0     1                 
42001554     1554        0     1                 
42001564     1564        0     1                 
4200157a     157a        0     1                 
4200157c     157c        0     1                 
42001580     1580        0     1                 
4200158a     158a        0     1                 
4200159a     159a        0     1                 
420015a2     15a2        0     1                 
420015a2     15a2        0     1                 
420015a8     15a8        0     1                 
420015a8     15a8        0     1                 
420015aa     15aa        0     1                 
420015c0     15c0        0     1                 
420015c6     15c6        0     1                 
420015c6     15c6        0     1                 
420015c6     15c6        0     1                 
420015c6     15c6       54     2         /home/mabez/development/rust/embedded/experiments/esp32c3/target/riscv32imac-unknown-none-elf/debug/deps/librtt_target-ba817fabe6541e78.rlib(rtt_target-ba817fabe6541e78.rtt_target.a5746e51-cgu.0.rcgu.o):(.text._ZN10rtt_target3rtt10RttChannel4init17h6f2e4d0576ce0963E)
420015c6     15c6        0     1                 
420015c6     15c6        0     1                 
420015c6     15c6        0     1                 
420015c6     15c6       54     1                 rtt_target::rtt::RttChannel::init::h6f2e4d0576ce0963
420015c8     15c8        0     1                 
420015ca     15ca        0     1                 
420015dc     15dc        0     1                 
420015e6     15e6        0     1                 
420015ec     15ec        0     1                 
420015f6     15f6        0     1                 
42001604     1604        0     1                 
4200160a     160a        0     1                 
42001614     1614        0     1                 
4200161a     161a        0     1                 
4200161a     161a        0     1                 
4200161a     161a        0     1                 
4200161a     161a       3e     2         /home/mabez/development/rust/embedded/experiments/esp32c3/target/riscv32imac-unknown-none-elf/debug/deps/librtt_target-ba817fabe6541e78.rlib(rtt_target-ba817fabe6541e78.rtt_target.a5746e51-cgu.0.rcgu.o):(.text._ZN10rtt_target3rtt10RttChannel4mode17ha60e08364829c966E)
4200161a     161a        0     1                 
4200161a     161a        0     1                 
4200161a     161a        0     1                 
4200161a     161a       3e     1                 rtt_target::rtt::RttChannel::mode::ha60e08364829c966
4200161c     161c        0     1                 
4200161e     161e        0     1                 
42001620     1620        0     1                 
42001624     1624        0     1                 
42001628     1628        0     1                 
4200163e     163e        0     1                 
4200163e     163e        0     1                 
42001644     1644        0     1                 
42001646     1646        0     1                 
42001648     1648        0     1                 
4200164a     164a        0     1                 
42001650     1650        0     1                 
42001650     1650        0     1                 
42001658     1658        0     1                 
42001658     1658        0     1                 
42001658     1658        0     1                 
42001658     1658       40     2         /home/mabez/development/rust/embedded/experiments/esp32c3/target/riscv32imac-unknown-none-elf/debug/deps/librtt_target-ba817fabe6541e78.rlib(rtt_target-ba817fabe6541e78.rtt_target.a5746e51-cgu.0.rcgu.o):(.text._ZN10rtt_target3rtt10RttChannel8set_mode17h1e7051abfc07f9b3E)
42001658     1658        0     1                 
42001658     1658        0     1                 
42001658     1658        0     1                 
42001658     1658       40     1                 rtt_target::rtt::RttChannel::set_mode::h1e7051abfc07f9b3
4200165a     165a        0     1                 
4200165c     165c        0     1                 
42001662     1662        0     1                 
42001668     1668        0     1                 
4200166c     166c        0     1                 
42001678     1678        0     1                 
42001684     1684        0     1                 
42001688     1688        0     1                 
42001692     1692        0     1                 
42001698     1698        0     1                 
42001698     1698        0     1                 
42001698     1698        0     1                 
42001698     1698       32     2         /home/mabez/development/rust/embedded/experiments/esp32c3/target/riscv32imac-unknown-none-elf/debug/deps/librtt_target-ba817fabe6541e78.rlib(rtt_target-ba817fabe6541e78.rtt_target.a5746e51-cgu.0.rcgu.o):(.text._ZN10rtt_target3rtt10RttChannel6writer17h546936b115bfa675E)
42001698     1698        0     1                 
42001698     1698        0     1                 
42001698     1698        0     1                 
42001698     1698       32     1                 rtt_target::rtt::RttChannel::writer::h546936b115bfa675
4200169a     169a        0     1                 
4200169c     169c        0     1                 
420016a6     16a6        0     1                 
420016b2     16b2        0     1                 
420016c4     16c4        0     1                 
420016ca     16ca        0     1                 
420016ca     16ca        0     1                 
420016ca     16ca        0     1                 
420016ca     16ca       b8     2         /home/mabez/development/rust/embedded/experiments/esp32c3/target/riscv32imac-unknown-none-elf/debug/deps/librtt_target-ba817fabe6541e78.rlib(rtt_target-ba817fabe6541e78.rtt_target.a5746e51-cgu.0.rcgu.o):(.text._ZN10rtt_target3rtt10RttChannel13read_pointers17h12dcd1f9ff509f36E)
420016ca     16ca       b8     1                 rtt_target::rtt::RttChannel::read_pointers::h12dcd1f9ff509f36
420016ca     16ca        0     1                 
420016ca     16ca        0     1                 
420016ca     16ca        0     1                 
420016cc     16cc        0     1                 
420016ce     16ce        0     1                 
420016d2     16d2        0     1                 
420016d6     16d6        0     1                 
420016da     16da        0     1                 
420016ea     16ea        0     1                 
420016ea     16ea        0     1                 
420016f0     16f0        0     1                 
420016f4     16f4        0     1                 
42001704     1704        0     1                 
42001704     1704        0     1                 
4200170a     170a        0     1                 
42001710     1710        0     1                 
42001716     1716        0     1                 
4200171e     171e        0     1                 
42001724     1724        0     1                 
42001726     1726        0     1                 
4200173a     173a        0     1                 
42001742     1742        0     1                 
42001742     1742        0     1                 
42001744     1744        0     1                 
42001744     1744        0     1                 
4200174a     174a        0     1                 
42001750     1750        0     1                 
4200175a     175a        0     1                 
42001760     1760        0     1                 
42001766     1766        0     1                 
42001770     1770        0     1                 
42001772     1772        0     1                 
42001776     1776        0     1                 
42001776     1776        0     1                 
42001782     1782        0     1                 
42001782     1782        0     1                 
42001782     1782        0     1                 
42001782     1782       36     2         /home/mabez/development/rust/embedded/experiments/esp32c3/target/riscv32imac-unknown-none-elf/debug/deps/librtt_target-ba817fabe6541e78.rlib(rtt_target-ba817fabe6541e78.rtt_target.a5746e51-cgu.0.rcgu.o):(.text._ZN10rtt_target3rtt9RttWriter5write17hcdfd7e05ac5fb90dE)
42001782     1782        0     1                 
42001782     1782        0     1                 
42001782     1782        0     1                 
42001782     1782       36     1                 rtt_target::rtt::RttWriter::write::hcdfd7e05ac5fb90d
42001784     1784        0     1                 
42001786     1786        0     1                 
42001792     1792        0     1                 
420017a0     17a0        0     1                 
420017b2     17b2        0     1                 
420017b8     17b8        0     1                 
420017b8     17b8        0     1                 
420017b8     17b8        0     1                 
420017b8     17b8      1b6     2         /home/mabez/development/rust/embedded/experiments/esp32c3/target/riscv32imac-unknown-none-elf/debug/deps/librtt_target-ba817fabe6541e78.rlib(rtt_target-ba817fabe6541e78.rtt_target.a5746e51-cgu.0.rcgu.o):(.text._ZN10rtt_target3rtt9RttWriter15write_with_mode17h47b06e47d627ea44E)
420017b8     17b8        0     1                 
420017b8     17b8        0     1                 
420017b8     17b8        0     1                 
420017b8     17b8      1b6     1                 rtt_target::rtt::RttWriter::write_with_mode::h47b06e47d627ea44
420017ba     17ba        0     1                 
420017bc     17bc        0     1                 
420017c6     17c6        0     1                 
420017c8     17c8        0     1                 
420017e0     17e0        0     1                 
420017e4     17e4        0     1                 
420017ea     17ea        0     1                 
420017ec     17ec        0     1                 
420017f2     17f2        0     1                 
42001802     1802        0     1                 
42001808     1808        0     1                 
4200181c     181c        0     1                 
42001822     1822        0     1                 
42001830     1830        0     1                 
42001834     1834        0     1                 
42001844     1844        0     1                 
42001848     1848        0     1                 
42001848     1848        0     1                 
4200184e     184e        0     1                 
42001854     1854        0     1                 
4200185a     185a        0     1                 
4200185e     185e        0     1                 
42001866     1866        0     1                 
42001876     1876        0     1                 
42001878     1878        0     1                 
4200187c     187c        0     1                 
42001880     1880        0     1                 
42001884     1884        0     1                 
42001884     1884        0     1                 
42001886     1886        0     1                 
4200188a     188a        0     1                 
4200188a     188a        0     1                 
4200188e     188e        0     1                 
42001892     1892        0     1                 
42001894     1894        0     1                 
4200189a     189a        0     1                 
4200189e     189e        0     1                 
420018a2     18a2        0     1                 
420018ac     18ac        0     1                 
420018b2     18b2        0     1                 
420018b8     18b8        0     1                 
420018b8     18b8        0     1                 
420018be     18be        0     1                 
420018be     18be        0     1                 
420018c0     18c0        0     1                 
420018d0     18d0        0     1                 
420018e8     18e8        0     1                 
420018f4     18f4        0     1                 
42001910     1910        0     1                 
42001916     1916        0     1                 
42001918     1918        0     1                 
4200191c     191c        0     1                 
42001922     1922        0     1                 
4200193e     193e        0     1                 
42001944     1944        0     1                 
42001946     1946        0     1                 
4200195c     195c        0     1                 
42001960     1960        0     1                 
42001962     1962        0     1                 
42001964     1964        0     1                 
4200196c     196c        0     1                 
4200196c     196c        0     1                 
4200196e     196e        0     1                 
4200196e     196e        0     1                 
4200196e     196e        0     1                 
4200196e     196e      134     2         /home/mabez/development/rust/embedded/experiments/esp32c3/target/riscv32imac-unknown-none-elf/debug/deps/librtt_target-ba817fabe6541e78.rlib(rtt_target-ba817fabe6541e78.rtt_target.a5746e51-cgu.0.rcgu.o):(.text._ZN10rtt_target3rtt9RttWriter19writable_contiguous17h4bbc4dc493402bccE)
4200196e     196e      134     1                 rtt_target::rtt::RttWriter::writable_contiguous::h4bbc4dc493402bcc
4200196e     196e        0     1                 
4200196e     196e        0     1                 
4200196e     196e        0     1                 
42001970     1970        0     1                 
42001972     1972        0     1                 
42001976     1976        0     1                 
4200198a     198a        0     1                 
4200198a     198a        0     1                 
4200198c     198c        0     1                 
42001992     1992        0     1                 
42001996     1996        0     1                 
4200199c     199c        0     1                 
420019a2     19a2        0     1                 
420019de     19de        0     1                 
420019e0     19e0        0     1                 
420019fe     19fe        0     1                 
420019fe     19fe        0     1                 
42001a06     1a06        0     1                 
42001a06     1a06        0     1                 
42001a0c     1a0c        0     1                 
42001a0e     1a0e        0     1                 
42001a1a     1a1a        0     1                 
42001a20     1a20        0     1                 
42001a22     1a22        0     1                 
42001a32     1a32        0     1                 
42001a34     1a34        0     1                 
42001a52     1a52        0     1                 
42001a82     1a82        0     1                 
42001a84     1a84        0     1                 
42001aa2     1aa2        0     1                 
42001aa2     1aa2        0     1                 
42001aa2     1aa2        0     1                 
42001aa2     1aa2        0     1                 
42001aa2     1aa2       24     2         /home/mabez/development/rust/embedded/experiments/esp32c3/target/riscv32imac-unknown-none-elf/debug/deps/librtt_target-ba817fabe6541e78.rlib(rtt_target-ba817fabe6541e78.rtt_target.a5746e51-cgu.0.rcgu.o):(.text._ZN10rtt_target3rtt9RttWriter9is_failed17h81acde27fd238d3dE)
42001aa2     1aa2        0     1                 
42001aa2     1aa2        0     1                 
42001aa2     1aa2        0     1                 
42001aa2     1aa2       24     1                 rtt_target::rtt::RttWriter::is_failed::h81acde27fd238d3d
42001aa4     1aa4        0     1                 
42001aa6     1aa6        0     1                 
42001aa8     1aa8        0     1                 
42001abe     1abe        0     1                 
42001ac6     1ac6        0     1                 
42001ac6     1ac6        0     1                 
42001ac6     1ac6        0     1                 
42001ac6     1ac6       44     2         /home/mabez/development/rust/embedded/experiments/esp32c3/target/riscv32imac-unknown-none-elf/debug/deps/librtt_target-ba817fabe6541e78.rlib(rtt_target-ba817fabe6541e78.rtt_target.a5746e51-cgu.0.rcgu.o):(.text._ZN10rtt_target3rtt9RttWriter11commit_impl17hb1ff8c7634573db2E)
42001ac6     1ac6       44     1                 rtt_target::rtt::RttWriter::commit_impl::hb1ff8c7634573db2
42001ac6     1ac6        0     1                 
42001ac6     1ac6        0     1                 
42001ac6     1ac6        0     1                 
42001ac8     1ac8        0     1                 
42001aca     1aca        0     1                 
42001ace     1ace        0     1                 
42001ad4     1ad4        0     1                 
42001adc     1adc        0     1                 
42001ade     1ade        0     1                 
42001ae4     1ae4        0     1                 
42001ae8     1ae8        0     1                 
42001aec     1aec        0     1                 
42001af6     1af6        0     1                 
42001afc     1afc        0     1                 
42001b00     1b00        0     1                 
42001b04     1b04        0     1                 
42001b08     1b08        0     1                 
42001b0a     1b0a        0     1                 
42001b0a     1b0a        0     1                 
42001b0a     1b0a        0     1                 
42001b0a     1b0a       16     2         /home/mabez/development/rust/embedded/experiments/esp32c3/target/riscv32imac-unknown-none-elf/debug/deps/librtt_target-ba817fabe6541e78.rlib(rtt_target-ba817fabe6541e78.rtt_target.a5746e51-cgu.0.rcgu.o):(.text._ZN68_$LT$rtt_target..rtt..RttWriter$u20$as$u20$core..ops..drop..Drop$GT$4drop17hd61679b950702935E)
42001b0a     1b0a        0     1                 
42001b0a     1b0a        0     1                 
42001b0a     1b0a        0     1                 
42001b0a     1b0a       16     1                 _$LT$rtt_target..rtt..RttWriter$u20$as$u20$core..ops..drop..Drop$GT$::drop::hd61679b950702935
42001b0c     1b0c        0     1                 
42001b0e     1b0e        0     1                 
42001b10     1b10        0     1                 
42001b1a     1b1a        0     1                 
42001b20     1b20        0     1                 
42001b20     1b20        0     1                 
42001b20     1b20        0     1                 
42001b20     1b20       30     2         /home/mabez/development/rust/embedded/experiments/esp32c3/target/riscv32imac-unknown-none-elf/debug/deps/librtt_target-ba817fabe6541e78.rlib(rtt_target-ba817fabe6541e78.rtt_target.a5746e51-cgu.0.rcgu.o):(.text._ZN68_$LT$rtt_target..rtt..WriteState$u20$as$u20$core..cmp..PartialEq$GT$2eq17hc6258f1ea23110e2E)
42001b20     1b20       30     1                 _$LT$rtt_target..rtt..WriteState$u20$as$u20$core..cmp..PartialEq$GT$::eq::hc6258f1ea23110e2
42001b20     1b20        0     1                 
42001b20     1b20        0     1                 
42001b20     1b20        0     1                 
42001b22     1b22        0     1                 
42001b26     1b26        0     1                 
42001b2c     1b2c        0     1                 
42001b2c     1b2c        0     1                 
42001b32     1b32        0     1                 
42001b32     1b32        0     1                 
42001b38     1b38        0     1                 
42001b3a     1b3a        0     1                 
42001b40     1b40        0     1                 
42001b42     1b42        0     1                 
42001b48     1b48        0     1                 
42001b48     1b48        0     1                 
42001b50     1b50        0     1                 
42001b50     1b50        0     1                 
42001b50     1b50        0     1                 
42001b50     1b50       20     2         /home/mabez/development/rust/embedded/experiments/esp32c3/target/riscv32imac-unknown-none-elf/debug/deps/librtt_target-ba817fabe6541e78.rlib(rtt_target-ba817fabe6541e78.rtt_target.a5746e51-cgu.0.rcgu.o):(.text._ZN4core3cmp9PartialEq2ne17hf30dbba4e5832379E)
42001b50     1b50        0     1                 
42001b50     1b50        0     1                 
42001b50     1b50        0     1                 
42001b50     1b50       20     1                 core::cmp::PartialEq::ne::hf30dbba4e5832379
42001b52     1b52        0     1                 
42001b54     1b54        0     1                 
42001b58     1b58        0     1                 
42001b64     1b64        0     1                 
42001b6a     1b6a        0     1                 
42001b70     1b70        0     1                 
42001b70     1b70        0     1                 
42001b70     1b70        0     1                 
42001b70     1b70       2c     2         /home/mabez/development/rust/embedded/experiments/esp32c3/target/riscv32imac-unknown-none-elf/debug/deps/librtt_target-ba817fabe6541e78.rlib(rtt_target-ba817fabe6541e78.rtt_target.a5746e51-cgu.1.rcgu.o):(.text._ZN4core4sync6atomic18AtomicPtr$LT$T$GT$4load17hf94a3dc4f57f24bdE)
42001b70     1b70        0     1                 
42001b70     1b70        0     1                 
42001b70     1b70        0     1                 
42001b70     1b70       2c     1                 core::sync::atomic::AtomicPtr$LT$T$GT$::load::hf94a3dc4f57f24bd
42001b72     1b72        0     1                 
42001b74     1b74        0     1                 
42001b80     1b80        0     1                 
42001b84     1b84        0     1                 
42001b94     1b94        0     1                 
42001b9c     1b9c        0     1                 
42001b9c     1b9c        0     1                 
42001b9c     1b9c        0     1                 
42001b9c     1b9c       2e     2         /home/mabez/development/rust/embedded/experiments/esp32c3/target/riscv32imac-unknown-none-elf/debug/deps/librtt_target-ba817fabe6541e78.rlib(rtt_target-ba817fabe6541e78.rtt_target.a5746e51-cgu.1.rcgu.o):(.text._ZN4core4sync6atomic18AtomicPtr$LT$T$GT$5store17h2f727ba20dbf1a6fE)
42001b9c     1b9c        0     1                 
42001b9c     1b9c        0     1                 
42001b9c     1b9c        0     1                 
42001b9c     1b9c       2e     1                 core::sync::atomic::AtomicPtr$LT$T$GT$::store::h2f727ba20dbf1a6f
42001b9e     1b9e        0     1                 
42001ba0     1ba0        0     1                 
42001bb0     1bb0        0     1                 
42001bb4     1bb4        0     1                 
42001bc4     1bc4        0     1                 
42001bca     1bca        0     1                 
42001bca     1bca        0     1                 
42001bca     1bca        0     1                 
42001bca     1bca       be     2         /home/mabez/development/rust/embedded/experiments/esp32c3/target/riscv32imac-unknown-none-elf/debug/deps/librtt_target-ba817fabe6541e78.rlib(rtt_target-ba817fabe6541e78.rtt_target.a5746e51-cgu.1.rcgu.o):(.text._ZN4core4sync6atomic12atomic_store17hb6e0b025e6602fbeE)
42001bca     1bca        0     1                 
42001bca     1bca        0     1                 
42001bca     1bca        0     1                 
42001bca     1bca       be     1                 core::sync::atomic::atomic_store::hb6e0b025e6602fbe
42001bcc     1bcc        0     1                 
42001bce     1bce        0     1                 
42001bda     1bda        0     1                 
42001be0     1be0        0     1                 
42001bf2     1bf2        0     1                 
42001bf4     1bf4        0     1                 .LBB2_3
42001bf4     1bf4        0     1                 
42001bfc     1bfc        0     1                 .LBB2_4
42001bfc     1bfc        0     1                 
42001c08     1c08        0     1                 .LBB2_5
42001c08     1c08        0     1                 
42001c28     1c28        0     1                 .LBB2_6
42001c28     1c28        0     1                 
42001c48     1c48        0     1                 .LBB2_7
42001c48     1c48        0     1                 
42001c54     1c54        0     1                 
42001c56     1c56        0     1                 
42001c5c     1c5c        0     1                 
42001c70     1c70        0     1                 
42001c84     1c84        0     1                 
42001c86     1c86        0     1                 
42001c88     1c88        0     1                 
42001c88     1c88        0     1                 
42001c88     1c88        0     1                 
42001c88     1c88       be     2         /home/mabez/development/rust/embedded/experiments/esp32c3/target/riscv32imac-unknown-none-elf/debug/deps/librtt_target-ba817fabe6541e78.rlib(rtt_target-ba817fabe6541e78.rtt_target.a5746e51-cgu.1.rcgu.o):(.text._ZN4core4sync6atomic12atomic_store17hff0586cc8fb4384dE)
42001c88     1c88        0     1                 
42001c88     1c88        0     1                 
42001c88     1c88        0     1                 
42001c88     1c88       be     1                 core::sync::atomic::atomic_store::hff0586cc8fb4384d
42001c8a     1c8a        0     1                 
42001c8c     1c8c        0     1                 
42001c98     1c98        0     1                 
42001c9e     1c9e        0     1                 
42001cb0     1cb0        0     1                 
42001cb2     1cb2        0     1                 .LBB3_3
42001cb2     1cb2        0     1                 
42001cba     1cba        0     1                 .LBB3_4
42001cba     1cba        0     1                 
42001cc6     1cc6        0     1                 .LBB3_5
42001cc6     1cc6        0     1                 
42001ce6     1ce6        0     1                 .LBB3_6
42001ce6     1ce6        0     1                 
42001d06     1d06        0     1                 .LBB3_7
42001d06     1d06        0     1                 
42001d12     1d12        0     1                 
42001d14     1d14        0     1                 
42001d1a     1d1a        0     1                 
42001d2e     1d2e        0     1                 
42001d42     1d42        0     1                 
42001d44     1d44        0     1                 
42001d46     1d46        0     1                 
42001d46     1d46        0     1                 
42001d46     1d46        0     1                 
42001d46     1d46       c0     2         /home/mabez/development/rust/embedded/experiments/esp32c3/target/riscv32imac-unknown-none-elf/debug/deps/librtt_target-ba817fabe6541e78.rlib(rtt_target-ba817fabe6541e78.rtt_target.a5746e51-cgu.1.rcgu.o):(.text._ZN4core4sync6atomic11atomic_load17ha72147ea991fe21cE)
42001d46     1d46        0     1                 
42001d46     1d46        0     1                 
42001d46     1d46        0     1                 
42001d46     1d46       c0     1                 core::sync::atomic::atomic_load::ha72147ea991fe21c
42001d48     1d48        0     1                 
42001d4a     1d4a        0     1                 
42001d52     1d52        0     1                 
42001d58     1d58        0     1                 
42001d6a     1d6a        0     1                 
42001d6c     1d6c        0     1                 .LBB4_3
42001d6c     1d6c        0     1                 
42001d74     1d74        0     1                 .LBB4_4
42001d74     1d74        0     1                 
42001d94     1d94        0     1                 .LBB4_5
42001d94     1d94        0     1                 
42001da0     1da0        0     1                 .LBB4_6
42001da0     1da0        0     1                 
42001dc0     1dc0        0     1                 .LBB4_7
42001dc0     1dc0        0     1                 
42001dd0     1dd0        0     1                 
42001dd2     1dd2        0     1                 
42001dda     1dda        0     1                 
42001dee     1dee        0     1                 
42001df0     1df0        0     1                 
42001e04     1e04        0     1                 
42001e06     1e06        0     1                 
42001e06     1e06        0     1                 
42001e06     1e06        0     1                 
42001e06     1e06       c0     2         /home/mabez/development/rust/embedded/experiments/esp32c3/target/riscv32imac-unknown-none-elf/debug/deps/librtt_target-ba817fabe6541e78.rlib(rtt_target-ba817fabe6541e78.rtt_target.a5746e51-cgu.1.rcgu.o):(.text._ZN4core4sync6atomic11atomic_load17he2a98d02cc193641E)
42001e06     1e06        0     1                 
42001e06     1e06        0     1                 
42001e06     1e06        0     1                 
42001e06     1e06       c0     1                 core::sync::atomic::atomic_load::he2a98d02cc193641
42001e08     1e08        0     1                 
42001e0a     1e0a        0     1                 
42001e12     1e12        0     1                 
42001e18     1e18        0     1                 
42001e2a     1e2a        0     1                 
42001e2c     1e2c        0     1                 .LBB5_3
42001e2c     1e2c        0     1                 
42001e34     1e34        0     1                 .LBB5_4
42001e34     1e34        0     1                 
42001e54     1e54        0     1                 .LBB5_5
42001e54     1e54        0     1                 
42001e60     1e60        0     1                 .LBB5_6
42001e60     1e60        0     1                 
42001e80     1e80        0     1                 .LBB5_7
42001e80     1e80        0     1                 
42001e90     1e90        0     1                 
42001e92     1e92        0     1                 
42001e9a     1e9a        0     1                 
42001eae     1eae        0     1                 
42001eb0     1eb0        0     1                 
42001ec4     1ec4        0     1                 
42001ec6     1ec6        0     1                 
42001ec6     1ec6        0     1                 
42001ec6     1ec6        0     1                 
42001ec6     1ec6       74     2         /home/mabez/development/rust/embedded/experiments/esp32c3/target/riscv32imac-unknown-none-elf/debug/deps/librtt_target-ba817fabe6541e78.rlib(rtt_target-ba817fabe6541e78.rtt_target.a5746e51-cgu.1.rcgu.o):(.text._ZN4core4sync6atomic5fence17h60e45326d5a6006dE)
42001ec6     1ec6        0     1                 
42001ec6     1ec6        0     1                 
42001ec6     1ec6        0     1                 
42001ec6     1ec6       74     1                 core::sync::atomic::fence::h60e45326d5a6006d
42001ec8     1ec8        0     1                 
42001eca     1eca        0     1                 
42001ece     1ece        0     1                 
42001ed4     1ed4        0     1                 
42001ee6     1ee6        0     1                 
42001ee8     1ee8        0     1                 .LBB6_3
42001ee8     1ee8        0     1                 
42001f08     1f08        0     1                 .LBB6_4
42001f08     1f08        0     1                 
42001f0e     1f0e        0     1                 .LBB6_5
42001f0e     1f0e        0     1                 
42001f14     1f14        0     1                 .LBB6_6
42001f14     1f14        0     1                 
42001f1a     1f1a        0     1                 .LBB6_7
42001f1a     1f1a        0     1                 
42001f20     1f20        0     1                 
42001f26     1f26        0     1                 
42001f3a     1f3a        0     1                 
42001f3a     1f3a        0     1                 
42001f3a     1f3a        0     1                 
42001f3a     1f3a       2e     2         /home/mabez/development/rust/embedded/experiments/esp32c3/target/riscv32imac-unknown-none-elf/debug/deps/librtt_target-ba817fabe6541e78.rlib(rtt_target-ba817fabe6541e78.rtt_target.a5746e51-cgu.1.rcgu.o):(.text._ZN4core4sync6atomic11AtomicUsize4load17h3a8c4d1a3beed406E)
42001f3a     1f3a        0     1                 
42001f3a     1f3a        0     1                 
42001f3a     1f3a        0     1                 
42001f3a     1f3a       2e     1                 core::sync::atomic::AtomicUsize::load::h3a8c4d1a3beed406
42001f3c     1f3c        0     1                 
42001f3e     1f3e        0     1                 
42001f48     1f48        0     1                 
42001f50     1f50        0     1                 
42001f60     1f60        0     1                 
42001f68     1f68        0     1                 
42001f68     1f68        0     1                 
42001f68     1f68        0     1                 
42001f68     1f68       30     2         /home/mabez/development/rust/embedded/experiments/esp32c3/target/riscv32imac-unknown-none-elf/debug/deps/librtt_target-ba817fabe6541e78.rlib(rtt_target-ba817fabe6541e78.rtt_target.a5746e51-cgu.1.rcgu.o):(.text._ZN4core4sync6atomic11AtomicUsize5store17h5f5fd78b2798ef3dE)
42001f68     1f68        0     1                 
42001f68     1f68        0     1                 
42001f68     1f68        0     1                 
42001f68     1f68       30     1                 core::sync::atomic::AtomicUsize::store::h5f5fd78b2798ef3d
42001f6a     1f6a        0     1                 
42001f6c     1f6c        0     1                 
42001f7a     1f7a        0     1                 
42001f82     1f82        0     1                 
42001f92     1f92        0     1                 
42001f98     1f98        0     1                 
42001f98     1f98        0     1                 
42001f98     1f98        0     1                 
42001f98     1f98       2a     2         /home/mabez/development/rust/embedded/experiments/esp32c3/target/riscv32imac-unknown-none-elf/debug/deps/librtt_target-ba817fabe6541e78.rlib(rtt_target-ba817fabe6541e78.rtt_target.a5746e51-cgu.10.rcgu.o):(.text._ZN4core5slice5index74_$LT$impl$u20$core..ops..index..Index$LT$I$GT$$u20$for$u20$$u5b$T$u5d$$GT$5index17h62532cfc9b68bad0E)
42001f98     1f98        0     1                 
42001f98     1f98        0     1                 
42001f98     1f98        0     1                 
42001f98     1f98       2a     1                 core::slice::index::_$LT$impl$u20$core..ops..index..Index$LT$I$GT$$u20$for$u20$$u5b$T$u5d$$GT$::index::h62532cfc9b68bad0
42001f9a     1f9a        0     1                 
42001f9c     1f9c        0     1                 
42001faa     1faa        0     1                 
42001fb8     1fb8        0     1                 
42001fc2     1fc2        0     1                 
42001fc2     1fc2        0     1                 
42001fc2     1fc2        0     1                 
42001fc2     1fc2       2a     2         /home/mabez/development/rust/embedded/experiments/esp32c3/target/riscv32imac-unknown-none-elf/debug/deps/librtt_target-ba817fabe6541e78.rlib(rtt_target-ba817fabe6541e78.rtt_target.a5746e51-cgu.10.rcgu.o):(.text._ZN4core5slice5index77_$LT$impl$u20$core..ops..index..IndexMut$LT$I$GT$$u20$for$u20$$u5b$T$u5d$$GT$9index_mut17h8c74eaed3c4b055cE)
42001fc2     1fc2        0     1                 
42001fc2     1fc2        0     1                 
42001fc2     1fc2        0     1                 
42001fc2     1fc2       2a     1                 core::slice::index::_$LT$impl$u20$core..ops..index..IndexMut$LT$I$GT$$u20$for$u20$$u5b$T$u5d$$GT$::index_mut::h8c74eaed3c4b055c
42001fc4     1fc4        0     1                 
42001fc6     1fc6        0     1                 
42001fd4     1fd4        0     1                 
42001fe2     1fe2        0     1                 
42001fec     1fec        0     1                 
42001fec     1fec        0     1                 
42001fec     1fec        0     1                 
42001fec     1fec       20     2         /home/mabez/development/rust/embedded/experiments/esp32c3/target/riscv32imac-unknown-none-elf/debug/deps/librtt_target-ba817fabe6541e78.rlib(rtt_target-ba817fabe6541e78.rtt_target.a5746e51-cgu.10.rcgu.o):(.text._ZN4core5slice5index77_$LT$impl$u20$core..ops..index..IndexMut$LT$I$GT$$u20$for$u20$$u5b$T$u5d$$GT$9index_mut17hd8effbc58e6c6aafE)
42001fec     1fec        0     1                 
42001fec     1fec        0     1                 
42001fec     1fec        0     1                 
42001fec     1fec       20     1                 core::slice::index::_$LT$impl$u20$core..ops..index..IndexMut$LT$I$GT$$u20$for$u20$$u5b$T$u5d$$GT$::index_mut::hd8effbc58e6c6aaf
42001fee     1fee        0     1                 
42001ff0     1ff0        0     1                 
42001ff4     1ff4        0     1                 
42002002     2002        0     1                 
4200200c     200c        0     1                 
4200200c     200c        0     1                 
4200200c     200c        0     1                 
4200200c     200c       78     2         /home/mabez/development/rust/embedded/experiments/esp32c3/target/riscv32imac-unknown-none-elf/debug/deps/librtt_target-ba817fabe6541e78.rlib(rtt_target-ba817fabe6541e78.rtt_target.a5746e51-cgu.11.rcgu.o):(.text._ZN45_$LT$usize$u20$as$u20$bit_field..BitField$GT$7get_bit17h5772d34f4c14cd78E)
4200200c     200c       78     1                 _$LT$usize$u20$as$u20$bit_field..BitField$GT$::get_bit::h5772d34f4c14cd78
4200200c     200c        0     1                 
4200200c     200c        0     1                 
4200200c     200c        0     1                 
4200200e     200e        0     1                 
42002018     2018        0     1                 
4200201e     201e        0     1                 
42002024     2024        0     1                 
4200203a     203a        0     1                 
42002058     2058        0     1                 
42002062     2062        0     1                 
42002066     2066        0     1                 
42002084     2084        0     1                 
42002084     2084        0     1                 
42002084     2084        0     1                 
42002084     2084       1c     2         /home/mabez/development/rust/embedded/experiments/esp32c3/target/riscv32imac-unknown-none-elf/debug/deps/librtt_target-ba817fabe6541e78.rlib(rtt_target-ba817fabe6541e78.rtt_target.a5746e51-cgu.11.rcgu.o):(.text._ZN5riscv8register7mstatus7Mstatus3mie17haf1c687e27ba0eaaE)
42002084     2084        0     1                 
42002084     2084        0     1                 
42002084     2084        0     1                 
42002084     2084       1c     1                 riscv::register::mstatus::Mstatus::mie::haf1c687e27ba0eaa
42002086     2086        0     1                 
42002088     2088        0     1                 
4200208c     208c        0     1                 
42002098     2098        0     1                 
420020a0     20a0        0     1                 
420020a0     20a0        0     1                 
420020a0     20a0        0     1                 
420020a0     20a0       1a     2         /home/mabez/development/rust/embedded/experiments/esp32c3/target/riscv32imac-unknown-none-elf/debug/deps/librtt_target-ba817fabe6541e78.rlib(rtt_target-ba817fabe6541e78.rtt_target.a5746e51-cgu.11.rcgu.o):(.text._ZN5riscv8register7mstatus4read17hd65667f5b638e94cE)
420020a0     20a0        0     1                 
420020a0     20a0        0     1                 
420020a0     20a0        0     1                 
420020a0     20a0       1a     1                 riscv::register::mstatus::read::hd65667f5b638e94c
420020a2     20a2        0     1                 
420020a2     20a2        0     1                 
420020a4     20a4        0     1                 
420020b0     20b0        0     1                 
420020b4     20b4        0     1                 
420020ba     20ba        0     1                 
420020ba     20ba        0     1                 
420020ba     20ba        0     1                 
420020ba     20ba       18     2         /home/mabez/development/rust/embedded/experiments/esp32c3/target/riscv32imac-unknown-none-elf/debug/deps/librtt_target-ba817fabe6541e78.rlib(rtt_target-ba817fabe6541e78.rtt_target.a5746e51-cgu.11.rcgu.o):(.text._ZN5riscv8register7mstatus5_read17h3248f493f74696e0E)
420020ba     20ba       18     1                 riscv::register::mstatus::_read::h3248f493f74696e0
420020ba     20ba        0     1                 
420020ba     20ba        0     1                 
420020ba     20ba        0     1                 
420020bc     20bc        0     1                 
420020bc     20bc        0     1                 
420020be     20be        0     1                 
420020ca     20ca        0     1                 
420020d2     20d2        0     1                 
420020d2     20d2        0     1                 
420020d2     20d2        0     1                 
420020d2     20d2       16     2         /home/mabez/development/rust/embedded/experiments/esp32c3/target/riscv32imac-unknown-none-elf/debug/deps/librtt_target-ba817fabe6541e78.rlib(rtt_target-ba817fabe6541e78.rtt_target.a5746e51-cgu.11.rcgu.o):(.text._ZN5riscv8register7mstatus4_set17h6401e5cd2b63c8a0E)
420020d2     20d2       16     1                 riscv::register::mstatus::_set::h6401e5cd2b63c8a0
420020d2     20d2        0     1                 
420020d2     20d2        0     1                 
420020d2     20d2        0     1                 
420020d4     20d4        0     1                 
420020d6     20d6        0     1                 
420020d8     20d8        0     1                 
420020e2     20e2        0     1                 
420020e8     20e8        0     1                 
420020e8     20e8        0     1                 
420020e8     20e8        0     1                 
420020e8     20e8       16     2         /home/mabez/development/rust/embedded/experiments/esp32c3/target/riscv32imac-unknown-none-elf/debug/deps/librtt_target-ba817fabe6541e78.rlib(rtt_target-ba817fabe6541e78.rtt_target.a5746e51-cgu.11.rcgu.o):(.text._ZN5riscv8register7mstatus6_clear17h055a983a3c52d193E)
420020e8     20e8       16     1                 riscv::register::mstatus::_clear::h055a983a3c52d193
420020e8     20e8        0     1                 
420020e8     20e8        0     1                 
420020e8     20e8        0     1                 
420020ea     20ea        0     1                 
420020ec     20ec        0     1                 
420020ee     20ee        0     1                 
420020f8     20f8        0     1                 
420020fe     20fe        0     1                 
420020fe     20fe        0     1                 
420020fe     20fe        0     1                 
420020fe     20fe       16     2         /home/mabez/development/rust/embedded/experiments/esp32c3/target/riscv32imac-unknown-none-elf/debug/deps/librtt_target-ba817fabe6541e78.rlib(rtt_target-ba817fabe6541e78.rtt_target.a5746e51-cgu.11.rcgu.o):(.text._ZN5riscv8register7mstatus7set_mie17h33cf11189c5dbb24E)
420020fe     20fe        0     1                 
420020fe     20fe        0     1                 
420020fe     20fe        0     1                 
420020fe     20fe       16     1                 riscv::register::mstatus::set_mie::h33cf11189c5dbb24
42002100     2100        0     1                 
42002102     2102        0     1                 
42002104     2104        0     1                 
4200210e     210e        0     1                 
42002114     2114        0     1                 
42002114     2114        0     1                 
42002114     2114        0     1                 
42002114     2114       16     2         /home/mabez/development/rust/embedded/experiments/esp32c3/target/riscv32imac-unknown-none-elf/debug/deps/librtt_target-ba817fabe6541e78.rlib(rtt_target-ba817fabe6541e78.rtt_target.a5746e51-cgu.11.rcgu.o):(.text._ZN5riscv8register7mstatus9clear_mie17hbf29d895105db137E)
42002114     2114        0     1                 
42002114     2114        0     1                 
42002114     2114        0     1                 
42002114     2114       16     1                 riscv::register::mstatus::clear_mie::hbf29d895105db137
42002116     2116        0     1                 
42002118     2118        0     1                 
4200211a     211a        0     1                 
42002124     2124        0     1                 
4200212a     212a        0     1                 
4200212a     212a        0     1                 
4200212a     212a        0     1                 
4200212a     212a       1e     2         /home/mabez/development/rust/embedded/experiments/esp32c3/target/riscv32imac-unknown-none-elf/debug/deps/librtt_target-ba817fabe6541e78.rlib(rtt_target-ba817fabe6541e78.rtt_target.a5746e51-cgu.11.rcgu.o):(.text._ZN4core10intrinsics19copy_nonoverlapping17haca827d6088b01d2E)
4200212a     212a        0     1                 
4200212a     212a        0     1                 
4200212a     212a        0     1                 
4200212a     212a       1e     1                 core::intrinsics::copy_nonoverlapping::haca827d6088b01d2
4200212c     212c        0     1                 
4200212e     212e        0     1                 
4200213a     213a        0     1                 
42002142     2142        0     1                 
42002148     2148        0     1                 
42002148     2148        0     1                 
42002148     2148        0     1                 
42002148     2148       38     2         /home/mabez/development/rust/embedded/experiments/esp32c3/target/riscv32imac-unknown-none-elf/debug/deps/librtt_target-ba817fabe6541e78.rlib(rtt_target-ba817fabe6541e78.rtt_target.a5746e51-cgu.12.rcgu.o):(.text._ZN10rtt_target5print20set_print_channel_cs17h76d59d9282b71261E)
42002148     2148        0     1                 
42002148     2148        0     1                 
42002148     2148        0     1                 
42002148     2148       38     1                 rtt_target::print::set_print_channel_cs::h76d59d9282b71261
4200214a     214a        0     1                 
4200214c     214c        0     1                 
42002152     2152        0     1                 
42002160     2160        0     1                 
42002164     2164        0     1                 
42002168     2168        0     1                 
4200217a     217a        0     1                 
42002180     2180        0     1                 
42002180     2180        0     1                 
42002180     2180        0     1                 
42002180     2180       44     2         /home/mabez/development/rust/embedded/experiments/esp32c3/target/riscv32imac-unknown-none-elf/debug/deps/librtt_target-ba817fabe6541e78.rlib(rtt_target-ba817fabe6541e78.rtt_target.a5746e51-cgu.12.rcgu.o):(.text._ZN10rtt_target5print20set_print_channel_cs28_$u7b$$u7b$closure$u7d$$u7d$17h45e01188bd01d7c9E)
42002180     2180        0     1                 
42002180     2180        0     1                 
42002180     2180        0     1                 
42002180     2180       44     1                 rtt_target::print::set_print_channel_cs::_$u7b$$u7b$closure$u7d$$u7d$::h45e01188bd01d7c9
42002182     2182        0     1                 
42002184     2184        0     1                 
42002194     2194        0     1                 
42002196     2196        0     1                 
4200219a     219a        0     1                 
420021a8     21a8        0     1                 
420021be     21be        0     1                 
420021c4     21c4        0     1                 
420021c4     21c4        0     1                 
420021c4     21c4        0     1                 
420021c4     21c4       1e     2         /home/mabez/development/rust/embedded/experiments/esp32c3/target/riscv32imac-unknown-none-elf/debug/deps/librtt_target-ba817fabe6541e78.rlib(rtt_target-ba817fabe6541e78.rtt_target.a5746e51-cgu.12.rcgu.o):(.text._ZN10rtt_target5print17set_print_channel17h74e914420cdc1c8bE)
420021c4     21c4        0     1                 
420021c4     21c4        0     1                 
420021c4     21c4        0     1                 
420021c4     21c4       1e     1                 rtt_target::print::set_print_channel::h74e914420cdc1c8b
420021c6     21c6        0     1                 
420021c8     21c8        0     1                 
420021ca     21ca        0     1                 
420021dc     21dc        0     1                 
420021e2     21e2        0     1                 
420021e2     21e2        0     1                 
420021e2     21e2        0     1                 
420021e2     21e2       22     2         /home/mabez/development/rust/embedded/experiments/esp32c3/target/riscv32imac-unknown-none-elf/debug/deps/librtt_target-ba817fabe6541e78.rlib(rtt_target-ba817fabe6541e78.rtt_target.a5746e51-cgu.12.rcgu.o):(.text._ZN10rtt_target5print17set_print_channel28_$u7b$$u7b$closure$u7d$$u7d$17h3f43523dc989cb7bE)
420021e2     21e2        0     1                 
420021e2     21e2        0     1                 
420021e2     21e2        0     1                 
420021e2     21e2       22     1                 rtt_target::print::set_print_channel::_$u7b$$u7b$closure$u7d$$u7d$::h3f43523dc989cb7b
420021e4     21e4        0     1                 
420021e6     21e6        0     1                 
420021ee     21ee        0     1                 
420021f4     21f4        0     1                 
420021fe     21fe        0     1                 
42002204     2204        0     1                 
42002204     2204        0     1                 
42002204     2204        0     1                 
42002204     2204       1e     2         /home/mabez/development/rust/embedded/experiments/esp32c3/target/riscv32imac-unknown-none-elf/debug/deps/librtt_target-ba817fabe6541e78.rlib(rtt_target-ba817fabe6541e78.rtt_target.a5746e51-cgu.12.rcgu.o):(.text._ZN10rtt_target5print17set_print_channel28_$u7b$$u7b$closure$u7d$$u7d$28_$u7b$$u7b$closure$u7d$$u7d$17haaac03de0d394fb8E)
42002204     2204        0     1                 
42002204     2204        0     1                 
42002204     2204        0     1                 
42002204     2204       1e     1                 rtt_target::print::set_print_channel::_$u7b$$u7b$closure$u7d$$u7d$::_$u7b$$u7b$closure$u7d$$u7d$::haaac03de0d394fb8
42002206     2206        0     1                 
42002208     2208        0     1                 
42002214     2214        0     1                 
42002216     2216        0     1                 
42002218     2218        0     1                 
4200221c     221c        0     1                 
42002222     2222        0     1                 
42002222     2222        0     1                 
42002222     2222        0     1                 
42002222     2222       3a     2         /home/mabez/development/rust/embedded/experiments/esp32c3/target/riscv32imac-unknown-none-elf/debug/deps/librtt_target-ba817fabe6541e78.rlib(rtt_target-ba817fabe6541e78.rtt_target.a5746e51-cgu.14.rcgu.o):(.text._ZN4core6result19Result$LT$T$C$E$GT$2ok17h175e3d2dbe147070E)
42002222     2222        0     1                 
42002222     2222        0     1                 
42002222     2222        0     1                 
42002222     2222       3a     1                 core::result::Result$LT$T$C$E$GT$::ok::h175e3d2dbe147070
42002224     2224        0     1                 
4200222a     222a        0     1                 
42002232     2232        0     1                 
42002234     2234        0     1                 
42002236     2236        0     1                 
42002236     2236        0     1                 
4200223a     223a        0     1                 
4200223a     223a        0     1                 
4200223c     223c        0     1                 
4200223e     223e        0     1                 
42002244     2244        0     1                 
42002252     2252        0     1                 
4200225a     225a        0     1                 
4200225c     225c        0     1                 
4200225c     225c        0     1                 
4200225c     225c        0     1                 
4200225c     225c        e     2         /home/mabez/development/rust/embedded/experiments/esp32c3/target/riscv32imac-unknown-none-elf/debug/deps/librtt_target-ba817fabe6541e78.rlib(rtt_target-ba817fabe6541e78.rtt_target.a5746e51-cgu.14.rcgu.o):(.text._ZN4core5slice29_$LT$impl$u20$$u5b$T$u5d$$GT$8is_empty17h958056ef7d70a121E)
4200225c     225c        0     1                 
4200225c     225c        0     1                 
4200225c     225c        0     1                 
4200225c     225c        e     1                 core::slice::_$LT$impl$u20$$u5b$T$u5d$$GT$::is_empty::h958056ef7d70a121
4200225e     225e        0     1                 
42002262     2262        0     1                 
42002266     2266        0     1                 
4200226a     226a        0     1                 
4200226a     226a        0     1                 
4200226a     226a        0     1                 
4200226a     226a        a     2         /home/mabez/development/rust/embedded/experiments/esp32c3/target/riscv32imac-unknown-none-elf/debug/deps/librtt_target-ba817fabe6541e78.rlib(rtt_target-ba817fabe6541e78.rtt_target.a5746e51-cgu.14.rcgu.o):(.text._ZN4core5slice29_$LT$impl$u20$$u5b$T$u5d$$GT$6as_ptr17hacb5ddd344e5bb07E)
4200226a     226a        0     1                 
4200226a     226a        0     1                 
4200226a     226a        0     1                 
4200226a     226a        a     1                 core::slice::_$LT$impl$u20$$u5b$T$u5d$$GT$::as_ptr::hacb5ddd344e5bb07
4200226c     226c        0     1                 
42002270     2270        0     1                 
42002274     2274        0     1                 
42002274     2274        0     1                 
42002274     2274        0     1                 
42002274     2274        a     2         /home/mabez/development/rust/embedded/experiments/esp32c3/target/riscv32imac-unknown-none-elf/debug/deps/librtt_target-ba817fabe6541e78.rlib(rtt_target-ba817fabe6541e78.rtt_target.a5746e51-cgu.14.rcgu.o):(.text._ZN4core5slice29_$LT$impl$u20$$u5b$T$u5d$$GT$10as_mut_ptr17h8e8ea125ac3d373bE)
42002274     2274        0     1                 
42002274     2274        0     1                 
42002274     2274        0     1                 
42002274     2274        a     1                 core::slice::_$LT$impl$u20$$u5b$T$u5d$$GT$::as_mut_ptr::h8e8ea125ac3d373b
42002276     2276        0     1                 
4200227a     227a        0     1                 
4200227e     227e        0     1                 
4200227e     227e        0     1                 
4200227e     227e        0     1                 
4200227e     227e       14     2         /home/mabez/development/rust/embedded/experiments/esp32c3/target/riscv32imac-unknown-none-elf/debug/deps/librtt_target-ba817fabe6541e78.rlib(rtt_target-ba817fabe6541e78.rtt_target.a5746e51-cgu.15.rcgu.o):(.text._ZN5riscv9interrupt7disable17h6d44f84d599ba326E)
4200227e     227e       14     1                 riscv::interrupt::disable::h6d44f84d599ba326
4200227e     227e        0     1                 
4200227e     227e        0     1                 
4200227e     227e        0     1                 
42002280     2280        0     1                 
42002280     2280        0     1                 
42002282     2282        0     1                 
4200228c     228c        0     1                 
42002292     2292        0     1                 
42002292     2292        0     1                 
42002292     2292        0     1                 
42002292     2292       14     2         /home/mabez/development/rust/embedded/experiments/esp32c3/target/riscv32imac-unknown-none-elf/debug/deps/librtt_target-ba817fabe6541e78.rlib(rtt_target-ba817fabe6541e78.rtt_target.a5746e51-cgu.15.rcgu.o):(.text._ZN5riscv9interrupt6enable17hca3ac9fde0dedfa4E)
42002292     2292       14     1                 riscv::interrupt::enable::hca3ac9fde0dedfa4
42002292     2292        0     1                 
42002292     2292        0     1                 
42002292     2292        0     1                 
42002294     2294        0     1                 
42002294     2294        0     1                 
42002296     2296        0     1                 
420022a0     22a0        0     1                 
420022a6     22a6        0     1                 
420022a6     22a6        0     1                 
420022a6     22a6        0     1                 
420022a6     22a6       66     2         /home/mabez/development/rust/embedded/experiments/esp32c3/target/riscv32imac-unknown-none-elf/debug/deps/librtt_target-ba817fabe6541e78.rlib(rtt_target-ba817fabe6541e78.rtt_target.a5746e51-cgu.15.rcgu.o):(.text._ZN5riscv9interrupt4free17heae1d40981227079E)
420022a6     22a6        0     1                 
420022a6     22a6        0     1                 
420022a6     22a6        0     1                 
420022a6     22a6       66     1                 riscv::interrupt::free::heae1d40981227079
420022a8     22a8        0     1                 
420022aa     22aa        0     1                 
420022b2     22b2        0     1                 
420022be     22be        0     1                 
420022be     22be        0     1                 
420022c8     22c8        0     1                 
420022d2     22d2        0     1                 
420022d8     22d8        0     1                 
420022e4     22e4        0     1                 
420022e6     22e6        0     1                 
420022e6     22e6        0     1                 
420022f2     22f2        0     1                 
420022f6     22f6        0     1                 
420022fc     22fc        0     1                 
420022fc     22fc        0     1                 
42002302     2302        0     1                 
42002302     2302        0     1                 
4200230c     230c        0     1                 
4200230c     230c        0     1                 
4200230c     230c        0     1                 
4200230c     230c        0     1                 
4200230c     230c       22     2         /home/mabez/development/rust/embedded/experiments/esp32c3/target/riscv32imac-unknown-none-elf/debug/deps/librtt_target-ba817fabe6541e78.rlib(rtt_target-ba817fabe6541e78.rtt_target.a5746e51-cgu.15.rcgu.o):(.text._ZN4core3ptr7mut_ptr31_$LT$impl$u20$$BP$mut$u20$T$GT$7is_null17hf729311eb37f3897E)
4200230c     230c        0     1                 
4200230c     230c        0     1                 
4200230c     230c        0     1                 
4200230c     230c       22     1                 core::ptr::mut_ptr::_$LT$impl$u20$$BP$mut$u20$T$GT$::is_null::hf729311eb37f3897
4200230e     230e        0     1                 
42002310     2310        0     1                 
42002312     2312        0     1                 
42002316     2316        0     1                 
42002326     2326        0     1                 
4200232e     232e        0     1                 
4200232e     232e        0     1                 
4200232e     232e        0     1                 
4200232e     232e       1a     2         /home/mabez/development/rust/embedded/experiments/esp32c3/target/riscv32imac-unknown-none-elf/debug/deps/librtt_target-ba817fabe6541e78.rlib(rtt_target-ba817fabe6541e78.rtt_target.a5746e51-cgu.15.rcgu.o):(.text._ZN4core3ptr7mut_ptr31_$LT$impl$u20$$BP$mut$u20$T$GT$13guaranteed_eq17h3894e6309a6dbc4bE)
4200232e     232e        0     1                 
4200232e     232e        0     1                 
4200232e     232e        0     1                 
4200232e     232e       1a     1                 core::ptr::mut_ptr::_$LT$impl$u20$$BP$mut$u20$T$GT$::guaranteed_eq::h3894e6309a6dbc4b
42002330     2330        0     1                 
42002334     2334        0     1                 
42002342     2342        0     1                 
42002348     2348        0     1                 
42002348     2348        0     1                 
42002348     2348        0     1                 
42002348     2348        a     2         /home/mabez/development/rust/embedded/experiments/esp32c3/target/riscv32imac-unknown-none-elf/debug/deps/librtt_target-ba817fabe6541e78.rlib(rtt_target-ba817fabe6541e78.rtt_target.a5746e51-cgu.15.rcgu.o):(.text._ZN4core3str8converts23from_utf8_unchecked_mut17h0c4ad92f10d40b1cE)
42002348     2348        0     1                 
42002348     2348        0     1                 
42002348     2348        0     1                 
42002348     2348        a     1                 core::str::converts::from_utf8_unchecked_mut::h0c4ad92f10d40b1c
4200234a     234a        0     1                 
4200234e     234e        0     1                 
42002352     2352        0     1                 
42002352     2352        0     1                 
42002352     2352        0     1                 
42002352     2352       34     2         /home/mabez/development/rust/embedded/experiments/esp32c3/target/riscv32imac-unknown-none-elf/debug/deps/librtt_target-ba817fabe6541e78.rlib(rtt_target-ba817fabe6541e78.rtt_target.a5746e51-cgu.2.rcgu.o):(.text._ZN4core4char7methods22_$LT$impl$u20$char$GT$11encode_utf817hc81e27538f08e432E)
42002352     2352        0     1                 
42002352     2352        0     1                 
42002352     2352        0     1                 
42002352     2352       34     1                 core::char::methods::_$LT$impl$u20$char$GT$::encode_utf8::hc81e27538f08e432
42002354     2354        0     1                 
42002356     2356        0     1                 
4200235c     235c        0     1                 
4200236a     236a        0     1                 
4200237c     237c        0     1                 
42002386     2386        0     1                 
42002386     2386        0     1                 
42002386     2386        0     1                 
42002386     2386       4a     2         /home/mabez/development/rust/embedded/experiments/esp32c3/target/riscv32imac-unknown-none-elf/debug/deps/librtt_target-ba817fabe6541e78.rlib(rtt_target-ba817fabe6541e78.rtt_target.a5746e51-cgu.2.rcgu.o):(.text._ZN4core4char7methods8len_utf817h5e6837ba7b40c896E)
42002386     2386       4a     1                 core::char::methods::len_utf8::h5e6837ba7b40c896
42002386     2386        0     1                 
42002386     2386        0     1                 
42002386     2386        0     1                 
42002388     2388        0     1                 
42002390     2390        0     1                 
42002396     2396        0     1                 
420023a2     23a2        0     1                 
420023a4     23a4        0     1                 
420023a6     23a6        0     1                 
420023a8     23a8        0     1                 
420023ae     23ae        0     1                 
420023ba     23ba        0     1                 
420023bc     23bc        0     1                 
420023be     23be        0     1                 
420023c0     23c0        0     1                 
420023c2     23c2        0     1                 
420023c4     23c4        0     1                 
420023c6     23c6        0     1                 
420023c8     23c8        0     1                 
420023ca     23ca        0     1                 
420023cc     23cc        0     1                 
420023ce     23ce        0     1                 
420023d0     23d0        0     1                 
420023d0     23d0        0     1                 
420023d0     23d0        0     1                 
420023d0     23d0      22e     2         /home/mabez/development/rust/embedded/experiments/esp32c3/target/riscv32imac-unknown-none-elf/debug/deps/librtt_target-ba817fabe6541e78.rlib(rtt_target-ba817fabe6541e78.rtt_target.a5746e51-cgu.2.rcgu.o):(.text._ZN4core4char7methods15encode_utf8_raw17hcecf1e2605039b2bE)
420023d0     23d0      22e     1                 core::char::methods::encode_utf8_raw::hcecf1e2605039b2b
420023d0     23d0        0     1                 
420023d0     23d0        0     1                 
420023d0     23d0        0     1                 
420023d2     23d2        0     1                 
420023d4     23d4        0     1                 
420023de     23de        0     1                 
420023ea     23ea        0     1                 
420023ea     23ea        0     1                 
420023f0     23f0        0     1                 
42002408     2408        0     1                 
42002414     2414        0     1                 
42002420     2420        0     1                 
42002424     2424        0     1                 
4200242a     242a        0     1                 
4200242e     242e        0     1                 
42002434     2434        0     1                 
42002438     2438        0     1                 
4200243e     243e        0     1                 
42002444     2444        0     1                 
42002454     2454        0     1                 
42002454     2454        0     1                 
4200246a     246a        0     1                 
4200246a     246a        0     1                 
42002474     2474        0     1                 
4200247e     247e        0     1                 
42002488     2488        0     1                 
42002492     2492        0     1                 
42002498     2498        0     1                 
4200249e     249e        0     1                 
420024a4     24a4        0     1                 
420024aa     24aa        0     1                 
420024aa     24aa        0     1                 
420024ae     24ae        0     1                 
420024b0     24b0        0     1                 
420024b8     24b8        0     1                 
420024bc     24bc        0     1                 
420024c0     24c0        0     1                 
420024c8     24c8        0     1                 
420024cc     24cc        0     1                 
420024d0     24d0        0     1                 
420024d8     24d8        0     1                 
420024dc     24dc        0     1                 
420024e0     24e0        0     1                 
420024e8     24e8        0     1                 
420024e8     24e8        0     1                 
420024ea     24ea        0     1                 
420024f0     24f0        0     1                 
420024f2     24f2        0     1                 
42002508     2508        0     1                 
4200250c     250c        0     1                 
42002512     2512        0     1                 
42002518     2518        0     1                 
42002518     2518        0     1                 
4200251c     251c        0     1                 
4200251e     251e        0     1                 
42002526     2526        0     1                 
4200252a     252a        0     1                 
4200252e     252e        0     1                 
42002536     2536        0     1                 
4200253a     253a        0     1                 
4200253e     253e        0     1                 
42002546     2546        0     1                 
42002546     2546        0     1                 
42002548     2548        0     1                 
4200254c     254c        0     1                 
42002552     2552        0     1                 
42002552     2552        0     1                 
42002556     2556        0     1                 
42002558     2558        0     1                 
42002560     2560        0     1                 
42002564     2564        0     1                 
42002568     2568        0     1                 
42002570     2570        0     1                 
42002570     2570        0     1                 
42002572     2572        0     1                 
42002576     2576        0     1                 
42002576     2576        0     1                 
42002578     2578        0     1                 
4200257c     257c        0     1                 
4200257c     257c        0     1                 
4200257e     257e        0     1                 
4200257e     257e        0     1                 
42002588     2588        0     1                 
42002588     2588        0     1                 
420025d0     25d0        0     1                 
420025d0     25d0        0     1                 
420025fe     25fe        0     1                 
420025fe     25fe        0     1                 
420025fe     25fe        0     1                 
420025fe     25fe        0     1                 
420025fe     25fe        a     2         /home/mabez/development/rust/embedded/experiments/esp32c3/target/riscv32imac-unknown-none-elf/debug/deps/librtt_target-ba817fabe6541e78.rlib(rtt_target-ba817fabe6541e78.rtt_target.a5746e51-cgu.3.rcgu.o):(.text._ZN10rtt_target9UpChannel3new17h1aae9876b0aef97cE)
420025fe     25fe        0     1                 
420025fe     25fe        0     1                 
420025fe     25fe        0     1                 
420025fe     25fe        a     1                 rtt_target::UpChannel::new::h1aae9876b0aef97c
42002600     2600        0     1                 
42002602     2602        0     1                 
42002604     2604        0     1                 
42002608     2608        0     1                 
42002608     2608        0     1                 
42002608     2608        0     1                 
42002608     2608        a     2         /home/mabez/development/rust/embedded/experiments/esp32c3/target/riscv32imac-unknown-none-elf/debug/deps/librtt_target-ba817fabe6541e78.rlib(rtt_target-ba817fabe6541e78.rtt_target.a5746e51-cgu.3.rcgu.o):(.text._ZN10rtt_target9UpChannel7channel17he7bfb5c9d991128aE)
42002608     2608        a     1                 rtt_target::UpChannel::channel::he7bfb5c9d991128a
42002608     2608        0     1                 
42002608     2608        0     1                 
42002608     2608        0     1                 
4200260a     260a        0     1                 
4200260c     260c        0     1                 
4200260e     260e        0     1                 
42002612     2612        0     1                 
42002612     2612        0     1                 
42002612     2612        0     1                 
42002612     2612       28     2         /home/mabez/development/rust/embedded/experiments/esp32c3/target/riscv32imac-unknown-none-elf/debug/deps/librtt_target-ba817fabe6541e78.rlib(rtt_target-ba817fabe6541e78.rtt_target.a5746e51-cgu.3.rcgu.o):(.text._ZN10rtt_target9UpChannel4mode17hd898130a23c4de2aE)
42002612     2612        0     1                 
42002612     2612        0     1                 
42002612     2612        0     1                 
42002612     2612       28     1                 rtt_target::UpChannel::mode::hd898130a23c4de2a
42002614     2614        0     1                 
42002616     2616        0     1                 
42002618     2618        0     1                 
42002632     2632        0     1                 
4200263a     263a        0     1                 
4200263a     263a        0     1                 
4200263a     263a        0     1                 
4200263a     263a       10     2         /home/mabez/development/rust/embedded/experiments/esp32c3/target/riscv32imac-unknown-none-elf/debug/deps/librtt_target-ba817fabe6541e78.rlib(rtt_target-ba817fabe6541e78.rtt_target.a5746e51-cgu.3.rcgu.o):(.text._ZN10rtt_target15TerminalChannel3new17h5998e5adcf162383E)
4200263a     263a        0     1                 
4200263a     263a        0     1                 
4200263a     263a        0     1                 
4200263a     263a       10     1                 rtt_target::TerminalChannel::new::h5998e5adcf162383
4200263c     263c        0     1                 
4200263e     263e        0     1                 
42002646     2646        0     1                 
4200264a     264a        0     1                 
4200264a     264a        0     1                 
4200264a     264a        0     1                 
4200264a     264a      18a     2         /home/mabez/development/rust/embedded/experiments/esp32c3/target/riscv32imac-unknown-none-elf/debug/deps/librtt_target-ba817fabe6541e78.rlib(rtt_target-ba817fabe6541e78.rtt_target.a5746e51-cgu.3.rcgu.o):(.text._ZN10rtt_target15TerminalChannel5write17h469f15ae51e09c85E)
4200264a     264a        0     1                 
4200264a     264a        0     1                 
4200264a     264a        0     1                 
4200264a     264a      18a     1                 rtt_target::TerminalChannel::write::h469f15ae51e09c85
4200264c     264c        0     1                 
4200264e     264e        0     1                 
42002660     2660        0     1                 
4200267a     267a        0     1                 
4200267a     267a        0     1                 
42002682     2682        0     1                 
4200268c     268c        0     1                 
420026a2     26a2        0     1                 
420026a4     26a4        0     1                 
420026b4     26b4        0     1                 
420026b4     26b4        0     1                 
420026ba     26ba        0     1                 
420026ba     26ba        0     1                 
420026c8     26c8        0     1                 
420026c8     26c8        0     1                 
420026de     26de        0     1                 
420026e2     26e2        0     1                 
420026e8     26e8        0     1                 
420026ec     26ec        0     1                 
420026ee     26ee        0     1                 
420026f0     26f0        0     1                 
420026f2     26f2        0     1                 
420026f4     26f4        0     1                 
420026f4     26f4        0     1                 
420026fe     26fe        0     1                 
4200277c     277c        0     1                 
42002784     2784        0     1                 
4200278a     278a        0     1                 
42002790     2790        0     1                 
4200279a     279a        0     1                 
420027aa     27aa        0     1                 
420027b4     27b4        0     1                 
420027ca     27ca        0     1                 
420027d2     27d2        0     1                 
420027d2     27d2        0     1                 
420027d4     27d4        0     1                 
420027d4     27d4        0     1                 
420027d4     27d4        0     1                 
420027d4     27d4        0     1                 
420027d4     27d4       36     2         /home/mabez/development/rust/embedded/experiments/esp32c3/target/riscv32imac-unknown-none-elf/debug/deps/librtt_target-ba817fabe6541e78.rlib(rtt_target-ba817fabe6541e78.rtt_target.a5746e51-cgu.3.rcgu.o):(.text._ZN63_$LT$rtt_target..TerminalWriter$u20$as$u20$core..fmt..Write$GT$9write_str17h1caff0c46b429797E)
420027d4     27d4        0     1                 
420027d4     27d4        0     1                 
420027d4     27d4        0     1                 
420027d4     27d4       36     1                 _$LT$rtt_target..TerminalWriter$u20$as$u20$core..fmt..Write$GT$::write_str::h1caff0c46b429797
420027d6     27d6        0     1                 
420027d8     27d8        0     1                 
420027e4     27e4        0     1                 
420027e4     27e4        0     1                 
420027e8     27e8        0     1                 
420027e8     27e8        0     1                 
420027ee     27ee        0     1                 
420027fe     27fe        0     1                 
42002800     2800        0     1                 
42002804     2804        0     1                 
4200280a     280a        0     1                 
4200280a     280a        0     1                 
4200280a     280a        0     1                 
4200280a     280a       32     2         /home/mabez/development/rust/embedded/experiments/esp32c3/target/riscv32imac-unknown-none-elf/debug/deps/librtt_target-ba817fabe6541e78.rlib(rtt_target-ba817fabe6541e78.rtt_target.a5746e51-cgu.3.rcgu.o):(.text._ZN68_$LT$rtt_target..TerminalWriter$u20$as$u20$core..ops..drop..Drop$GT$4drop17ha9ec3bd08786a9a9E)
4200280a     280a        0     1                 
4200280a     280a        0     1                 
4200280a     280a        0     1                 
4200280a     280a       32     1                 _$LT$rtt_target..TerminalWriter$u20$as$u20$core..ops..drop..Drop$GT$::drop::ha9ec3bd08786a9a9
4200280c     280c        0     1                 
4200280e     280e        0     1                 
42002812     2812        0     1                 
4200281e     281e        0     1                 
42002822     2822        0     1                 
42002828     2828        0     1                 
4200282e     282e        0     1                 
42002834     2834        0     1                 
4200283a     283a        0     1                 
4200283c     283c        0     1                 
4200283c     283c        0     1                 
4200283c     283c        0     1                 
4200283c     283c       2c     2         /home/mabez/development/rust/embedded/experiments/esp32c3/target/riscv32imac-unknown-none-elf/debug/deps/librtt_target-ba817fabe6541e78.rlib(rtt_target-ba817fabe6541e78.rtt_target.a5746e51-cgu.3.rcgu.o):(.text._ZN64_$LT$rtt_target..ChannelMode$u20$as$u20$core..cmp..PartialEq$GT$2eq17h51379bc1f98b8c7eE)
4200283c     283c       2c     1                 _$LT$rtt_target..ChannelMode$u20$as$u20$core..cmp..PartialEq$GT$::eq::h51379bc1f98b8c7e
4200283c     283c        0     1                 
4200283c     283c        0     1                 
4200283c     283c        0     1                 
4200283e     283e        0     1                 
42002842     2842        0     1                 
42002846     2846        0     1                 
42002846     2846        0     1                 
4200284a     284a        0     1                 
4200284a     284a        0     1                 
42002850     2850        0     1                 
42002852     2852        0     1                 
42002858     2858        0     1                 
4200285a     285a        0     1                 
42002860     2860        0     1                 
42002860     2860        0     1                 
42002868     2868        0     1                 
42002868     2868        0     1                 
42002868     2868        0     1                 
42002868     2868       40     2         /home/mabez/development/rust/embedded/experiments/esp32c3/target/riscv32imac-unknown-none-elf/debug/deps/librtt_target-ba817fabe6541e78.rlib(rtt_target-ba817fabe6541e78.rtt_target.a5746e51-cgu.3.rcgu.o):(.text._ZN4core3fmt5Write10write_char17h5ce725f1820a8553E)
42002868     2868        0     1                 
42002868     2868        0     1                 
42002868     2868        0     1                 
42002868     2868       40     1                 core::fmt::Write::write_char::h5ce725f1820a8553
4200286a     286a        0     1                 
4200286c     286c        0     1                 
4200287a     287a        0     1                 
42002880     2880        0     1                 
4200288e     288e        0     1                 
420028a0     28a0        0     1                 
420028a8     28a8        0     1                 
420028a8     28a8        0     1                 
420028a8     28a8        0     1                 
420028a8     28a8       3e     2         /home/mabez/development/rust/embedded/experiments/esp32c3/target/riscv32imac-unknown-none-elf/debug/deps/librtt_target-ba817fabe6541e78.rlib(rtt_target-ba817fabe6541e78.rtt_target.a5746e51-cgu.3.rcgu.o):(.text._ZN4core3fmt5Write9write_fmt17h2b8fa088b4effb90E)
420028a8     28a8        0     1                 
420028a8     28a8        0     1                 
420028a8     28a8        0     1                 
420028a8     28a8       3e     1                 core::fmt::Write::write_fmt::h2b8fa088b4effb90
420028aa     28aa        0     1                 
420028ac     28ac        0     1                 
420028ae     28ae        0     1                 
420028c6     28c6        0     1                 
420028ce     28ce        0     1                 
420028ce     28ce        0     1                 
420028d2     28d2        0     1                 
420028de     28de        0     1                 
420028e6     28e6        0     1                 
420028e6     28e6        0     1                 
420028e6     28e6        0     1                 
420028e6     28e6       20     2         /home/mabez/development/rust/embedded/experiments/esp32c3/target/riscv32imac-unknown-none-elf/debug/deps/librtt_target-ba817fabe6541e78.rlib(rtt_target-ba817fabe6541e78.rtt_target.a5746e51-cgu.3.rcgu.o):(.text._ZN50_$LT$$RF$mut$u20$W$u20$as$u20$core..fmt..Write$GT$9write_str17h4b327301d8139485E)
420028e6     28e6        0     1                 
420028e6     28e6        0     1                 
420028e6     28e6        0     1                 
420028e6     28e6       20     1                 _$LT$$RF$mut$u20$W$u20$as$u20$core..fmt..Write$GT$::write_str::h4b327301d8139485
420028e8     28e8        0     1                 
420028ea     28ea        0     1                 
420028f0     28f0        0     1                 
420028fe     28fe        0     1                 
42002906     2906        0     1                 
42002906     2906        0     1                 
42002906     2906        0     1                 
42002906     2906       1e     2         /home/mabez/development/rust/embedded/experiments/esp32c3/target/riscv32imac-unknown-none-elf/debug/deps/librtt_target-ba817fabe6541e78.rlib(rtt_target-ba817fabe6541e78.rtt_target.a5746e51-cgu.3.rcgu.o):(.text._ZN50_$LT$$RF$mut$u20$W$u20$as$u20$core..fmt..Write$GT$10write_char17h3a558054ce42d145E)
42002906     2906        0     1                 
42002906     2906        0     1                 
42002906     2906        0     1                 
42002906     2906       1e     1                 _$LT$$RF$mut$u20$W$u20$as$u20$core..fmt..Write$GT$::write_char::h3a558054ce42d145
42002908     2908        0     1                 
4200290a     290a        0     1                 
4200290e     290e        0     1                 
4200291c     291c        0     1                 
42002924     2924        0     1                 
42002924     2924        0     1                 
42002924     2924        0     1                 
42002924     2924       36     2         /home/mabez/development/rust/embedded/experiments/esp32c3/target/riscv32imac-unknown-none-elf/debug/deps/librtt_target-ba817fabe6541e78.rlib(rtt_target-ba817fabe6541e78.rtt_target.a5746e51-cgu.3.rcgu.o):(.text._ZN50_$LT$$RF$mut$u20$W$u20$as$u20$core..fmt..Write$GT$9write_fmt17h1ac60d4af04f2c88E)
42002924     2924        0     1                 
42002924     2924        0     1                 
42002924     2924        0     1                 
42002924     2924       36     1                 _$LT$$RF$mut$u20$W$u20$as$u20$core..fmt..Write$GT$::write_fmt::h1ac60d4af04f2c88
42002926     2926        0     1                 
42002928     2928        0     1                 
4200292a     292a        0     1                 
4200292c     292c        0     1                 
42002942     2942        0     1                 
42002946     2946        0     1                 
42002952     2952        0     1                 
4200295a     295a        0     1                 
4200295a     295a        0     1                 
4200295a     295a        0     1                 
4200295a     295a       5c     2         /home/mabez/development/rust/embedded/experiments/esp32c3/target/riscv32imac-unknown-none-elf/debug/deps/librtt_target-ba817fabe6541e78.rlib(rtt_target-ba817fabe6541e78.rtt_target.a5746e51-cgu.4.rcgu.o):(.text._ZN106_$LT$core..ops..range..Range$LT$usize$GT$$u20$as$u20$core..slice..index..SliceIndex$LT$$u5b$T$u5d$$GT$$GT$13get_unchecked17hf18ed8df5d06952eE)
4200295a     295a        0     1                 
4200295a     295a        0     1                 
4200295a     295a        0     1                 
4200295a     295a       5c     1                 _$LT$core..ops..range..Range$LT$usize$GT$$u20$as$u20$core..slice..index..SliceIndex$LT$$u5b$T$u5d$$GT$$GT$::get_unchecked::hf18ed8df5d06952e
4200295c     295c        0     1                 
4200295e     295e        0     1                 
42002976     2976        0     1                 
42002982     2982        0     1                 
4200298e     298e        0     1                 
4200298e     298e        0     1                 
42002994     2994        0     1                 
42002994     2994        0     1                 
42002996     2996        0     1                 
4200299e     299e        0     1                 
420029ac     29ac        0     1                 
420029b6     29b6        0     1                 
420029b6     29b6        0     1                 
420029b6     29b6        0     1                 
420029b6     29b6       4c     2         /home/mabez/development/rust/embedded/experiments/esp32c3/target/riscv32imac-unknown-none-elf/debug/deps/librtt_target-ba817fabe6541e78.rlib(rtt_target-ba817fabe6541e78.rtt_target.a5746e51-cgu.4.rcgu.o):(.text._ZN106_$LT$core..ops..range..Range$LT$usize$GT$$u20$as$u20$core..slice..index..SliceIndex$LT$$u5b$T$u5d$$GT$$GT$17get_unchecked_mut17hc4fb343224f1b4c6E)
420029b6     29b6        0     1                 
420029b6     29b6        0     1                 
420029b6     29b6        0     1                 
420029b6     29b6       4c     1                 _$LT$core..ops..range..Range$LT$usize$GT$$u20$as$u20$core..slice..index..SliceIndex$LT$$u5b$T$u5d$$GT$$GT$::get_unchecked_mut::hc4fb343224f1b4c6
420029b8     29b8        0     1                 
420029ba     29ba        0     1                 
420029ca     29ca        0     1                 
420029ce     29ce        0     1                 
420029da     29da        0     1                 
420029da     29da        0     1                 
420029e0     29e0        0     1                 
420029e0     29e0        0     1                 
420029e2     29e2        0     1                 
420029ea     29ea        0     1                 
420029f8     29f8        0     1                 
42002a02     2a02        0     1                 
42002a02     2a02        0     1                 
42002a02     2a02        0     1                 
42002a02     2a02       66     2         /home/mabez/development/rust/embedded/experiments/esp32c3/target/riscv32imac-unknown-none-elf/debug/deps/librtt_target-ba817fabe6541e78.rlib(rtt_target-ba817fabe6541e78.rtt_target.a5746e51-cgu.4.rcgu.o):(.text._ZN106_$LT$core..ops..range..Range$LT$usize$GT$$u20$as$u20$core..slice..index..SliceIndex$LT$$u5b$T$u5d$$GT$$GT$9index_mut17h5b5f0f21ac2064d5E)
42002a02     2a02        0     1                 
42002a02     2a02        0     1                 
42002a02     2a02        0     1                 
42002a02     2a02       66     1                 _$LT$core..ops..range..Range$LT$usize$GT$$u20$as$u20$core..slice..index..SliceIndex$LT$$u5b$T$u5d$$GT$$GT$::index_mut::h5b5f0f21ac2064d5
42002a04     2a04        0     1                 
42002a06     2a06        0     1                 
42002a18     2a18        0     1                 
42002a1e     2a1e        0     1                 
42002a28     2a28        0     1                 
42002a38     2a38        0     1                 
42002a4e     2a4e        0     1                 
42002a5e     2a5e        0     1                 
42002a68     2a68        0     1                 
42002a68     2a68        0     1                 
42002a68     2a68        0     1                 
42002a68     2a68       30     2         /home/mabez/development/rust/embedded/experiments/esp32c3/target/riscv32imac-unknown-none-elf/debug/deps/librtt_target-ba817fabe6541e78.rlib(rtt_target-ba817fabe6541e78.rtt_target.a5746e51-cgu.4.rcgu.o):(.text._ZN108_$LT$core..ops..range..RangeTo$LT$usize$GT$$u20$as$u20$core..slice..index..SliceIndex$LT$$u5b$T$u5d$$GT$$GT$9index_mut17hfe1926d1df430decE)
42002a68     2a68        0     1                 
42002a68     2a68        0     1                 
42002a68     2a68        0     1                 
42002a68     2a68       30     1                 _$LT$core..ops..range..RangeTo$LT$usize$GT$$u20$as$u20$core..slice..index..SliceIndex$LT$$u5b$T$u5d$$GT$$GT$::index_mut::hfe1926d1df430dec
42002a6a     2a6a        0     1                 
42002a6c     2a6c        0     1                 
42002a7c     2a7c        0     1                 
42002a8e     2a8e        0     1                 
42002a98     2a98        0     1                 
42002a98     2a98        0     1                 
42002a98     2a98        0     1                 
42002a98     2a98       48     2         /home/mabez/development/rust/embedded/experiments/esp32c3/target/riscv32imac-unknown-none-elf/debug/deps/librtt_target-ba817fabe6541e78.rlib(rtt_target-ba817fabe6541e78.rtt_target.a5746e51-cgu.4.rcgu.o):(.text._ZN110_$LT$core..ops..range..RangeFrom$LT$usize$GT$$u20$as$u20$core..slice..index..SliceIndex$LT$$u5b$T$u5d$$GT$$GT$13get_unchecked17he1c2d69ed0bbc164E)
42002a98     2a98        0     1                 
42002a98     2a98        0     1                 
42002a98     2a98        0     1                 
42002a98     2a98       48     1                 _$LT$core..ops..range..RangeFrom$LT$usize$GT$$u20$as$u20$core..slice..index..SliceIndex$LT$$u5b$T$u5d$$GT$$GT$::get_unchecked::he1c2d69ed0bbc164
42002a9a     2a9a        0     1                 
42002a9c     2a9c        0     1                 
42002ab0     2ab0        0     1                 
42002abc     2abc        0     1                 
42002ad6     2ad6        0     1                 
42002ae0     2ae0        0     1                 
42002ae0     2ae0        0     1                 
42002ae0     2ae0        0     1                 
42002ae0     2ae0       46     2         /home/mabez/development/rust/embedded/experiments/esp32c3/target/riscv32imac-unknown-none-elf/debug/deps/librtt_target-ba817fabe6541e78.rlib(rtt_target-ba817fabe6541e78.rtt_target.a5746e51-cgu.4.rcgu.o):(.text._ZN110_$LT$core..ops..range..RangeFrom$LT$usize$GT$$u20$as$u20$core..slice..index..SliceIndex$LT$$u5b$T$u5d$$GT$$GT$5index17h4f2d3965e317daefE)
42002ae0     2ae0        0     1                 
42002ae0     2ae0        0     1                 
42002ae0     2ae0        0     1                 
42002ae0     2ae0       46     1                 _$LT$core..ops..range..RangeFrom$LT$usize$GT$$u20$as$u20$core..slice..index..SliceIndex$LT$$u5b$T$u5d$$GT$$GT$::index::h4f2d3965e317daef
42002ae2     2ae2        0     1                 
42002ae4     2ae4        0     1                 
42002af2     2af2        0     1                 
42002af8     2af8        0     1                 
42002b0c     2b0c        0     1                 
42002b1c     2b1c        0     1                 
42002b26     2b26        0     1                 
42002b26     2b26        0     1                 
42002b26     2b26        0     1                 
42002b26     2b26        a     2         /home/mabez/development/rust/embedded/experiments/esp32c3/target/riscv32imac-unknown-none-elf/debug/deps/librtt_target-ba817fabe6541e78.rlib(rtt_target-ba817fabe6541e78.rtt_target.a5746e51-cgu.4.rcgu.o):(.text._ZN97_$LT$core..ops..range..RangeFull$u20$as$u20$core..slice..index..SliceIndex$LT$$u5b$T$u5d$$GT$$GT$9index_mut17h56735f5cca3c21b9E)
42002b26     2b26        0     1                 
42002b26     2b26        0     1                 
42002b26     2b26        0     1                 
42002b26     2b26        a     1                 _$LT$core..ops..range..RangeFull$u20$as$u20$core..slice..index..SliceIndex$LT$$u5b$T$u5d$$GT$$GT$::index_mut::h56735f5cca3c21b9
42002b28     2b28        0     1                 
42002b2c     2b2c        0     1                 
42002b30     2b30        0     1                 
42002b30     2b30        0     1                 
42002b30     2b30        0     1                 
42002b30     2b30       14     2         /home/mabez/development/rust/embedded/experiments/esp32c3/target/riscv32imac-unknown-none-elf/debug/deps/librtt_target-ba817fabe6541e78.rlib(rtt_target-ba817fabe6541e78.rtt_target.a5746e51-cgu.13.rcgu.o):(.text._ZN4core3ptr8metadata8metadata17hc26db6e646307c71E)
42002b30     2b30        0     1                 
42002b30     2b30        0     1                 
42002b30     2b30        0     1                 
42002b30     2b30       14     1                 core::ptr::metadata::metadata::hc26db6e646307c71
42002b32     2b32        0     1                 
42002b3c     2b3c        0     1                 
42002b40     2b40        0     1                 
42002b44     2b44        0     1                 
42002b44     2b44        0     1                 
42002b44     2b44        0     1                 
42002b44     2b44       12     2         /home/mabez/development/rust/embedded/experiments/esp32c3/target/riscv32imac-unknown-none-elf/debug/deps/librtt_target-ba817fabe6541e78.rlib(rtt_target-ba817fabe6541e78.rtt_target.a5746e51-cgu.13.rcgu.o):(.text._ZN4core3ptr8metadata14from_raw_parts17h42120dd8fe81d028E)
42002b44     2b44        0     1                 
42002b44     2b44        0     1                 
42002b44     2b44        0     1                 
42002b44     2b44       12     1                 core::ptr::metadata::from_raw_parts::h42120dd8fe81d028
42002b46     2b46        0     1                 
42002b4a     2b4a        0     1                 
42002b4e     2b4e        0     1                 
42002b52     2b52        0     1                 
42002b56     2b56        0     1                 
42002b56     2b56        0     1                 
42002b56     2b56        0     1                 
42002b56     2b56       12     2         /home/mabez/development/rust/embedded/experiments/esp32c3/target/riscv32imac-unknown-none-elf/debug/deps/librtt_target-ba817fabe6541e78.rlib(rtt_target-ba817fabe6541e78.rtt_target.a5746e51-cgu.13.rcgu.o):(.text._ZN4core3ptr8metadata18from_raw_parts_mut17h663b2cbf832b1e16E)
42002b56     2b56        0     1                 
42002b56     2b56        0     1                 
42002b56     2b56        0     1                 
42002b56     2b56       12     1                 core::ptr::metadata::from_raw_parts_mut::h663b2cbf832b1e16
42002b58     2b58        0     1                 
42002b5c     2b5c        0     1                 
42002b60     2b60        0     1                 
42002b64     2b64        0     1                 
42002b68     2b68        0     1                 
42002b68     2b68        0     1                 
42002b68     2b68        0     1                 
42002b68     2b68       22     2         /home/mabez/development/rust/embedded/experiments/esp32c3/target/riscv32imac-unknown-none-elf/debug/deps/librtt_target-ba817fabe6541e78.rlib(rtt_target-ba817fabe6541e78.rtt_target.a5746e51-cgu.5.rcgu.o):(.text._ZN4core3fmt10ArgumentV13new17h3861d18b309c7d8bE)
42002b68     2b68        0     1                 
42002b68     2b68        0     1                 
42002b68     2b68        0     1                 
42002b68     2b68       22     1                 core::fmt::ArgumentV1::new::h3861d18b309c7d8b
42002b6a     2b6a        0     1                 
42002b70     2b70        0     1                 
42002b76     2b76        0     1                 
42002b7e     2b7e        0     1                 
42002b86     2b86        0     1                 
42002b8a     2b8a        0     1                 
42002b8a     2b8a        0     1                 
42002b8a     2b8a        0     1                 
42002b8a     2b8a       22     2         /home/mabez/development/rust/embedded/experiments/esp32c3/target/riscv32imac-unknown-none-elf/debug/deps/librtt_target-ba817fabe6541e78.rlib(rtt_target-ba817fabe6541e78.rtt_target.a5746e51-cgu.5.rcgu.o):(.text._ZN4core3fmt10ArgumentV13new17h83699479ff5f4258E)
42002b8a     2b8a        0     1                 
42002b8a     2b8a        0     1                 
42002b8a     2b8a        0     1                 
42002b8a     2b8a       22     1                 core::fmt::ArgumentV1::new::h83699479ff5f4258
42002b8c     2b8c        0     1                 
42002b92     2b92        0     1                 
42002b98     2b98        0     1                 
42002ba0     2ba0        0     1                 
42002ba8     2ba8        0     1                 
42002bac     2bac        0     1                 
42002bac     2bac        0     1                 
42002bac     2bac        0     1                 
42002bac     2bac       9a     2         /home/mabez/development/rust/embedded/experiments/esp32c3/target/riscv32imac-unknown-none-elf/debug/deps/librtt_target-ba817fabe6541e78.rlib(rtt_target-ba817fabe6541e78.rtt_target.a5746e51-cgu.5.rcgu.o):(.text._ZN4core3fmt9Arguments6new_v117hadb04e7638e947f3E)
42002bac     2bac        0     1                 
42002bac     2bac        0     1                 
42002bac     2bac        0     1                 
42002bac     2bac       9a     1                 core::fmt::Arguments::new_v1::hadb04e7638e947f3
42002bae     2bae        0     1                 
42002bb0     2bb0        0     1                 
42002bc2     2bc2        0     1                 
42002bc8     2bc8        0     1                 
42002bce     2bce        0     1                 
42002bd2     2bd2        0     1                 
42002bd8     2bd8        0     1                 
42002bda     2bda        0     1                 
42002bee     2bee        0     1                 
42002bfa     2bfa        0     1                 
42002bfc     2bfc        0     1                 
42002c0c     2c0c        0     1                 
42002c12     2c12        0     1                 
42002c46     2c46        0     1                 
42002c46     2c46        0     1                 
42002c46     2c46        0     1                 
42002c46     2c46       86     2         /home/mabez/development/rust/embedded/experiments/esp32c3/target/riscv32imac-unknown-none-elf/debug/deps/librtt_target-ba817fabe6541e78.rlib(rtt_target-ba817fabe6541e78.rtt_target.a5746e51-cgu.6.rcgu.o):(.text._ZN10rtt_target5print10print_impl11with_writer17he38bc32417417effE)
42002c46     2c46       86     1                 rtt_target::print::print_impl::with_writer::he38bc32417417eff
42002c46     2c46        0     1                 
42002c46     2c46        0     1                 
42002c46     2c46        0     1                 
42002c48     2c48        0     1                 
42002c4a     2c4a        0     1                 
42002c58     2c58        0     1                 
42002c5e     2c5e        0     1                 
42002c62     2c62        0     1                 
42002c7a     2c7a        0     1                 
42002c7a     2c7a        0     1                 
42002c88     2c88        0     1                 
42002c8c     2c8c        0     1                 
42002c92     2c92        0     1                 
42002c92     2c92        0     1                 
42002ca0     2ca0        0     1                 
42002ca8     2ca8        0     1                 
42002ca8     2ca8        0     1                 
42002cac     2cac        0     1                 
42002cb2     2cb2        0     1                 
42002cb2     2cb2        0     1                 
42002cc2     2cc2        0     1                 
42002cc2     2cc2        0     1                 
42002cc4     2cc4        0     1                 
42002cc4     2cc4        0     1                 
42002cca     2cca        0     1                 
42002ccc     2ccc        0     1                 
42002ccc     2ccc        0     1                 
42002ccc     2ccc        0     1                 
42002ccc     2ccc       86     2         /home/mabez/development/rust/embedded/experiments/esp32c3/target/riscv32imac-unknown-none-elf/debug/deps/librtt_target-ba817fabe6541e78.rlib(rtt_target-ba817fabe6541e78.rtt_target.a5746e51-cgu.6.rcgu.o):(.text._ZN10rtt_target5print10print_impl11with_writer17hea727c11a8f1408bE)
42002ccc     2ccc       86     1                 rtt_target::print::print_impl::with_writer::hea727c11a8f1408b
42002ccc     2ccc        0     1                 
42002ccc     2ccc        0     1                 
42002ccc     2ccc        0     1                 
42002cce     2cce        0     1                 
42002cd0     2cd0        0     1                 
42002cde     2cde        0     1                 
42002ce4     2ce4        0     1                 
42002ce8     2ce8        0     1                 
42002d00     2d00        0     1                 
42002d00     2d00        0     1                 
42002d0e     2d0e        0     1                 
42002d12     2d12        0     1                 
42002d18     2d18        0     1                 
42002d18     2d18        0     1                 
42002d26     2d26        0     1                 
42002d2e     2d2e        0     1                 
42002d2e     2d2e        0     1                 
42002d32     2d32        0     1                 
42002d38     2d38        0     1                 
42002d38     2d38        0     1                 
42002d48     2d48        0     1                 
42002d48     2d48        0     1                 
42002d4a     2d4a        0     1                 
42002d4a     2d4a        0     1                 
42002d50     2d50        0     1                 
42002d52     2d52        0     1                 
42002d52     2d52        0     1                 
42002d52     2d52        0     1                 
42002d52     2d52       68     2         /home/mabez/development/rust/embedded/experiments/esp32c3/target/riscv32imac-unknown-none-elf/debug/deps/librtt_target-ba817fabe6541e78.rlib(rtt_target-ba817fabe6541e78.rtt_target.a5746e51-cgu.6.rcgu.o):(.text._ZN10rtt_target5print10print_impl11with_writer28_$u7b$$u7b$closure$u7d$$u7d$17h69ab674acb8901adE)
42002d52     2d52        0     1                 
42002d52     2d52        0     1                 
42002d52     2d52        0     1                 
42002d52     2d52       68     1                 rtt_target::print::print_impl::with_writer::_$u7b$$u7b$closure$u7d$$u7d$::h69ab674acb8901ad
42002d54     2d54        0     1                 
42002d56     2d56        0     1                 
42002d5a     2d5a        0     1                 
42002d5c     2d5c        0     1                 
42002d6a     2d6a        0     1                 
42002d6a     2d6a        0     1                 
42002d6c     2d6c        0     1                 
42002d78     2d78        0     1                 
42002d78     2d78        0     1                 
42002d7c     2d7c        0     1                 
42002d8e     2d8e        0     1                 
42002db4     2db4        0     1                 
42002db4     2db4        0     1                 
42002dba     2dba        0     1                 
42002dba     2dba        0     1                 
42002dba     2dba        0     1                 
42002dba     2dba       68     2         /home/mabez/development/rust/embedded/experiments/esp32c3/target/riscv32imac-unknown-none-elf/debug/deps/librtt_target-ba817fabe6541e78.rlib(rtt_target-ba817fabe6541e78.rtt_target.a5746e51-cgu.6.rcgu.o):(.text._ZN10rtt_target5print10print_impl11with_writer28_$u7b$$u7b$closure$u7d$$u7d$17h6bce7e62dc02518eE)
42002dba     2dba        0     1                 
42002dba     2dba        0     1                 
42002dba     2dba        0     1                 
42002dba     2dba       68     1                 rtt_target::print::print_impl::with_writer::_$u7b$$u7b$closure$u7d$$u7d$::h6bce7e62dc02518e
42002dbc     2dbc        0     1                 
42002dbe     2dbe        0     1                 
42002dc2     2dc2        0     1                 
42002dc4     2dc4        0     1                 
42002dd2     2dd2        0     1                 
42002dd2     2dd2        0     1                 
42002dd4     2dd4        0     1                 
42002de0     2de0        0     1                 
42002de0     2de0        0     1                 
42002de4     2de4        0     1                 
42002df6     2df6        0     1                 
42002e1c     2e1c        0     1                 
42002e1c     2e1c        0     1                 
42002e22     2e22        0     1                 
42002e22     2e22        0     1                 
42002e22     2e22        0     1                 
42002e22     2e22       20     2         /home/mabez/development/rust/embedded/experiments/esp32c3/target/riscv32imac-unknown-none-elf/debug/deps/librtt_target-ba817fabe6541e78.rlib(rtt_target-ba817fabe6541e78.rtt_target.a5746e51-cgu.6.rcgu.o):(.text._ZN10rtt_target5print10print_impl9write_str17ha2ff5f194530a853E)
42002e22     2e22        0     1                 
42002e22     2e22        0     1                 
42002e22     2e22        0     1                 
42002e22     2e22       20     1                 rtt_target::print::print_impl::write_str::ha2ff5f194530a853
42002e24     2e24        0     1                 
42002e26     2e26        0     1                 
42002e30     2e30        0     1                 
42002e32     2e32        0     1                 
42002e3c     2e3c        0     1                 
42002e42     2e42        0     1                 
42002e42     2e42        0     1                 
42002e42     2e42        0     1                 
42002e42     2e42       3c     2         /home/mabez/development/rust/embedded/experiments/esp32c3/target/riscv32imac-unknown-none-elf/debug/deps/librtt_target-ba817fabe6541e78.rlib(rtt_target-ba817fabe6541e78.rtt_target.a5746e51-cgu.6.rcgu.o):(.text._ZN10rtt_target5print10print_impl9write_str28_$u7b$$u7b$closure$u7d$$u7d$17h75bf2f075b63ccd1E)
42002e42     2e42       3c     1                 rtt_target::print::print_impl::write_str::_$u7b$$u7b$closure$u7d$$u7d$::h75bf2f075b63ccd1
42002e42     2e42        0     1                 
42002e42     2e42        0     1                 
42002e42     2e42        0     1                 
42002e44     2e44        0     1                 
42002e44     2e44        0     1                 
42002e46     2e46        0     1                 
42002e48     2e48        0     1                 
42002e48     2e48        0     1                 
42002e4e     2e4e        0     1                 
42002e54     2e54        0     1                 
42002e6c     2e6c        0     1                 
42002e78     2e78        0     1                 
42002e7e     2e7e        0     1                 
42002e7e     2e7e        0     1                 
42002e7e     2e7e        0     1                 
42002e7e     2e7e       1a     2         /home/mabez/development/rust/embedded/experiments/esp32c3/target/riscv32imac-unknown-none-elf/debug/deps/librtt_target-ba817fabe6541e78.rlib(rtt_target-ba817fabe6541e78.rtt_target.a5746e51-cgu.6.rcgu.o):(.text._ZN10rtt_target5print10print_impl9write_fmt17h84cbf6393236827fE)
42002e7e     2e7e        0     1                 
42002e7e     2e7e        0     1                 
42002e7e     2e7e        0     1                 
42002e7e     2e7e       1a     1                 rtt_target::print::print_impl::write_fmt::h84cbf6393236827f
42002e80     2e80        0     1                 
42002e82     2e82        0     1                 
42002e86     2e86        0     1                 
42002e88     2e88        0     1                 
42002e90     2e90        0     1                 
42002e92     2e92        0     1                 
42002e98     2e98        0     1                 
42002e98     2e98        0     1                 
42002e98     2e98        0     1                 
42002e98     2e98       52     2         /home/mabez/development/rust/embedded/experiments/esp32c3/target/riscv32imac-unknown-none-elf/debug/deps/librtt_target-ba817fabe6541e78.rlib(rtt_target-ba817fabe6541e78.rtt_target.a5746e51-cgu.6.rcgu.o):(.text._ZN10rtt_target5print10print_impl9write_fmt28_$u7b$$u7b$closure$u7d$$u7d$17h4f4352e8234927b8E)
42002e98     2e98       52     1                 rtt_target::print::print_impl::write_fmt::_$u7b$$u7b$closure$u7d$$u7d$::h4f4352e8234927b8
42002e98     2e98        0     1                 
42002e98     2e98        0     1                 
42002e98     2e98        0     1                 
42002e9a     2e9a        0     1                 
42002e9a     2e9a        0     1                 
42002e9c     2e9c        0     1                 
42002e9e     2e9e        0     1                 
42002e9e     2e9e        0     1                 
42002ea4     2ea4        0     1                 
42002ec0     2ec0        0     1                 
42002ed8     2ed8        0     1                 
42002ee4     2ee4        0     1                 
42002eea     2eea        0     1                 
42002eea     2eea        0     1                 
42002eea     2eea        0     1                 
42002eea     2eea       32     2         /home/mabez/development/rust/embedded/experiments/esp32c3/target/riscv32imac-unknown-none-elf/debug/deps/librtt_target-ba817fabe6541e78.rlib(rtt_target-ba817fabe6541e78.rtt_target.a5746e51-cgu.7.rcgu.o):(.text._ZN4core3ptr20slice_from_raw_parts17hddbf28017d3308eaE)
42002eea     2eea        0     1                 
42002eea     2eea        0     1                 
42002eea     2eea        0     1                 
42002eea     2eea       32     1                 core::ptr::slice_from_raw_parts::hddbf28017d3308ea
42002eec     2eec        0     1                 
42002eee     2eee        0     1                 
42002ef4     2ef4        0     1                 
42002f00     2f00        0     1                 
42002f12     2f12        0     1                 
42002f1c     2f1c        0     1                 
42002f1c     2f1c        0     1                 
42002f1c     2f1c        0     1                 
42002f1c     2f1c       2c     2         /home/mabez/development/rust/embedded/experiments/esp32c3/target/riscv32imac-unknown-none-elf/debug/deps/librtt_target-ba817fabe6541e78.rlib(rtt_target-ba817fabe6541e78.rtt_target.a5746e51-cgu.7.rcgu.o):(.text._ZN4core3ptr24slice_from_raw_parts_mut17h6256d06b3920ed3dE)
42002f1c     2f1c        0     1                 
42002f1c     2f1c        0     1                 
42002f1c     2f1c        0     1                 
42002f1c     2f1c       2c     1                 core::ptr::slice_from_raw_parts_mut::h6256d06b3920ed3d
42002f1e     2f1e        0     1                 
42002f20     2f20        0     1                 
42002f28     2f28        0     1                 
42002f2c     2f2c        0     1                 
42002f3e     2f3e        0     1                 
42002f48     2f48        0     1                 
42002f48     2f48        0     1                 
42002f48     2f48        0     1                 
42002f48     2f48       1a     2         /home/mabez/development/rust/embedded/experiments/esp32c3/target/riscv32imac-unknown-none-elf/debug/deps/librtt_target-ba817fabe6541e78.rlib(rtt_target-ba817fabe6541e78.rtt_target.a5746e51-cgu.7.rcgu.o):(.text._ZN4core3ptr5write17h06542ef534832571E)
42002f48     2f48        0     1                 
42002f48     2f48        0     1                 
42002f48     2f48        0     1                 
42002f48     2f48       1a     1                 core::ptr::write::h06542ef534832571
42002f4a     2f4a        0     1                 
42002f58     2f58        0     1                 
42002f5e     2f5e        0     1                 
42002f62     2f62        0     1                 
42002f62     2f62        0     1                 
42002f62     2f62        0     1                 
42002f62     2f62        e     2         /home/mabez/development/rust/embedded/experiments/esp32c3/target/riscv32imac-unknown-none-elf/debug/deps/librtt_target-ba817fabe6541e78.rlib(rtt_target-ba817fabe6541e78.rtt_target.a5746e51-cgu.7.rcgu.o):(.text._ZN4core3ptr14write_volatile17h337299838f87c846E)
42002f62     2f62        0     1                 
42002f62     2f62        0     1                 
42002f62     2f62        0     1                 
42002f62     2f62        e     1                 core::ptr::write_volatile::h337299838f87c846
42002f64     2f64        0     1                 
42002f68     2f68        0     1                 
42002f6c     2f6c        0     1                 
42002f70     2f70        0     1                 
42002f70     2f70        0     1                 
42002f70     2f70        0     1                 
42002f70     2f70        e     2         /home/mabez/development/rust/embedded/experiments/esp32c3/target/riscv32imac-unknown-none-elf/debug/deps/librtt_target-ba817fabe6541e78.rlib(rtt_target-ba817fabe6541e78.rtt_target.a5746e51-cgu.7.rcgu.o):(.text._ZN4core3ptr14write_volatile17h5367d2a92653a791E)
42002f70     2f70        0     1                 
42002f70     2f70        0     1                 
42002f70     2f70        0     1                 
42002f70     2f70        e     1                 core::ptr::write_volatile::h5367d2a92653a791
42002f72     2f72        0     1                 
42002f76     2f76        0     1                 
42002f7a     2f7a        0     1                 
42002f7e     2f7e        0     1                 
42002f7e     2f7e        0     1                 
42002f7e     2f7e        0     1                 
42002f7e     2f7e        e     2         /home/mabez/development/rust/embedded/experiments/esp32c3/target/riscv32imac-unknown-none-elf/debug/deps/librtt_target-ba817fabe6541e78.rlib(rtt_target-ba817fabe6541e78.rtt_target.a5746e51-cgu.7.rcgu.o):(.text._ZN4core3ptr14write_volatile17h7d08eacbc2a55e06E)
42002f7e     2f7e        0     1                 
42002f7e     2f7e        0     1                 
42002f7e     2f7e        0     1                 
42002f7e     2f7e        e     1                 core::ptr::write_volatile::h7d08eacbc2a55e06
42002f80     2f80        0     1                 
42002f84     2f84        0     1                 
42002f88     2f88        0     1                 
42002f8c     2f8c        0     1                 
42002f8c     2f8c        0     1                 
42002f8c     2f8c        0     1                 
42002f8c     2f8c       1c     2         /home/mabez/development/rust/embedded/experiments/esp32c3/target/riscv32imac-unknown-none-elf/debug/deps/librtt_target-ba817fabe6541e78.rlib(rtt_target-ba817fabe6541e78.rtt_target.a5746e51-cgu.8.rcgu.o):(.text._ZN4core3ops8function6FnOnce9call_once17h16dca500cf7d9a98E)
42002f8c     2f8c        0     1                 
42002f8c     2f8c        0     1                 
42002f8c     2f8c        0     1                 
42002f8c     2f8c       1c     1                 core::ops::function::FnOnce::call_once::h16dca500cf7d9a98
42002f8e     2f8e        0     1                 
42002f90     2f90        0     1                 
42002f96     2f96        0     1                 
42002fa8     2fa8        0     1                 
42002fa8     2fa8        0     1                 
42002fa8     2fa8        0     1                 
42002fa8     2fa8       1c     2         /home/mabez/development/rust/embedded/experiments/esp32c3/target/riscv32imac-unknown-none-elf/debug/deps/librtt_target-ba817fabe6541e78.rlib(rtt_target-ba817fabe6541e78.rtt_target.a5746e51-cgu.8.rcgu.o):(.text._ZN4core3ops8function6FnOnce9call_once17h7dff7be20658695eE)
42002fa8     2fa8        0     1                 
42002fa8     2fa8        0     1                 
42002fa8     2fa8        0     1                 
42002fa8     2fa8       1c     1                 core::ops::function::FnOnce::call_once::h7dff7be20658695e
42002faa     2faa        0     1                 
42002fac     2fac        0     1                 
42002fb0     2fb0        0     1                 
42002fc4     2fc4        0     1                 
42002fc4     2fc4        0     1                 
42002fc4     2fc4        0     1                 
42002fc4     2fc4       1c     2         /home/mabez/development/rust/embedded/experiments/esp32c3/target/riscv32imac-unknown-none-elf/debug/deps/librtt_target-ba817fabe6541e78.rlib(rtt_target-ba817fabe6541e78.rtt_target.a5746e51-cgu.8.rcgu.o):(.text._ZN4core3ops8function6FnOnce9call_once17hc1c7fd38e8a94d65E)
42002fc4     2fc4        0     1                 
42002fc4     2fc4        0     1                 
42002fc4     2fc4        0     1                 
42002fc4     2fc4       1c     1                 core::ops::function::FnOnce::call_once::hc1c7fd38e8a94d65
42002fc6     2fc6        0     1                 
42002fc8     2fc8        0     1                 
42002fce     2fce        0     1                 
42002fe0     2fe0        0     1                 
42002fe0     2fe0        0     1                 
42002fe0     2fe0        0     1                 
42002fe0     2fe0       20     2         /home/mabez/development/rust/embedded/experiments/esp32c3/target/riscv32imac-unknown-none-elf/debug/deps/librtt_target-ba817fabe6541e78.rlib(rtt_target-ba817fabe6541e78.rtt_target.a5746e51-cgu.8.rcgu.o):(.text._ZN4core3ops8function6FnOnce9call_once17hdf41421e7f42fbb2E)
42002fe0     2fe0        0     1                 
42002fe0     2fe0        0     1                 
42002fe0     2fe0        0     1                 
42002fe0     2fe0       20     1                 core::ops::function::FnOnce::call_once::hdf41421e7f42fbb2
42002fe2     2fe2        0     1                 
42002fe4     2fe4        0     1                 
42002fee     2fee        0     1                 
42003000     3000        0     1                 
42003000     3000        0     1                 
42003000     3000        0     1                 
42003000     3000       1c     2         /home/mabez/development/rust/embedded/experiments/esp32c3/target/riscv32imac-unknown-none-elf/debug/deps/librtt_target-ba817fabe6541e78.rlib(rtt_target-ba817fabe6541e78.rtt_target.a5746e51-cgu.8.rcgu.o):(.text._ZN4core3ops8function6FnOnce9call_once17hea24be9424982a8eE)
42003000     3000        0     1                 
42003000     3000        0     1                 
42003000     3000        0     1                 
42003000     3000       1c     1                 core::ops::function::FnOnce::call_once::hea24be9424982a8e
42003002     3002        0     1                 
42003004     3004        0     1                 
4200300a     300a        0     1                 
4200301c     301c        0     1                 
4200301c     301c        0     1                 
4200301c     301c        0     1                 
4200301c     301c       24     2         /home/mabez/development/rust/embedded/experiments/esp32c3/target/riscv32imac-unknown-none-elf/debug/deps/librtt_target-ba817fabe6541e78.rlib(rtt_target-ba817fabe6541e78.rtt_target.a5746e51-cgu.8.rcgu.o):(.text._ZN4core3ptr47drop_in_place$LT$rtt_target..TerminalWriter$GT$17h793faa672f207f4eE)
4200301c     301c        0     1                 
4200301c     301c        0     1                 
4200301c     301c        0     1                 
4200301c     301c       24     1                 core::ptr::drop_in_place$LT$rtt_target..TerminalWriter$GT$::h793faa672f207f4e
4200301e     301e        0     1                 
42003020     3020        0     1                 
42003024     3024        0     1                 
42003040     3040        0     1                 
42003040     3040        0     1                 
42003040     3040        0     1                 
42003040     3040       16     2         /home/mabez/development/rust/embedded/experiments/esp32c3/target/riscv32imac-unknown-none-elf/debug/deps/librtt_target-ba817fabe6541e78.rlib(rtt_target-ba817fabe6541e78.rtt_target.a5746e51-cgu.8.rcgu.o):(.text._ZN4core3ptr47drop_in_place$LT$rtt_target..rtt..RttWriter$GT$17hccd1bcc35bc56914E)
42003040     3040        0     1                 
42003040     3040        0     1                 
42003040     3040        0     1                 
42003040     3040       16     1                 core::ptr::drop_in_place$LT$rtt_target..rtt..RttWriter$GT$::hccd1bcc35bc56914
42003042     3042        0     1                 
42003044     3044        0     1                 
42003046     3046        0     1                 
42003056     3056        0     1                 
42003056     3056        0     1                 
42003056     3056        0     1                 
42003056     3056        8     2         /home/mabez/development/rust/embedded/experiments/esp32c3/target/riscv32imac-unknown-none-elf/debug/deps/librtt_target-ba817fabe6541e78.rlib(rtt_target-ba817fabe6541e78.rtt_target.a5746e51-cgu.8.rcgu.o):(.text._ZN4core3ptr59drop_in_place$LT$$RF$mut$u20$rtt_target..TerminalWriter$GT$17h224c8c949d2c428cE)
42003056     3056        0     1                 
42003056     3056        0     1                 
42003056     3056        0     1                 
42003056     3056        8     1                 core::ptr::drop_in_place$LT$$RF$mut$u20$rtt_target..TerminalWriter$GT$::h224c8c949d2c428c
42003058     3058        0     1                 
4200305a     305a        0     1                 
4200305e     305e        0     1                 
4200305e     305e        0     1                 
4200305e     305e        0     1                 
4200305e     305e        8     2         /home/mabez/development/rust/embedded/experiments/esp32c3/target/riscv32imac-unknown-none-elf/debug/deps/librtt_target-ba817fabe6541e78.rlib(rtt_target-ba817fabe6541e78.rtt_target.a5746e51-cgu.8.rcgu.o):(.text._ZN4core3ptr9const_ptr33_$LT$impl$u20$$BP$const$u20$T$GT$4cast17hd6fb204d518faac4E)
4200305e     305e        0     1                 
4200305e     305e        0     1                 
4200305e     305e        0     1                 
4200305e     305e        8     1                 core::ptr::const_ptr::_$LT$impl$u20$$BP$const$u20$T$GT$::cast::hd6fb204d518faac4
42003060     3060        0     1                 
42003062     3062        0     1                 
42003066     3066        0     1                 
42003066     3066        0     1                 
42003066     3066        0     1                 
42003066     3066       1c     2         /home/mabez/development/rust/embedded/experiments/esp32c3/target/riscv32imac-unknown-none-elf/debug/deps/librtt_target-ba817fabe6541e78.rlib(rtt_target-ba817fabe6541e78.rtt_target.a5746e51-cgu.8.rcgu.o):(.text._ZN4core3ptr9const_ptr43_$LT$impl$u20$$BP$const$u20$$u5b$T$u5d$$GT$3len17haf30f7b83f5c6779E)
42003066     3066        0     1                 
42003066     3066        0     1                 
42003066     3066        0     1                 
42003066     3066       1c     1                 core::ptr::const_ptr::_$LT$impl$u20$$BP$const$u20$$u5b$T$u5d$$GT$::len::haf30f7b83f5c6779
42003068     3068        0     1                 
4200306a     306a        0     1                 
4200306e     306e        0     1                 
4200307a     307a        0     1                 
42003082     3082        0     1                 
42003082     3082        0     1                 
42003082     3082        0     1                 
42003082     3082        a     2         /home/mabez/development/rust/embedded/experiments/esp32c3/target/riscv32imac-unknown-none-elf/debug/deps/librtt_target-ba817fabe6541e78.rlib(rtt_target-ba817fabe6541e78.rtt_target.a5746e51-cgu.8.rcgu.o):(.text._ZN4core3ptr9const_ptr43_$LT$impl$u20$$BP$const$u20$$u5b$T$u5d$$GT$6as_ptr17h1c611aed859cfe19E)
42003082     3082        0     1                 
42003082     3082        0     1                 
42003082     3082        0     1                 
42003082     3082        a     1                 core::ptr::const_ptr::_$LT$impl$u20$$BP$const$u20$$u5b$T$u5d$$GT$::as_ptr::h1c611aed859cfe19
42003084     3084        0     1                 
42003088     3088        0     1                 
4200308c     308c        0     1                 
4200308c     308c        0     1                 
4200308c     308c        0     1                 
4200308c     308c       46     2         /home/mabez/development/rust/embedded/experiments/esp32c3/target/riscv32imac-unknown-none-elf/debug/deps/librtt_target-ba817fabe6541e78.rlib(rtt_target-ba817fabe6541e78.rtt_target.a5746e51-cgu.8.rcgu.o):(.text._ZN4core3cmp5impls50_$LT$impl$u20$core..cmp..Ord$u20$for$u20$usize$GT$3cmp17hdf3623199df502e7E)
4200308c     308c       46     1                 core::cmp::impls::_$LT$impl$u20$core..cmp..Ord$u20$for$u20$usize$GT$::cmp::hdf3623199df502e7
4200308c     308c        0     1                 
4200308c     308c        0     1                 
4200308c     308c        0     1                 
4200308e     308e        0     1                 
42003096     3096        0     1                 
42003098     3098        0     1                 
4200309a     309a        0     1                 
420030a0     30a0        0     1                 
420030a6     30a6        0     1                 
420030a8     30a8        0     1                 
420030ae     30ae        0     1                 
420030b2     30b2        0     1                 
420030b6     30b6        0     1                 
420030b8     30b8        0     1                 
420030c0     30c0        0     1                 
420030c2     30c2        0     1                 
420030c6     30c6        0     1                 
420030c8     30c8        0     1                 
420030ca     30ca        0     1                 
420030ce     30ce        0     1                 
420030d0     30d0        0     1                 
420030d2     30d2        0     1                 
420030d2     30d2        0     1                 
420030d2     30d2        0     1                 
420030d2     30d2       1c     2         /home/mabez/development/rust/embedded/experiments/esp32c3/target/riscv32imac-unknown-none-elf/debug/deps/librtt_target-ba817fabe6541e78.rlib(rtt_target-ba817fabe6541e78.rtt_target.a5746e51-cgu.9.rcgu.o):(.text._ZN4core3cmp3Ord3min17h0e363d112d894c07E)
420030d2     30d2        0     1                 
420030d2     30d2        0     1                 
420030d2     30d2        0     1                 
420030d2     30d2       1c     1                 core::cmp::Ord::min::h0e363d112d894c07
420030d4     30d4        0     1                 
420030d6     30d6        0     1                 
420030da     30da        0     1                 
420030e6     30e6        0     1                 
420030ee     30ee        0     1                 
420030ee     30ee        0     1                 
420030ee     30ee        0     1                 
420030ee     30ee       1c     2         /home/mabez/development/rust/embedded/experiments/esp32c3/target/riscv32imac-unknown-none-elf/debug/deps/librtt_target-ba817fabe6541e78.rlib(rtt_target-ba817fabe6541e78.rtt_target.a5746e51-cgu.9.rcgu.o):(.text._ZN4core3cmp3min17h4a294bd8b167e8c7E)
420030ee     30ee        0     1                 
420030ee     30ee        0     1                 
420030ee     30ee        0     1                 
420030ee     30ee       1c     1                 core::cmp::min::h4a294bd8b167e8c7
420030f0     30f0        0     1                 
420030f2     30f2        0     1                 
420030f6     30f6        0     1                 
42003102     3102        0     1                 
4200310a     310a        0     1                 
4200310a     310a        0     1                 
4200310a     310a        0     1                 
4200310a     310a       7e     2         /home/mabez/development/rust/embedded/experiments/esp32c3/target/riscv32imac-unknown-none-elf/debug/deps/librtt_target-ba817fabe6541e78.rlib(rtt_target-ba817fabe6541e78.rtt_target.a5746e51-cgu.9.rcgu.o):(.text._ZN4core3cmp6min_by17hdfb9123a6b534decE)
4200310a     310a        0     1                 
4200310a     310a        0     1                 
4200310a     310a        0     1                 
4200310a     310a       7e     1                 core::cmp::min_by::hdfb9123a6b534dec
4200310c     310c        0     1                 
4200310e     310e        0     1                 
42003114     3114        0     1                 
42003136     3136        0     1                 
42003146     3146        0     1                 
42003148     3148        0     1                 
4200314a     314a        0     1                 
42003154     3154        0     1                 
42003156     3156        0     1                 
42003160     3160        0     1                 
4200317e     317e        0     1                 
42003186     3186        0     1                 
42003188     3188        0     1                 
42003188     3188        0     1                 
42003188     3188        0     1                 
42003188     3188       d2     2         /home/mabez/development/rust/embedded/experiments/esp32c3/target/riscv32imac-unknown-none-elf/debug/deps/libesp32c3_lib-c6891e451671e2e8.rlib(esp32c3_lib-c6891e451671e2e8.50vycai6f6fblslz.rcgu.o):(.text._ZN11esp32c3_lib10GpioOutput3new17h175639e1565e5edeE)
42003188     3188        0     1                 
42003188     3188        0     1                 
42003188     3188        0     1                 
42003188     3188       d2     1                 esp32c3_lib::GpioOutput::new::h175639e1565e5ede
4200318a     318a        0     1                 
4200318c     318c        0     1                 
42003198     3198        0     1                 
420031a6     31a6        0     1                 
420031b0     31b0        0     1                 
420031ba     31ba        0     1                 
420031d8     31d8        0     1                 
420031de     31de        0     1                 
420031de     31de        0     1                 
420031f2     31f2        0     1                 
420031f2     31f2        0     1                 
4200320e     320e        0     1                 
4200320e     320e        0     1                 
42003222     3222        0     1                 
42003240     3240        0     1                 
42003250     3250        0     1                 
42003254     3254        0     1                 
42003254     3254        0     1                 
4200325a     325a        0     1                 
4200325a     325a        0     1                 
4200325a     325a        0     1                 
4200325a     325a       58     2         /home/mabez/development/rust/embedded/experiments/esp32c3/target/riscv32imac-unknown-none-elf/debug/deps/libesp32c3_lib-c6891e451671e2e8.rlib(esp32c3_lib-c6891e451671e2e8.50vycai6f6fblslz.rcgu.o):(.text._ZN80_$LT$esp32c3_lib..GpioOutput$u20$as$u20$embedded_hal..digital..v2..OutputPin$GT$7set_low17h89efc9e2a58817f9E)
4200325a     325a        0     1                 
4200325a     325a        0     1                 
4200325a     325a        0     1                 
4200325a     325a       58     1                 _$LT$esp32c3_lib..GpioOutput$u20$as$u20$embedded_hal..digital..v2..OutputPin$GT$::set_low::h89efc9e2a58817f9
4200325c     325c        0     1                 
4200325e     325e        0     1                 
42003260     3260        0     1                 
42003262     3262        0     1                 
42003276     3276        0     1                 
42003288     3288        0     1                 
420032a6     32a6        0     1                 
420032a8     32a8        0     1                 
420032ac     32ac        0     1                 
420032b2     32b2        0     1                 
420032b2     32b2        0     1                 
420032b2     32b2        0     1                 
420032b2     32b2       58     2         /home/mabez/development/rust/embedded/experiments/esp32c3/target/riscv32imac-unknown-none-elf/debug/deps/libesp32c3_lib-c6891e451671e2e8.rlib(esp32c3_lib-c6891e451671e2e8.50vycai6f6fblslz.rcgu.o):(.text._ZN80_$LT$esp32c3_lib..GpioOutput$u20$as$u20$embedded_hal..digital..v2..OutputPin$GT$8set_high17h4f1e5bfa802dd782E)
420032b2     32b2        0     1                 
420032b2     32b2        0     1                 
420032b2     32b2        0     1                 
420032b2     32b2       58     1                 _$LT$esp32c3_lib..GpioOutput$u20$as$u20$embedded_hal..digital..v2..OutputPin$GT$::set_high::h4f1e5bfa802dd782
420032b4     32b4        0     1                 
420032b6     32b6        0     1                 
420032b8     32b8        0     1                 
420032ba     32ba        0     1                 
420032ce     32ce        0     1                 
420032e0     32e0        0     1                 
420032fe     32fe        0     1                 
42003300     3300        0     1                 
42003304     3304        0     1                 
4200330a     330a        0     1                 
4200330a     330a        0     1                 
4200330a     330a        0     1                 
4200330a     330a        a     2         /home/mabez/development/rust/embedded/experiments/esp32c3/target/riscv32imac-unknown-none-elf/debug/deps/libesp32c3_lib-c6891e451671e2e8.rlib(esp32c3_lib-c6891e451671e2e8.50vycai6f6fblslz.rcgu.o):(.text._ZN11esp32c3_lib8EtsTimer3new17h0494f85699d2ec0bE)
4200330a     330a        0     1                 
4200330a     330a        0     1                 
4200330a     330a        0     1                 
4200330a     330a        a     1                 esp32c3_lib::EtsTimer::new::h0494f85699d2ec0b
4200330c     330c        0     1                 
4200330e     330e        0     1                 
42003310     3310        0     1                 
42003314     3314        0     1                 
42003314     3314        0     1                 
42003314     3314        0     1                 
42003314     3314       1e     2         /home/mabez/development/rust/embedded/experiments/esp32c3/target/riscv32imac-unknown-none-elf/debug/deps/libesp32c3_lib-c6891e451671e2e8.rlib(esp32c3_lib-c6891e451671e2e8.50vycai6f6fblslz.rcgu.o):(.text._ZN72_$LT$esp32c3_lib..EtsTimer$u20$as$u20$embedded_hal..timer..CountDown$GT$4wait17h492c5ce631b564a4E)
42003314     3314        0     1                 
42003314     3314        0     1                 
42003314     3314        0     1                 
42003314     3314       1e     1                 _$LT$esp32c3_lib..EtsTimer$u20$as$u20$embedded_hal..timer..CountDown$GT$::wait::h492c5ce631b564a4
42003316     3316        0     1                 
42003318     3318        0     1                 
4200331a     331a        0     1                 
4200331c     331c        0     1                 
42003326     3326        0     1                 
42003328     3328        0     1                 
4200332c     332c        0     1                 
42003332     3332        0     1                 
42003332     3332        0     1                 
42003332     3332        0     1                 
42003332     3332       74     2         /home/mabez/development/rust/embedded/experiments/esp32c3/target/riscv32imac-unknown-none-elf/debug/deps/libesp32c3_lib-c6891e451671e2e8.rlib(esp32c3_lib-c6891e451671e2e8.50vycai6f6fblslz.rcgu.o):(.text._ZN54_$LT$esp32c3_lib..Uart$u20$as$u20$core..fmt..Write$GT$9write_str17h3b16935b1b7a9ba0E)
42003332     3332        0     1                 
42003332     3332        0     1                 
42003332     3332        0     1                 
42003332     3332       74     1                 _$LT$esp32c3_lib..Uart$u20$as$u20$core..fmt..Write$GT$::write_str::h3b16935b1b7a9ba0
42003334     3334        0     1                 
42003336     3336        0     1                 
42003340     3340        0     1                 
42003340     3340        0     1                 
42003344     3344        0     1                 
42003344     3344        0     1                 
42003364     3364        0     1                 
42003364     3364        0     1                 
42003366     3366        0     1                 
42003368     3368        0     1                 
42003386     3386        0     1                 
42003386     3386        0     1                 
42003388     3388        0     1                 
4200338c     338c        0     1                 
42003392     3392        0     1                 
42003392     3392        0     1                 
4200339c     339c        0     1                 
4200339c     339c        0     1                 
420033a6     33a6        0     1                 
420033a6     33a6        0     1                 
420033a6     33a6        0     1                 
420033a6     33a6        0     1                 
420033a6     33a6      12c     2         /home/mabez/development/rust/embedded/experiments/esp32c3/target/riscv32imac-unknown-none-elf/debug/deps/libesp32c3_lib-c6891e451671e2e8.rlib(esp32c3_lib-c6891e451671e2e8.50vycai6f6fblslz.rcgu.o):(.text._ZN11esp32c3_lib12disable_wdts17heab58042fcedad0dE)
420033a6     33a6        0     1                 
420033a6     33a6        0     1                 
420033a6     33a6        0     1                 
420033a6     33a6      12c     1                 esp32c3_lib::disable_wdts::heab58042fcedad0d
420033a8     33a8        0     1                 
420033aa     33aa        0     1                 
420033ba     33ba        0     1                 
420033c4     33c4        0     1                 
420033cc     33cc        0     1                 
420033d8     33d8        0     1                 
420033de     33de        0     1                 
420033e8     33e8        0     1                 
420033f2     33f2        0     1                 
420033fc     33fc        0     1                 
42003406     3406        0     1                 
42003416     3416        0     1                 
42003420     3420        0     1                 
4200342a     342a        0     1                 
42003434     3434        0     1                 
4200343e     343e        0     1                 
42003448     3448        0     1                 
42003458     3458        0     1                 
42003462     3462        0     1                 
4200346c     346c        0     1                 
42003476     3476        0     1                 
42003480     3480        0     1                 
4200348a     348a        0     1                 
4200349a     349a        0     1                 
420034a4     34a4        0     1                 
420034ae     34ae        0     1                 
420034b8     34b8        0     1                 
420034c2     34c2        0     1                 
420034cc     34cc        0     1                 
420034d2     34d2        0     1                 
420034d2     34d2        0     1                 
420034d2     34d2        0     1                 
420034d2     34d2       12     2         /home/mabez/development/rust/embedded/experiments/esp32c3/target/riscv32imac-unknown-none-elf/debug/deps/libesp32c3_lib-c6891e451671e2e8.rlib(esp32c3_lib-c6891e451671e2e8.2zwu2gzn9kym8n1i.rcgu.o):(.text._ZN4core3ptr13read_volatile17h9c71a2f41abb353cE)
420034d2     34d2        0     1                 
420034d2     34d2        0     1                 
420034d2     34d2        0     1                 
420034d2     34d2       12     1                 core::ptr::read_volatile::h9c71a2f41abb353c
420034d4     34d4        0     1                 
420034d6     34d6        0     1                 
420034de     34de        0     1                 
420034e4     34e4        0     1                 
420034e4     34e4        0     1                 
420034e4     34e4        0     1                 
420034e4     34e4        e     2         /home/mabez/development/rust/embedded/experiments/esp32c3/target/riscv32imac-unknown-none-elf/debug/deps/libesp32c3_lib-c6891e451671e2e8.rlib(esp32c3_lib-c6891e451671e2e8.2zwu2gzn9kym8n1i.rcgu.o):(.text._ZN4core3ptr14write_volatile17he76c8153b7645f27E)
420034e4     34e4        0     1                 
420034e4     34e4        0     1                 
420034e4     34e4        0     1                 
420034e4     34e4        e     1                 core::ptr::write_volatile::he76c8153b7645f27
420034e6     34e6        0     1                 
420034ea     34ea        0     1                 
420034ee     34ee        0     1                 
420034f2     34f2        0     1                 
420034f2     34f2        0     1                 
420034f2     34f2        0     1                 
420034f2     34f2        e     2         /home/mabez/development/rust/embedded/experiments/esp32c3/target/riscv32imac-unknown-none-elf/debug/deps/libesp32c3_lib-c6891e451671e2e8.rlib(esp32c3_lib-c6891e451671e2e8.2zwu2gzn9kym8n1i.rcgu.o):(.text._ZN4core3ptr14write_volatile17hffa02e33f0b2acc3E)
420034f2     34f2        0     1                 
420034f2     34f2        0     1                 
420034f2     34f2        0     1                 
420034f2     34f2        e     1                 core::ptr::write_volatile::hffa02e33f0b2acc3
420034f4     34f4        0     1                 
420034f8     34f8        0     1                 
420034fc     34fc        0     1                 
42003500     3500        0     1                 
42003500     3500        0     1                 
42003500     3500        0     1                 
42003500     3500       20     2         /home/mabez/development/rust/embedded/experiments/esp32c3/target/riscv32imac-unknown-none-elf/debug/deps/libesp32c3_lib-c6891e451671e2e8.rlib(esp32c3_lib-c6891e451671e2e8.52x8onntfu5vhxia.rcgu.o):(.text._ZN4core5slice4iter87_$LT$impl$u20$core..iter..traits..collect..IntoIterator$u20$for$u20$$RF$$u5b$T$u5d$$GT$9into_iter17hb553054cde75d8c2E)
42003500     3500        0     1                 
42003500     3500        0     1                 
42003500     3500        0     1                 
42003500     3500       20     1                 core::slice::iter::_$LT$impl$u20$core..iter..traits..collect..IntoIterator$u20$for$u20$$RF$$u5b$T$u5d$$GT$::into_iter::hb553054cde75d8c2
42003502     3502        0     1                 
42003504     3504        0     1                 
42003508     3508        0     1                 
42003516     3516        0     1                 
42003520     3520        0     1                 
42003520     3520        0     1                 
42003520     3520        0     1                 
42003520     3520        6     1         /home/mabez/development/rust/embedded/experiments/esp32c3/target/riscv32imac-unknown-none-elf/debug/deps/libriscv-39f7ce6f6030497b.rlib(riscv.o):(.text.__wfi)
42003520     3520        0     1                 __wfi
42003526     3526        6     1         /home/mabez/development/rust/embedded/experiments/esp32c3/target/riscv32imac-unknown-none-elf/debug/deps/libriscv-39f7ce6f6030497b.rlib(riscv.o):(.text.__read_mhartid)
42003526     3526        0     1                 __read_mhartid
4200352c     352c        6     1         /home/mabez/development/rust/embedded/experiments/esp32c3/target/riscv32imac-unknown-none-elf/debug/deps/libriscv-39f7ce6f6030497b.rlib(riscv.o):(.text.__read_mstatus)
4200352c     352c        0     1                 __read_mstatus
42003532     3532        6     1         /home/mabez/development/rust/embedded/experiments/esp32c3/target/riscv32imac-unknown-none-elf/debug/deps/libriscv-39f7ce6f6030497b.rlib(riscv.o):(.text.__set_mstatus)
42003532     3532        0     1                 __set_mstatus
42003538     3538        6     1         /home/mabez/development/rust/embedded/experiments/esp32c3/target/riscv32imac-unknown-none-elf/debug/deps/libriscv-39f7ce6f6030497b.rlib(riscv.o):(.text.__clear_mstatus)
42003538     3538        0     1                 __clear_mstatus
4200353e     353e        6     1         /home/mabez/development/rust/embedded/experiments/esp32c3/target/riscv32imac-unknown-none-elf/debug/deps/libriscv-39f7ce6f6030497b.rlib(riscv.o):(.text.__read_mepc)
4200353e     353e        0     1                 __read_mepc
42003544     3544        6     1         /home/mabez/development/rust/embedded/experiments/esp32c3/target/riscv32imac-unknown-none-elf/debug/deps/libriscv-39f7ce6f6030497b.rlib(riscv.o):(.text.__read_mcause)
42003544     3544        0     1                 __read_mcause
4200354a     354a        2     2         /home/mabez/development/rust/embedded/experiments/esp32c3/target/riscv32imac-unknown-none-elf/debug/deps/libbare_metal-01059decff6db7a9.rlib(bare_metal-01059decff6db7a9.bare_metal.c7fb2979-cgu.0.rcgu.o):(.text._ZN10bare_metal15CriticalSection3new17hbfb0cbb017b20aa6E)
4200354a     354a        0     1                 
4200354a     354a        0     1                 
4200354a     354a        0     1                 
4200354a     354a        0     1                 
4200354a     354a        2     1                 bare_metal::CriticalSection::new::hbfb0cbb017b20aa6
4200354c     354c        0     1                 
4200354c     354c        0     1                 
4200354c     354c        0     1                 
4200354c     354c        a     2         /home/mabez/development/rust/embedded/experiments/esp32c3/target/riscv32imac-unknown-none-elf/debug/deps/libembedded_hal-09d0b07e9f5d700b.rlib(embedded_hal-09d0b07e9f5d700b.embedded_hal.a1e71ce7-cgu.10.rcgu.o):(.text._ZN4core5slice29_$LT$impl$u20$$u5b$T$u5d$$GT$6as_ptr17h71eeac4ffe7954efE)
4200354c     354c        0     1                 
4200354c     354c        0     1                 
4200354c     354c        0     1                 
4200354c     354c        a     1                 core::slice::_$LT$impl$u20$$u5b$T$u5d$$GT$::as_ptr::h71eeac4ffe7954ef
4200354e     354e        0     1                 
42003552     3552        0     1                 
42003556     3556        0     1                 
42003556     3556        0     1                 
42003556     3556        0     1                 
42003556     3556       20     2         /home/mabez/development/rust/embedded/experiments/esp32c3/target/riscv32imac-unknown-none-elf/debug/deps/libembedded_hal-09d0b07e9f5d700b.rlib(embedded_hal-09d0b07e9f5d700b.embedded_hal.a1e71ce7-cgu.10.rcgu.o):(.text._ZN4core5slice29_$LT$impl$u20$$u5b$T$u5d$$GT$4iter17h48670e708cdad12eE)
42003556     3556        0     1                 
42003556     3556        0     1                 
42003556     3556        0     1                 
42003556     3556       20     1                 core::slice::_$LT$impl$u20$$u5b$T$u5d$$GT$::iter::h48670e708cdad12e
42003558     3558        0     1                 
4200355a     355a        0     1                 
4200355e     355e        0     1                 
4200356c     356c        0     1                 
42003576     3576        0     1                 
42003576     3576        0     1                 
42003576     3576        0     1                 
42003576     3576       80     2         /home/mabez/development/rust/embedded/experiments/esp32c3/target/riscv32imac-unknown-none-elf/debug/deps/libembedded_hal-09d0b07e9f5d700b.rlib(embedded_hal-09d0b07e9f5d700b.embedded_hal.a1e71ce7-cgu.6.rcgu.o):(.text._ZN4core5slice4iter13Iter$LT$T$GT$3new17h45b5c232cd881730E)
42003576     3576        0     1                 
42003576     3576        0     1                 
42003576     3576        0     1                 
42003576     3576       80     1                 core::slice::iter::Iter$LT$T$GT$::new::h45b5c232cd881730
42003578     3578        0     1                 
4200357a     357a        0     1                 
42003580     3580        0     1                 
42003590     3590        0     1                 
42003590     3590        0     1                 
4200359c     359c        0     1                 
4200359e     359e        0     1                 
420035a0     35a0        0     1                 
420035a4     35a4        0     1                 
420035aa     35aa        0     1                 
420035b6     35b6        0     1                 
420035b6     35b6        0     1                 
420035bc     35bc        0     1                 
420035bc     35bc        0     1                 
420035be     35be        0     1                 
420035ca     35ca        0     1                 
420035ca     35ca        0     1                 
420035ce     35ce        0     1                 
420035ce     35ce        0     1                 
420035d2     35d2        0     1                 
420035d4     35d4        0     1                 
420035d4     35d4        0     1                 
420035e2     35e2        0     1                 
420035e2     35e2        0     1                 
420035e6     35e6        0     1                 
420035e8     35e8        0     1                 
420035e8     35e8        0     1                 
420035ec     35ec        0     1                 
420035f0     35f0        0     1                 
420035f0     35f0        0     1                 
420035f6     35f6        0     1                 
420035f6     35f6        0     1                 
420035f6     35f6        0     1                 
420035f6     35f6       ba     2         /home/mabez/development/rust/embedded/experiments/esp32c3/target/riscv32imac-unknown-none-elf/debug/deps/libembedded_hal-09d0b07e9f5d700b.rlib(embedded_hal-09d0b07e9f5d700b.embedded_hal.a1e71ce7-cgu.6.rcgu.o):(.text._ZN91_$LT$core..slice..iter..Iter$LT$T$GT$$u20$as$u20$core..iter..traits..iterator..Iterator$GT$4next17h76fb9ac412a66850E)
420035f6     35f6        0     1                 
420035f6     35f6        0     1                 
420035f6     35f6        0     1                 
420035f6     35f6       ba     1                 _$LT$core..slice..iter..Iter$LT$T$GT$$u20$as$u20$core..iter..traits..iterator..Iterator$GT$::next::h76fb9ac412a66850
420035f8     35f8        0     1                 
420035fa     35fa        0     1                 
420035fe     35fe        0     1                 
42003618     3618        0     1                 
4200361a     361a        0     1                 
4200361c     361c        0     1                 
42003620     3620        0     1                 
42003626     3626        0     1                 
42003628     3628        0     1                 
42003636     3636        0     1                 
42003638     3638        0     1                 
4200363a     363a        0     1                 
42003656     3656        0     1                 
42003660     3660        0     1                 
42003660     3660        0     1                 
42003672     3672        0     1                 
42003672     3672        0     1                 
42003682     3682        0     1                 
42003682     3682        0     1                 
42003686     3686        0     1                 
42003686     3686        0     1                 
42003692     3692        0     1                 
42003696     3696        0     1                 
42003698     3698        0     1                 
42003698     3698        0     1                 
4200369c     369c        0     1                 
4200369e     369e        0     1                 
420036a0     36a0        0     1                 
420036a2     36a2        0     1                 
420036aa     36aa        0     1                 
420036ae     36ae        0     1                 
420036b0     36b0        0     1                 
420036b0     36b0        0     1                 
420036b0     36b0        0     1                 
420036b0     36b0       22     2         /home/mabez/development/rust/embedded/experiments/esp32c3/target/riscv32imac-unknown-none-elf/debug/deps/libembedded_hal-09d0b07e9f5d700b.rlib(embedded_hal-09d0b07e9f5d700b.embedded_hal.a1e71ce7-cgu.4.rcgu.o):(.text._ZN4core3ptr9const_ptr33_$LT$impl$u20$$BP$const$u20$T$GT$7is_null17h5746e9a726af91aaE)
420036b0     36b0        0     1                 
420036b0     36b0        0     1                 
420036b0     36b0        0     1                 
420036b0     36b0       22     1                 core::ptr::const_ptr::_$LT$impl$u20$$BP$const$u20$T$GT$::is_null::h5746e9a726af91aa
420036b2     36b2        0     1                 
420036b4     36b4        0     1                 
420036b8     36b8        0     1                 
420036ba     36ba        0     1                 
420036ca     36ca        0     1                 
420036d2     36d2        0     1                 
420036d2     36d2        0     1                 
420036d2     36d2        0     1                 
420036d2     36d2       1a     2         /home/mabez/development/rust/embedded/experiments/esp32c3/target/riscv32imac-unknown-none-elf/debug/deps/libembedded_hal-09d0b07e9f5d700b.rlib(embedded_hal-09d0b07e9f5d700b.embedded_hal.a1e71ce7-cgu.4.rcgu.o):(.text._ZN4core3ptr9const_ptr33_$LT$impl$u20$$BP$const$u20$T$GT$13guaranteed_eq17he1a57abd63dfe9c5E)
420036d2     36d2        0     1                 
420036d2     36d2        0     1                 
420036d2     36d2        0     1                 
420036d2     36d2       1a     1                 core::ptr::const_ptr::_$LT$impl$u20$$BP$const$u20$T$GT$::guaranteed_eq::he1a57abd63dfe9c5
420036d4     36d4        0     1                 
420036d8     36d8        0     1                 
420036e6     36e6        0     1                 
420036ec     36ec        0     1                 
420036ec     36ec        0     1                 
420036ec     36ec        0     1                 
420036ec     36ec        a     2         /home/mabez/development/rust/embedded/experiments/esp32c3/target/riscv32imac-unknown-none-elf/debug/deps/libembedded_hal-09d0b07e9f5d700b.rlib(embedded_hal-09d0b07e9f5d700b.embedded_hal.a1e71ce7-cgu.3.rcgu.o):(.text._ZN4core3ptr8non_null16NonNull$LT$T$GT$13new_unchecked17hf805632a055e319cE)
420036ec     36ec        0     1                 
420036ec     36ec        0     1                 
420036ec     36ec        0     1                 
420036ec     36ec        a     1                 core::ptr::non_null::NonNull$LT$T$GT$::new_unchecked::hf805632a055e319c
420036ee     36ee        0     1                 
420036f0     36f0        0     1                 
420036f2     36f2        0     1                 
420036f6     36f6        0     1                 
420036f6     36f6        0     1                 
420036f6     36f6        0     1                 
420036f6     36f6        8     2         /home/mabez/development/rust/embedded/experiments/esp32c3/target/riscv32imac-unknown-none-elf/debug/deps/libembedded_hal-09d0b07e9f5d700b.rlib(embedded_hal-09d0b07e9f5d700b.embedded_hal.a1e71ce7-cgu.3.rcgu.o):(.text._ZN4core3ptr8non_null16NonNull$LT$T$GT$6as_ptr17h1c08630631eab551E)
420036f6     36f6        0     1                 
420036f6     36f6        0     1                 
420036f6     36f6        0     1                 
420036f6     36f6        8     1                 core::ptr::non_null::NonNull$LT$T$GT$::as_ptr::h1c08630631eab551
420036f8     36f8        0     1                 
420036fa     36fa        0     1                 
420036fe     36fe        0     1                 
420036fe     36fe        0     1                 
420036fe     36fe        0     1                 
420036fe     36fe       22     2         /home/mabez/development/rust/embedded/experiments/esp32c3/target/riscv32imac-unknown-none-elf/debug/deps/libembedded_hal-09d0b07e9f5d700b.rlib(embedded_hal-09d0b07e9f5d700b.embedded_hal.a1e71ce7-cgu.7.rcgu.o):(.text._ZN4core3ptr7mut_ptr31_$LT$impl$u20$$BP$mut$u20$T$GT$7is_null17h3ea320c92e0fc716E)
420036fe     36fe        0     1                 
420036fe     36fe        0     1                 
420036fe     36fe        0     1                 
420036fe     36fe       22     1                 core::ptr::mut_ptr::_$LT$impl$u20$$BP$mut$u20$T$GT$::is_null::h3ea320c92e0fc716
42003700     3700        0     1                 
42003702     3702        0     1                 
42003706     3706        0     1                 
42003708     3708        0     1                 
42003718     3718        0     1                 
42003720     3720        0     1                 
42003720     3720        0     1                 
42003720     3720        0     1                 
42003720     3720       1a     2         /home/mabez/development/rust/embedded/experiments/esp32c3/target/riscv32imac-unknown-none-elf/debug/deps/libembedded_hal-09d0b07e9f5d700b.rlib(embedded_hal-09d0b07e9f5d700b.embedded_hal.a1e71ce7-cgu.7.rcgu.o):(.text._ZN4core3ptr7mut_ptr31_$LT$impl$u20$$BP$mut$u20$T$GT$13guaranteed_eq17heca3647894b283dbE)
42003720     3720        0     1                 
42003720     3720        0     1                 
42003720     3720        0     1                 
42003720     3720       1a     1                 core::ptr::mut_ptr::_$LT$impl$u20$$BP$mut$u20$T$GT$::guaranteed_eq::heca3647894b283db
42003722     3722        0     1                 
42003726     3726        0     1                 
42003734     3734        0     1                 
4200373a     373a        0     1                 
4200373a     373a        0     1                 
4200373a     373a        0     1                 
4200373a     373a        8     2         /home/mabez/development/rust/embedded/experiments/esp32c3/target/riscv32imac-unknown-none-elf/debug/deps/libvoid-9bf68c712c7c3b51.rlib(void-9bf68c712c7c3b51.void.0c241590-cgu.0.rcgu.o):(.text._ZN47_$LT$void..Void$u20$as$u20$core..fmt..Debug$GT$3fmt17hb9aef53f1c1f9f3aE)
4200373a     373a        0     1                 
4200373a     373a        0     1                 
4200373a     373a        0     1                 
4200373a     373a        8     1                 _$LT$void..Void$u20$as$u20$core..fmt..Debug$GT$::fmt::hb9aef53f1c1f9f3a
4200373c     373c        0     1                 
42003740     3740        0     1                 
42003740     3740        0     1                 
42003742     3742        0     1                 
42003742     3742        0     1                 
42003742     3742        0     1                 
42003742     3742        0     1                 
42003742     3742        4     2         /home/mabez/.rustup/toolchains/nightly-x86_64-unknown-linux-gnu/lib/rustlib/riscv32imac-unknown-none-elf/lib/libcore-081fd8405fc18f2e.rlib(core-081fd8405fc18f2e.core.364d98f8-cgu.0.rcgu.o):(.text._ZN4core3ops8function6FnOnce9call_once17h05edaa5bf8ba0cc4E)
42003742     3742        4     1                 core::ops::function::FnOnce::call_once::h05edaa5bf8ba0cc4
42003742     3742        0     1                 
42003742     3742        0     1                 
42003742     3742        0     1                 
42003742     3742        0     1                 
42003744     3744        0     1                 
42003744     3744        0     1                 
42003746     3746        0     1                 
42003746     3746        0     1                 
42003746     3746        0     1                 
42003746     3746        0     1                 
42003746     3746        2     2         /home/mabez/.rustup/toolchains/nightly-x86_64-unknown-linux-gnu/lib/rustlib/riscv32imac-unknown-none-elf/lib/libcore-081fd8405fc18f2e.rlib(core-081fd8405fc18f2e.core.364d98f8-cgu.0.rcgu.o):(.text._ZN4core3ptr102drop_in_place$LT$$RF$core..iter..adapters..copied..Copied$LT$core..slice..iter..Iter$LT$u8$GT$$GT$$GT$17hc51eb1e219834882E)
42003746     3746        2     1                 core::ptr::drop_in_place$LT$$RF$core..iter..adapters..copied..Copied$LT$core..slice..iter..Iter$LT$u8$GT$$GT$$GT$::hc51eb1e219834882
42003746     3746        0     1                 
42003746     3746        0     1                 
42003746     3746        0     1                 
42003746     3746        0     1                 
42003748     3748        0     1                 
42003748     3748        0     1                 
42003748     3748        0     1                 
42003748     3748       64     2         /home/mabez/.rustup/toolchains/nightly-x86_64-unknown-linux-gnu/lib/rustlib/riscv32imac-unknown-none-elf/lib/libcore-081fd8405fc18f2e.rlib(core-081fd8405fc18f2e.core.364d98f8-cgu.0.rcgu.o):(.text._ZN71_$LT$core..ops..range..Range$LT$Idx$GT$$u20$as$u20$core..fmt..Debug$GT$3fmt17h8a3b9687c07d0f08E)
42003748     3748       64     1                 _$LT$core..ops..range..Range$LT$Idx$GT$$u20$as$u20$core..fmt..Debug$GT$::fmt::h8a3b9687c07d0f08
42003748     3748        0     1                 
42003748     3748        0     1                 
42003748     3748        0     1                 
4200374a     374a        0     1                 
42003750     3750        0     1                 
42003754     3754        0     1                 
4200375e     375e        0     1                 
4200375e     375e        0     1                 
42003762     3762        0     1                 
4200377e     377e        0     1                 
42003788     3788        0     1                 
42003788     3788        0     1                 
4200378a     378a        0     1                 
42003796     3796        0     1                 
420037ac     37ac        0     1                 
420037ac     37ac        0     1                 
420037ac     37ac        0     1                 
420037ac     37ac       12     2         /home/mabez/.rustup/toolchains/nightly-x86_64-unknown-linux-gnu/lib/rustlib/riscv32imac-unknown-none-elf/lib/libcore-081fd8405fc18f2e.rlib(core-081fd8405fc18f2e.core.364d98f8-cgu.0.rcgu.o):(.text._ZN36_$LT$T$u20$as$u20$core..any..Any$GT$7type_id17h371e3e3a251c2677E)
420037ac     37ac       12     1                 _$LT$T$u20$as$u20$core..any..Any$GT$::type_id::h371e3e3a251c2677
420037ac     37ac        0     1                 
420037ac     37ac        0     1                 
420037ac     37ac        0     1                 
420037bc     37bc        0     1                 
420037be     37be        0     1                 
420037be     37be        0     1                 
420037be     37be        0     1                 
420037be     37be      204     2         /home/mabez/.rustup/toolchains/nightly-x86_64-unknown-linux-gnu/lib/rustlib/riscv32imac-unknown-none-elf/lib/libcore-081fd8405fc18f2e.rlib(core-081fd8405fc18f2e.core.364d98f8-cgu.0.rcgu.o):(.text._ZN4core4char7methods22_$LT$impl$u20$char$GT$16escape_debug_ext17h04b99252736de0a3E)
420037be     37be      204     1                 core::char::methods::_$LT$impl$u20$char$GT$::escape_debug_ext::h04b99252736de0a3
420037be     37be        0     1                 
420037be     37be        0     1                 
420037be     37be        0     1                 
420037c0     37c0        0     1                 
420037c6     37c6        0     1                 
420037ca     37ca        0     1                 
420037d4     37d4        0     1                 
420037e8     37e8        0     1                 .LBB91_2
420037f2     37f2        0     1                 
420037f8     37f8        0     1                 .LBB91_4
420037f8     37f8        0     1                 
420037fe     37fe        0     1                 .LBB91_5
42003800     3800        0     1                 
42003804     3804        0     1                 
4200380a     380a        0     1                 .LBB91_7
4200380a     380a        0     1                 
42003810     3810        0     1                 .LBB91_8
42003810     3810        0     1                 
42003816     3816        0     1                 
42003816     3816        0     1                 
42003824     3824        0     1                 
42003824     3824        0     1                 
4200382a     382a        0     1                 
4200384e     384e        0     1                 
4200385e     385e        0     1                 
42003864     3864        0     1                 
42003888     3888        0     1                 
420038a2     38a2        0     1                 
4200393e     393e        0     1                 
4200393e     393e        0     1                 
42003940     3940        0     1                 
420039b0     39b0        0     1                 .LBB91_20
420039b0     39b0        0     1                 
420039b8     39b8        0     1                 
420039c2     39c2        0     1                 
420039c2     39c2        0     1                 
420039c2     39c2        0     1                 
420039c2     39c2       2c     2         /home/mabez/.rustup/toolchains/nightly-x86_64-unknown-linux-gnu/lib/rustlib/riscv32imac-unknown-none-elf/lib/libcore-081fd8405fc18f2e.rlib(core-081fd8405fc18f2e.core.364d98f8-cgu.0.rcgu.o):(.text.unlikely._ZN4core9panicking5panic17hafe276bd74ed3e28E)
420039c2     39c2        0     1                 
420039c2     39c2        0     1                 
420039c2     39c2        0     1                 
420039c2     39c2       2c     1                 core::panicking::panic::hafe276bd74ed3e28
420039c4     39c4        0     1                 
420039c4     39c4        0     1                 
420039c6     39c6        0     1                 
420039cc     39cc        0     1                 
420039cc     39cc        0     1                 
420039e0     39e0        0     1                 
420039e0     39e0        0     1                 
420039ee     39ee        0     1                 
420039ee     39ee        0     1                 
420039ee     39ee        0     1                 
420039ee     39ee       40     2         /home/mabez/.rustup/toolchains/nightly-x86_64-unknown-linux-gnu/lib/rustlib/riscv32imac-unknown-none-elf/lib/libcore-081fd8405fc18f2e.rlib(core-081fd8405fc18f2e.core.364d98f8-cgu.0.rcgu.o):(.text.unlikely._ZN4core9panicking18panic_bounds_check17h428a51952d6e9898E)
420039ee     39ee        0     1                 
420039ee     39ee        0     1                 
420039ee     39ee        0     1                 
420039ee     39ee       40     1                 core::panicking::panic_bounds_check::h428a51952d6e9898
420039f0     39f0        0     1                 
420039f2     39f2        0     1                 
420039f8     39f8        0     1                 
42003a0a     3a0a        0     1                 
42003a0a     3a0a        0     1                 
42003a20     3a20        0     1                 
42003a20     3a20        0     1                 
42003a2e     3a2e        0     1                 
42003a2e     3a2e        0     1                 
42003a2e     3a2e        0     1                 
42003a2e     3a2e       28     2         /home/mabez/.rustup/toolchains/nightly-x86_64-unknown-linux-gnu/lib/rustlib/riscv32imac-unknown-none-elf/lib/libcore-081fd8405fc18f2e.rlib(core-081fd8405fc18f2e.core.364d98f8-cgu.0.rcgu.o):(.text.unlikely._ZN4core9panicking9panic_fmt17ha1e8998cfd03d425E)
42003a2e     3a2e        0     1                 
42003a2e     3a2e        0     1                 
42003a2e     3a2e        0     1                 
42003a2e     3a2e       28     1                 core::panicking::panic_fmt::ha1e8998cfd03d425
42003a30     3a30        0     1                 
42003a30     3a30        0     1                 
42003a30     3a30        0     1                 
42003a32     3a32        0     1                 
42003a4a     3a4a        0     1                 
42003a4a     3a4a        0     1                 
42003a56     3a56        0     1                 
42003a56     3a56        0     1                 
42003a56     3a56        0     1                 
42003a56     3a56       4c     2         /home/mabez/.rustup/toolchains/nightly-x86_64-unknown-linux-gnu/lib/rustlib/riscv32imac-unknown-none-elf/lib/libcore-081fd8405fc18f2e.rlib(core-081fd8405fc18f2e.core.364d98f8-cgu.0.rcgu.o):(.text.unlikely._ZN4core6result13unwrap_failed17hef353ec1e439d435E)
42003a56     3a56        0     1                 
42003a56     3a56        0     1                 
42003a56     3a56        0     1                 
42003a56     3a56       4c     1                 core::result::unwrap_failed::hef353ec1e439d435
42003a58     3a58        0     1                 
42003a5a     3a5a        0     1                 
42003a64     3a64        0     1                 
42003a7e     3a7e        0     1                 
42003a7e     3a7e        0     1                 
42003a94     3a94        0     1                 
42003a94     3a94        0     1                 
42003aa2     3aa2        0     1                 
42003aa2     3aa2        0     1                 
42003aa2     3aa2        0     1                 
42003aa2     3aa2      218     2         /home/mabez/.rustup/toolchains/nightly-x86_64-unknown-linux-gnu/lib/rustlib/riscv32imac-unknown-none-elf/lib/libcore-081fd8405fc18f2e.rlib(core-081fd8405fc18f2e.core.364d98f8-cgu.0.rcgu.o):(.text._ZN68_$LT$core..fmt..builders..PadAdapter$u20$as$u20$core..fmt..Write$GT$9write_str17h7fe40efc9f409020E)
42003aa2     3aa2        0     1                 
42003aa2     3aa2        0     1                 
42003aa2     3aa2        0     1                 
42003aa2     3aa2      218     1                 _$LT$core..fmt..builders..PadAdapter$u20$as$u20$core..fmt..Write$GT$::write_str::h7fe40efc9f409020
42003aa4     3aa4        0     1                 
42003aa4     3aa4        0     1                 
42003abe     3abe        0     1                 
42003ac2     3ac2        0     1                 
42003af8     3af8        0     1                 
42003af8     3af8        0     1                 
42003afe     3afe        0     1                 
42003afe     3afe        0     1                 
42003b02     3b02        0     1                 
42003b08     3b08        0     1                 
42003b16     3b16        0     1                 
42003b1c     3b1c        0     1                 
42003b1c     3b1c        0     1                 
42003b20     3b20        0     1                 
42003b20     3b20        0     1                 
42003b22     3b22        0     1                 
42003b22     3b22        0     1                 
42003b26     3b26        0     1                 
42003b26     3b26        0     1                 
42003b2a     3b2a        0     1                 
42003b2a     3b2a        0     1                 
42003b2c     3b2c        0     1                 
42003b2e     3b2e        0     1                 
42003b2e     3b2e        0     1                 
42003b32     3b32        0     1                 
42003b32     3b32        0     1                 
42003b3a     3b3a        0     1                 
42003b42     3b42        0     1                 
42003b42     3b42        0     1                 
42003b48     3b48        0     1                 
42003b4c     3b4c        0     1                 
42003b4c     3b4c        0     1                 
42003b4e     3b4e        0     1                 
42003b50     3b50        0     1                 
42003b54     3b54        0     1                 
42003b58     3b58        0     1                 
42003b58     3b58        0     1                 
42003b5c     3b5c        0     1                 
42003b5c     3b5c        0     1                 
42003b64     3b64        0     1                 
42003b66     3b66        0     1                 
42003b66     3b66        0     1                 
42003b6a     3b6a        0     1                 
42003b6a     3b6a        0     1                 
42003b6e     3b6e        0     1                 
42003b72     3b72        0     1                 
42003b80     3b80        0     1                 
42003b86     3b86        0     1                 
42003b88     3b88        0     1                 
42003b8c     3b8c        0     1                 
42003b90     3b90        0     1                 
42003b94     3b94        0     1                 
42003b94     3b94        0     1                 
42003b96     3b96        0     1                 
42003b96     3b96        0     1                 
42003b9c     3b9c        0     1                 
42003b9c     3b9c        0     1                 
42003ba0     3ba0        0     1                 
42003ba0     3ba0        0     1                 
42003ba2     3ba2        0     1                 
42003ba2     3ba2        0     1                 
42003ba8     3ba8        0     1                 
42003ba8     3ba8        0     1                 
42003bac     3bac        0     1                 
42003bac     3bac        0     1                 
42003bb2     3bb2        0     1                 
42003bc0     3bc0        0     1                 
42003bc0     3bc0        0     1                 
42003bc8     3bc8        0     1                 
42003bc8     3bc8        0     1                 
42003bcc     3bcc        0     1                 
42003bcc     3bcc        0     1                 
42003bd4     3bd4        0     1                 
42003bdc     3bdc        0     1                 
42003bdc     3bdc        0     1                 
42003be0     3be0        0     1                 
42003be0     3be0        0     1                 
42003be4     3be4        0     1                 
42003bf0     3bf0        0     1                 
42003bf4     3bf4        0     1                 
42003bf4     3bf4        0     1                 
42003bf6     3bf6        0     1                 
42003bf6     3bf6        0     1                 
42003bfa     3bfa        0     1                 
42003bfa     3bfa        0     1                 
42003bfe     3bfe        0     1                 
42003bfe     3bfe        0     1                 
42003c0c     3c0c        0     1                 
42003c1c     3c1c        0     1                 
42003c2c     3c2c        0     1                 
42003c2c     3c2c        0     1                 
42003c30     3c30        0     1                 
42003c30     3c30        0     1                 
42003c38     3c38        0     1                 
42003c38     3c38        0     1                 
42003c44     3c44        0     1                 
42003c44     3c44        0     1                 
42003c48     3c48        0     1                 
42003c48     3c48        0     1                 
42003c50     3c50        0     1                 
42003c50     3c50        0     1                 
42003c6a     3c6a        0     1                 
42003c6a     3c6a        0     1                 
42003c70     3c70        0     1                 
42003c8e     3c8e        0     1                 
42003c8e     3c8e        0     1                 
42003ca8     3ca8        0     1                 
42003ca8     3ca8        0     1                 
42003cba     3cba        0     1                 
42003cba     3cba        0     1                 
42003cba     3cba        0     1                 
42003cba     3cba        0     1                 
42003cba     3cba      17a     2         /home/mabez/.rustup/toolchains/nightly-x86_64-unknown-linux-gnu/lib/rustlib/riscv32imac-unknown-none-elf/lib/libcore-081fd8405fc18f2e.rlib(core-081fd8405fc18f2e.core.364d98f8-cgu.0.rcgu.o):(.text._ZN4core3fmt8builders11DebugStruct5field17h5715d75b95eb5fb0E)
42003cba     3cba        0     1                 
42003cba     3cba        0     1                 
42003cba     3cba        0     1                 
42003cba     3cba      17a     1                 core::fmt::builders::DebugStruct::field::h5715d75b95eb5fb0
42003cbc     3cbc        0     1                 
42003cce     3cce        0     1                 
42003cd0     3cd0        0     1                 
42003cd8     3cd8        0     1                 
42003cd8     3cd8        0     1                 
42003cda     3cda        0     1                 
42003cda     3cda        0     1                 
42003cde     3cde        0     1                 
42003ce2     3ce2        0     1                 
42003cfa     3cfa        0     1                 
42003d02     3d02        0     1                 
42003d02     3d02        0     1                 
42003d06     3d06        0     1                 
42003d06     3d06        0     1                 
42003d0a     3d0a        0     1                 
42003d0a     3d0a        0     1                 
42003d0e     3d0e        0     1                 
42003d0e     3d0e        0     1                 
42003d10     3d10        0     1                 
42003d10     3d10        0     1                 
42003d14     3d14        0     1                 
42003d16     3d16        0     1                 
42003d18     3d18        0     1                 
42003d22     3d22        0     1                 
42003d24     3d24        0     1                 
42003d24     3d24        0     1                 
42003d3c     3d3c        0     1                 
42003d3c     3d3c        0     1                 
42003d3e     3d3e        0     1                 
42003d40     3d40        0     1                 
42003d44     3d44        0     1                 
42003d44     3d44        0     1                 
42003d4c     3d4c        0     1                 
42003d4c     3d4c        0     1                 
42003d56     3d56        0     1                 
42003d56     3d56        0     1                 
42003d5a     3d5a        0     1                 
42003d5e     3d5e        0     1                 
42003d62     3d62        0     1                 
42003d6a     3d6a        0     1                 
42003d72     3d72        0     1                 
42003d90     3d90        0     1                 
42003d90     3d90        0     1                 
42003d9e     3d9e        0     1                 
42003d9e     3d9e        0     1                 
42003da0     3da0        0     1                 
42003da0     3da0        0     1                 
42003db4     3db4        0     1                 
42003db4     3db4        0     1                 
42003db6     3db6        0     1                 
42003dc2     3dc2        0     1                 
42003dc2     3dc2        0     1                 
42003dd6     3dd6        0     1                 
42003dd6     3dd6        0     1                 
42003dde     3dde        0     1                 
42003dde     3dde        0     1                 
42003de8     3de8        0     1                 
42003de8     3de8        0     1                 
42003dec     3dec        0     1                 
42003dec     3dec        0     1                 
42003df0     3df0        0     1                 
42003df0     3df0        0     1                 
42003df4     3df4        0     1                 
42003df4     3df4        0     1                 
42003e0a     3e0a        0     1                 
42003e0a     3e0a        0     1                 
42003e26     3e26        0     1                 
42003e26     3e26        0     1                 
42003e30     3e30        0     1                 
42003e34     3e34        0     1                 
42003e34     3e34        0     1                 
42003e34     3e34        0     1                 
42003e34     3e34        0     1                 
42003e34     3e34      104     2         /home/mabez/.rustup/toolchains/nightly-x86_64-unknown-linux-gnu/lib/rustlib/riscv32imac-unknown-none-elf/lib/libcore-081fd8405fc18f2e.rlib(core-081fd8405fc18f2e.core.364d98f8-cgu.0.rcgu.o):(.text._ZN4core3fmt8builders10DebugTuple5field17hfafa707554c5e458E)
42003e34     3e34        0     1                 
42003e34     3e34        0     1                 
42003e34     3e34        0     1                 
42003e34     3e34      104     1                 core::fmt::builders::DebugTuple::field::hfafa707554c5e458
42003e36     3e36        0     1                 
42003e44     3e44        0     1                 
42003e46     3e46        0     1                 
42003e4a     3e4a        0     1                 
42003e4a     3e4a        0     1                 
42003e4c     3e4c        0     1                 
42003e4c     3e4c        0     1                 
42003e54     3e54        0     1                 
42003e58     3e58        0     1                 
42003e58     3e58        0     1                 
42003e5a     3e5a        0     1                 
42003e5a     3e5a        0     1                 
42003e5e     3e5e        0     1                 
42003e5e     3e5e        0     1                 
42003e62     3e62        0     1                 
42003e62     3e62        0     1                 
42003e64     3e64        0     1                 
42003e64     3e64        0     1                 
42003e68     3e68        0     1                 
42003e6a     3e6a        0     1                 
42003e6c     3e6c        0     1                 
42003e76     3e76        0     1                 
42003e78     3e78        0     1                 
42003e78     3e78        0     1                 
42003e8a     3e8a        0     1                 
42003e8a     3e8a        0     1                 
42003e8c     3e8c        0     1                 
42003e94     3e94        0     1                 
42003e98     3e98        0     1                 
42003e98     3e98        0     1                 
42003e9c     3e9c        0     1                 
42003e9c     3e9c        0     1                 
42003ea6     3ea6        0     1                 
42003ea6     3ea6        0     1                 
42003ea8     3ea8        0     1                 
42003eaa     3eaa        0     1                 
42003eae     3eae        0     1                 
42003eb2     3eb2        0     1                 
42003eb6     3eb6        0     1                 
42003eca     3eca        0     1                 
42003eca     3eca        0     1                 
42003ece     3ece        0     1                 
42003ece     3ece        0     1                 
42003ed8     3ed8        0     1                 
42003ed8     3ed8        0     1                 
42003ee0     3ee0        0     1                 
42003ee0     3ee0        0     1                 
42003ef4     3ef4        0     1                 
42003ef4     3ef4        0     1                 
42003efc     3efc        0     1                 
42003efc     3efc        0     1                 
42003f04     3f04        0     1                 
42003f04     3f04        0     1                 
42003f08     3f08        0     1                 
42003f08     3f08        0     1                 
42003f0c     3f0c        0     1                 
42003f0c     3f0c        0     1                 
42003f0e     3f0e        0     1                 
42003f18     3f18        0     1                 
42003f1a     3f1a        0     1                 
42003f1a     3f1a        0     1                 
42003f1e     3f1e        0     1                 
42003f24     3f24        0     1                 
42003f38     3f38        0     1                 
42003f38     3f38        0     1                 
42003f38     3f38        0     1                 
42003f38     3f38       b4     2         /home/mabez/.rustup/toolchains/nightly-x86_64-unknown-linux-gnu/lib/rustlib/riscv32imac-unknown-none-elf/lib/libcore-081fd8405fc18f2e.rlib(core-081fd8405fc18f2e.core.364d98f8-cgu.0.rcgu.o):(.text._ZN4core3fmt5Write10write_char17h8871f787bfe900e4E)
42003f38     3f38       b4     1                 core::fmt::Write::write_char::h8871f787bfe900e4
42003f38     3f38        0     1                 
42003f38     3f38        0     1                 
42003f38     3f38        0     1                 
42003f3a     3f3a        0     1                 
42003f3c     3f3c        0     1                 
42003f40     3f40        0     1                 
42003f42     3f42        0     1                 
42003f42     3f42        0     1                 
42003f46     3f46        0     1                 
42003f46     3f46        0     1                 
42003f4e     3f4e        0     1                 
42003f4e     3f4e        0     1                 
42003f54     3f54        0     1                 
42003f54     3f54        0     1                 
42003f58     3f58        0     1                 
42003f60     3f60        0     1                 
42003f64     3f64        0     1                 
42003f70     3f70        0     1                 
42003f70     3f70        0     1                 
42003f74     3f74        0     1                 
42003f76     3f76        0     1                 
42003f76     3f76        0     1                 
42003f7a     3f7a        0     1                 
42003f82     3f82        0     1                 
42003f86     3f86        0     1                 
42003f8a     3f8a        0     1                 
42003f92     3f92        0     1                 
42003f96     3f96        0     1                 
42003fa2     3fa2        0     1                 
42003fa6     3fa6        0     1                 
42003fae     3fae        0     1                 
42003fb2     3fb2        0     1                 
42003fb6     3fb6        0     1                 
42003fbe     3fbe        0     1                 
42003fc2     3fc2        0     1                 
42003fc6     3fc6        0     1                 
42003fce     3fce        0     1                 
42003fd2     3fd2        0     1                 
42003fdc     3fdc        0     1                 
42003fdc     3fdc        0     1                 
42003fe6     3fe6        0     1                 
42003fec     3fec        0     1                 
42003fec     3fec        0     1                 
42003fec     3fec        0     1                 
42003fec     3fec       38     2         /home/mabez/.rustup/toolchains/nightly-x86_64-unknown-linux-gnu/lib/rustlib/riscv32imac-unknown-none-elf/lib/libcore-081fd8405fc18f2e.rlib(core-081fd8405fc18f2e.core.364d98f8-cgu.0.rcgu.o):(.text._ZN4core3fmt5Write9write_fmt17h8b2ee39449c79a52E)
42003fec     3fec       38     1                 core::fmt::Write::write_fmt::h8b2ee39449c79a52
42003fec     3fec        0     1                 
42003fec     3fec        0     1                 
42003fec     3fec        0     1                 
42003fee     3fee        0     1                 
42003fee     3fee        0     1                 
42003ff0     3ff0        0     1                 
4200400a     400a        0     1                 
4200401e     401e        0     1                 
42004024     4024        0     1                 
42004024     4024        0     1                 
42004024     4024        0     1                 
42004024     4024        a     2         /home/mabez/.rustup/toolchains/nightly-x86_64-unknown-linux-gnu/lib/rustlib/riscv32imac-unknown-none-elf/lib/libcore-081fd8405fc18f2e.rlib(core-081fd8405fc18f2e.core.364d98f8-cgu.0.rcgu.o):(.text._ZN50_$LT$$RF$mut$u20$W$u20$as$u20$core..fmt..Write$GT$9write_str17h3af46e20faeb9416E)
42004024     4024        a     1                 _$LT$$RF$mut$u20$W$u20$as$u20$core..fmt..Write$GT$::write_str::h3af46e20faeb9416
42004024     4024        0     1                 
42004024     4024        0     1                 
42004024     4024        0     1                 
42004024     4024        0     1                 
4200402e     402e        0     1                 
4200402e     402e        0     1                 
4200402e     402e        0     1                 
4200402e     402e       b6     2         /home/mabez/.rustup/toolchains/nightly-x86_64-unknown-linux-gnu/lib/rustlib/riscv32imac-unknown-none-elf/lib/libcore-081fd8405fc18f2e.rlib(core-081fd8405fc18f2e.core.364d98f8-cgu.0.rcgu.o):(.text._ZN50_$LT$$RF$mut$u20$W$u20$as$u20$core..fmt..Write$GT$10write_char17hdec277d2253f99f5E)
4200402e     402e       b6     1                 _$LT$$RF$mut$u20$W$u20$as$u20$core..fmt..Write$GT$::write_char::hdec277d2253f99f5
4200402e     402e        0     1                 
4200402e     402e        0     1                 
4200402e     402e        0     1                 
42004030     4030        0     1                 
42004030     4030        0     1                 
42004032     4032        0     1                 
42004038     4038        0     1                 
42004038     4038        0     1                 
4200403a     403a        0     1                 
4200403a     403a        0     1                 
4200403e     403e        0     1                 
4200403e     403e        0     1                 
42004046     4046        0     1                 
42004046     4046        0     1                 
4200404c     404c        0     1                 
4200404c     404c        0     1                 
42004050     4050        0     1                 
42004058     4058        0     1                 
4200405c     405c        0     1                 
42004068     4068        0     1                 
42004068     4068        0     1                 
4200406c     406c        0     1                 
4200406e     406e        0     1                 
4200406e     406e        0     1                 
42004072     4072        0     1                 
4200407a     407a        0     1                 
4200407e     407e        0     1                 
42004082     4082        0     1                 
4200408a     408a        0     1                 
4200408e     408e        0     1                 
4200409a     409a        0     1                 
4200409e     409e        0     1                 
420040a6     40a6        0     1                 
420040aa     40aa        0     1                 
420040ae     40ae        0     1                 
420040b6     40b6        0     1                 
420040ba     40ba        0     1                 
420040be     40be        0     1                 
420040c6     40c6        0     1                 
420040ca     40ca        0     1                 
420040d4     40d4        0     1                 
420040d4     40d4        0     1                 
420040de     40de        0     1                 
420040de     40de        0     1                 
420040e4     40e4        0     1                 
420040e4     40e4        0     1                 
420040e4     40e4        0     1                 
420040e4     40e4       3a     2         /home/mabez/.rustup/toolchains/nightly-x86_64-unknown-linux-gnu/lib/rustlib/riscv32imac-unknown-none-elf/lib/libcore-081fd8405fc18f2e.rlib(core-081fd8405fc18f2e.core.364d98f8-cgu.0.rcgu.o):(.text._ZN50_$LT$$RF$mut$u20$W$u20$as$u20$core..fmt..Write$GT$9write_fmt17h9f1f9a3d3d9ed77eE)
420040e4     40e4       3a     1                 _$LT$$RF$mut$u20$W$u20$as$u20$core..fmt..Write$GT$::write_fmt::h9f1f9a3d3d9ed77e
420040e4     40e4        0     1                 
420040e4     40e4        0     1                 
420040e4     40e4        0     1                 
420040e6     40e6        0     1                 
420040e6     40e6        0     1                 
420040e8     40e8        0     1                 
420040ea     40ea        0     1                 
420040ea     40ea        0     1                 
42004104     4104        0     1                 
42004118     4118        0     1                 
42004118     4118        0     1                 
4200411e     411e        0     1                 
4200411e     411e        0     1                 
4200411e     411e        0     1                 
4200411e     411e      190     2         /home/mabez/.rustup/toolchains/nightly-x86_64-unknown-linux-gnu/lib/rustlib/riscv32imac-unknown-none-elf/lib/libcore-081fd8405fc18f2e.rlib(core-081fd8405fc18f2e.core.364d98f8-cgu.0.rcgu.o):(.text._ZN4core3fmt5write17h8cca4efac244120aE)
4200411e     411e        0     1                 
4200411e     411e        0     1                 
4200411e     411e        0     1                 
4200411e     411e      190     1                 core::fmt::write::h8cca4efac244120a
42004120     4120        0     1                 
42004130     4130        0     1                 
42004132     4132        0     1                 
42004132     4132        0     1                 
42004140     4140        0     1                 
42004140     4140        0     1                 
42004144     4144        0     1                 
42004144     4144        0     1                 
4200414c     414c        0     1                 
4200414c     414c        0     1                 
4200414e     414e        0     1                 
42004152     4152        0     1                 
42004152     4152        0     1                 
42004156     4156        0     1                 
4200415a     415a        0     1                 
4200417a     417a        0     1                 
4200417a     417a        0     1                 
4200417c     417c        0     1                 
4200417e     417e        0     1                 
42004182     4182        0     1                 
42004186     4186        0     1                 
4200418e     418e        0     1                 
4200418e     418e        0     1                 
42004192     4192        0     1                 
42004194     4194        0     1                 
42004198     4198        0     1                 
4200419c     419c        0     1                 
420041a0     41a0        0     1                 
420041a0     41a0        0     1                 
420041a4     41a4        0     1                 
420041a4     41a4        0     1                 
420041a6     41a6        0     1                 
420041aa     41aa        0     1                 
420041aa     41aa        0     1                 
420041ac     41ac        0     1                 
420041ae     41ae        0     1                 
420041b2     41b2        0     1                 
420041b2     41b2        0     1                 
420041bc     41bc        0     1                 
420041c0     41c0        0     1                 
420041c2     41c2        0     1                 
420041c4     41c4        0     1                 
420041c4     41c4        0     1                 
420041c6     41c6        0     1                 
420041ca     41ca        0     1                 
420041d0     41d0        0     1                 
420041d0     41d0        0     1                 
420041d2     41d2        0     1                 
420041d4     41d4        0     1                 
420041d8     41d8        0     1                 
420041d8     41d8        0     1                 
420041e2     41e2        0     1                 
420041e6     41e6        0     1                 
420041e8     41e8        0     1                 
420041ea     41ea        0     1                 
420041ea     41ea        0     1                 
420041ec     41ec        0     1                 
420041f0     41f0        0     1                 
420041f4     41f4        0     1                 
420041f4     41f4        0     1                 
420041f8     41f8        0     1                 
420041f8     41f8        0     1                 
420041fa     41fa        0     1                 
420041fc     41fc        0     1                 
42004200     4200        0     1                 
42004200     4200        0     1                 
42004202     4202        0     1                 
42004202     4202        0     1                 
42004210     4210        0     1                 
42004210     4210        0     1                 
42004214     4214        0     1                 
42004214     4214        0     1                 
42004216     4216        0     1                 
42004216     4216        0     1                 
4200421e     421e        0     1                 
4200421e     421e        0     1                 
42004232     4232        0     1                 
42004232     4232        0     1                 
42004234     4234        0     1                 
42004236     4236        0     1                 
4200423a     423a        0     1                 
4200423e     423e        0     1                 
42004244     4244        0     1                 
42004246     4246        0     1                 
4200424a     424a        0     1                 
42004250     4250        0     1                 
42004250     4250        0     1                 
4200425c     425c        0     1                 
4200425c     425c        0     1                 
4200425e     425e        0     1                 
42004262     4262        0     1                 
42004262     4262        0     1                 
42004266     4266        0     1                 
42004266     4266        0     1                 
42004268     4268        0     1                 
4200426e     426e        0     1                 
42004270     4270        0     1                 
42004274     4274        0     1                 
42004274     4274        0     1                 
42004278     4278        0     1                 
42004278     4278        0     1                 
42004282     4282        0     1                 
42004286     4286        0     1                 
4200428a     428a        0     1                 
4200428e     428e        0     1                 
42004294     4294        0     1                 
4200429a     429a        0     1                 
420042ae     42ae        0     1                 
420042ae     42ae        0     1                 
420042ae     42ae        0     1                 
420042ae     42ae      25c     2         /home/mabez/.rustup/toolchains/nightly-x86_64-unknown-linux-gnu/lib/rustlib/riscv32imac-unknown-none-elf/lib/libcore-081fd8405fc18f2e.rlib(core-081fd8405fc18f2e.core.364d98f8-cgu.0.rcgu.o):(.text._ZN4core3fmt9Formatter12pad_integral17h0ba92f5439875806E)
420042ae     42ae        0     1                 
420042ae     42ae        0     1                 
420042ae     42ae        0     1                 
420042ae     42ae      25c     1                 core::fmt::Formatter::pad_integral::h0ba92f5439875806
420042b0     42b0        0     1                 
420042c8     42c8        0     1                 
420042d0     42d0        0     1                 
420042d2     42d2        0     1                 
420042d2     42d2        0     1                 
420042de     42de        0     1                 
420042de     42de        0     1                 
420042e0     42e0        0     1                 
420042e4     42e4        0     1                 
420042e8     42e8        0     1                 
420042e8     42e8        0     1                 
420042ec     42ec        0     1                 
420042ec     42ec        0     1                 
420042ee     42ee        0     1                 
420042f0     42f0        0     1                 
420042f0     42f0        0     1                 
420042f4     42f4        0     1                 
420042f4     42f4        0     1                 
420042fc     42fc        0     1                 
42004300     4300        0     1                 
42004300     4300        0     1                 
42004302     4302        0     1                 
42004302     4302        0     1                 
42004306     4306        0     1                 
42004306     4306        0     1                 
42004308     4308        0     1                 
42004308     4308        0     1                 
4200430a     430a        0     1                 
4200430a     430a        0     1                 
4200430c     430c        0     1                 
4200430c     430c        0     1                 
42004310     4310        0     1                 
42004314     4314        0     1                 
42004318     4318        0     1                 
42004318     4318        0     1                 
4200431c     431c        0     1                 
4200431c     431c        0     1                 
42004324     4324        0     1                 
42004324     4324        0     1                 
42004328     4328        0     1                 
42004328     4328        0     1                 
4200432a     432a        0     1                 
4200432c     432c        0     1                 
42004330     4330        0     1                 
42004332     4332        0     1                 
42004336     4336        0     1                 
4200433a     433a        0     1                 
4200433a     433a        0     1                 
4200433c     433c        0     1                 
4200433c     433c        0     1                 
4200433e     433e        0     1                 
4200433e     433e        0     1                 
4200434a     434a        0     1                 
4200434c     434c        0     1                 
42004350     4350        0     1                 
42004350     4350        0     1                 
42004358     4358        0     1                 
42004358     4358        0     1                 
4200435c     435c        0     1                 
4200435c     435c        0     1                 
42004374     4374        0     1                 
42004392     4392        0     1                 
420043bc     43bc        0     1                 
420043bc     43bc        0     1                 
420043c4     43c4        0     1                 
420043c4     43c4        0     1                 
420043c8     43c8        0     1                 
420043c8     43c8        0     1                 
420043ce     43ce        0     1                 
420043ce     43ce        0     1                 
420043d2     43d2        0     1                 
420043d2     43d2        0     1                 
420043e4     43e4        0     1                 
420043e4     43e4        0     1                 
420043ec     43ec        0     1                 
420043f0     43f0        0     1                 
420043f2     43f2        0     1                 
420043f6     43f6        0     1                 
420043f6     43f6        0     1                 
420043fa     43fa        0     1                 
420043fa     43fa        0     1                 
420043fc     43fc        0     1                 
420043fe     43fe        0     1                 
42004402     4402        0     1                 
42004402     4402        0     1                 
4200440c     440c        0     1                 
4200440c     440c        0     1                 
42004410     4410        0     1                 
42004412     4412        0     1                 
42004416     4416        0     1                 
42004422     4422        0     1                 
42004426     4426        0     1                 
42004426     4426        0     1                 
42004428     4428        0     1                 
42004428     4428        0     1                 
4200442a     442a        0     1                 
4200442a     442a        0     1                 
42004436     4436        0     1                 
42004436     4436        0     1                 
4200443c     443c        0     1                 
42004440     4440        0     1                 
42004452     4452        0     1                 
42004464     4464        0     1                 
42004472     4472        0     1                 
42004472     4472        0     1                 
42004474     4474        0     1                 
42004474     4474        0     1                 
42004476     4476        0     1                 
42004476     4476        0     1                 
42004484     4484        0     1                 
42004484     4484        0     1                 
4200448a     448a        0     1                 
4200448a     448a        0     1                 
4200448e     448e        0     1                 
42004490     4490        0     1                 
42004494     4494        0     1                 
420044a0     44a0        0     1                 
420044a4     44a4        0     1                 
420044a4     44a4        0     1                 
420044a6     44a6        0     1                 
420044a6     44a6        0     1                 
420044a8     44a8        0     1                 
420044a8     44a8        0     1                 
420044b2     44b2        0     1                 
420044b2     44b2        0     1                 
420044bc     44bc        0     1                 
420044c0     44c0        0     1                 
420044d4     44d4        0     1                 
420044de     44de        0     1                 
420044de     44de        0     1                 
420044e2     44e2        0     1                 
420044e2     44e2        0     1                 
420044e4     44e4        0     1                 
420044e4     44e4        0     1                 
420044e6     44e6        0     1                 
420044e6     44e6        0     1                 
420044ee     44ee        0     1                 
420044ee     44ee        0     1                 
420044f2     44f2        0     1                 
420044f2     44f2        0     1                 
420044f6     44f6        0     1                 
420044f8     44f8        0     1                 
420044fc     44fc        0     1                 
42004502     4502        0     1                 
42004504     4504        0     1                 
42004504     4504        0     1                 
4200450a     450a        0     1                 
4200450a     450a        0     1                 
4200450a     450a        0     1                 
4200450a     450a        0     1                 
4200450a     450a       4c     2         /home/mabez/.rustup/toolchains/nightly-x86_64-unknown-linux-gnu/lib/rustlib/riscv32imac-unknown-none-elf/lib/libcore-081fd8405fc18f2e.rlib(core-081fd8405fc18f2e.core.364d98f8-cgu.0.rcgu.o):(.text._ZN4core3fmt9Formatter12pad_integral12write_prefix17h8e19d2d3cc56acc0E)
4200450a     450a       4c     1                 core::fmt::Formatter::pad_integral::write_prefix::h8e19d2d3cc56acc0
4200450a     450a        0     1                 
4200450a     450a        0     1                 
4200450a     450a        0     1                 
4200450c     450c        0     1                 
42004514     4514        0     1                 
4200451e     451e        0     1                 
42004522     4522        0     1                 
42004530     4530        0     1                 
42004532     4532        0     1                 
42004548     4548        0     1                 
4200454a     454a        0     1                 
42004556     4556        0     1                 
42004556     4556        0     1                 
42004556     4556        0     1                 
42004556     4556      220     2         /home/mabez/.rustup/toolchains/nightly-x86_64-unknown-linux-gnu/lib/rustlib/riscv32imac-unknown-none-elf/lib/libcore-081fd8405fc18f2e.rlib(core-081fd8405fc18f2e.core.364d98f8-cgu.0.rcgu.o):(.text._ZN4core3fmt9Formatter3pad17hd51ca6e41b968671E)
42004556     4556        0     1                 
42004556     4556        0     1                 
42004556     4556        0     1                 
42004556     4556      220     1                 core::fmt::Formatter::pad::hd51ca6e41b968671
42004558     4558        0     1                 
42004558     4558        0     1                 
4200456a     456a        0     1                 
4200456c     456c        0     1                 
42004572     4572        0     1                 
4200457c     457c        0     1                 
42004580     4580        0     1                 
42004584     4584        0     1                 
42004588     4588        0     1                 
4200458a     458a        0     1                 
42004592     4592        0     1                 
42004592     4592        0     1                 
42004598     4598        0     1                 
42004598     4598        0     1                 
4200459a     459a        0     1                 
4200459a     459a        0     1                 
420045ae     45ae        0     1                 
420045ae     45ae        0     1                 
420045b0     45b0        0     1                 
420045b0     45b0        0     1                 
420045b2     45b2        0     1                 
420045b2     45b2        0     1                 
420045b6     45b6        0     1                 
420045b6     45b6        0     1                 
420045b8     45b8        0     1                 
420045b8     45b8        0     1                 
420045bc     45bc        0     1                 
420045bc     45bc        0     1                 
420045c0     45c0        0     1                 
420045c4     45c4        0     1                 
420045c8     45c8        0     1                 
420045cc     45cc        0     1                 
420045d0     45d0        0     1                 
420045d4     45d4        0     1                 
420045d8     45d8        0     1                 
420045d8     45d8        0     1                 
420045dc     45dc        0     1                 
420045dc     45dc        0     1                 
420045e0     45e0        0     1                 
420045e0     45e0        0     1                 
420045e4     45e4        0     1                 
420045e8     45e8        0     1                 
420045e8     45e8        0     1                 
420045ee     45ee        0     1                 
420045f2     45f2        0     1                 
420045f4     45f4        0     1                 
420045f4     45f4        0     1                 
420045f6     45f6        0     1                 
420045f6     45f6        0     1                 
420045fa     45fa        0     1                 
420045fa     45fa        0     1                 
4200460e     460e        0     1                 
4200460e     460e        0     1                 
42004612     4612        0     1                 
42004612     4612        0     1                 
4200461a     461a        0     1                 
4200461e     461e        0     1                 
42004622     4622        0     1                 
42004626     4626        0     1                 
42004626     4626        0     1                 
4200462a     462a        0     1                 
4200462a     462a        0     1                 
4200462e     462e        0     1                 
4200462e     462e        0     1                 
42004632     4632        0     1                 
42004636     4636        0     1                 
42004636     4636        0     1                 
4200463c     463c        0     1                 
42004640     4640        0     1                 
42004642     4642        0     1                 
42004642     4642        0     1                 
42004648     4648        0     1                 
42004648     4648        0     1                 
4200464c     464c        0     1                 
4200464c     464c        0     1                 
4200464e     464e        0     1                 
42004652     4652        0     1                 
42004656     4656        0     1                 
4200465e     465e        0     1                 
4200465e     465e        0     1                 
42004662     4662        0     1                 
42004662     4662        0     1                 
42004668     4668        0     1                 
42004668     4668        0     1                 
4200466c     466c        0     1                 
42004672     4672        0     1                 
42004676     4676        0     1                 
42004676     4676        0     1                 
42004678     4678        0     1                 
42004678     4678        0     1                 
4200467c     467c        0     1                 
4200467c     467c        0     1                 
42004680     4680        0     1                 
42004680     4680        0     1                 
42004682     4682        0     1                 
42004682     4682        0     1                 
42004686     4686        0     1                 
4200468a     468a        0     1                 
42004692     4692        0     1                 
4200469a     469a        0     1                 
4200469a     469a        0     1                 
4200469e     469e        0     1                 
4200469e     469e        0     1                 
420046a0     46a0        0     1                 
420046a0     46a0        0     1                 
420046a4     46a4        0     1                 
420046a4     46a4        0     1                 
420046a6     46a6        0     1                 
420046a6     46a6        0     1                 
420046aa     46aa        0     1                 
420046aa     46aa        0     1                 
420046ae     46ae        0     1                 
420046ae     46ae        0     1                 
420046ba     46ba        0     1                 
420046bc     46bc        0     1                 
420046c0     46c0        0     1                 
420046c0     46c0        0     1                 
420046c6     46c6        0     1                 
420046c6     46c6        0     1                 
420046ca     46ca        0     1                 
420046ca     46ca        0     1                 
420046f4     46f4        0     1                 
420046f4     46f4        0     1                 
420046f8     46f8        0     1                 
420046fa     46fa        0     1                 
420046fe     46fe        0     1                 
42004708     4708        0     1                 
4200470c     470c        0     1                 
4200470c     470c        0     1                 
4200470e     470e        0     1                 
4200470e     470e        0     1                 
42004710     4710        0     1                 
42004710     4710        0     1                 
4200471c     471c        0     1                 
4200471c     471c        0     1                 
42004726     4726        0     1                 
4200472a     472a        0     1                 
42004738     4738        0     1                 
4200473a     473a        0     1                 
4200473a     473a        0     1                 
4200473e     473e        0     1                 
4200473e     473e        0     1                 
42004742     4742        0     1                 
42004742     4742        0     1                 
42004744     4744        0     1                 
42004744     4744        0     1                 
42004752     4752        0     1                 
42004752     4752        0     1                 
42004754     4754        0     1                 
42004754     4754        0     1                 
42004758     4758        0     1                 
42004758     4758        0     1                 
4200475a     475a        0     1                 
4200475a     475a        0     1                 
4200475e     475e        0     1                 
4200475e     475e        0     1                 
42004776     4776        0     1                 
42004776     4776        0     1                 
42004776     4776        0     1                 
42004776     4776        a     2         /home/mabez/.rustup/toolchains/nightly-x86_64-unknown-linux-gnu/lib/rustlib/riscv32imac-unknown-none-elf/lib/libcore-081fd8405fc18f2e.rlib(core-081fd8405fc18f2e.core.364d98f8-cgu.0.rcgu.o):(.text._ZN4core3fmt9Formatter15debug_lower_hex17h855dbbb6ec93a8ddE)
42004776     4776        0     1                 
42004776     4776        0     1                 
42004776     4776        0     1                 
42004776     4776        0     1                 
42004776     4776        a     1                 core::fmt::Formatter::debug_lower_hex::h855dbbb6ec93a8dd
4200477e     477e        0     1                 
42004780     4780        0     1                 
42004780     4780        0     1                 
42004780     4780        0     1                 
42004780     4780        c     2         /home/mabez/.rustup/toolchains/nightly-x86_64-unknown-linux-gnu/lib/rustlib/riscv32imac-unknown-none-elf/lib/libcore-081fd8405fc18f2e.rlib(core-081fd8405fc18f2e.core.364d98f8-cgu.0.rcgu.o):(.text._ZN4core3fmt9Formatter15debug_upper_hex17hfd9ade8e4a5e67f0E)
42004780     4780        0     1                 
42004780     4780        0     1                 
42004780     4780        0     1                 
42004780     4780        0     1                 
42004780     4780        c     1                 core::fmt::Formatter::debug_upper_hex::hfd9ade8e4a5e67f0
4200478a     478a        0     1                 
4200478c     478c        0     1                 
4200478c     478c        0     1                 
4200478c     478c        0     1                 
4200478c     478c      34e     2         /home/mabez/.rustup/toolchains/nightly-x86_64-unknown-linux-gnu/lib/rustlib/riscv32imac-unknown-none-elf/lib/libcore-081fd8405fc18f2e.rlib(core-081fd8405fc18f2e.core.364d98f8-cgu.0.rcgu.o):(.text._ZN40_$LT$str$u20$as$u20$core..fmt..Debug$GT$3fmt17h0d251943f4b36d16E)
4200478c     478c        0     1                 
4200478c     478c        0     1                 
4200478c     478c        0     1                 
4200478c     478c      34e     1                 _$LT$str$u20$as$u20$core..fmt..Debug$GT$::fmt::h0d251943f4b36d16
4200478e     478e        0     1                 
4200478e     478e        0     1                 
4200478e     478e        0     1                 
420047a8     47a8        0     1                 
420047c0     47c0        0     1                 
420047c0     47c0        0     1                 
420047c2     47c2        0     1                 
420047e2     47e2        0     1                 
420047e4     47e4        0     1                 
420047e4     47e4        0     1                 
420047e8     47e8        0     1                 
420047e8     47e8        0     1                 
4200480e     480e        0     1                 
4200480e     480e        0     1                 
42004818     4818        0     1                 
42004818     4818        0     1                 
42004826     4826        0     1                 
42004828     4828        0     1                 
42004832     4832        0     1                 
42004832     4832        0     1                 
42004836     4836        0     1                 
42004836     4836        0     1                 
4200483e     483e        0     1                 
42004844     4844        0     1                 
42004848     4848        0     1                 
4200484c     484c        0     1                 
4200484c     484c        0     1                 
42004850     4850        0     1                 
42004850     4850        0     1                 
42004854     4854        0     1                 
42004854     4854        0     1                 
4200485c     485c        0     1                 
42004860     4860        0     1                 
42004860     4860        0     1                 
42004862     4862        0     1                 
42004866     4866        0     1                 
42004868     4868        0     1                 
42004868     4868        0     1                 
42004870     4870        0     1                 
42004874     4874        0     1                 
42004878     4878        0     1                 
42004878     4878        0     1                 
4200487a     487a        0     1                 
4200487e     487e        0     1                 
42004880     4880        0     1                 
42004880     4880        0     1                 
42004884     4884        0     1                 
42004884     4884        0     1                 
4200488c     488c        0     1                 
4200488c     488c        0     1                 
420048a2     48a2        0     1                 
420048b0     48b0        0     1                 
420048b0     48b0        0     1                 
420048b2     48b2        0     1                 
420048b8     48b8        0     1                 
420048be     48be        0     1                 
420048c2     48c2        0     1                 
420048c8     48c8        0     1                 
420048c8     48c8        0     1                 
420048ca     48ca        0     1                 
420048ca     48ca        0     1                 
420048d0     48d0        0     1                 
420048d0     48d0        0     1                 
420048d4     48d4        0     1                 
420048d8     48d8        0     1                 
420048d8     48d8        0     1                 
420048da     48da        0     1                 
420048de     48de        0     1                 
420048e2     48e2        0     1                 
420048e2     48e2        0     1                 
420048f0     48f0        0     1                 
420048f0     48f0        0     1                 
420048f4     48f4        0     1                 
420048f8     48f8        0     1                 
420048fc     48fc        0     1                 
42004900     4900        0     1                 
42004900     4900        0     1                 
4200490e     490e        0     1                 
4200490e     490e        0     1                 
42004910     4910        0     1                 
42004910     4910        0     1                 
42004914     4914        0     1                 
42004914     4914        0     1                 
42004918     4918        0     1                 
42004918     4918        0     1                 
4200491c     491c        0     1                 
4200491c     491c        0     1                 
42004920     4920        0     1                 
42004932     4932        0     1                 .LBB200_29
42004932     4932        0     1                 
42004938     4938        0     1                 .LBB200_30
42004938     4938        0     1                 
42004938     4938        0     1                 
42004940     4940        0     1                 
42004940     4940        0     1                 
42004944     4944        0     1                 
42004946     4946        0     1                 
42004946     4946        0     1                 
4200494a     494a        0     1                 
4200494e     494e        0     1                 
42004952     4952        0     1                 
42004952     4952        0     1                 
42004968     4968        0     1                 .LBB200_34
42004968     4968        0     1                 
4200496c     496c        0     1                 
42004976     4976        0     1                 
42004976     4976        0     1                 
4200497c     497c        0     1                 
4200497c     497c        0     1                 
42004982     4982        0     1                 
42004986     4986        0     1                 
4200498c     498c        0     1                 
42004998     4998        0     1                 
42004998     4998        0     1                 
4200499e     499e        0     1                 
4200499e     499e        0     1                 
420049a4     49a4        0     1                 .LBB200_41
420049ae     49ae        0     1                 .LBB200_42
420049b6     49b6        0     1                 .LBB200_43
420049be     49be        0     1                 .LBB200_44
420049be     49be        0     1                 
420049be     49be        0     1                 
420049c6     49c6        0     1                 
420049c6     49c6        0     1                 
420049ca     49ca        0     1                 
420049d0     49d0        0     1                 
420049d0     49d0        0     1                 
420049da     49da        0     1                 
420049da     49da        0     1                 
420049f0     49f0        0     1                 .LBB200_48
420049f0     49f0        0     1                 
420049f2     49f2        0     1                 
420049f6     49f6        0     1                 
420049f6     49f6        0     1                 
42004a18     4a18        0     1                 .LBB200_51
42004a20     4a20        0     1                 .LBB200_52
42004a28     4a28        0     1                 .LBB200_53
42004a2a     4a2a        0     1                 
42004a2a     4a2a        0     1                 
42004a32     4a32        0     1                 
42004a3c     4a3c        0     1                 
42004a44     4a44        0     1                 
42004a4c     4a4c        0     1                 
42004a4c     4a4c        0     1                 
42004a4e     4a4e        0     1                 
42004a52     4a52        0     1                 
42004a56     4a56        0     1                 
42004a5e     4a5e        0     1                 
42004a5e     4a5e        0     1                 
42004a64     4a64        0     1                 
42004a68     4a68        0     1                 
42004a6c     4a6c        0     1                 
42004a6c     4a6c        0     1                 
42004a70     4a70        0     1                 
42004a70     4a70        0     1                 
42004a74     4a74        0     1                 
42004a74     4a74        0     1                 
42004a78     4a78        0     1                 
42004a78     4a78        0     1                 
42004a7c     4a7c        0     1                 
42004a7c     4a7c        0     1                 
42004a80     4a80        0     1                 
42004a80     4a80        0     1                 
42004aa6     4aa6        0     1                 
42004aa6     4aa6        0     1                 
42004ac0     4ac0        0     1                 
42004ac0     4ac0        0     1                 
42004ada     4ada        0     1                 
42004ada     4ada        0     1                 
42004ada     4ada        0     1                 
42004ada     4ada        0     1                 
42004ada     4ada       10     2         /home/mabez/.rustup/toolchains/nightly-x86_64-unknown-linux-gnu/lib/rustlib/riscv32imac-unknown-none-elf/lib/libcore-081fd8405fc18f2e.rlib(core-081fd8405fc18f2e.core.364d98f8-cgu.0.rcgu.o):(.text._ZN42_$LT$str$u20$as$u20$core..fmt..Display$GT$3fmt17h8a0027e17f9d15b6E)
42004ada     4ada        0     1                 
42004ada     4ada        0     1                 
42004ada     4ada        0     1                 
42004ada     4ada       10     1                 _$LT$str$u20$as$u20$core..fmt..Display$GT$::fmt::h8a0027e17f9d15b6
42004ade     4ade        0     1                 
42004aea     4aea        0     1                 
42004aea     4aea        0     1                 
42004aea     4aea        0     1                 
42004aea     4aea      190     2         /home/mabez/.rustup/toolchains/nightly-x86_64-unknown-linux-gnu/lib/rustlib/riscv32imac-unknown-none-elf/lib/libcore-081fd8405fc18f2e.rlib(core-081fd8405fc18f2e.core.364d98f8-cgu.0.rcgu.o):(.text._ZN41_$LT$char$u20$as$u20$core..fmt..Debug$GT$3fmt17h494cd63b7e1d655aE)
42004aea     4aea        0     1                 
42004aea     4aea        0     1                 
42004aea     4aea        0     1                 
42004aea     4aea      190     1                 _$LT$char$u20$as$u20$core..fmt..Debug$GT$::fmt::h494cd63b7e1d655a
42004aec     4aec        0     1                 
42004aec     4aec        0     1                 
42004aec     4aec        0     1                 
42004b02     4b02        0     1                 
42004b16     4b16        0     1                 
42004b16     4b16        0     1                 
42004b18     4b18        0     1                 
42004b34     4b34        0     1                 
42004b44     4b44        0     1                 
42004b44     4b44        0     1                 
42004b52     4b52        0     1                 
42004b52     4b52        0     1                 
42004b56     4b56        0     1                 
42004b64     4b64        0     1                 .LBB202_4
42004b6c     4b6c        0     1                 .LBB202_5
42004b6c     4b6c        0     1                 
42004b6c     4b6c        0     1                 
42004b74     4b74        0     1                 
42004b74     4b74        0     1                 
42004b76     4b76        0     1                 
42004b7c     4b7c        0     1                 
42004b7c     4b7c        0     1                 
42004b84     4b84        0     1                 
42004b84     4b84        0     1                 
42004b98     4b98        0     1                 .LBB202_9
42004b98     4b98        0     1                 
42004b9a     4b9a        0     1                 
42004b9e     4b9e        0     1                 
42004b9e     4b9e        0     1                 
42004bbc     4bbc        0     1                 .LBB202_12
42004bc4     4bc4        0     1                 .LBB202_13
42004bde     4bde        0     1                 .LBB202_16
42004bde     4bde        0     1                 
42004bde     4bde        0     1                 
42004be4     4be4        0     1                 
42004be4     4be4        0     1                 
42004be6     4be6        0     1                 
42004bee     4bee        0     1                 
42004bee     4bee        0     1                 
42004bf2     4bf2        0     1                 
42004bf2     4bf2        0     1                 
42004c06     4c06        0     1                 .LBB202_20
42004c06     4c06        0     1                 
42004c0a     4c0a        0     1                 
42004c14     4c14        0     1                 
42004c14     4c14        0     1                 
42004c18     4c18        0     1                 
42004c18     4c18        0     1                 
42004c1e     4c1e        0     1                 
42004c22     4c22        0     1                 
42004c28     4c28        0     1                 
42004c34     4c34        0     1                 
42004c34     4c34        0     1                 
42004c3e     4c3e        0     1                 .LBB202_27
42004c46     4c46        0     1                 .LBB202_28
42004c50     4c50        0     1                 .LBB202_29
42004c58     4c58        0     1                 .LBB202_30
42004c58     4c58        0     1                 
42004c58     4c58        0     1                 
42004c7a     4c7a        0     1                 
42004c7a     4c7a        0     1                 
42004c7a     4c7a        0     1                 
42004c7a     4c7a        0     1                 
42004c7a     4c7a       40     2         /home/mabez/.rustup/toolchains/nightly-x86_64-unknown-linux-gnu/lib/rustlib/riscv32imac-unknown-none-elf/lib/libcore-081fd8405fc18f2e.rlib(core-081fd8405fc18f2e.core.364d98f8-cgu.0.rcgu.o):(.text.unlikely._ZN4core5slice5index26slice_start_index_len_fail17hbee69553d3266422E)
42004c7a     4c7a        0     1                 
42004c7a     4c7a        0     1                 
42004c7a     4c7a        0     1                 
42004c7a     4c7a       40     1                 core::slice::index::slice_start_index_len_fail::hbee69553d3266422
42004c7c     4c7c        0     1                 
42004c7e     4c7e        0     1                 
42004c84     4c84        0     1                 
42004c96     4c96        0     1                 
42004c96     4c96        0     1                 
42004cac     4cac        0     1                 
42004cac     4cac        0     1                 
42004cba     4cba        0     1                 
42004cba     4cba        0     1                 
42004cba     4cba        0     1                 
42004cba     4cba       40     2         /home/mabez/.rustup/toolchains/nightly-x86_64-unknown-linux-gnu/lib/rustlib/riscv32imac-unknown-none-elf/lib/libcore-081fd8405fc18f2e.rlib(core-081fd8405fc18f2e.core.364d98f8-cgu.0.rcgu.o):(.text.unlikely._ZN4core5slice5index24slice_end_index_len_fail17h2535c0294ce68ddbE)
42004cba     4cba        0     1                 
42004cba     4cba        0     1                 
42004cba     4cba        0     1                 
42004cba     4cba       40     1                 core::slice::index::slice_end_index_len_fail::h2535c0294ce68ddb
42004cbc     4cbc        0     1                 
42004cbe     4cbe        0     1                 
42004cc4     4cc4        0     1                 
42004cd6     4cd6        0     1                 
42004cd6     4cd6        0     1                 
42004cec     4cec        0     1                 
42004cec     4cec        0     1                 
42004cfa     4cfa        0     1                 
42004cfa     4cfa        0     1                 
42004cfa     4cfa        0     1                 
42004cfa     4cfa       40     2         /home/mabez/.rustup/toolchains/nightly-x86_64-unknown-linux-gnu/lib/rustlib/riscv32imac-unknown-none-elf/lib/libcore-081fd8405fc18f2e.rlib(core-081fd8405fc18f2e.core.364d98f8-cgu.0.rcgu.o):(.text.unlikely._ZN4core5slice5index22slice_index_order_fail17h86bc25c9103eb611E)
42004cfa     4cfa        0     1                 
42004cfa     4cfa        0     1                 
42004cfa     4cfa        0     1                 
42004cfa     4cfa       40     1                 core::slice::index::slice_index_order_fail::h86bc25c9103eb611
42004cfc     4cfc        0     1                 
42004cfe     4cfe        0     1                 
42004d04     4d04        0     1                 
42004d16     4d16        0     1                 
42004d16     4d16        0     1                 
42004d2c     4d2c        0     1                 
42004d2c     4d2c        0     1                 
42004d3a     4d3a        0     1                 
42004d3a     4d3a        0     1                 
42004d3a     4d3a        0     1                 
42004d3a     4d3a      24c     2         /home/mabez/.rustup/toolchains/nightly-x86_64-unknown-linux-gnu/lib/rustlib/riscv32imac-unknown-none-elf/lib/libcore-081fd8405fc18f2e.rlib(core-081fd8405fc18f2e.core.364d98f8-cgu.0.rcgu.o):(.text.unlikely._ZN4core3str16slice_error_fail17h93c82b23f06e5e65E)
42004d3a     4d3a        0     1                 
42004d3a     4d3a        0     1                 
42004d3a     4d3a        0     1                 
42004d3a     4d3a      24c     1                 core::str::slice_error_fail::h93c82b23f06e5e65
42004d3c     4d3c        0     1                 
42004d3e     4d3e        0     1                 
42004d46     4d46        0     1                 
42004d46     4d46        0     1                 
42004d4a     4d4a        0     1                 
42004d4a     4d4a        0     1                 
42004d4c     4d4c        0     1                 
42004d50     4d50        0     1                 
42004d5c     4d5c        0     1                 
42004d64     4d64        0     1                 
42004d64     4d64        0     1                 
42004d6c     4d6c        0     1                 
42004d6c     4d6c        0     1                 
42004d70     4d70        0     1                 
42004d72     4d72        0     1                 
42004d72     4d72        0     1                 
42004d76     4d76        0     1                 
42004d76     4d76        0     1                 
42004d7a     4d7a        0     1                 
42004d7a     4d7a        0     1                 
42004d7e     4d7e        0     1                 
42004d7e     4d7e        0     1                 
42004d84     4d84        0     1                 
42004d88     4d88        0     1                 
42004d88     4d88        0     1                 
42004d8c     4d8c        0     1                 
42004d98     4d98        0     1                 
42004da4     4da4        0     1                 
42004da6     4da6        0     1                 
42004da8     4da8        0     1                 
42004db2     4db2        0     1                 
42004dd2     4dd2        0     1                 
42004dd2     4dd2        0     1                 
42004de0     4de0        0     1                 
42004de0     4de0        0     1                 
42004de4     4de4        0     1                 
42004de6     4de6        0     1                 
42004e0c     4e0c        0     1                 
42004e0c     4e0c        0     1                 
42004e1a     4e1a        0     1                 
42004e1a     4e1a        0     1                 
42004e28     4e28        0     1                 
42004e28     4e28        0     1                 
42004e30     4e30        0     1                 
42004e34     4e34        0     1                 
42004e34     4e34        0     1                 
42004e3a     4e3a        0     1                 
42004e3a     4e3a        0     1                 
42004e3e     4e3e        0     1                 
42004e42     4e42        0     1                 
42004e4a     4e4a        0     1                 
42004e4a     4e4a        0     1                 
42004e50     4e50        0     1                 
42004e50     4e50        0     1                 
42004e66     4e66        0     1                 
42004e66     4e66        0     1                 
42004e6a     4e6a        0     1                 
42004e74     4e74        0     1                 
42004e74     4e74        0     1                 
42004e7c     4e7c        0     1                 
42004e7c     4e7c        0     1                 
42004e80     4e80        0     1                 
42004e82     4e82        0     1                 
42004e82     4e82        0     1                 
42004e84     4e84        0     1                 
42004e88     4e88        0     1                 
42004e88     4e88        0     1                 
42004e8c     4e8c        0     1                 
42004e8c     4e8c        0     1                 
42004ea4     4ea4        0     1                 
42004ea4     4ea4        0     1                 
42004ea8     4ea8        0     1                 
42004ea8     4ea8        0     1                 
42004eb0     4eb0        0     1                 
42004eb0     4eb0        0     1                 
42004eb4     4eb4        0     1                 
42004eb4     4eb4        0     1                 
42004eb8     4eb8        0     1                 
42004ebc     4ebc        0     1                 
42004ebc     4ebc        0     1                 
42004ec0     4ec0        0     1                 
42004ec8     4ec8        0     1                 
42004ecc     4ecc        0     1                 
42004ecc     4ecc        0     1                 
42004ed0     4ed0        0     1                 
42004ed4     4ed4        0     1                 
42004eda     4eda        0     1                 
42004eda     4eda        0     1                 
42004ede     4ede        0     1                 
42004ee2     4ee2        0     1                 
42004ee4     4ee4        0     1                 
42004ee4     4ee4        0     1                 
42004eea     4eea        0     1                 
42004eea     4eea        0     1                 
42004ef0     4ef0        0     1                 
42004ef0     4ef0        0     1                 
42004efe     4efe        0     1                 
42004f06     4f06        0     1                 
42004f06     4f06        0     1                 
42004f0a     4f0a        0     1                 
42004f12     4f12        0     1                 
42004f1a     4f1a        0     1                 
42004f1c     4f1c        0     1                 
42004f1c     4f1c        0     1                 
42004f20     4f20        0     1                 
42004f26     4f26        0     1                 
42004f62     4f62        0     1                 
42004f62     4f62        0     1                 
42004f6e     4f6e        0     1                 
42004f6e     4f6e        0     1                 
42004f86     4f86        0     1                 
42004f86     4f86        0     1                 
42004f86     4f86        0     1                 
42004f86     4f86      116     2         /home/mabez/.rustup/toolchains/nightly-x86_64-unknown-linux-gnu/lib/rustlib/riscv32imac-unknown-none-elf/lib/libcore-081fd8405fc18f2e.rlib(core-081fd8405fc18f2e.core.364d98f8-cgu.0.rcgu.o):(.text._ZN4core7unicode9printable5check17hd96c30b35238dc89E)
42004f86     4f86      116     1                 core::unicode::printable::check::hd96c30b35238dc89
42004f86     4f86        0     1                 
42004f86     4f86        0     1                 
42004f86     4f86        0     1                 
42004f88     4f88        0     1                 
42004f88     4f88        0     1                 
42004f88     4f88        0     1                 
42004f8a     4f8a        0     1                 
42004f8c     4f8c        0     1                 
42004f8c     4f8c        0     1                 
42004fa2     4fa2        0     1                 
42004fb6     4fb6        0     1                 
42004fba     4fba        0     1                 
42004fbe     4fbe        0     1                 
42004fbe     4fbe        0     1                 
42004fc0     4fc0        0     1                 
42004fc0     4fc0        0     1                 
42004fc4     4fc4        0     1                 
42004fc8     4fc8        0     1                 
42004fc8     4fc8        0     1                 
42004fcc     4fcc        0     1                 
42004fd0     4fd0        0     1                 
42004fd0     4fd0        0     1                 
42004fd2     4fd2        0     1                 
42004fd2     4fd2        0     1                 
42004fd4     4fd4        0     1                 
42004fd4     4fd4        0     1                 
42004fd8     4fd8        0     1                 
42004fd8     4fd8        0     1                 
42004fda     4fda        0     1                 
42004fda     4fda        0     1                 
42004fe2     4fe2        0     1                 
42004fe4     4fe4        0     1                 
42004fe4     4fe4        0     1                 
42004fe8     4fe8        0     1                 
42004fe8     4fe8        0     1                 
42004fec     4fec        0     1                 
42004fec     4fec        0     1                 
42004ff2     4ff2        0     1                 
42004ff2     4ff2        0     1                 
42004ff8     4ff8        0     1                 
42004ff8     4ff8        0     1                 
42005004     5004        0     1                 
42005004     5004        0     1                 
42005008     5008        0     1                 
42005008     5008        0     1                 
4200500c     500c        0     1                 
4200500e     500e        0     1                 
42005016     5016        0     1                 
42005016     5016        0     1                 
4200501a     501a        0     1                 
4200501a     501a        0     1                 
4200501e     501e        0     1                 
4200501e     501e        0     1                 
42005024     5024        0     1                 
42005024     5024        0     1                 
42005026     5026        0     1                 
42005026     5026        0     1                 
42005028     5028        0     1                 
4200502a     502a        0     1                 
4200502e     502e        0     1                 
42005032     5032        0     1                 
42005032     5032        0     1                 
42005036     5036        0     1                 
42005036     5036        0     1                 
4200503e     503e        0     1                 
42005040     5040        0     1                 
42005048     5048        0     1                 
4200504a     504a        0     1                 
42005052     5052        0     1                 
42005052     5052        0     1                 
42005070     5070        0     1                 
42005070     5070        0     1                 
42005086     5086        0     1                 
4200509c     509c        0     1                 
4200509c     509c        0     1                 
4200509c     509c        0     1                 
4200509c     509c        0     1                 
4200509c     509c       dc     2         /home/mabez/.rustup/toolchains/nightly-x86_64-unknown-linux-gnu/lib/rustlib/riscv32imac-unknown-none-elf/lib/libcore-081fd8405fc18f2e.rlib(core-081fd8405fc18f2e.core.364d98f8-cgu.0.rcgu.o):(.text._ZN68_$LT$core..panic..location..Location$u20$as$u20$core..fmt..Debug$GT$3fmt17h4e026101a3bf408bE)
4200509c     509c        0     1                 
4200509c     509c        0     1                 
4200509c     509c        0     1                 
4200509c     509c       dc     1                 _$LT$core..panic..location..Location$u20$as$u20$core..fmt..Debug$GT$::fmt::h4e026101a3bf408b
4200509e     509e        0     1                 
420050a8     50a8        0     1                 
420050aa     50aa        0     1                 
420050aa     50aa        0     1                 
420050b2     50b2        0     1                 
420050b2     50b2        0     1                 
420050b6     50b6        0     1                 
420050ba     50ba        0     1                 
420050ba     50ba        0     1                 
420050c8     50c8        0     1                 
420050c8     50c8        0     1                 
420050cc     50cc        0     1                 
420050ce     50ce        0     1                 
420050ec     50ec        0     1                 
420050ee     50ee        0     1                 
4200510e     510e        0     1                 
42005110     5110        0     1                 
42005128     5128        0     1                 
42005128     5128        0     1                 
4200512c     512c        0     1                 
42005130     5130        0     1                 
42005132     5132        0     1                 
42005134     5134        0     1                 
42005134     5134        0     1                 
42005136     5136        0     1                 
42005136     5136        0     1                 
42005138     5138        0     1                 
42005138     5138        0     1                 
4200513e     513e        0     1                 
4200513e     513e        0     1                 
42005140     5140        0     1                 
42005140     5140        0     1                 
42005152     5152        0     1                 
42005152     5152        0     1                 
42005162     5162        0     1                 
42005162     5162        0     1                 
42005164     5164        0     1                 
42005166     5166        0     1                 
4200516a     516a        0     1                 
4200516a     516a        0     1                 
42005178     5178        0     1                 
42005178     5178        0     1                 
42005178     5178        0     1                 
42005178     5178       e0     2         /home/mabez/.rustup/toolchains/nightly-x86_64-unknown-linux-gnu/lib/rustlib/riscv32imac-unknown-none-elf/lib/libcore-081fd8405fc18f2e.rlib(core-081fd8405fc18f2e.core.364d98f8-cgu.0.rcgu.o):(.text._ZN71_$LT$core..panic..panic_info..PanicInfo$u20$as$u20$core..fmt..Debug$GT$3fmt17h0a7bfff890c8b211E)
42005178     5178        0     1                 
42005178     5178        0     1                 
42005178     5178        0     1                 
42005178     5178       e0     1                 _$LT$core..panic..panic_info..PanicInfo$u20$as$u20$core..fmt..Debug$GT$::fmt::h0a7bfff890c8b211
4200517a     517a        0     1                 
42005184     5184        0     1                 
42005186     5186        0     1                 
42005186     5186        0     1                 
4200518e     518e        0     1                 
4200518e     518e        0     1                 
42005192     5192        0     1                 
42005196     5196        0     1                 
42005196     5196        0     1                 
420051a4     51a4        0     1                 
420051a4     51a4        0     1                 
420051a8     51a8        0     1                 
420051aa     51aa        0     1                 
420051c8     51c8        0     1                 
420051ca     51ca        0     1                 
420051e8     51e8        0     1                 
420051ea     51ea        0     1                 
42005208     5208        0     1                 
42005208     5208        0     1                 
4200520c     520c        0     1                 
42005210     5210        0     1                 
42005212     5212        0     1                 
42005214     5214        0     1                 
42005214     5214        0     1                 
42005216     5216        0     1                 
42005216     5216        0     1                 
42005218     5218        0     1                 
42005218     5218        0     1                 
4200521e     521e        0     1                 
4200521e     521e        0     1                 
42005220     5220        0     1                 
42005220     5220        0     1                 
42005232     5232        0     1                 
42005232     5232        0     1                 
42005242     5242        0     1                 
42005242     5242        0     1                 
42005244     5244        0     1                 
42005246     5246        0     1                 
4200524a     524a        0     1                 
4200524a     524a        0     1                 
42005258     5258        0     1                 
42005258     5258        0     1                 
42005258     5258        0     1                 
42005258     5258       86     2         /home/mabez/.rustup/toolchains/nightly-x86_64-unknown-linux-gnu/lib/rustlib/riscv32imac-unknown-none-elf/lib/libcore-081fd8405fc18f2e.rlib(core-081fd8405fc18f2e.core.364d98f8-cgu.0.rcgu.o):(.text._ZN4core3fmt3num53_$LT$impl$u20$core..fmt..LowerHex$u20$for$u20$i32$GT$3fmt17ha6b8d91736b1c318E)
42005258     5258        0     1                 
42005258     5258        0     1                 
42005258     5258        0     1                 
42005258     5258       86     1                 core::fmt::num::_$LT$impl$u20$core..fmt..LowerHex$u20$for$u20$i32$GT$::fmt::ha6b8d91736b1c318
42005258     5258       86     1                 core::fmt::num::_$LT$impl$u20$core..fmt..LowerHex$u20$for$u20$usize$GT$::fmt::h077129ba840bf720
42005258     5258       86     1                 core::fmt::num::_$LT$impl$u20$core..fmt..LowerHex$u20$for$u20$isize$GT$::fmt::hfee73f12ece43fec
42005258     5258       86     1                 core::fmt::num::_$LT$impl$u20$core..fmt..LowerHex$u20$for$u20$u32$GT$::fmt::h3038cc7ec86e3600
4200525a     525a        0     1                 
4200525c     525c        0     1                 
42005260     5260        0     1                 
4200526c     526c        0     1                 
4200526c     526c        0     1                 
42005274     5274        0     1                 
42005276     5276        0     1                 
42005276     5276        0     1                 
4200527a     527a        0     1                 
4200527a     527a        0     1                 
42005280     5280        0     1                 
42005282     5282        0     1                 
42005282     5282        0     1                 
4200528a     528a        0     1                 
4200528a     528a        0     1                 
4200528e     528e        0     1                 
4200528e     528e        0     1                 
42005294     5294        0     1                 
42005294     5294        0     1                 
420052a0     52a0        0     1                 
420052a0     52a0        0     1                 
420052a6     52a6        0     1                 
420052a6     52a6        0     1                 
420052c2     52c2        0     1                 
420052c2     52c2        0     1                 
420052c8     52c8        0     1                 
420052c8     52c8        0     1                 
420052de     52de        0     1                 
420052de     52de        0     1                 
420052de     52de        0     1                 
420052de     52de        0     1                 
420052de     52de       86     2         /home/mabez/.rustup/toolchains/nightly-x86_64-unknown-linux-gnu/lib/rustlib/riscv32imac-unknown-none-elf/lib/libcore-081fd8405fc18f2e.rlib(core-081fd8405fc18f2e.core.364d98f8-cgu.0.rcgu.o):(.text._ZN4core3fmt3num53_$LT$impl$u20$core..fmt..UpperHex$u20$for$u20$i32$GT$3fmt17hf50d972310c62d8fE)
420052de     52de        0     1                 
420052de     52de        0     1                 
420052de     52de        0     1                 
420052de     52de       86     1                 core::fmt::num::_$LT$impl$u20$core..fmt..UpperHex$u20$for$u20$i32$GT$::fmt::hf50d972310c62d8f
420052de     52de       86     1                 core::fmt::num::_$LT$impl$u20$core..fmt..UpperHex$u20$for$u20$usize$GT$::fmt::h865f1433bfdbbb15
420052de     52de       86     1                 core::fmt::num::_$LT$impl$u20$core..fmt..UpperHex$u20$for$u20$isize$GT$::fmt::hed38c9f3f8ca032b
420052de     52de       86     1                 core::fmt::num::_$LT$impl$u20$core..fmt..UpperHex$u20$for$u20$u32$GT$::fmt::h7ff47cb5aeb5dd58
420052e0     52e0        0     1                 
420052e2     52e2        0     1                 
420052e6     52e6        0     1                 
420052f2     52f2        0     1                 
420052f2     52f2        0     1                 
420052fa     52fa        0     1                 
420052fc     52fc        0     1                 
420052fc     52fc        0     1                 
42005300     5300        0     1                 
42005300     5300        0     1                 
42005306     5306        0     1                 
42005308     5308        0     1                 
42005308     5308        0     1                 
42005310     5310        0     1                 
42005310     5310        0     1                 
42005314     5314        0     1                 
42005314     5314        0     1                 
4200531a     531a        0     1                 
4200531a     531a        0     1                 
42005326     5326        0     1                 
42005326     5326        0     1                 
4200532c     532c        0     1                 
4200532c     532c        0     1                 
42005348     5348        0     1                 
42005348     5348        0     1                 
4200534e     534e        0     1                 
4200534e     534e        0     1                 
42005364     5364        0     1                 
42005364     5364        0     1                 
42005364     5364        0     1                 
42005364     5364        0     1                 
42005364     5364       dc     2         /home/mabez/.rustup/toolchains/nightly-x86_64-unknown-linux-gnu/lib/rustlib/riscv32imac-unknown-none-elf/lib/libcore-081fd8405fc18f2e.rlib(core-081fd8405fc18f2e.core.364d98f8-cgu.0.rcgu.o):(.text._ZN4core3fmt3num50_$LT$impl$u20$core..fmt..Debug$u20$for$u20$u32$GT$3fmt17h65397fb5b8ceb759E)
42005364     5364       dc     1                 core::fmt::num::_$LT$impl$u20$core..fmt..Debug$u20$for$u20$u32$GT$::fmt::h65397fb5b8ceb759
42005364     5364        0     1                 
42005364     5364        0     1                 
42005364     5364        0     1                 
42005366     5366        0     1                 
42005368     5368        0     1                 
4200536a     536a        0     1                 
4200536a     536a        0     1                 
42005370     5370        0     1                 
42005370     5370        0     1                 
42005372     5372        0     1                 
42005372     5372        0     1                 
42005376     5376        0     1                 
42005376     5376        0     1                 
42005378     5378        0     1                 
42005378     5378        0     1                 
4200537a     537a        0     1                 
4200537a     537a        0     1                 
4200538a     538a        0     1                 
4200538a     538a        0     1                 
4200538c     538c        0     1                 
4200538c     538c        0     1                 
42005398     5398        0     1                 
42005398     5398        0     1                 
420053a0     53a0        0     1                 
420053a2     53a2        0     1                 
420053a2     53a2        0     1                 
420053a6     53a6        0     1                 
420053a6     53a6        0     1                 
420053ac     53ac        0     1                 
420053ae     53ae        0     1                 
420053ae     53ae        0     1                 
420053b6     53b6        0     1                 
420053b6     53b6        0     1                 
420053ba     53ba        0     1                 
420053ba     53ba        0     1                 
420053c2     53c2        0     1                 
420053c2     53c2        0     1                 
420053ce     53ce        0     1                 
420053ce     53ce        0     1                 
420053d6     53d6        0     1                 
420053d8     53d8        0     1                 
420053d8     53d8        0     1                 
420053dc     53dc        0     1                 
420053dc     53dc        0     1                 
420053e2     53e2        0     1                 
420053e4     53e4        0     1                 
420053e4     53e4        0     1                 
420053ec     53ec        0     1                 
420053ec     53ec        0     1                 
420053f0     53f0        0     1                 
420053f0     53f0        0     1                 
42005424     5424        0     1                 
4200542a     542a        0     1                 
42005440     5440        0     1                 
42005440     5440        0     1                 
42005440     5440        0     1                 
42005440     5440       dc     2         /home/mabez/.rustup/toolchains/nightly-x86_64-unknown-linux-gnu/lib/rustlib/riscv32imac-unknown-none-elf/lib/libcore-081fd8405fc18f2e.rlib(core-081fd8405fc18f2e.core.364d98f8-cgu.0.rcgu.o):(.text._ZN4core3fmt3num52_$LT$impl$u20$core..fmt..Debug$u20$for$u20$usize$GT$3fmt17h62b9f04775929c78E)
42005440     5440       dc     1                 core::fmt::num::_$LT$impl$u20$core..fmt..Debug$u20$for$u20$usize$GT$::fmt::h62b9f04775929c78
42005440     5440        0     1                 
42005440     5440        0     1                 
42005440     5440        0     1                 
42005442     5442        0     1                 
42005444     5444        0     1                 
42005446     5446        0     1                 
42005446     5446        0     1                 
4200544c     544c        0     1                 
4200544c     544c        0     1                 
4200544e     544e        0     1                 
4200544e     544e        0     1                 
42005452     5452        0     1                 
42005452     5452        0     1                 
42005454     5454        0     1                 
42005454     5454        0     1                 
42005456     5456        0     1                 
42005456     5456        0     1                 
42005466     5466        0     1                 
42005466     5466        0     1                 
42005468     5468        0     1                 
42005468     5468        0     1                 
42005474     5474        0     1                 
42005474     5474        0     1                 
4200547c     547c        0     1                 
4200547e     547e        0     1                 
4200547e     547e        0     1                 
42005482     5482        0     1                 
42005482     5482        0     1                 
42005488     5488        0     1                 
4200548a     548a        0     1                 
4200548a     548a        0     1                 
42005492     5492        0     1                 
42005492     5492        0     1                 
42005496     5496        0     1                 
42005496     5496        0     1                 
4200549e     549e        0     1                 
4200549e     549e        0     1                 
420054aa     54aa        0     1                 
420054aa     54aa        0     1                 
420054b2     54b2        0     1                 
420054b4     54b4        0     1                 
420054b4     54b4        0     1                 
420054b8     54b8        0     1                 
420054b8     54b8        0     1                 
420054be     54be        0     1                 
420054c0     54c0        0     1                 
420054c0     54c0        0     1                 
420054c8     54c8        0     1                 
420054c8     54c8        0     1                 
420054cc     54cc        0     1                 
420054cc     54cc        0     1                 
42005500     5500        0     1                 
42005506     5506        0     1                 
4200551c     551c        0     1                 
4200551c     551c        0     1                 
4200551c     551c        0     1                 
4200551c     551c      16e     2         /home/mabez/.rustup/toolchains/nightly-x86_64-unknown-linux-gnu/lib/rustlib/riscv32imac-unknown-none-elf/lib/libcore-081fd8405fc18f2e.rlib(core-081fd8405fc18f2e.core.364d98f8-cgu.0.rcgu.o):(.text._ZN4core3fmt3num3imp7fmt_u3217h68d0f1eeab9c52c5E)
4200551c     551c      16e     1                 core::fmt::num::imp::fmt_u32::h68d0f1eeab9c52c5
4200551c     551c        0     1                 
4200551c     551c        0     1                 
4200551c     551c        0     1                 
4200551e     551e        0     1                 
42005524     5524        0     1                 
42005526     5526        0     1                 
42005536     5536        0     1                 
4200553a     553a        0     1                 
4200553e     553e        0     1                 
42005540     5540        0     1                 
42005544     5544        0     1                 
4200554a     554a        0     1                 
4200554a     554a        0     1                 
4200554c     554c        0     1                 
4200554c     554c        0     1                 
42005556     5556        0     1                 
42005586     5586        0     1                 
42005594     5594        0     1                 
420055ac     55ac        0     1                 
420055b2     55b2        0     1                 
420055b2     55b2        0     1                 
420055b6     55b6        0     1                 
420055b6     55b6        0     1                 
420055c2     55c2        0     1                 
420055c2     55c2        0     1                 
420055c4     55c4        0     1                 
420055c4     55c4        0     1                 
420055cc     55cc        0     1                 
420055cc     55cc        0     1                 
420055d4     55d4        0     1                 
420055d4     55d4        0     1                 
420055dc     55dc        0     1                 
420055dc     55dc        0     1                 
420055e2     55e2        0     1                 
420055ee     55ee        0     1                 
4200560a     560a        0     1                 
4200560e     560e        0     1                 
42005610     5610        0     1                 
42005610     5610        0     1                 
4200561a     561a        0     1                 
4200561a     561a        0     1                 
42005626     5626        0     1                 
42005626     5626        0     1                 
42005628     5628        0     1                 
42005628     5628        0     1                 
42005634     5634        0     1                 
42005634     5634        0     1                 
42005638     5638        0     1                 
4200563a     563a        0     1                 
4200563c     563c        0     1                 
4200563c     563c        0     1                 
42005646     5646        0     1                 
42005646     5646        0     1                 
42005652     5652        0     1                 
42005652     5652        0     1                 
42005654     5654        0     1                 
42005654     5654        0     1                 
4200565c     565c        0     1                 
4200565c     565c        0     1                 
42005660     5660        0     1                 
42005660     5660        0     1                 
42005668     5668        0     1                 
42005668     5668        0     1                 
4200566c     566c        0     1                 
42005680     5680        0     1                 
4200568a     568a        0     1                 
4200568a     568a        0     1                 
4200568a     568a        0     1                 
4200568a     568a       20     2         /home/mabez/.rustup/toolchains/nightly-x86_64-unknown-linux-gnu/lib/rustlib/riscv32imac-unknown-none-elf/lib/libcore-081fd8405fc18f2e.rlib(core-081fd8405fc18f2e.core.364d98f8-cgu.0.rcgu.o):(.text._ZN4core3fmt3num3imp52_$LT$impl$u20$core..fmt..Display$u20$for$u20$i32$GT$3fmt17h506ba5d8f366c482E)
4200568a     568a        0     1                 
4200568a     568a        0     1                 
4200568a     568a        0     1                 
4200568a     568a        0     1                 
4200568a     568a       20     1                 core::fmt::num::imp::_$LT$impl$u20$core..fmt..Display$u20$for$u20$i32$GT$::fmt::h506ba5d8f366c482
4200568a     568a       20     1                 core::fmt::num::imp::_$LT$impl$u20$core..fmt..Display$u20$for$u20$isize$GT$::fmt::hae3deacce2c13a96
4200568c     568c        0     1                 
42005696     5696        0     1                 
420056aa     56aa        0     1                 
420056aa     56aa        0     1                 
420056aa     56aa        0     1                 
420056aa     56aa        e     2         /home/mabez/.rustup/toolchains/nightly-x86_64-unknown-linux-gnu/lib/rustlib/riscv32imac-unknown-none-elf/lib/libcore-081fd8405fc18f2e.rlib(core-081fd8405fc18f2e.core.364d98f8-cgu.0.rcgu.o):(.text._ZN4core3fmt3num3imp52_$LT$impl$u20$core..fmt..Display$u20$for$u20$u32$GT$3fmt17hc6528bb922a42a27E)
420056aa     56aa        0     1                 
420056aa     56aa        0     1                 
420056aa     56aa        0     1                 
420056aa     56aa        0     1                 
420056aa     56aa        e     1                 core::fmt::num::imp::_$LT$impl$u20$core..fmt..Display$u20$for$u20$u32$GT$::fmt::hc6528bb922a42a27
420056aa     56aa        e     1                 core::fmt::num::imp::_$LT$impl$u20$core..fmt..Display$u20$for$u20$usize$GT$::fmt::heba9ad24e060af9f
420056ae     56ae        0     1                 
420056ae     56ae        0     1                 
420056b8     56b8        0     1                 
420056b8     56b8        0     1                 
420056b8     56b8        0     1                 
420056b8     56b8       12     2         /home/mabez/.rustup/toolchains/nightly-x86_64-unknown-linux-gnu/lib/rustlib/riscv32imac-unknown-none-elf/lib/libcore-081fd8405fc18f2e.rlib(core-081fd8405fc18f2e.core.364d98f8-cgu.0.rcgu.o):(.text._ZN53_$LT$core..fmt..Error$u20$as$u20$core..fmt..Debug$GT$3fmt17he1a75c0c73d05255E)
420056b8     56b8        0     1                 
420056b8     56b8        0     1                 
420056b8     56b8        0     1                 
420056b8     56b8        0     1                 
420056b8     56b8       12     1                 _$LT$core..fmt..Error$u20$as$u20$core..fmt..Debug$GT$::fmt::he1a75c0c73d05255
420056ca     56ca        0     1                 
420056ca     56ca        0     1                 
420056ca     56ca        0     1                 
420056ca     56ca        0     1                 
420056ca     56ca        c     2         /home/mabez/.rustup/toolchains/nightly-x86_64-unknown-linux-gnu/lib/rustlib/riscv32imac-unknown-none-elf/lib/libcore-081fd8405fc18f2e.rlib(core-081fd8405fc18f2e.core.364d98f8-cgu.0.rcgu.o):(.text._ZN42_$LT$$RF$T$u20$as$u20$core..fmt..Debug$GT$3fmt17h14996dfd0988965fE)
420056ca     56ca        c     1                 _$LT$$RF$T$u20$as$u20$core..fmt..Debug$GT$::fmt::h14996dfd0988965f
420056ca     56ca        0     1                 
420056ca     56ca        0     1                 
420056ca     56ca        0     1                 
420056ca     56ca        0     1                 
420056cc     56cc        0     1                 
420056ce     56ce        0     1                 
420056ce     56ce        0     1                 
420056d6     56d6        0     1                 
420056d6     56d6        0     1                 
420056d6     56d6        0     1                 
420056d6     56d6        0     1                 
420056d6     56d6       c0     2         /home/mabez/.rustup/toolchains/nightly-x86_64-unknown-linux-gnu/lib/rustlib/riscv32imac-unknown-none-elf/lib/libcore-081fd8405fc18f2e.rlib(core-081fd8405fc18f2e.core.364d98f8-cgu.0.rcgu.o):(.text._ZN42_$LT$$RF$T$u20$as$u20$core..fmt..Debug$GT$3fmt17h4cf4830676166837E)
420056d6     56d6       c0     1                 _$LT$$RF$T$u20$as$u20$core..fmt..Debug$GT$::fmt::h4cf4830676166837
420056d6     56d6        0     1                 
420056d6     56d6        0     1                 
420056d6     56d6        0     1                 
420056d8     56d8        0     1                 
420056d8     56d8        0     1                 
420056de     56de        0     1                 
420056e0     56e0        0     1                 
420056e0     56e0        0     1                 
420056e6     56e6        0     1                 
420056e6     56e6        0     1                 
420056f8     56f8        0     1                 
420056f8     56f8        0     1                 
42005704     5704        0     1                 
42005704     5704        0     1                 
42005706     5706        0     1                 
4200571a     571a        0     1                 
4200571a     571a        0     1                 
4200571c     571c        0     1                 
42005720     5720        0     1                 
42005722     5722        0     1                 
42005724     5724        0     1                 
42005724     5724        0     1                 
42005726     5726        0     1                 
42005726     5726        0     1                 
42005730     5730        0     1                 
42005732     5732        0     1                 
4200573a     573a        0     1                 
4200573a     573a        0     1                 
42005740     5740        0     1                 
42005740     5740        0     1                 
42005742     5742        0     1                 
42005742     5742        0     1                 
42005756     5756        0     1                 
42005756     5756        0     1                 
42005758     5758        0     1                 
42005758     5758        0     1                 
4200576c     576c        0     1                 
4200576c     576c        0     1                 
4200576e     576e        0     1                 
42005772     5772        0     1                 
42005772     5772        0     1                 
4200577c     577c        0     1                 
4200577c     577c        0     1                 
42005796     5796        0     1                 
42005796     5796        0     1                 
42005796     5796        0     1                 
42005796     5796        0     1                 
42005796     5796        a     2         /home/mabez/.rustup/toolchains/nightly-x86_64-unknown-linux-gnu/lib/rustlib/riscv32imac-unknown-none-elf/lib/libcore-081fd8405fc18f2e.rlib(core-081fd8405fc18f2e.core.364d98f8-cgu.0.rcgu.o):(.text._ZN42_$LT$$RF$T$u20$as$u20$core..fmt..Debug$GT$3fmt17h80f8e9d2e449367fE)
42005796     5796        a     1                 _$LT$$RF$T$u20$as$u20$core..fmt..Debug$GT$::fmt::h80f8e9d2e449367f
42005796     5796        0     1                 
42005796     5796        0     1                 
42005796     5796        0     1                 
42005796     5796        0     1                 
42005798     5798        0     1                 
420057a0     57a0        0     1                 
420057a0     57a0        0     1                 
420057a0     57a0        0     1                 
420057a0     57a0       14     2         /home/mabez/.rustup/toolchains/nightly-x86_64-unknown-linux-gnu/lib/rustlib/riscv32imac-unknown-none-elf/lib/libcore-081fd8405fc18f2e.rlib(core-081fd8405fc18f2e.core.364d98f8-cgu.0.rcgu.o):(.text._ZN42_$LT$$RF$T$u20$as$u20$core..fmt..Debug$GT$3fmt17h94056819c409680bE)
420057a0     57a0       14     1                 _$LT$$RF$T$u20$as$u20$core..fmt..Debug$GT$::fmt::h94056819c409680b
420057a0     57a0        0     1                 
420057a0     57a0        0     1                 
420057a0     57a0        0     1                 
420057a0     57a0        0     1                 
420057a2     57a2        0     1                 
420057a2     57a2        0     1                 
420057a8     57a8        0     1                 
420057b4     57b4        0     1                 
420057b4     57b4        0     1                 
420057b4     57b4        0     1                 
420057b4     57b4        0     1                 
420057b4     57b4       3e     2         /home/mabez/.rustup/toolchains/nightly-x86_64-unknown-linux-gnu/lib/rustlib/riscv32imac-unknown-none-elf/lib/libcore-081fd8405fc18f2e.rlib(core-081fd8405fc18f2e.core.364d98f8-cgu.0.rcgu.o):(.text._ZN42_$LT$$RF$T$u20$as$u20$core..fmt..Debug$GT$3fmt17haf3bcbcb37f890a8E)
420057b4     57b4       3e     1                 _$LT$$RF$T$u20$as$u20$core..fmt..Debug$GT$::fmt::haf3bcbcb37f890a8
420057b4     57b4        0     1                 
420057b4     57b4        0     1                 
420057b4     57b4        0     1                 
420057b6     57b6        0     1                 
420057b6     57b6        0     1                 
420057b6     57b6        0     1                 
420057ba     57ba        0     1                 
420057d0     57d0        0     1                 
420057d0     57d0        0     1                 
420057d2     57d2        0     1                 
420057d2     57d2        0     1                 
420057dc     57dc        0     1                 
420057dc     57dc        0     1                 
420057f2     57f2        0     1                 
420057f2     57f2        0     1                 
420057f2     57f2        0     1                 
420057f2     57f2        0     1                 
420057f2     57f2        8     2         /home/mabez/.rustup/toolchains/nightly-x86_64-unknown-linux-gnu/lib/rustlib/riscv32imac-unknown-none-elf/lib/libcore-081fd8405fc18f2e.rlib(core-081fd8405fc18f2e.core.364d98f8-cgu.0.rcgu.o):(.text._ZN42_$LT$$RF$T$u20$as$u20$core..fmt..Debug$GT$3fmt17hc181a33e48d78581E)
420057f2     57f2        8     1                 _$LT$$RF$T$u20$as$u20$core..fmt..Debug$GT$::fmt::hc181a33e48d78581
420057f2     57f2        0     1                 
420057f2     57f2        0     1                 
420057f2     57f2        0     1                 
420057f2     57f2        0     1                 
420057f6     57f6        0     1                 
420057fa     57fa        0     1                 
420057fa     57fa        0     1                 
420057fa     57fa        0     1                 
420057fa     57fa       34     2         /home/mabez/.rustup/toolchains/nightly-x86_64-unknown-linux-gnu/lib/rustlib/riscv32imac-unknown-none-elf/lib/libcore-081fd8405fc18f2e.rlib(core-081fd8405fc18f2e.core.364d98f8-cgu.0.rcgu.o):(.text._ZN42_$LT$$RF$T$u20$as$u20$core..fmt..Debug$GT$3fmt17hea92540f30ce3195E)
420057fa     57fa       34     1                 _$LT$$RF$T$u20$as$u20$core..fmt..Debug$GT$::fmt::hea92540f30ce3195
420057fa     57fa        0     1                 
420057fa     57fa        0     1                 
420057fa     57fa        0     1                 
420057fc     57fc        0     1                 
420057fc     57fc        0     1                 
420057fe     57fe        0     1                 
42005800     5800        0     1                 
42005802     5802        0     1                 
42005802     5802        0     1                 
42005814     5814        0     1                 
42005814     5814        0     1                 
42005816     5816        0     1                 
42005816     5816        0     1                 
4200581a     581a        0     1                 
4200581a     581a        0     1                 
4200581c     581c        0     1                 
4200581c     581c        0     1                 
4200581e     581e        0     1                 
42005828     5828        0     1                 
42005828     5828        0     1                 
4200582e     582e        0     1                 
4200582e     582e        0     1                 
4200582e     582e        0     1                 
4200582e     582e       10     2         /home/mabez/.rustup/toolchains/nightly-x86_64-unknown-linux-gnu/lib/rustlib/riscv32imac-unknown-none-elf/lib/libcore-081fd8405fc18f2e.rlib(core-081fd8405fc18f2e.core.364d98f8-cgu.0.rcgu.o):(.text._ZN44_$LT$$RF$T$u20$as$u20$core..fmt..Display$GT$3fmt17h28f9c7dfe7e7a174E)
4200582e     582e       10     1                 _$LT$$RF$T$u20$as$u20$core..fmt..Display$GT$::fmt::h28f9c7dfe7e7a174
4200582e     582e        0     1                 
4200582e     582e        0     1                 
4200582e     582e        0     1                 
4200582e     582e        0     1                 
42005834     5834        0     1                 
42005834     5834        0     1                 
4200583e     583e        0     1                 
4200583e     583e        0     1                 
4200583e     583e        0     1                 
4200583e     583e        0     1                 
4200583e     583e      138     2         /home/mabez/.rustup/toolchains/nightly-x86_64-unknown-linux-gnu/lib/rustlib/riscv32imac-unknown-none-elf/lib/libcore-081fd8405fc18f2e.rlib(core-081fd8405fc18f2e.core.364d98f8-cgu.0.rcgu.o):(.text._ZN4core7unicode12unicode_data15grapheme_extend6lookup17h6305603ec5129326E)
4200583e     583e        0     1                 
4200583e     583e        0     1                 
4200583e     583e        0     1                 
4200583e     583e      138     1                 core::unicode::unicode_data::grapheme_extend::lookup::h6305603ec5129326
42005840     5840        0     1                 
42005842     5842        0     1                 
42005844     5844        0     1                 
42005844     5844        0     1                 
4200585a     585a        0     1                 
4200585a     585a        0     1                 
4200585e     585e        0     1                 
42005862     5862        0     1                 
42005866     5866        0     1                 
4200586a     586a        0     1                 
4200586e     586e        0     1                 
4200586e     586e        0     1                 
42005874     5874        0     1                 
42005874     5874        0     1                 
42005876     5876        0     1                 
42005876     5876        0     1                 
42005878     5878        0     1                 
42005878     5878        0     1                 
4200587c     587c        0     1                 
42005880     5880        0     1                 
42005882     5882        0     1                 
42005886     5886        0     1                 
4200588c     588c        0     1                 
4200588c     588c        0     1                 
42005890     5890        0     1                 
42005892     5892        0     1                 
420058a6     58a6        0     1                 
420058aa     58aa        0     1                 
420058ae     58ae        0     1                 
420058b0     58b0        0     1                 
420058b0     58b0        0     1                 
420058b2     58b2        0     1                 
420058b2     58b2        0     1                 
420058b6     58b6        0     1                 
420058b6     58b6        0     1                 
420058ba     58ba        0     1                 
420058c2     58c2        0     1                 
420058c2     58c2        0     1                 
420058da     58da        0     1                 
420058da     58da        0     1                 
420058dc     58dc        0     1                 
420058dc     58dc        0     1                 
420058e2     58e2        0     1                 
420058e6     58e6        0     1                 
420058e6     58e6        0     1                 
420058ea     58ea        0     1                 
420058ea     58ea        0     1                 
420058f0     58f0        0     1                 
420058f4     58f4        0     1                 
420058fe     58fe        0     1                 
42005916     5916        0     1                 
42005918     5918        0     1                 
4200591c     591c        0     1                 
4200591e     591e        0     1                 
4200591e     591e        0     1                 
42005922     5922        0     1                 
42005922     5922        0     1                 
42005924     5924        0     1                 
42005928     5928        0     1                 
42005928     5928        0     1                 
4200592e     592e        0     1                 
4200592e     592e        0     1                 
42005946     5946        0     1                 
4200595e     595e        0     1                 
4200595e     595e        0     1                 
42005976     5976        0     1                 
42005976     5976        0     1                 
42005976     5976        0     1                 
42005976     5976        0     1                 
42005976     5976       b6     2         /home/mabez/.rustup/toolchains/nightly-x86_64-unknown-linux-gnu/lib/rustlib/riscv32imac-unknown-none-elf/lib/libcompiler_builtins-64fdae85a7f05972.rlib(compiler_builtins-64fdae85a7f05972.compiler_builtins.ce5182a1-cgu.121.rcgu.o):(.text.memcpy)
42005976     5976        0     1                 
42005976     5976        0     1                 
42005976     5976        0     1                 
42005976     5976       b6     1                 memcpy
42005978     5978        0     1                 
42005978     5978        0     1                 
4200597c     597c        0     1                 
4200597c     597c        0     1                 
42005980     5980        0     1                 
42005980     5980        0     1                 
42005984     5984        0     1                 
42005984     5984        0     1                 
42005988     5988        0     1                 
42005988     5988        0     1                 
4200598c     598c        0     1                 
42005990     5990        0     1                 
42005994     5994        0     1                 
42005998     5998        0     1                 
42005998     5998        0     1                 
4200599a     599a        0     1                 
4200599a     599a        0     1                 
4200599c     599c        0     1                 
4200599c     599c        0     1                 
420059a0     59a0        0     1                 
420059a0     59a0        0     1                 
420059a4     59a4        0     1                 
420059a4     59a4        0     1                 
420059a8     59a8        0     1                 
420059ac     59ac        0     1                 
420059b0     59b0        0     1                 
420059b4     59b4        0     1                 
420059b6     59b6        0     1                 
420059b6     59b6        0     1                 
420059ba     59ba        0     1                 
420059c6     59c6        0     1                 
420059d0     59d0        0     1                 
420059d4     59d4        0     1                 
420059d6     59d6        0     1                 
420059da     59da        0     1                 
420059de     59de        0     1                 
420059e0     59e0        0     1                 
420059e4     59e4        0     1                 
420059e4     59e4        0     1                 
420059e6     59e6        0     1                 
420059e6     59e6        0     1                 
420059f0     59f0        0     1                 
420059f0     59f0        0     1                 
420059f2     59f2        0     1                 
420059f2     59f2        0     1                 
420059f8     59f8        0     1                 
420059f8     59f8        0     1                 
420059fc     59fc        0     1                 
420059fe     59fe        0     1                 
42005a00     5a00        0     1                 
42005a04     5a04        0     1                 
42005a04     5a04        0     1                 
42005a06     5a06        0     1                 
42005a06     5a06        0     1                 
42005a08     5a08        0     1                 
42005a08     5a08        0     1                 
42005a0c     5a0c        0     1                 
42005a0c     5a0c        0     1                 
42005a10     5a10        0     1                 
42005a10     5a10        0     1                 
42005a14     5a14        0     1                 
42005a14     5a14        0     1                 
42005a18     5a18        0     1                 
42005a1a     5a1a        0     1                 
42005a1e     5a1e        0     1                 
42005a22     5a22        0     1                 
42005a22     5a22        0     1                 
42005a24     5a24        0     1                 
42005a24     5a24        0     1                 
42005a26     5a26        0     1                 
42005a26     5a26        0     1                 
42005a2a     5a2a        0     1                 
42005a2a     5a2a        0     1                 
42005a2c     5a2c        0     1                 
42005a2c     5a2c        0     1                 
42005a2c     5a2c        0     1                 
42005a2c     5a2c       60     2         /home/mabez/.rustup/toolchains/nightly-x86_64-unknown-linux-gnu/lib/rustlib/riscv32imac-unknown-none-elf/lib/libcompiler_builtins-64fdae85a7f05972.rlib(compiler_builtins-64fdae85a7f05972.compiler_builtins.ce5182a1-cgu.121.rcgu.o):(.text.memset)
42005a2c     5a2c        0     1                 
42005a2c     5a2c        0     1                 
42005a2c     5a2c        0     1                 
42005a2c     5a2c       60     1                 memset
42005a2e     5a2e        0     1                 
42005a2e     5a2e        0     1                 
42005a32     5a32        0     1                 
42005a32     5a32        0     1                 
42005a36     5a36        0     1                 
42005a36     5a36        0     1                 
42005a38     5a38        0     1                 
42005a38     5a38        0     1                 
42005a3c     5a3c        0     1                 
42005a3c     5a3c        0     1                 
42005a3e     5a3e        0     1                 
42005a40     5a40        0     1                 
42005a44     5a44        0     1                 
42005a44     5a44        0     1                 
42005a46     5a46        0     1                 
42005a46     5a46        0     1                 
42005a4a     5a4a        0     1                 
42005a4a     5a4a        0     1                 
42005a4c     5a4c        0     1                 
42005a50     5a50        0     1                 
42005a50     5a50        0     1                 
42005a54     5a54        0     1                 
42005a54     5a54        0     1                 
42005a58     5a58        0     1                 
42005a68     5a68        0     1                 
42005a6a     5a6a        0     1                 
42005a6a     5a6a        0     1                 
42005a6c     5a6c        0     1                 
42005a6c     5a6c        0     1                 
42005a70     5a70        0     1                 
42005a70     5a70        0     1                 
42005a72     5a72        0     1                 
42005a72     5a72        0     1                 
42005a78     5a78        0     1                 
42005a7a     5a7a        0     1                 
42005a7e     5a7e        0     1                 
42005a80     5a80        0     1                 
42005a84     5a84        0     1                 
42005a84     5a84        0     1                 
42005a86     5a86        0     1                 
42005a86     5a86        0     1                 
42005a8a     5a8a        0     1                 
42005a8a     5a8a        0     1                 
42005a8c     5a8c        0     1                 
42005a8c     5a8c        0     1                 
42005a8c     5a8c        0     1                 
42005a8c     5a8c        8     2         /home/mabez/development/rust/embedded/experiments/esp32c3/target/riscv32imac-unknown-none-elf/debug/deps/libriscv_rt-9f6ededa1f4c9759.rlib(riscv_rt-9f6ededa1f4c9759.riscv_rt.da5378fb-cgu.3.rcgu.o):(.text.DefaultExceptionHandler)
42005a8c     5a8c        0     1                 
42005a8c     5a8c        0     1                 
42005a8c     5a8c        0     1                 
42005a8c     5a8c        8     1                 DefaultExceptionHandler
42005a8e     5a8e        0     1                 
42005a90     5a90        0     1                 
42005a94     5a94        0     1                 
42005a94     5a94        0     1                 
42005a94     5a94        0     1                 
42005a94     5a94        4     2         /home/mabez/development/rust/embedded/experiments/esp32c3/target/riscv32imac-unknown-none-elf/debug/deps/libriscv_rt-9f6ededa1f4c9759.rlib(riscv_rt-9f6ededa1f4c9759.riscv_rt.da5378fb-cgu.3.rcgu.o):(.text.DefaultInterruptHandler)
42005a94     5a94        0     1                 
42005a94     5a94        0     1                 
42005a94     5a94        0     1                 
42005a94     5a94        0     1                 
42005a94     5a94        4     1                 DefaultInterruptHandler
42005a98     5a98        0     1                 
42005a98     5a98        0     1                 
42005a98     5a98        0     1                 
42005a98     5a98        2     2         /home/mabez/development/rust/embedded/experiments/esp32c3/target/riscv32imac-unknown-none-elf/debug/deps/libriscv_rt-9f6ededa1f4c9759.rlib(riscv_rt-9f6ededa1f4c9759.riscv_rt.da5378fb-cgu.3.rcgu.o):(.text.default_pre_init)
42005a98     5a98        0     1                 
42005a98     5a98        0     1                 
42005a98     5a98        0     1                 
42005a98     5a98        0     1                 
42005a98     5a98        2     1                 default_pre_init
42005a9a     5a9a        0     1                 
42005a9a     5a9a        0     1                 
42005a9a     5a9a        0     1                 
42005a9a     5a9a       2c     2         /home/mabez/development/rust/embedded/experiments/esp32c3/target/riscv32imac-unknown-none-elf/debug/deps/libriscv_rt-9f6ededa1f4c9759.rlib(riscv_rt-9f6ededa1f4c9759.riscv_rt.da5378fb-cgu.3.rcgu.o):(.text.default_mp_hook)
42005a9a     5a9a        0     1                 
42005a9a     5a9a        0     1                 
42005a9a     5a9a        0     1                 
42005a9a     5a9a       2c     1                 default_mp_hook
42005a9c     5a9c        0     1                 
42005a9c     5a9c        0     1                 
42005a9e     5a9e        0     1                 
42005aaa     5aaa        0     1                 
42005aae     5aae        0     1                 
42005ab4     5ab4        0     1                 
42005ab6     5ab6        0     1                 
42005abc     5abc        0     1                 
42005ac6     5ac6        0     1                 
42005ac6     5ac6        0     1                 
42005ac6     5ac6        0     1                 
42005ac6     5ac6       68     2         /home/mabez/development/rust/embedded/experiments/esp32c3/target/riscv32imac-unknown-none-elf/debug/deps/libriscv_rt-9f6ededa1f4c9759.rlib(riscv_rt-9f6ededa1f4c9759.riscv_rt.da5378fb-cgu.5.rcgu.o):(.text._ZN2r09init_data17hd4008bdc8f92ffcfE)
42005ac6     5ac6        0     1                 
42005ac6     5ac6        0     1                 
42005ac6     5ac6        0     1                 
42005ac6     5ac6       68     1                 r0::init_data::hd4008bdc8f92ffcf
42005ac8     5ac8        0     1                 
42005aca     5aca        0     1                 
42005ad2     5ad2        0     1                 
42005ad4     5ad4        0     1                 
42005ade     5ade        0     1                 
42005ae4     5ae4        0     1                 
42005ae6     5ae6        0     1                 
42005aea     5aea        0     1                 
42005af6     5af6        0     1                 
42005b04     5b04        0     1                 
42005b0c     5b0c        0     1                 
42005b0c     5b0c        0     1                 
42005b12     5b12        0     1                 
42005b12     5b12        0     1                 
42005b14     5b14        0     1                 
42005b18     5b18        0     1                 
42005b20     5b20        0     1                 
42005b20     5b20        0     1                 
42005b26     5b26        0     1                 
42005b26     5b26        0     1                 
42005b28     5b28        0     1                 
42005b2c     5b2c        0     1                 
42005b2e     5b2e        0     1                 
42005b2e     5b2e        0     1                 
42005b2e     5b2e        0     1                 
42005b2e     5b2e       56     2         /home/mabez/development/rust/embedded/experiments/esp32c3/target/riscv32imac-unknown-none-elf/debug/deps/libriscv_rt-9f6ededa1f4c9759.rlib(riscv_rt-9f6ededa1f4c9759.riscv_rt.da5378fb-cgu.5.rcgu.o):(.text._ZN2r08zero_bss17h56b154cbe995c434E)
42005b2e     5b2e        0     1                 
42005b2e     5b2e        0     1                 
42005b2e     5b2e        0     1                 
42005b2e     5b2e       56     1                 r0::zero_bss::h56b154cbe995c434
42005b30     5b30        0     1                 
42005b32     5b32        0     1                 
42005b38     5b38        0     1                 
42005b3a     5b3a        0     1                 
42005b44     5b44        0     1                 
42005b4a     5b4a        0     1                 
42005b4c     5b4c        0     1                 
42005b4c     5b4c        0     1                 
42005b5e     5b5e        0     1                 
42005b5e     5b5e        0     1                 
42005b60     5b60        0     1                 
42005b6e     5b6e        0     1                 
42005b76     5b76        0     1                 
42005b76     5b76        0     1                 
42005b7c     5b7c        0     1                 
42005b7c     5b7c        0     1                 
42005b7e     5b7e        0     1                 
42005b82     5b82        0     1                 
42005b84     5b84        0     1                 
42005b84     5b84        0     1                 
42005b84     5b84        0     1                 
42005b84     5b84       26     2         /home/mabez/development/rust/embedded/experiments/esp32c3/target/riscv32imac-unknown-none-elf/debug/deps/libriscv_rt-9f6ededa1f4c9759.rlib(riscv_rt-9f6ededa1f4c9759.riscv_rt.da5378fb-cgu.0.rcgu.o):(.text._ZN4core3ptr4read17he321de902653655fE)
42005b84     5b84        0     1                 
42005b84     5b84        0     1                 
42005b84     5b84        0     1                 
42005b84     5b84       26     1                 core::ptr::read::he321de902653655f
42005b86     5b86        0     1                 
42005b8a     5b8a        0     1                 
42005b8a     5b8a        0     1                 
42005b8c     5b8c        0     1                 
42005b8c     5b8c        0     1                 
42005b90     5b90        0     1                 
42005b94     5b94        0     1                 
42005b94     5b94        0     1                 
42005b96     5b96        0     1                 
42005ba2     5ba2        0     1                 
42005ba4     5ba4        0     1                 
42005ba4     5ba4        0     1                 
42005baa     5baa        0     1                 
42005baa     5baa        0     1                 
42005baa     5baa        0     1                 
42005baa     5baa        c     2         /home/mabez/development/rust/embedded/experiments/esp32c3/target/riscv32imac-unknown-none-elf/debug/deps/libriscv_rt-9f6ededa1f4c9759.rlib(riscv_rt-9f6ededa1f4c9759.riscv_rt.da5378fb-cgu.0.rcgu.o):(.text._ZN4core3ptr5write17h7f533fe0a2b8bbeaE)
42005baa     5baa        0     1                 
42005baa     5baa        0     1                 
42005baa     5baa        0     1                 
42005baa     5baa        c     1                 core::ptr::write::h7f533fe0a2b8bbea
42005bac     5bac        0     1                 
42005bb0     5bb0        0     1                 
42005bb2     5bb2        0     1                 
42005bb6     5bb6        0     1                 
42005bb6     5bb6        0     1                 
42005bb6     5bb6        0     1                 
42005bb6     5bb6        e     2         /home/mabez/development/rust/embedded/experiments/esp32c3/target/riscv32imac-unknown-none-elf/debug/deps/libriscv_rt-9f6ededa1f4c9759.rlib(riscv_rt-9f6ededa1f4c9759.riscv_rt.da5378fb-cgu.0.rcgu.o):(.text._ZN4core3ptr14write_volatile17hf67484ea8f6c4eccE)
42005bb6     5bb6        0     1                 
42005bb6     5bb6        0     1                 
42005bb6     5bb6        0     1                 
42005bb6     5bb6        e     1                 core::ptr::write_volatile::hf67484ea8f6c4ecc
42005bb8     5bb8        0     1                 
42005bbc     5bbc        0     1                 
42005bc0     5bc0        0     1                 
42005bc4     5bc4        0     1                 
42005bc4     5bc4        0     1                 
42005bc4     5bc4        0     1                 
42005bc4     5bc4       30     2         /home/mabez/development/rust/embedded/experiments/esp32c3/target/riscv32imac-unknown-none-elf/debug/deps/libriscv_rt-9f6ededa1f4c9759.rlib(riscv_rt-9f6ededa1f4c9759.riscv_rt.da5378fb-cgu.1.rcgu.o):(.text._ZN4core3mem12maybe_uninit20MaybeUninit$LT$T$GT$6zeroed17hb3dcb5d92a840840E)
42005bc4     5bc4        0     1                 
42005bc4     5bc4        0     1                 
42005bc4     5bc4        0     1                 
42005bc4     5bc4       30     1                 core::mem::maybe_uninit::MaybeUninit$LT$T$GT$::zeroed::hb3dcb5d92a840840
42005bc6     5bc6        0     1                 
42005bc6     5bc6        0     1                 
42005bc6     5bc6        0     1                 
42005bc8     5bc8        0     1                 
42005bca     5bca        0     1                 
42005bca     5bca        0     1                 
42005bce     5bce        0     1                 
42005bd2     5bd2        0     1                 
42005bd2     5bd2        0     1                 
42005bd4     5bd4        0     1                 
42005be2     5be2        0     1                 
42005be2     5be2        0     1                 
42005bea     5bea        0     1                 
42005bea     5bea        0     1                 
42005bec     5bec        0     1                 
42005bec     5bec        0     1                 
42005bf4     5bf4        0     1                 
42005bf4     5bf4        0     1                 
42005bf4     5bf4        0     1                 
42005bf4     5bf4       1e     2         /home/mabez/development/rust/embedded/experiments/esp32c3/target/riscv32imac-unknown-none-elf/debug/deps/libriscv_rt-9f6ededa1f4c9759.rlib(riscv_rt-9f6ededa1f4c9759.riscv_rt.da5378fb-cgu.6.rcgu.o):(.text._ZN4core10intrinsics11write_bytes17hc5db038851eeee91E)
42005bf4     5bf4        0     1                 
42005bf4     5bf4        0     1                 
42005bf4     5bf4        0     1                 
42005bf4     5bf4       1e     1                 core::intrinsics::write_bytes::hc5db038851eeee91
42005bf6     5bf6        0     1                 
42005bf8     5bf8        0     1                 
42005c00     5c00        0     1                 
42005c0c     5c0c        0     1                 
42005c12     5c12        0     1                 
42005c12     5c12        0     1                 
42005c12     5c12        0     1                 
42005c12     5c12       18     2         /home/mabez/development/rust/embedded/experiments/esp32c3/target/riscv32imac-unknown-none-elf/debug/deps/libriscv_rt-9f6ededa1f4c9759.rlib(riscv_rt-9f6ededa1f4c9759.riscv_rt.da5378fb-cgu.8.rcgu.o):(.text._ZN5riscv8register7mhartid4read17hf79fb8bb66a9f0ccE)
42005c12     5c12        0     1                 
42005c12     5c12        0     1                 
42005c12     5c12        0     1                 
42005c12     5c12       18     1                 riscv::register::mhartid::read::hf79fb8bb66a9f0cc
42005c14     5c14        0     1                 
42005c14     5c14        0     1                 
42005c16     5c16        0     1                 
42005c22     5c22        0     1                 
42005c2a     5c2a        0     1                 
42005c2a     5c2a        0     1                 
42005c2a     5c2a        0     1                 
42005c2a     5c2a       18     2         /home/mabez/development/rust/embedded/experiments/esp32c3/target/riscv32imac-unknown-none-elf/debug/deps/libriscv_rt-9f6ededa1f4c9759.rlib(riscv_rt-9f6ededa1f4c9759.riscv_rt.da5378fb-cgu.8.rcgu.o):(.text._ZN5riscv8register7mhartid5_read17h2eff72c8acb3583eE)
42005c2a     5c2a       18     1                 riscv::register::mhartid::_read::h2eff72c8acb3583e
42005c2a     5c2a        0     1                 
42005c2a     5c2a        0     1                 
42005c2a     5c2a        0     1                 
42005c2c     5c2c        0     1                 
42005c2c     5c2c        0     1                 
42005c2e     5c2e        0     1                 
42005c3a     5c3a        0     1                 
42005c42     5c42        0     1                 
42005c42     5c42        0     1                 
42005c42     5c42        0     1                 
42005c42     5c42       14     2         /home/mabez/development/rust/embedded/experiments/esp32c3/target/riscv32imac-unknown-none-elf/debug/deps/libriscv_rt-9f6ededa1f4c9759.rlib(riscv_rt-9f6ededa1f4c9759.riscv_rt.da5378fb-cgu.7.rcgu.o):(.text._ZN5riscv3asm3wfi17h26be5c8543927d97E)
42005c42     5c42        0     1                 
42005c42     5c42        0     1                 
42005c42     5c42        0     1                 
42005c42     5c42       14     1                 riscv::asm::wfi::h26be5c8543927d97
42005c44     5c44        0     1                 
42005c44     5c44        0     1                 
42005c46     5c46        0     1                 
42005c50     5c50        0     1                 
42005c56     5c56        0     1                 
42005c56     5c56        0     1                 
42005c56     5c56        0     1                 
42005c56     5c56       10     2         /home/mabez/development/rust/embedded/experiments/esp32c3/target/riscv32imac-unknown-none-elf/debug/deps/libriscv_rt-9f6ededa1f4c9759.rlib(riscv-rt.o):(.text)
42005c56     5c56        0     1                 .L0 
42005c56     5c56        0     1                 .L0 
42005c56     5c56        0     1                 .L0 
42005c56     5c56        0     1                 .L0 
42005c56     5c56        0     1                 default_setup_interrupts
42005c5e     5c5e        0     1                 .L0 
42005c62     5c62        0     1                 .L0 
42005c64     5c64        0     1                 .L0 
42005c64     5c64        0     1                 abort
42005c66     5c66        0     1                 .L0 
42005c66     5c66        0     1                 .L0 
42005c66     5c66       4e     2         /home/mabez/development/rust/embedded/experiments/esp32c3/target/riscv32imac-unknown-none-elf/debug/deps/libriscv_atomic_emulation_trap-fab535a27fe2d765.rlib(riscv_atomic_emulation_trap-fab535a27fe2d765.riscv_atomic_emulation_trap.b3d57533-cgu.0.rcgu.o):(.text._ZN27riscv_atomic_emulation_trap9TrapFrame12as_mut_words17hc239303896116f92E)
42005c66     5c66       4e     1                 riscv_atomic_emulation_trap::TrapFrame::as_mut_words::hc239303896116f92
42005c66     5c66        0     1                 
42005c66     5c66        0     1                 
42005c66     5c66        0     1                 
42005c68     5c68        0     1                 
42005c6a     5c6a        0     1                 
42005c6c     5c6c        0     1                 
42005c70     5c70        0     1                 
42005c72     5c72        0     1                 
42005c74     5c74        0     1                 
42005c7a     5c7a        0     1                 
42005c8e     5c8e        0     1                 
42005caa     5caa        0     1                 
42005cb4     5cb4        0     1                 
42005cb4     5cb4        0     1                 
42005cb4     5cb4        0     1                 
42005cb4     5cb4       7a     2         /home/mabez/development/rust/embedded/experiments/esp32c3/target/riscv32imac-unknown-none-elf/debug/deps/libriscv_atomic_emulation_trap-fab535a27fe2d765.rlib(riscv_atomic_emulation_trap-fab535a27fe2d765.riscv_atomic_emulation_trap.b3d57533-cgu.0.rcgu.o):(.text._ZN27riscv_atomic_emulation_trap9TrapFrame22as_riscv_rt_trap_frame17h3f74b6d5cb0cc72cE)
42005cb4     5cb4       7a     1                 riscv_atomic_emulation_trap::TrapFrame::as_riscv_rt_trap_frame::h3f74b6d5cb0cc72c
42005cb4     5cb4        0     1                 
42005cb4     5cb4        0     1                 
42005cb4     5cb4        0     1                 
42005cb6     5cb6        0     1                 
42005cba     5cba        0     1                 
42005cc2     5cc2        0     1                 
42005cc4     5cc4        0     1                 
42005cc6     5cc6        0     1                 
42005cca     5cca        0     1                 
42005cce     5cce        0     1                 
42005cd2     5cd2        0     1                 
42005cd6     5cd6        0     1                 
42005cda     5cda        0     1                 
42005cde     5cde        0     1                 
42005ce2     5ce2        0     1                 
42005ce6     5ce6        0     1                 
42005cea     5cea        0     1                 
42005cec     5cec        0     1                 
42005cee     5cee        0     1                 
42005cf0     5cf0        0     1                 
42005cf2     5cf2        0     1                 
42005cf4     5cf4        0     1                 
42005d26     5d26        0     1                 
42005d2e     5d2e        0     1                 
42005d2e     5d2e        0     1                 
42005d2e     5d2e        0     1                 
42005d2e     5d2e      874     2         /home/mabez/development/rust/embedded/experiments/esp32c3/target/riscv32imac-unknown-none-elf/debug/deps/libriscv_atomic_emulation_trap-fab535a27fe2d765.rlib(riscv_atomic_emulation_trap-fab535a27fe2d765.riscv_atomic_emulation_trap.b3d57533-cgu.0.rcgu.o):(.text._ZN27riscv_atomic_emulation_trap16atomic_emulation17h380e954925bdb3abE)
42005d2e     5d2e        0     1                 
42005d2e     5d2e        0     1                 
42005d2e     5d2e        0     1                 
42005d2e     5d2e      874     1                 riscv_atomic_emulation_trap::atomic_emulation::h380e954925bdb3ab
42005d30     5d30        0     1                 
42005d34     5d34        0     1                 
42005d3a     5d3a        0     1                 
42005d3c     5d3c        0     1                 
42005d44     5d44        0     1                 
42005d44     5d44        0     1                 
42005d52     5d52        0     1                 
42005d56     5d56        0     1                 
42005d5a     5d5a        0     1                 
42005d5a     5d5a        0     1                 
42005d60     5d60        0     1                 
42005d60     5d60        0     1                 
42005d62     5d62        0     1                 
42005d66     5d66        0     1                 
42005d68     5d68        0     1                 
42005d68     5d68        0     1                 
42005d74     5d74        0     1                 
42005d74     5d74        0     1                 
42005d80     5d80        0     1                 
42005d80     5d80        0     1                 
42005d92     5d92        0     1                 
42005d92     5d92        0     1                 
42005da4     5da4        0     1                 
42005da4     5da4        0     1                 
42005dbe     5dbe        0     1                 
42005dbe     5dbe        0     1                 
42005dc6     5dc6        0     1                 
42005dd2     5dd2        0     1                 
42005de4     5de4        0     1                 .LBB2_10
42005de6     5de6        0     1                 
42005dea     5dea        0     1                 
42005dea     5dea        0     1                 
42005dec     5dec        0     1                 .LBB2_11
42005dec     5dec        0     1                 
42005dec     5dec        0     1                 
42005df6     5df6        0     1                 .LBB2_12
42005df6     5df6        0     1                 
42005e00     5e00        0     1                 .LBB2_13
42005e00     5e00        0     1                 
42005e0a     5e0a        0     1                 .LBB2_14
42005e0a     5e0a        0     1                 
42005e14     5e14        0     1                 .LBB2_15
42005e14     5e14        0     1                 
42005e1e     5e1e        0     1                 .LBB2_16
42005e1e     5e1e        0     1                 
42005e28     5e28        0     1                 .LBB2_17
42005e28     5e28        0     1                 
42005e32     5e32        0     1                 .LBB2_18
42005e32     5e32        0     1                 
42005e3c     5e3c        0     1                 .LBB2_19
42005e3c     5e3c        0     1                 
42005e46     5e46        0     1                 .LBB2_20
42005e46     5e46        0     1                 
42005e50     5e50        0     1                 .LBB2_21
42005e50     5e50        0     1                 
42005e6e     5e6e        0     1                 
42005e6e     5e6e        0     1                 
42005e76     5e76        0     1                 
42005e76     5e76        0     1                 
42005e7c     5e7c        0     1                 
42005e7c     5e7c        0     1                 
42005e92     5e92        0     1                 
42005e92     5e92        0     1                 
42005ea6     5ea6        0     1                 
42005ea6     5ea6        0     1                 
42005eac     5eac        0     1                 
42005eac     5eac        0     1                 
42005ec2     5ec2        0     1                 
42005ec2     5ec2        0     1                 
42005f08     5f08        0     1                 
42005f08     5f08        0     1                 
42005f0a     5f0a        0     1                 
42005f0c     5f0c        0     1                 
42005f10     5f10        0     1                 
42005f10     5f10        0     1                 
42005f12     5f12        0     1                 
42005f12     5f12        0     1                 
42005f26     5f26        0     1                 
42005f26     5f26        0     1                 
42005f2e     5f2e        0     1                 
42005f2e     5f2e        0     1                 
42005f34     5f34        0     1                 
42005f34     5f34        0     1                 
42005f4a     5f4a        0     1                 
42005f4a     5f4a        0     1                 
42005f5e     5f5e        0     1                 
42005f5e     5f5e        0     1                 
42005f64     5f64        0     1                 
42005f64     5f64        0     1                 
42005f7a     5f7a        0     1                 
42005f7a     5f7a        0     1                 
42005fc0     5fc0        0     1                 
42005fc0     5fc0        0     1                 
42005fc2     5fc2        0     1                 
42005fd6     5fd6        0     1                 
42005fd6     5fd6        0     1                 
42005fde     5fde        0     1                 
42005fde     5fde        0     1                 
42005fe4     5fe4        0     1                 
42005fe4     5fe4        0     1                 
42005ffa     5ffa        0     1                 
42005ffa     5ffa        0     1                 
4200600e     600e        0     1                 
4200600e     600e        0     1                 
42006014     6014        0     1                 
42006014     6014        0     1                 
4200602a     602a        0     1                 
4200602a     602a        0     1                 
42006070     6070        0     1                 
42006070     6070        0     1                 
42006072     6072        0     1                 
42006086     6086        0     1                 
42006086     6086        0     1                 
4200608e     608e        0     1                 
4200608e     608e        0     1                 
42006094     6094        0     1                 
42006094     6094        0     1                 
420060aa     60aa        0     1                 
420060aa     60aa        0     1                 
420060be     60be        0     1                 
420060be     60be        0     1                 
420060c4     60c4        0     1                 
420060c4     60c4        0     1                 
420060da     60da        0     1                 
420060da     60da        0     1                 
4200611c     611c        0     1                 
4200611c     611c        0     1                 
4200611e     611e        0     1                 
42006132     6132        0     1                 
42006132     6132        0     1                 
4200613a     613a        0     1                 
4200613a     613a        0     1                 
42006140     6140        0     1                 
42006140     6140        0     1                 
42006156     6156        0     1                 
42006156     6156        0     1                 
4200616a     616a        0     1                 
4200616a     616a        0     1                 
42006170     6170        0     1                 
42006170     6170        0     1                 
42006186     6186        0     1                 
42006186     6186        0     1                 
420061c8     61c8        0     1                 
420061c8     61c8        0     1                 
420061ca     61ca        0     1                 
420061de     61de        0     1                 
420061de     61de        0     1                 
420061e6     61e6        0     1                 
420061e6     61e6        0     1                 
420061ec     61ec        0     1                 
420061ec     61ec        0     1                 
42006202     6202        0     1                 
42006202     6202        0     1                 
42006216     6216        0     1                 
42006216     6216        0     1                 
4200621c     621c        0     1                 
4200621c     621c        0     1                 
42006232     6232        0     1                 
42006232     6232        0     1                 
42006274     6274        0     1                 
42006274     6274        0     1                 
42006276     6276        0     1                 
4200628a     628a        0     1                 
4200628a     628a        0     1                 
42006292     6292        0     1                 
42006292     6292        0     1                 
42006298     6298        0     1                 
42006298     6298        0     1                 
420062ae     62ae        0     1                 
420062ae     62ae        0     1                 
420062c2     62c2        0     1                 
420062c2     62c2        0     1                 
420062c8     62c8        0     1                 
420062c8     62c8        0     1                 
420062de     62de        0     1                 
420062de     62de        0     1                 
42006320     6320        0     1                 
42006320     6320        0     1                 
42006322     6322        0     1                 
42006336     6336        0     1                 
42006336     6336        0     1                 
4200633e     633e        0     1                 
4200633e     633e        0     1                 
42006344     6344        0     1                 
42006344     6344        0     1                 
4200635a     635a        0     1                 
4200635a     635a        0     1                 
4200636e     636e        0     1                 
4200636e     636e        0     1                 
42006374     6374        0     1                 
42006374     6374        0     1                 
4200638a     638a        0     1                 
4200638a     638a        0     1                 
420063cc     63cc        0     1                 
420063cc     63cc        0     1                 
420063ce     63ce        0     1                 
420063e2     63e2        0     1                 
420063e2     63e2        0     1                 
420063ea     63ea        0     1                 
420063ea     63ea        0     1                 
420063f0     63f0        0     1                 
420063f0     63f0        0     1                 
42006406     6406        0     1                 
42006406     6406        0     1                 
4200641a     641a        0     1                 
4200641a     641a        0     1                 
42006420     6420        0     1                 
42006420     6420        0     1                 
42006436     6436        0     1                 
42006436     6436        0     1                 
42006478     6478        0     1                 
42006478     6478        0     1                 
4200647a     647a        0     1                 
42006488     6488        0     1                 
42006488     6488        0     1                 
42006490     6490        0     1                 
42006496     6496        0     1                 
42006496     6496        0     1                 
420064ac     64ac        0     1                 
420064ac     64ac        0     1                 
420064b6     64b6        0     1                 
420064cc     64cc        0     1                 
420064ce     64ce        0     1                 
420064e4     64e4        0     1                 
420064f2     64f2        0     1                 
420064fa     64fa        0     1                 
420064fc     64fc        0     1                 
42006502     6502        0     1                 
42006518     6518        0     1                 
42006524     6524        0     1                 
4200652c     652c        0     1                 
4200652e     652e        0     1                 
42006544     6544        0     1                 
42006544     6544        0     1                 
42006552     6552        0     1                 
4200655a     655a        0     1                 
42006562     6562        0     1                 
42006562     6562        0     1                 
42006568     6568        0     1                 
42006568     6568        0     1                 
4200657e     657e        0     1                 
4200657e     657e        0     1                 
4200658a     658a        0     1                 
4200658a     658a        0     1                 
4200658c     658c        0     1                 
4200658c     658c        0     1                 
420065a2     65a2        0     1                 
420065a2     65a2        0     1                 
420065a2     65a2        0     1                 
420065a2     65a2        0     1                 
420065a2     65a2       12     2         /home/mabez/development/rust/embedded/experiments/esp32c3/target/riscv32imac-unknown-none-elf/debug/deps/libriscv_atomic_emulation_trap-fab535a27fe2d765.rlib(riscv_atomic_emulation_trap-fab535a27fe2d765.riscv_atomic_emulation_trap.b3d57533-cgu.0.rcgu.o):(.text._ZN27riscv_atomic_emulation_trap16atomic_emulation28_$u7b$$u7b$closure$u7d$$u7d$17h1bbbda758b30b17aE)
420065a2     65a2       12     1                 riscv_atomic_emulation_trap::atomic_emulation::_$u7b$$u7b$closure$u7d$$u7d$::h1bbbda758b30b17a
420065a2     65a2        0     1                 
420065a2     65a2        0     1                 
420065a2     65a2        0     1                 
420065a4     65a4        0     1                 
420065b0     65b0        0     1                 
420065b4     65b4        0     1                 
420065b4     65b4        0     1                 
420065b4     65b4        0     1                 
420065b4     65b4       36     2         /home/mabez/development/rust/embedded/experiments/esp32c3/target/riscv32imac-unknown-none-elf/debug/deps/libriscv_atomic_emulation_trap-fab535a27fe2d765.rlib(riscv_atomic_emulation_trap-fab535a27fe2d765.riscv_atomic_emulation_trap.b3d57533-cgu.0.rcgu.o):(.text._ZN27riscv_atomic_emulation_trap16atomic_emulation28_$u7b$$u7b$closure$u7d$$u7d$17h8322e81a67e6d705E)
420065b4     65b4       36     1                 riscv_atomic_emulation_trap::atomic_emulation::_$u7b$$u7b$closure$u7d$$u7d$::h8322e81a67e6d705
420065b4     65b4        0     1                 
420065b4     65b4        0     1                 
420065b4     65b4        0     1                 
420065b6     65b6        0     1                 
420065bc     65bc        0     1                 
420065c8     65c8        0     1                 
420065ce     65ce        0     1                 
420065ea     65ea        0     1                 
420065ea     65ea        0     1                 
420065ea     65ea        0     1                 
420065ea     65ea       10     2         /home/mabez/development/rust/embedded/experiments/esp32c3/target/riscv32imac-unknown-none-elf/debug/deps/libriscv_atomic_emulation_trap-fab535a27fe2d765.rlib(riscv_atomic_emulation_trap-fab535a27fe2d765.riscv_atomic_emulation_trap.b3d57533-cgu.0.rcgu.o):(.text._ZN27riscv_atomic_emulation_trap16atomic_emulation28_$u7b$$u7b$closure$u7d$$u7d$17h7eb064f10746af2fE)
420065ea     65ea       10     1                 riscv_atomic_emulation_trap::atomic_emulation::_$u7b$$u7b$closure$u7d$$u7d$::h7eb064f10746af2f
420065ea     65ea        0     1                 
420065ea     65ea        0     1                 
420065ea     65ea        0     1                 
420065ec     65ec        0     1                 
420065f2     65f2        0     1                 
420065f6     65f6        0     1                 
420065fa     65fa        0     1                 
420065fa     65fa        0     1                 
420065fa     65fa        0     1                 
420065fa     65fa       10     2         /home/mabez/development/rust/embedded/experiments/esp32c3/target/riscv32imac-unknown-none-elf/debug/deps/libriscv_atomic_emulation_trap-fab535a27fe2d765.rlib(riscv_atomic_emulation_trap-fab535a27fe2d765.riscv_atomic_emulation_trap.b3d57533-cgu.0.rcgu.o):(.text._ZN27riscv_atomic_emulation_trap16atomic_emulation28_$u7b$$u7b$closure$u7d$$u7d$17hc2e9df8644271df4E)
420065fa     65fa       10     1                 riscv_atomic_emulation_trap::atomic_emulation::_$u7b$$u7b$closure$u7d$$u7d$::hc2e9df8644271df4
420065fa     65fa        0     1                 
420065fa     65fa        0     1                 
420065fa     65fa        0     1                 
420065fc     65fc        0     1                 
42006602     6602        0     1                 
42006606     6606        0     1                 
4200660a     660a        0     1                 
4200660a     660a        0     1                 
4200660a     660a        0     1                 
4200660a     660a       10     2         /home/mabez/development/rust/embedded/experiments/esp32c3/target/riscv32imac-unknown-none-elf/debug/deps/libriscv_atomic_emulation_trap-fab535a27fe2d765.rlib(riscv_atomic_emulation_trap-fab535a27fe2d765.riscv_atomic_emulation_trap.b3d57533-cgu.0.rcgu.o):(.text._ZN27riscv_atomic_emulation_trap16atomic_emulation28_$u7b$$u7b$closure$u7d$$u7d$17hc79af81d1fd9ea94E)
4200660a     660a       10     1                 riscv_atomic_emulation_trap::atomic_emulation::_$u7b$$u7b$closure$u7d$$u7d$::hc79af81d1fd9ea94
4200660a     660a        0     1                 
4200660a     660a        0     1                 
4200660a     660a        0     1                 
4200660c     660c        0     1                 
42006612     6612        0     1                 
42006616     6616        0     1                 
4200661a     661a        0     1                 
4200661a     661a        0     1                 
4200661a     661a        0     1                 
4200661a     661a       2a     2         /home/mabez/development/rust/embedded/experiments/esp32c3/target/riscv32imac-unknown-none-elf/debug/deps/libriscv_atomic_emulation_trap-fab535a27fe2d765.rlib(riscv_atomic_emulation_trap-fab535a27fe2d765.riscv_atomic_emulation_trap.b3d57533-cgu.0.rcgu.o):(.text._ZN27riscv_atomic_emulation_trap16atomic_emulation28_$u7b$$u7b$closure$u7d$$u7d$17h94c49f986fbfdfd9E)
4200661a     661a       2a     1                 riscv_atomic_emulation_trap::atomic_emulation::_$u7b$$u7b$closure$u7d$$u7d$::h94c49f986fbfdfd9
4200661a     661a        0     1                 
4200661a     661a        0     1                 
4200661a     661a        0     1                 
4200661c     661c        0     1                 
4200661e     661e        0     1                 
42006630     6630        0     1                 
4200663c     663c        0     1                 
42006644     6644        0     1                 
42006644     6644        0     1                 
42006644     6644        0     1                 
42006644     6644       2a     2         /home/mabez/development/rust/embedded/experiments/esp32c3/target/riscv32imac-unknown-none-elf/debug/deps/libriscv_atomic_emulation_trap-fab535a27fe2d765.rlib(riscv_atomic_emulation_trap-fab535a27fe2d765.riscv_atomic_emulation_trap.b3d57533-cgu.0.rcgu.o):(.text._ZN27riscv_atomic_emulation_trap16atomic_emulation28_$u7b$$u7b$closure$u7d$$u7d$17h46ec6e10c1277d05E)
42006644     6644       2a     1                 riscv_atomic_emulation_trap::atomic_emulation::_$u7b$$u7b$closure$u7d$$u7d$::h46ec6e10c1277d05
42006644     6644        0     1                 
42006644     6644        0     1                 
42006644     6644        0     1                 
42006646     6646        0     1                 
42006648     6648        0     1                 
4200665a     665a        0     1                 
42006666     6666        0     1                 
4200666e     666e        0     1                 
4200666e     666e        0     1                 
4200666e     666e        0     1                 
4200666e     666e       2a     2         /home/mabez/development/rust/embedded/experiments/esp32c3/target/riscv32imac-unknown-none-elf/debug/deps/libriscv_atomic_emulation_trap-fab535a27fe2d765.rlib(riscv_atomic_emulation_trap-fab535a27fe2d765.riscv_atomic_emulation_trap.b3d57533-cgu.0.rcgu.o):(.text._ZN27riscv_atomic_emulation_trap16atomic_emulation28_$u7b$$u7b$closure$u7d$$u7d$17h245fd3a74821dee5E)
4200666e     666e       2a     1                 riscv_atomic_emulation_trap::atomic_emulation::_$u7b$$u7b$closure$u7d$$u7d$::h245fd3a74821dee5
4200666e     666e        0     1                 
4200666e     666e        0     1                 
4200666e     666e        0     1                 
42006670     6670        0     1                 
42006672     6672        0     1                 
42006684     6684        0     1                 
42006690     6690        0     1                 
42006698     6698        0     1                 
42006698     6698        0     1                 
42006698     6698        0     1                 
42006698     6698       2a     2         /home/mabez/development/rust/embedded/experiments/esp32c3/target/riscv32imac-unknown-none-elf/debug/deps/libriscv_atomic_emulation_trap-fab535a27fe2d765.rlib(riscv_atomic_emulation_trap-fab535a27fe2d765.riscv_atomic_emulation_trap.b3d57533-cgu.0.rcgu.o):(.text._ZN27riscv_atomic_emulation_trap16atomic_emulation28_$u7b$$u7b$closure$u7d$$u7d$17ha94e41fcccc61f5dE)
42006698     6698       2a     1                 riscv_atomic_emulation_trap::atomic_emulation::_$u7b$$u7b$closure$u7d$$u7d$::ha94e41fcccc61f5d
42006698     6698        0     1                 
42006698     6698        0     1                 
42006698     6698        0     1                 
4200669a     669a        0     1                 
4200669c     669c        0     1                 
420066ae     66ae        0     1                 
420066ba     66ba        0     1                 
420066c2     66c2        0     1                 
420066c2     66c2        0     1                 
420066c2     66c2        0     1                 
420066c2     66c2       32     2         /home/mabez/development/rust/embedded/experiments/esp32c3/target/riscv32imac-unknown-none-elf/debug/deps/libriscv_atomic_emulation_trap-fab535a27fe2d765.rlib(riscv_atomic_emulation_trap-fab535a27fe2d765.riscv_atomic_emulation_trap.b3d57533-cgu.2.rcgu.o):(.text._ZN4core5slice3raw18from_raw_parts_mut17hc678859a23e689fbE)
420066c2     66c2        0     1                 
420066c2     66c2        0     1                 
420066c2     66c2        0     1                 
420066c2     66c2       32     1                 core::slice::raw::from_raw_parts_mut::hc678859a23e689fb
420066c4     66c4        0     1                 
420066c6     66c6        0     1                 
420066ce     66ce        0     1                 
420066d8     66d8        0     1                 
420066ea     66ea        0     1                 
420066f4     66f4        0     1                 
420066f4     66f4        0     1                 
420066f4     66f4        0     1                 
420066f4     66f4        a     2         /home/mabez/development/rust/embedded/experiments/esp32c3/target/riscv32imac-unknown-none-elf/debug/deps/libriscv_atomic_emulation_trap-fab535a27fe2d765.rlib(riscv_atomic_emulation_trap-fab535a27fe2d765.riscv_atomic_emulation_trap.b3d57533-cgu.2.rcgu.o):(.text._ZN4core5slice3raw20debug_check_data_len17hf89ea5d9c1d166ceE)
420066f4     66f4        0     1                 
420066f4     66f4        0     1                 
420066f4     66f4        0     1                 
420066f4     66f4        a     1                 core::slice::raw::debug_check_data_len::hf89ea5d9c1d166ce
420066f6     66f6        0     1                 
420066fa     66fa        0     1                 
420066fe     66fe        0     1                 
420066fe     66fe        0     1                 
420066fe     66fe        0     1                 
420066fe     66fe       2c     2         /home/mabez/development/rust/embedded/experiments/esp32c3/target/riscv32imac-unknown-none-elf/debug/deps/libriscv_atomic_emulation_trap-fab535a27fe2d765.rlib(riscv_atomic_emulation_trap-fab535a27fe2d765.riscv_atomic_emulation_trap.b3d57533-cgu.1.rcgu.o):(.text._ZN4core3ptr24slice_from_raw_parts_mut17h131e3c7d89ff1dbfE)
420066fe     66fe        0     1                 
420066fe     66fe        0     1                 
420066fe     66fe        0     1                 
420066fe     66fe       2c     1                 core::ptr::slice_from_raw_parts_mut::h131e3c7d89ff1dbf
42006700     6700        0     1                 
42006702     6702        0     1                 
4200670a     670a        0     1                 
4200670e     670e        0     1                 
42006720     6720        0     1                 
4200672a     672a        0     1                 
4200672a     672a        0     1                 
4200672a     672a        0     1                 
4200672a     672a       12     2         /home/mabez/development/rust/embedded/experiments/esp32c3/target/riscv32imac-unknown-none-elf/debug/deps/libriscv_atomic_emulation_trap-fab535a27fe2d765.rlib(riscv_atomic_emulation_trap-fab535a27fe2d765.riscv_atomic_emulation_trap.b3d57533-cgu.6.rcgu.o):(.text._ZN4core3ptr8metadata18from_raw_parts_mut17he4404569dacdc0d6E)
4200672a     672a        0     1                 
4200672a     672a        0     1                 
4200672a     672a        0     1                 
4200672a     672a       12     1                 core::ptr::metadata::from_raw_parts_mut::he4404569dacdc0d6
4200672c     672c        0     1                 
42006730     6730        0     1                 
42006734     6734        0     1                 
42006738     6738        0     1                 
4200673c     673c        0     1                 
4200673c     673c        0     1                 
4200673c     673c        0     1                 
4200673c     673c       88     2         /home/mabez/development/rust/embedded/experiments/esp32c3/target/riscv32imac-unknown-none-elf/debug/deps/libriscv_atomic_emulation_trap-fab535a27fe2d765.rlib(riscv_atomic_emulation_trap-fab535a27fe2d765.riscv_atomic_emulation_trap.b3d57533-cgu.3.rcgu.o):(.text._ZN5riscv8register6mcause6Mcause5cause17hd0c8848a5fff12fcE)
4200673c     673c        0     1                 
4200673c     673c        0     1                 
4200673c     673c        0     1                 
4200673c     673c       88     1                 riscv::register::mcause::Mcause::cause::hd0c8848a5fff12fc
4200673e     673e        0     1                 
42006740     6740        0     1                 
42006744     6744        0     1                 
42006750     6750        0     1                 
42006754     6754        0     1                 
4200675a     675a        0     1                 
42006768     6768        0     1                 
42006776     6776        0     1                 
42006788     6788        0     1                 
42006794     6794        0     1                 
42006796     6796        0     1                 
420067a4     67a4        0     1                 
420067b6     67b6        0     1                 
420067c2     67c2        0     1                 
420067c4     67c4        0     1                 
420067c4     67c4        0     1                 
420067c4     67c4        0     1                 
420067c4     67c4       12     2         /home/mabez/development/rust/embedded/experiments/esp32c3/target/riscv32imac-unknown-none-elf/debug/deps/libriscv_atomic_emulation_trap-fab535a27fe2d765.rlib(riscv_atomic_emulation_trap-fab535a27fe2d765.riscv_atomic_emulation_trap.b3d57533-cgu.3.rcgu.o):(.text._ZN5riscv8register6mcause6Mcause12is_interrupt17h16e83e8561a2ef15E)
420067c4     67c4       12     1                 riscv::register::mcause::Mcause::is_interrupt::h16e83e8561a2ef15
420067c4     67c4        0     1                 
420067c4     67c4        0     1                 
420067c4     67c4        0     1                 
420067c6     67c6        0     1                 
420067c8     67c8        0     1                 
420067d2     67d2        0     1                 
420067d6     67d6        0     1                 
420067d6     67d6        0     1                 
420067d6     67d6        0     1                 
420067d6     67d6       1a     2         /home/mabez/development/rust/embedded/experiments/esp32c3/target/riscv32imac-unknown-none-elf/debug/deps/libriscv_atomic_emulation_trap-fab535a27fe2d765.rlib(riscv_atomic_emulation_trap-fab535a27fe2d765.riscv_atomic_emulation_trap.b3d57533-cgu.3.rcgu.o):(.text._ZN5riscv8register6mcause4read17h01b279cfe59134abE)
420067d6     67d6        0     1                 
420067d6     67d6        0     1                 
420067d6     67d6        0     1                 
420067d6     67d6       1a     1                 riscv::register::mcause::read::h01b279cfe59134ab
420067d8     67d8        0     1                 
420067d8     67d8        0     1                 
420067da     67da        0     1                 
420067e6     67e6        0     1                 
420067ea     67ea        0     1                 
420067f0     67f0        0     1                 
420067f0     67f0        0     1                 
420067f0     67f0        0     1                 
420067f0     67f0       18     2         /home/mabez/development/rust/embedded/experiments/esp32c3/target/riscv32imac-unknown-none-elf/debug/deps/libriscv_atomic_emulation_trap-fab535a27fe2d765.rlib(riscv_atomic_emulation_trap-fab535a27fe2d765.riscv_atomic_emulation_trap.b3d57533-cgu.3.rcgu.o):(.text._ZN5riscv8register6mcause5_read17h02013262f26c59fbE)
420067f0     67f0       18     1                 riscv::register::mcause::_read::h02013262f26c59fb
420067f0     67f0        0     1                 
420067f0     67f0        0     1                 
420067f0     67f0        0     1                 
420067f2     67f2        0     1                 
420067f2     67f2        0     1                 
420067f4     67f4        0     1                 
42006800     6800        0     1                 
42006808     6808        0     1                 
42006808     6808        0     1                 
42006808     6808        0     1                 
42006808     6808       7a     2         /home/mabez/development/rust/embedded/experiments/esp32c3/target/riscv32imac-unknown-none-elf/debug/deps/libriscv-2df4d94086d6ad3d.rlib(riscv-2df4d94086d6ad3d.riscv.9f9f37cf-cgu.0.rcgu.o):(.text._ZN5riscv8register6mcause9Interrupt4from17h6d2b866b57c49923E)
42006808     6808        0     1                 
42006808     6808        0     1                 
42006808     6808        0     1                 
42006808     6808       7a     1                 riscv::register::mcause::Interrupt::from::h6d2b866b57c49923
4200680a     680a        0     1                 
4200680e     680e        0     1                 
42006818     6818        0     1                 
4200682a     682a        0     1                 .LBB0_2
4200682c     682c        0     1                 
42006832     6832        0     1                 .LBB0_3
42006832     6832        0     1                 
42006834     6834        0     1                 
4200683a     683a        0     1                 .LBB0_4
4200683a     683a        0     1                 
4200683c     683c        0     1                 
42006842     6842        0     1                 .LBB0_5
42006842     6842        0     1                 
42006844     6844        0     1                 
4200684a     684a        0     1                 .LBB0_6
4200684a     684a        0     1                 
4200684c     684c        0     1                 
42006852     6852        0     1                 .LBB0_7
42006852     6852        0     1                 
42006854     6854        0     1                 
4200685a     685a        0     1                 .LBB0_8
4200685a     685a        0     1                 
4200685c     685c        0     1                 
42006862     6862        0     1                 .LBB0_9
42006862     6862        0     1                 
42006864     6864        0     1                 
4200686a     686a        0     1                 .LBB0_10
4200686a     686a        0     1                 
4200686c     686c        0     1                 
42006872     6872        0     1                 .LBB0_11
42006872     6872        0     1                 
42006874     6874        0     1                 
4200687a     687a        0     1                 
42006882     6882        0     1                 
42006882     6882        0     1                 
42006882     6882        0     1                 
42006882     6882       a2     2         /home/mabez/development/rust/embedded/experiments/esp32c3/target/riscv32imac-unknown-none-elf/debug/deps/libriscv-2df4d94086d6ad3d.rlib(riscv-2df4d94086d6ad3d.riscv.9f9f37cf-cgu.0.rcgu.o):(.text._ZN5riscv8register6mcause9Exception4from17h91f881faf928c9cdE)
42006882     6882        0     1                 
42006882     6882        0     1                 
42006882     6882        0     1                 
42006882     6882       a2     1                 riscv::register::mcause::Exception::from::h91f881faf928c9cd
42006884     6884        0     1                 
42006888     6888        0     1                 
42006892     6892        0     1                 
420068a4     68a4        0     1                 .LBB1_2
420068a6     68a6        0     1                 
420068ac     68ac        0     1                 .LBB1_3
420068ac     68ac        0     1                 
420068ae     68ae        0     1                 
420068b4     68b4        0     1                 .LBB1_4
420068b4     68b4        0     1                 
420068b6     68b6        0     1                 
420068bc     68bc        0     1                 .LBB1_5
420068bc     68bc        0     1                 
420068be     68be        0     1                 
420068c4     68c4        0     1                 .LBB1_6
420068c4     68c4        0     1                 
420068c6     68c6        0     1                 
420068cc     68cc        0     1                 .LBB1_7
420068cc     68cc        0     1                 
420068ce     68ce        0     1                 
420068d4     68d4        0     1                 .LBB1_8
420068d4     68d4        0     1                 
420068d6     68d6        0     1                 
420068dc     68dc        0     1                 .LBB1_9
420068dc     68dc        0     1                 
420068de     68de        0     1                 
420068e4     68e4        0     1                 .LBB1_10
420068e4     68e4        0     1                 
420068e6     68e6        0     1                 
420068ec     68ec        0     1                 .LBB1_11
420068ec     68ec        0     1                 
420068ee     68ee        0     1                 
420068f4     68f4        0     1                 .LBB1_12
420068f4     68f4        0     1                 
420068f6     68f6        0     1                 
420068fc     68fc        0     1                 .LBB1_13
420068fc     68fc        0     1                 
420068fe     68fe        0     1                 
42006904     6904        0     1                 .LBB1_14
42006904     6904        0     1                 
42006906     6906        0     1                 
4200690c     690c        0     1                 .LBB1_15
4200690c     690c        0     1                 
4200690e     690e        0     1                 
42006914     6914        0     1                 .LBB1_16
42006914     6914        0     1                 
42006916     6916        0     1                 
4200691c     691c        0     1                 
42006924     6924        0     1                 
42006924     6924        0     1                 
42006924     6924        0     1                 
42006924     6924       12     2         /home/mabez/development/rust/embedded/experiments/esp32c3/target/riscv32imac-unknown-none-elf/debug/deps/libriscv-2df4d94086d6ad3d.rlib(riscv-2df4d94086d6ad3d.riscv.9f9f37cf-cgu.0.rcgu.o):(.text._ZN5riscv8register6mcause6Mcause4code17hb0cd1af5ea8e06d2E)
42006924     6924        0     1                 
42006924     6924        0     1                 
42006924     6924        0     1                 
42006924     6924       12     1                 riscv::register::mcause::Mcause::code::hb0cd1af5ea8e06d2
42006926     6926        0     1                 
42006928     6928        0     1                 
42006932     6932        0     1                 
42006936     6936        0     1                 
42006936     6936        0     1                 
42006936     6936        0     1                 
42006936     6936       1c     2         /home/mabez/development/rust/embedded/experiments/esp32c3/target/riscv32imac-unknown-none-elf/debug/deps/libriscv_atomic_emulation_trap-fab535a27fe2d765.rlib(riscv_atomic_emulation_trap-fab535a27fe2d765.riscv_atomic_emulation_trap.b3d57533-cgu.5.rcgu.o):(.text._ZN4core3cmp3Ord3max17h04409918bb5af288E)
42006936     6936        0     1                 
42006936     6936        0     1                 
42006936     6936        0     1                 
42006936     6936       1c     1                 core::cmp::Ord::max::h04409918bb5af288
42006938     6938        0     1                 
4200693a     693a        0     1                 
4200693e     693e        0     1                 
4200694a     694a        0     1                 
42006952     6952        0     1                 
42006952     6952        0     1                 
42006952     6952        0     1                 
42006952     6952       1c     2         /home/mabez/development/rust/embedded/experiments/esp32c3/target/riscv32imac-unknown-none-elf/debug/deps/libriscv_atomic_emulation_trap-fab535a27fe2d765.rlib(riscv_atomic_emulation_trap-fab535a27fe2d765.riscv_atomic_emulation_trap.b3d57533-cgu.5.rcgu.o):(.text._ZN4core3cmp3Ord3max17h19af71becd259987E)
42006952     6952        0     1                 
42006952     6952        0     1                 
42006952     6952        0     1                 
42006952     6952       1c     1                 core::cmp::Ord::max::h19af71becd259987
42006954     6954        0     1                 
42006956     6956        0     1                 
4200695a     695a        0     1                 
42006966     6966        0     1                 
4200696e     696e        0     1                 
4200696e     696e        0     1                 
4200696e     696e        0     1                 
4200696e     696e       1c     2         /home/mabez/development/rust/embedded/experiments/esp32c3/target/riscv32imac-unknown-none-elf/debug/deps/libriscv_atomic_emulation_trap-fab535a27fe2d765.rlib(riscv_atomic_emulation_trap-fab535a27fe2d765.riscv_atomic_emulation_trap.b3d57533-cgu.5.rcgu.o):(.text._ZN4core3cmp3Ord3min17h018e7c0858b55fbcE)
4200696e     696e        0     1                 
4200696e     696e        0     1                 
4200696e     696e        0     1                 
4200696e     696e       1c     1                 core::cmp::Ord::min::h018e7c0858b55fbc
42006970     6970        0     1                 
42006972     6972        0     1                 
42006976     6976        0     1                 
42006982     6982        0     1                 
4200698a     698a        0     1                 
4200698a     698a        0     1                 
4200698a     698a        0     1                 
4200698a     698a       1c     2         /home/mabez/development/rust/embedded/experiments/esp32c3/target/riscv32imac-unknown-none-elf/debug/deps/libriscv_atomic_emulation_trap-fab535a27fe2d765.rlib(riscv_atomic_emulation_trap-fab535a27fe2d765.riscv_atomic_emulation_trap.b3d57533-cgu.5.rcgu.o):(.text._ZN4core3cmp3Ord3min17hf52be7cdba639a2dE)
4200698a     698a        0     1                 
4200698a     698a        0     1                 
4200698a     698a        0     1                 
4200698a     698a       1c     1                 core::cmp::Ord::min::hf52be7cdba639a2d
4200698c     698c        0     1                 
4200698e     698e        0     1                 
42006992     6992        0     1                 
4200699e     699e        0     1                 
420069a6     69a6        0     1                 
420069a6     69a6        0     1                 
420069a6     69a6        0     1                 
420069a6     69a6       7e     2         /home/mabez/development/rust/embedded/experiments/esp32c3/target/riscv32imac-unknown-none-elf/debug/deps/libriscv_atomic_emulation_trap-fab535a27fe2d765.rlib(riscv_atomic_emulation_trap-fab535a27fe2d765.riscv_atomic_emulation_trap.b3d57533-cgu.5.rcgu.o):(.text._ZN4core3cmp6min_by17h252265b2b16fdcb2E)
420069a6     69a6        0     1                 
420069a6     69a6        0     1                 
420069a6     69a6        0     1                 
420069a6     69a6       7e     1                 core::cmp::min_by::h252265b2b16fdcb2
420069a8     69a8        0     1                 
420069aa     69aa        0     1                 
420069b0     69b0        0     1                 
420069d2     69d2        0     1                 
420069e2     69e2        0     1                 
420069e4     69e4        0     1                 
420069e6     69e6        0     1                 
420069f0     69f0        0     1                 
420069f2     69f2        0     1                 
420069fc     69fc        0     1                 
42006a1a     6a1a        0     1                 
42006a22     6a22        0     1                 
42006a24     6a24        0     1                 
42006a24     6a24        0     1                 
42006a24     6a24        0     1                 
42006a24     6a24       7e     2         /home/mabez/development/rust/embedded/experiments/esp32c3/target/riscv32imac-unknown-none-elf/debug/deps/libriscv_atomic_emulation_trap-fab535a27fe2d765.rlib(riscv_atomic_emulation_trap-fab535a27fe2d765.riscv_atomic_emulation_trap.b3d57533-cgu.5.rcgu.o):(.text._ZN4core3cmp6min_by17h3d3ed44c17c33924E)
42006a24     6a24        0     1                 
42006a24     6a24        0     1                 
42006a24     6a24        0     1                 
42006a24     6a24       7e     1                 core::cmp::min_by::h3d3ed44c17c33924
42006a26     6a26        0     1                 
42006a28     6a28        0     1                 
42006a2e     6a2e        0     1                 
42006a50     6a50        0     1                 
42006a60     6a60        0     1                 
42006a62     6a62        0     1                 
42006a64     6a64        0     1                 
42006a6e     6a6e        0     1                 
42006a70     6a70        0     1                 
42006a7a     6a7a        0     1                 
42006a98     6a98        0     1                 
42006aa0     6aa0        0     1                 
42006aa2     6aa2        0     1                 
42006aa2     6aa2        0     1                 
42006aa2     6aa2        0     1                 
42006aa2     6aa2       7e     2         /home/mabez/development/rust/embedded/experiments/esp32c3/target/riscv32imac-unknown-none-elf/debug/deps/libriscv_atomic_emulation_trap-fab535a27fe2d765.rlib(riscv_atomic_emulation_trap-fab535a27fe2d765.riscv_atomic_emulation_trap.b3d57533-cgu.5.rcgu.o):(.text._ZN4core3cmp6max_by17hb29d149c9f2be0f3E)
42006aa2     6aa2        0     1                 
42006aa2     6aa2        0     1                 
42006aa2     6aa2        0     1                 
42006aa2     6aa2       7e     1                 core::cmp::max_by::hb29d149c9f2be0f3
42006aa4     6aa4        0     1                 
42006aa6     6aa6        0     1                 
42006aac     6aac        0     1                 
42006ace     6ace        0     1                 
42006ade     6ade        0     1                 
42006ae0     6ae0        0     1                 
42006ae2     6ae2        0     1                 
42006aec     6aec        0     1                 
42006aee     6aee        0     1                 
42006af8     6af8        0     1                 
42006b16     6b16        0     1                 
42006b1e     6b1e        0     1                 
42006b20     6b20        0     1                 
42006b20     6b20        0     1                 
42006b20     6b20        0     1                 
42006b20     6b20       7e     2         /home/mabez/development/rust/embedded/experiments/esp32c3/target/riscv32imac-unknown-none-elf/debug/deps/libriscv_atomic_emulation_trap-fab535a27fe2d765.rlib(riscv_atomic_emulation_trap-fab535a27fe2d765.riscv_atomic_emulation_trap.b3d57533-cgu.5.rcgu.o):(.text._ZN4core3cmp6max_by17hf6e1fcf5a3ae211fE)
42006b20     6b20        0     1                 
42006b20     6b20        0     1                 
42006b20     6b20        0     1                 
42006b20     6b20       7e     1                 core::cmp::max_by::hf6e1fcf5a3ae211f
42006b22     6b22        0     1                 
42006b24     6b24        0     1                 
42006b2a     6b2a        0     1                 
42006b4c     6b4c        0     1                 
42006b5c     6b5c        0     1                 
42006b5e     6b5e        0     1                 
42006b60     6b60        0     1                 
42006b6a     6b6a        0     1                 
42006b6c     6b6c        0     1                 
42006b76     6b76        0     1                 
42006b94     6b94        0     1                 
42006b9c     6b9c        0     1                 
42006b9e     6b9e        0     1                 
42006b9e     6b9e        0     1                 
42006b9e     6b9e        0     1                 
42006b9e     6b9e       1c     2         /home/mabez/development/rust/embedded/experiments/esp32c3/target/riscv32imac-unknown-none-elf/debug/deps/libriscv_atomic_emulation_trap-fab535a27fe2d765.rlib(riscv_atomic_emulation_trap-fab535a27fe2d765.riscv_atomic_emulation_trap.b3d57533-cgu.7.rcgu.o):(.text._ZN4core3ops8function6FnOnce9call_once17h44d4c8b416940605E)
42006b9e     6b9e        0     1                 
42006b9e     6b9e        0     1                 
42006b9e     6b9e        0     1                 
42006b9e     6b9e       1c     1                 core::ops::function::FnOnce::call_once::h44d4c8b416940605
42006ba0     6ba0        0     1                 
42006ba2     6ba2        0     1                 
42006ba6     6ba6        0     1                 
42006bba     6bba        0     1                 
42006bba     6bba        0     1                 
42006bba     6bba        0     1                 
42006bba     6bba       1c     2         /home/mabez/development/rust/embedded/experiments/esp32c3/target/riscv32imac-unknown-none-elf/debug/deps/libriscv_atomic_emulation_trap-fab535a27fe2d765.rlib(riscv_atomic_emulation_trap-fab535a27fe2d765.riscv_atomic_emulation_trap.b3d57533-cgu.7.rcgu.o):(.text._ZN4core3ops8function6FnOnce9call_once17hfb44305de06e572aE)
42006bba     6bba        0     1                 
42006bba     6bba        0     1                 
42006bba     6bba        0     1                 
42006bba     6bba       1c     1                 core::ops::function::FnOnce::call_once::hfb44305de06e572a
42006bbc     6bbc        0     1                 
42006bbe     6bbe        0     1                 
42006bc2     6bc2        0     1                 
42006bd6     6bd6        0     1                 
42006bd6     6bd6        0     1                 
42006bd6     6bd6        0     1                 
42006bd6     6bd6       46     2         /home/mabez/development/rust/embedded/experiments/esp32c3/target/riscv32imac-unknown-none-elf/debug/deps/libriscv_atomic_emulation_trap-fab535a27fe2d765.rlib(riscv_atomic_emulation_trap-fab535a27fe2d765.riscv_atomic_emulation_trap.b3d57533-cgu.4.rcgu.o):(.text._ZN4core3cmp5impls50_$LT$impl$u20$core..cmp..Ord$u20$for$u20$usize$GT$3cmp17h7dd2497926e337e5E)
42006bd6     6bd6        0     1                 
42006bd6     6bd6        0     1                 
42006bd6     6bd6        0     1                 
42006bd6     6bd6       46     1                 core::cmp::impls::_$LT$impl$u20$core..cmp..Ord$u20$for$u20$usize$GT$::cmp::h7dd2497926e337e5
42006bd8     6bd8        0     1                 
42006be0     6be0        0     1                 
42006be2     6be2        0     1                 
42006be4     6be4        0     1                 
42006bea     6bea        0     1                 
42006bf0     6bf0        0     1                 
42006bf2     6bf2        0     1                 
42006bf8     6bf8        0     1                 
42006bfc     6bfc        0     1                 
42006c00     6c00        0     1                 
42006c02     6c02        0     1                 
42006c0a     6c0a        0     1                 
42006c0c     6c0c        0     1                 
42006c10     6c10        0     1                 
42006c12     6c12        0     1                 
42006c14     6c14        0     1                 
42006c18     6c18        0     1                 
42006c1a     6c1a        0     1                 
42006c1c     6c1c        0     1                 
42006c1c     6c1c        0     1                 
42006c1c     6c1c        0     1                 
42006c1c     6c1c       46     2         /home/mabez/development/rust/embedded/experiments/esp32c3/target/riscv32imac-unknown-none-elf/debug/deps/libriscv_atomic_emulation_trap-fab535a27fe2d765.rlib(riscv_atomic_emulation_trap-fab535a27fe2d765.riscv_atomic_emulation_trap.b3d57533-cgu.4.rcgu.o):(.text._ZN4core3cmp5impls50_$LT$impl$u20$core..cmp..Ord$u20$for$u20$isize$GT$3cmp17h9ee6b15133765c11E)
42006c1c     6c1c        0     1                 
42006c1c     6c1c        0     1                 
42006c1c     6c1c        0     1                 
42006c1c     6c1c       46     1                 core::cmp::impls::_$LT$impl$u20$core..cmp..Ord$u20$for$u20$isize$GT$::cmp::h9ee6b15133765c11
42006c1e     6c1e        0     1                 
42006c26     6c26        0     1                 
42006c28     6c28        0     1                 
42006c2a     6c2a        0     1                 
42006c30     6c30        0     1                 
42006c36     6c36        0     1                 
42006c38     6c38        0     1                 
42006c3e     6c3e        0     1                 
42006c42     6c42        0     1                 
42006c46     6c46        0     1                 
42006c48     6c48        0     1                 
42006c50     6c50        0     1                 
42006c52     6c52        0     1                 
42006c56     6c56        0     1                 
42006c58     6c58        0     1                 
42006c5a     6c5a        0     1                 
42006c5e     6c5e        0     1                 
42006c60     6c60        0     1                 
42006c62     6c62        0     1                 
42006c62     6c62        0     1                 
42006c62     6c62        0     1                 
42006c62     6c62        0     1         _etext = .
42006c62     6c62        0     1 _text_size = _etext - _stext + 8
3c006c62     6c62     1e7a    16 .rodata
3c006c62     6c62        0     1         _srodata = .
3c006c62     6c62       2b     1         /home/mabez/development/rust/embedded/experiments/esp32c3/target/riscv32imac-unknown-none-elf/debug/deps/esp32c3-6c8eecfb34724107.1phwpl9yylfc3qa9.rcgu.o:(.rodata..L__unnamed_5)
3c006c62     6c62       2b     1                 .L__unnamed_5
3c006c90     6c90       10     4         /home/mabez/development/rust/embedded/experiments/esp32c3/target/riscv32imac-unknown-none-elf/debug/deps/esp32c3-6c8eecfb34724107.1phwpl9yylfc3qa9.rcgu.o:(.rodata..L__unnamed_1)
3c006c90     6c90       10     1                 .L__unnamed_1
3c006ca0     6ca0       10     4         /home/mabez/development/rust/embedded/experiments/esp32c3/target/riscv32imac-unknown-none-elf/debug/deps/esp32c3-6c8eecfb34724107.1phwpl9yylfc3qa9.rcgu.o:(.rodata..L__unnamed_2)
3c006ca0     6ca0       10     1                 .L__unnamed_2
3c006cb0     6cb0       10     4         /home/mabez/development/rust/embedded/experiments/esp32c3/target/riscv32imac-unknown-none-elf/debug/deps/esp32c3-6c8eecfb34724107.1phwpl9yylfc3qa9.rcgu.o:(.rodata..L__unnamed_3)
3c006cb0     6cb0       10     1                 .L__unnamed_3
3c006cc0     6cc0       10     4         /home/mabez/development/rust/embedded/experiments/esp32c3/target/riscv32imac-unknown-none-elf/debug/deps/esp32c3-6c8eecfb34724107.1phwpl9yylfc3qa9.rcgu.o:(.rodata..L__unnamed_4)
3c006cc0     6cc0       10     1                 .L__unnamed_4
3c006cd0     6cd0        9     1         /home/mabez/development/rust/embedded/experiments/esp32c3/target/riscv32imac-unknown-none-elf/debug/deps/esp32c3-6c8eecfb34724107.3dax6gsnt3idpsze.rcgu.o:(.rodata..L__unnamed_34)
3c006cd0     6cd0        9     1                 .L__unnamed_34
3c006cdc     6cdc        8     4         /home/mabez/development/rust/embedded/experiments/esp32c3/target/riscv32imac-unknown-none-elf/debug/deps/esp32c3-6c8eecfb34724107.3dax6gsnt3idpsze.rcgu.o:(.rodata._ZN7esp32c317DATA_SECTION_TEST17hdc24c87b17ced68dE)
3c006cdc     6cdc        8     1                 esp32c3::DATA_SECTION_TEST::hdc24c87b17ced68d
3c006ce4     6ce4        7     1         /home/mabez/development/rust/embedded/experiments/esp32c3/target/riscv32imac-unknown-none-elf/debug/deps/esp32c3-6c8eecfb34724107.3dax6gsnt3idpsze.rcgu.o:(.rodata..L__unnamed_35)
3c006ce4     6ce4        7     1                 .L__unnamed_35
3c006ceb     6ceb        1     1         /home/mabez/development/rust/embedded/experiments/esp32c3/target/riscv32imac-unknown-none-elf/debug/deps/esp32c3-6c8eecfb34724107.3dax6gsnt3idpsze.rcgu.o:(.rodata..L__unnamed_36)
3c006ceb     6ceb        1     1                 .L__unnamed_36
3c006cec     6cec       10     4         /home/mabez/development/rust/embedded/experiments/esp32c3/target/riscv32imac-unknown-none-elf/debug/deps/esp32c3-6c8eecfb34724107.3dax6gsnt3idpsze.rcgu.o:(.rodata..L__unnamed_1)
3c006cec     6cec       10     1                 .L__unnamed_1
3c006cfc     6cfc       a0     4         <internal>:(.rodata)
3c006d9c     6d9c       19     1         /home/mabez/development/rust/embedded/experiments/esp32c3/target/riscv32imac-unknown-none-elf/debug/deps/esp32c3-6c8eecfb34724107.3dax6gsnt3idpsze.rcgu.o:(.rodata..L__unnamed_37)
3c006d9c     6d9c       19     1                 .L__unnamed_37
3c006db8     6db8        8     4         /home/mabez/development/rust/embedded/experiments/esp32c3/target/riscv32imac-unknown-none-elf/debug/deps/esp32c3-6c8eecfb34724107.3dax6gsnt3idpsze.rcgu.o:(.rodata..L__unnamed_3)
3c006db8     6db8        8     1                 .L__unnamed_3
3c006dc0     6dc0        b     1         /home/mabez/development/rust/embedded/experiments/esp32c3/target/riscv32imac-unknown-none-elf/debug/deps/esp32c3-6c8eecfb34724107.3dax6gsnt3idpsze.rcgu.o:(.rodata..L__unnamed_38)
3c006dc0     6dc0        b     1                 .L__unnamed_38
3c006dcc     6dcc       10     4         /home/mabez/development/rust/embedded/experiments/esp32c3/target/riscv32imac-unknown-none-elf/debug/deps/esp32c3-6c8eecfb34724107.3dax6gsnt3idpsze.rcgu.o:(.rodata..L__unnamed_5)
3c006dcc     6dcc       10     1                 .L__unnamed_5
3c006ddc     6ddc        9     1         /home/mabez/development/rust/embedded/experiments/esp32c3/target/riscv32imac-unknown-none-elf/debug/deps/esp32c3-6c8eecfb34724107.3dax6gsnt3idpsze.rcgu.o:(.rodata..L__unnamed_6)
3c006ddc     6ddc        9     1                 .L__unnamed_6
3c006de5     6de5        d     1         /home/mabez/development/rust/embedded/experiments/esp32c3/target/riscv32imac-unknown-none-elf/debug/deps/esp32c3-6c8eecfb34724107.3dax6gsnt3idpsze.rcgu.o:(.rodata..L__unnamed_39)
3c006de5     6de5        d     1                 .L__unnamed_39
3c006df4     6df4        8     4         /home/mabez/development/rust/embedded/experiments/esp32c3/target/riscv32imac-unknown-none-elf/debug/deps/esp32c3-6c8eecfb34724107.3dax6gsnt3idpsze.rcgu.o:(.rodata..L__unnamed_7)
3c006df4     6df4        8     1                 .L__unnamed_7
3c006dfc     6dfc        0     4         /home/mabez/development/rust/embedded/experiments/esp32c3/target/riscv32imac-unknown-none-elf/debug/deps/esp32c3-6c8eecfb34724107.3dax6gsnt3idpsze.rcgu.o:(.rodata..L__unnamed_8)
3c006dfc     6dfc        0     1                 .L__unnamed_8
3c006dfc     6dfc       10     4         /home/mabez/development/rust/embedded/experiments/esp32c3/target/riscv32imac-unknown-none-elf/debug/deps/esp32c3-6c8eecfb34724107.3dax6gsnt3idpsze.rcgu.o:(.rodata..L__unnamed_9)
3c006dfc     6dfc       10     1                 .L__unnamed_9
3c006e0c     6e0c       10     4         /home/mabez/development/rust/embedded/experiments/esp32c3/target/riscv32imac-unknown-none-elf/debug/deps/esp32c3-6c8eecfb34724107.3dax6gsnt3idpsze.rcgu.o:(.rodata..L__unnamed_10)
3c006e0c     6e0c       10     1                 .L__unnamed_10
3c006e1c     6e1c       10     4         /home/mabez/development/rust/embedded/experiments/esp32c3/target/riscv32imac-unknown-none-elf/debug/deps/esp32c3-6c8eecfb34724107.3dax6gsnt3idpsze.rcgu.o:(.rodata..L__unnamed_11)
3c006e1c     6e1c       10     1                 .L__unnamed_11
3c006e2c     6e2c       10     4         /home/mabez/development/rust/embedded/experiments/esp32c3/target/riscv32imac-unknown-none-elf/debug/deps/esp32c3-6c8eecfb34724107.3dax6gsnt3idpsze.rcgu.o:(.rodata..L__unnamed_12)
3c006e2c     6e2c       10     1                 .L__unnamed_12
3c006e3c     6e3c        c     1         /home/mabez/development/rust/embedded/experiments/esp32c3/target/riscv32imac-unknown-none-elf/debug/deps/esp32c3-6c8eecfb34724107.3dax6gsnt3idpsze.rcgu.o:(.rodata..L__unnamed_40)
3c006e3c     6e3c        c     1                 .L__unnamed_40
3c006e48     6e48       10     4         /home/mabez/development/rust/embedded/experiments/esp32c3/target/riscv32imac-unknown-none-elf/debug/deps/esp32c3-6c8eecfb34724107.3dax6gsnt3idpsze.rcgu.o:(.rodata..L__unnamed_13)
3c006e48     6e48       10     1                 .L__unnamed_13
3c006e58     6e58       10     4         /home/mabez/development/rust/embedded/experiments/esp32c3/target/riscv32imac-unknown-none-elf/debug/deps/esp32c3-6c8eecfb34724107.3dax6gsnt3idpsze.rcgu.o:(.rodata..L__unnamed_14)
3c006e58     6e58       10     1                 .L__unnamed_14
3c006e68     6e68       40     4         <internal>:(.rodata)
3c006ea8     6ea8       10     4         /home/mabez/development/rust/embedded/experiments/esp32c3/target/riscv32imac-unknown-none-elf/debug/deps/esp32c3-6c8eecfb34724107.3dax6gsnt3idpsze.rcgu.o:(.rodata..L__unnamed_15)
3c006ea8     6ea8       10     1                 .L__unnamed_15
3c006eb8     6eb8       10     4         /home/mabez/development/rust/embedded/experiments/esp32c3/target/riscv32imac-unknown-none-elf/debug/deps/esp32c3-6c8eecfb34724107.3dax6gsnt3idpsze.rcgu.o:(.rodata..L__unnamed_16)
3c006eb8     6eb8       10     1                 .L__unnamed_16
3c006ec8     6ec8        a     1         /home/mabez/development/rust/embedded/experiments/esp32c3/target/riscv32imac-unknown-none-elf/debug/deps/esp32c3-6c8eecfb34724107.3dax6gsnt3idpsze.rcgu.o:(.rodata..L__unnamed_42)
3c006ec8     6ec8        a     1                 .L__unnamed_42
3c006ed4     6ed4       10     4         /home/mabez/development/rust/embedded/experiments/esp32c3/target/riscv32imac-unknown-none-elf/debug/deps/esp32c3-6c8eecfb34724107.3dax6gsnt3idpsze.rcgu.o:(.rodata..L__unnamed_17)
3c006ed4     6ed4       10     1                 .L__unnamed_17
3c006ee4     6ee4       10     4         /home/mabez/development/rust/embedded/experiments/esp32c3/target/riscv32imac-unknown-none-elf/debug/deps/esp32c3-6c8eecfb34724107.3dax6gsnt3idpsze.rcgu.o:(.rodata..L__unnamed_18)
3c006ee4     6ee4       10     1                 .L__unnamed_18
3c006ef4     6ef4       12     1         /home/mabez/development/rust/embedded/experiments/esp32c3/target/riscv32imac-unknown-none-elf/debug/deps/esp32c3-6c8eecfb34724107.3dax6gsnt3idpsze.rcgu.o:(.rodata..L__unnamed_43)
3c006ef4     6ef4       12     1                 .L__unnamed_43
3c006f08     6f08       10     4         /home/mabez/development/rust/embedded/experiments/esp32c3/target/riscv32imac-unknown-none-elf/debug/deps/esp32c3-6c8eecfb34724107.3dax6gsnt3idpsze.rcgu.o:(.rodata..L__unnamed_19)
3c006f08     6f08       10     1                 .L__unnamed_19
3c006f18     6f18       10     4         /home/mabez/development/rust/embedded/experiments/esp32c3/target/riscv32imac-unknown-none-elf/debug/deps/esp32c3-6c8eecfb34724107.3dax6gsnt3idpsze.rcgu.o:(.rodata..L__unnamed_20)
3c006f18     6f18       10     1                 .L__unnamed_20
3c006f28     6f28       17     1         /home/mabez/development/rust/embedded/experiments/esp32c3/target/riscv32imac-unknown-none-elf/debug/deps/esp32c3-6c8eecfb34724107.3dax6gsnt3idpsze.rcgu.o:(.rodata..L__unnamed_21)
3c006f28     6f28       17     1                 .L__unnamed_21
3c006f3f     6f3f        5     1         /home/mabez/development/rust/embedded/experiments/esp32c3/target/riscv32imac-unknown-none-elf/debug/deps/esp32c3-6c8eecfb34724107.3dax6gsnt3idpsze.rcgu.o:(.rodata..L__unnamed_24)
3c006f3f     6f3f        5     1                 .L__unnamed_24
3c006f44     6f44        8     4         /home/mabez/development/rust/embedded/experiments/esp32c3/target/riscv32imac-unknown-none-elf/debug/deps/esp32c3-6c8eecfb34724107.3dax6gsnt3idpsze.rcgu.o:(.rodata..L__unnamed_22)
3c006f44     6f44        8     1                 .L__unnamed_22
3c006f4c     6f4c       10     4         /home/mabez/development/rust/embedded/experiments/esp32c3/target/riscv32imac-unknown-none-elf/debug/deps/esp32c3-6c8eecfb34724107.3dax6gsnt3idpsze.rcgu.o:(.rodata..L__unnamed_23)
3c006f4c     6f4c       10     1                 .L__unnamed_23
3c006f5c     6f5c       10     4         /home/mabez/development/rust/embedded/experiments/esp32c3/target/riscv32imac-unknown-none-elf/debug/deps/esp32c3-6c8eecfb34724107.3dax6gsnt3idpsze.rcgu.o:(.rodata..L__unnamed_25)
3c006f5c     6f5c       10     1                 .L__unnamed_25
3c006f6c     6f6c       10     4         /home/mabez/development/rust/embedded/experiments/esp32c3/target/riscv32imac-unknown-none-elf/debug/deps/esp32c3-6c8eecfb34724107.3dax6gsnt3idpsze.rcgu.o:(.rodata..L__unnamed_26)
3c006f6c     6f6c       10     1                 .L__unnamed_26
3c006f7c     6f7c       20     4         <internal>:(.rodata)
3c006f9c     6f9c        8     4         /home/mabez/development/rust/embedded/experiments/esp32c3/target/riscv32imac-unknown-none-elf/debug/deps/esp32c3-6c8eecfb34724107.3dax6gsnt3idpsze.rcgu.o:(.rodata..L__unnamed_27)
3c006f9c     6f9c        8     1                 .L__unnamed_27
3c006fa4     6fa4       10     4         /home/mabez/development/rust/embedded/experiments/esp32c3/target/riscv32imac-unknown-none-elf/debug/deps/esp32c3-6c8eecfb34724107.3dax6gsnt3idpsze.rcgu.o:(.rodata..L__unnamed_28)
3c006fa4     6fa4       10     1                 .L__unnamed_28
3c006fb4     6fb4       10     4         /home/mabez/development/rust/embedded/experiments/esp32c3/target/riscv32imac-unknown-none-elf/debug/deps/esp32c3-6c8eecfb34724107.3dax6gsnt3idpsze.rcgu.o:(.rodata..L__unnamed_30)
3c006fb4     6fb4       10     1                 .L__unnamed_30
3c006fc4     6fc4       10     4         /home/mabez/development/rust/embedded/experiments/esp32c3/target/riscv32imac-unknown-none-elf/debug/deps/esp32c3-6c8eecfb34724107.3dax6gsnt3idpsze.rcgu.o:(.rodata..L__unnamed_31)
3c006fc4     6fc4       10     1                 .L__unnamed_31
3c006fd4     6fd4        b     1         /home/mabez/development/rust/embedded/experiments/esp32c3/target/riscv32imac-unknown-none-elf/debug/deps/esp32c3-6c8eecfb34724107.3dax6gsnt3idpsze.rcgu.o:(.rodata..L__unnamed_44)
3c006fd4     6fd4        b     1                 .L__unnamed_44
3c006fe0     6fe0       10     4         /home/mabez/development/rust/embedded/experiments/esp32c3/target/riscv32imac-unknown-none-elf/debug/deps/esp32c3-6c8eecfb34724107.3dax6gsnt3idpsze.rcgu.o:(.rodata..L__unnamed_32)
3c006fe0     6fe0       10     1                 .L__unnamed_32
3c006ff0     6ff0       10     4         /home/mabez/development/rust/embedded/experiments/esp32c3/target/riscv32imac-unknown-none-elf/debug/deps/esp32c3-6c8eecfb34724107.3dax6gsnt3idpsze.rcgu.o:(.rodata..L__unnamed_33)
3c006ff0     6ff0       10     1                 .L__unnamed_33
3c007000     7000       1c    16         /home/mabez/development/rust/embedded/experiments/esp32c3/target/riscv32imac-unknown-none-elf/debug/deps/esp32c3-6c8eecfb34724107.3dax6gsnt3idpsze.rcgu.o:(.rodata.str.0)
3c007000     7000       1c     1                 str.0
3c00701c     701c        c     1         /home/mabez/development/rust/embedded/experiments/esp32c3/target/riscv32imac-unknown-none-elf/debug/deps/esp32c3-6c8eecfb34724107.46dv6jlxri7vu0zk.rcgu.o:(.rodata..L__unnamed_5)
3c00701c     701c        c     1                 .L__unnamed_5
3c007028     7028        8     4         /home/mabez/development/rust/embedded/experiments/esp32c3/target/riscv32imac-unknown-none-elf/debug/deps/esp32c3-6c8eecfb34724107.46dv6jlxri7vu0zk.rcgu.o:(.rodata..L__unnamed_1)
3c007028     7028        8     1                 .L__unnamed_1
3c007030     7030        0     4         /home/mabez/development/rust/embedded/experiments/esp32c3/target/riscv32imac-unknown-none-elf/debug/deps/esp32c3-6c8eecfb34724107.46dv6jlxri7vu0zk.rcgu.o:(.rodata..L__unnamed_2)
3c007030     7030        0     1                 .L__unnamed_2
3c007030     7030       4b     1         /home/mabez/development/rust/embedded/experiments/esp32c3/target/riscv32imac-unknown-none-elf/debug/deps/esp32c3-6c8eecfb34724107.46dv6jlxri7vu0zk.rcgu.o:(.rodata..L__unnamed_6)
3c007030     7030       4b     1                 .L__unnamed_6
3c00707c     707c       10     4         /home/mabez/development/rust/embedded/experiments/esp32c3/target/riscv32imac-unknown-none-elf/debug/deps/esp32c3-6c8eecfb34724107.46dv6jlxri7vu0zk.rcgu.o:(.rodata..L__unnamed_3)
3c00707c     707c       10     1                 .L__unnamed_3
3c00708c     708c        2     1         /home/mabez/development/rust/embedded/experiments/esp32c3/target/riscv32imac-unknown-none-elf/debug/deps/esp32c3-6c8eecfb34724107.46dv6jlxri7vu0zk.rcgu.o:(.rodata..L__unnamed_4)
3c00708c     708c        2     1                 .L__unnamed_4
3c007090     7090       14     4         /home/mabez/development/rust/embedded/experiments/esp32c3/target/riscv32imac-unknown-none-elf/debug/deps/esp32c3-6c8eecfb34724107.p5cpnu5dso05alz.rcgu.o:(.rodata._ZN4core4sync6atomic10atomic_add17h14bc10f1a0834057E)
3c007090     7090        0     1                 .LJTI0_0
3c0070a4     70a4       14     4         /home/mabez/development/rust/embedded/experiments/esp32c3/target/riscv32imac-unknown-none-elf/debug/deps/esp32c3-6c8eecfb34724107.p5cpnu5dso05alz.rcgu.o:(.rodata._ZN4core4sync6atomic23atomic_compare_exchange17haf4746b7cb18a7d1E)
3c0070a4     70a4        0     1                 .LJTI1_0
3c0070b8     70b8       3c     1         /home/mabez/development/rust/embedded/experiments/esp32c3/target/riscv32imac-unknown-none-elf/debug/deps/esp32c3-6c8eecfb34724107.p5cpnu5dso05alz.rcgu.o:(.rodata..L__unnamed_8)
3c0070b8     70b8       3c     1                 .L__unnamed_8
3c0070f4     70f4        8     4         /home/mabez/development/rust/embedded/experiments/esp32c3/target/riscv32imac-unknown-none-elf/debug/deps/esp32c3-6c8eecfb34724107.p5cpnu5dso05alz.rcgu.o:(.rodata..L__unnamed_1)
3c0070f4     70f4        8     1                 .L__unnamed_1
3c0070fc     70fc        0     4         /home/mabez/development/rust/embedded/experiments/esp32c3/target/riscv32imac-unknown-none-elf/debug/deps/esp32c3-6c8eecfb34724107.p5cpnu5dso05alz.rcgu.o:(.rodata..L__unnamed_2)
3c0070fc     70fc        0     1                 .L__unnamed_2
3c0070fc     70fc       4f     1         /home/mabez/development/rust/embedded/experiments/esp32c3/target/riscv32imac-unknown-none-elf/debug/deps/esp32c3-6c8eecfb34724107.p5cpnu5dso05alz.rcgu.o:(.rodata..L__unnamed_9)
3c0070fc     70fc       4f     1                 .L__unnamed_9
3c00714c     714c       10     4         /home/mabez/development/rust/embedded/experiments/esp32c3/target/riscv32imac-unknown-none-elf/debug/deps/esp32c3-6c8eecfb34724107.p5cpnu5dso05alz.rcgu.o:(.rodata..L__unnamed_5)
3c00714c     714c       10     1                 .L__unnamed_5
3c00715c     715c       3d     1         /home/mabez/development/rust/embedded/experiments/esp32c3/target/riscv32imac-unknown-none-elf/debug/deps/esp32c3-6c8eecfb34724107.p5cpnu5dso05alz.rcgu.o:(.rodata..L__unnamed_10)
3c00715c     715c       3d     1                 .L__unnamed_10
3c00719c     719c        8     4         /home/mabez/development/rust/embedded/experiments/esp32c3/target/riscv32imac-unknown-none-elf/debug/deps/esp32c3-6c8eecfb34724107.p5cpnu5dso05alz.rcgu.o:(.rodata..L__unnamed_4)
3c00719c     719c        8     1                 .L__unnamed_4
3c0071a4     71a4       10     4         /home/mabez/development/rust/embedded/experiments/esp32c3/target/riscv32imac-unknown-none-elf/debug/deps/esp32c3-6c8eecfb34724107.p5cpnu5dso05alz.rcgu.o:(.rodata..L__unnamed_6)
3c0071a4     71a4       10     1                 .L__unnamed_6
3c0071b4     71b4       34     1         /home/mabez/development/rust/embedded/experiments/esp32c3/target/riscv32imac-unknown-none-elf/debug/deps/esp32c3-6c8eecfb34724107.p5cpnu5dso05alz.rcgu.o:(.rodata..L__unnamed_11)
3c0071b4     71b4       34     1                 .L__unnamed_11
3c0071e8     71e8        8     4         /home/mabez/development/rust/embedded/experiments/esp32c3/target/riscv32imac-unknown-none-elf/debug/deps/esp32c3-6c8eecfb34724107.p5cpnu5dso05alz.rcgu.o:(.rodata..L__unnamed_3)
3c0071e8     71e8        8     1                 .L__unnamed_3
3c0071f0     71f0       10     4         /home/mabez/development/rust/embedded/experiments/esp32c3/target/riscv32imac-unknown-none-elf/debug/deps/esp32c3-6c8eecfb34724107.p5cpnu5dso05alz.rcgu.o:(.rodata..L__unnamed_7)
3c0071f0     71f0       10     1                 .L__unnamed_7
3c007200     7200       18     4         /home/mabez/development/rust/embedded/experiments/esp32c3/target/riscv32imac-unknown-none-elf/debug/deps/esp32c3-6c8eecfb34724107.v0f7at9a6qkyll5.rcgu.o:(.rodata..L__unnamed_1)
3c007200     7200       18     1                 .L__unnamed_1
3c007218     7218       50     1         /home/mabez/development/rust/embedded/experiments/esp32c3/target/riscv32imac-unknown-none-elf/debug/deps/esp32c3-6c8eecfb34724107.zvsvxmou5gfsy4h.rcgu.o:(.rodata..L__unnamed_5)
3c007218     7218       50     1                 .L__unnamed_5
3c007268     7268       10     4         /home/mabez/development/rust/embedded/experiments/esp32c3/target/riscv32imac-unknown-none-elf/debug/deps/esp32c3-6c8eecfb34724107.zvsvxmou5gfsy4h.rcgu.o:(.rodata..L__unnamed_1)
3c007268     7268       10     1                 .L__unnamed_1
3c007278     7278       10     4         /home/mabez/development/rust/embedded/experiments/esp32c3/target/riscv32imac-unknown-none-elf/debug/deps/esp32c3-6c8eecfb34724107.zvsvxmou5gfsy4h.rcgu.o:(.rodata..L__unnamed_2)
3c007278     7278       10     1                 .L__unnamed_2
3c007288     7288       12     1         /home/mabez/development/rust/embedded/experiments/esp32c3/target/riscv32imac-unknown-none-elf/debug/deps/esp32c3-6c8eecfb34724107.zvsvxmou5gfsy4h.rcgu.o:(.rodata..L__unnamed_6)
3c007288     7288       12     1                 .L__unnamed_6
3c00729a     729a       13     1         /home/mabez/development/rust/embedded/experiments/esp32c3/target/riscv32imac-unknown-none-elf/debug/deps/esp32c3-6c8eecfb34724107.zvsvxmou5gfsy4h.rcgu.o:(.rodata..L__unnamed_7)
3c00729a     729a       13     1                 .L__unnamed_7
3c0072ad     72ad       15     1         /home/mabez/development/rust/embedded/experiments/esp32c3/target/riscv32imac-unknown-none-elf/debug/deps/esp32c3-6c8eecfb34724107.zvsvxmou5gfsy4h.rcgu.o:(.rodata..L__unnamed_8)
3c0072ad     72ad       15     1                 .L__unnamed_8
3c0072c4     72c4       18     4         /home/mabez/development/rust/embedded/experiments/esp32c3/target/riscv32imac-unknown-none-elf/debug/deps/esp32c3-6c8eecfb34724107.zvsvxmou5gfsy4h.rcgu.o:(.rodata..L__unnamed_3)
3c0072c4     72c4       18     1                 .L__unnamed_3
3c0072dc     72dc       10     4         /home/mabez/development/rust/embedded/experiments/esp32c3/target/riscv32imac-unknown-none-elf/debug/deps/esp32c3-6c8eecfb34724107.zvsvxmou5gfsy4h.rcgu.o:(.rodata..L__unnamed_4)
3c0072dc     72dc       10     1                 .L__unnamed_4
3c0072ec     72ec        5     1         /home/mabez/development/rust/embedded/experiments/esp32c3/target/riscv32imac-unknown-none-elf/debug/deps/librtt_target-ba817fabe6541e78.rlib(rtt_target-ba817fabe6541e78.rtt_target.a5746e51-cgu.0.rcgu.o):(.rodata..L__unnamed_2)
3c0072ec     72ec        5     1                 .L__unnamed_2
3c0072f1     72f1        c     1         /home/mabez/development/rust/embedded/experiments/esp32c3/target/riscv32imac-unknown-none-elf/debug/deps/librtt_target-ba817fabe6541e78.rlib(rtt_target-ba817fabe6541e78.rtt_target.a5746e51-cgu.0.rcgu.o):(.rodata..L__unnamed_3)
3c0072f1     72f1        c     1                 .L__unnamed_3
3c0072fd     72fd       57     1         /home/mabez/development/rust/embedded/experiments/esp32c3/target/riscv32imac-unknown-none-elf/debug/deps/librtt_target-ba817fabe6541e78.rlib(rtt_target-ba817fabe6541e78.rtt_target.a5746e51-cgu.0.rcgu.o):(.rodata..L__unnamed_17)
3c0072fd     72fd       57     1                 .L__unnamed_17
3c007360     7360       1c    16         /home/mabez/development/rust/embedded/experiments/esp32c3/target/riscv32imac-unknown-none-elf/debug/deps/librtt_target-ba817fabe6541e78.rlib(rtt_target-ba817fabe6541e78.rtt_target.a5746e51-cgu.0.rcgu.o):(.rodata.str.0)
3c007360     7360       1c     1                 str.0
3c007380     7380       21    16         /home/mabez/development/rust/embedded/experiments/esp32c3/target/riscv32imac-unknown-none-elf/debug/deps/librtt_target-ba817fabe6541e78.rlib(rtt_target-ba817fabe6541e78.rtt_target.a5746e51-cgu.0.rcgu.o):(.rodata.str.1)
3c007380     7380       21     1                 str.1
3c0073a1     73a1        1     1         /home/mabez/development/rust/embedded/experiments/esp32c3/target/riscv32imac-unknown-none-elf/debug/deps/librtt_target-ba817fabe6541e78.rlib(rtt_target-ba817fabe6541e78.rtt_target.a5746e51-cgu.0.rcgu.o):(.rodata..L__unnamed_9)
3c0073a1     73a1        1     1                 .L__unnamed_9
3c0073a4     73a4       10     4         /home/mabez/development/rust/embedded/experiments/esp32c3/target/riscv32imac-unknown-none-elf/debug/deps/librtt_target-ba817fabe6541e78.rlib(rtt_target-ba817fabe6541e78.rtt_target.a5746e51-cgu.0.rcgu.o):(.rodata..L__unnamed_10)
3c0073a4     73a4       10     1                 .L__unnamed_10
3c0073b4     73b4       10     4         /home/mabez/development/rust/embedded/experiments/esp32c3/target/riscv32imac-unknown-none-elf/debug/deps/librtt_target-ba817fabe6541e78.rlib(rtt_target-ba817fabe6541e78.rtt_target.a5746e51-cgu.0.rcgu.o):(.rodata..L__unnamed_11)
3c0073b4     73b4       10     1                 .L__unnamed_11
3c0073c4     73c4       10     4         /home/mabez/development/rust/embedded/experiments/esp32c3/target/riscv32imac-unknown-none-elf/debug/deps/librtt_target-ba817fabe6541e78.rlib(rtt_target-ba817fabe6541e78.rtt_target.a5746e51-cgu.0.rcgu.o):(.rodata..L__unnamed_12)
3c0073c4     73c4       10     1                 .L__unnamed_12
3c0073d4     73d4       10     4         /home/mabez/development/rust/embedded/experiments/esp32c3/target/riscv32imac-unknown-none-elf/debug/deps/librtt_target-ba817fabe6541e78.rlib(rtt_target-ba817fabe6541e78.rtt_target.a5746e51-cgu.0.rcgu.o):(.rodata..L__unnamed_13)
3c0073d4     73d4       10     1                 .L__unnamed_13
3c0073e4     73e4       10     4         /home/mabez/development/rust/embedded/experiments/esp32c3/target/riscv32imac-unknown-none-elf/debug/deps/librtt_target-ba817fabe6541e78.rlib(rtt_target-ba817fabe6541e78.rtt_target.a5746e51-cgu.0.rcgu.o):(.rodata..L__unnamed_14)
3c0073e4     73e4       10     1                 .L__unnamed_14
3c0073f4     73f4       10     4         /home/mabez/development/rust/embedded/experiments/esp32c3/target/riscv32imac-unknown-none-elf/debug/deps/librtt_target-ba817fabe6541e78.rlib(rtt_target-ba817fabe6541e78.rtt_target.a5746e51-cgu.0.rcgu.o):(.rodata..L__unnamed_15)
3c0073f4     73f4       10     1                 .L__unnamed_15
3c007404     7404        1     1         /home/mabez/development/rust/embedded/experiments/esp32c3/target/riscv32imac-unknown-none-elf/debug/deps/librtt_target-ba817fabe6541e78.rlib(rtt_target-ba817fabe6541e78.rtt_target.a5746e51-cgu.0.rcgu.o):(.rodata..L__unnamed_16)
3c007404     7404        1     1                 .L__unnamed_16
3c007408     7408       14     4         /home/mabez/development/rust/embedded/experiments/esp32c3/target/riscv32imac-unknown-none-elf/debug/deps/librtt_target-ba817fabe6541e78.rlib(rtt_target-ba817fabe6541e78.rtt_target.a5746e51-cgu.1.rcgu.o):(.rodata._ZN4core4sync6atomic12atomic_store17hb6e0b025e6602fbeE)
3c007408     7408        0     1                 .LJTI2_0
3c00741c     741c       14     4         /home/mabez/development/rust/embedded/experiments/esp32c3/target/riscv32imac-unknown-none-elf/debug/deps/librtt_target-ba817fabe6541e78.rlib(rtt_target-ba817fabe6541e78.rtt_target.a5746e51-cgu.1.rcgu.o):(.rodata._ZN4core4sync6atomic12atomic_store17hff0586cc8fb4384dE)
3c00741c     741c        0     1                 .LJTI3_0
3c007430     7430       14     4         /home/mabez/development/rust/embedded/experiments/esp32c3/target/riscv32imac-unknown-none-elf/debug/deps/librtt_target-ba817fabe6541e78.rlib(rtt_target-ba817fabe6541e78.rtt_target.a5746e51-cgu.1.rcgu.o):(.rodata._ZN4core4sync6atomic11atomic_load17ha72147ea991fe21cE)
3c007430     7430        0     1                 .LJTI4_0
3c007444     7444       14     4         /home/mabez/development/rust/embedded/experiments/esp32c3/target/riscv32imac-unknown-none-elf/debug/deps/librtt_target-ba817fabe6541e78.rlib(rtt_target-ba817fabe6541e78.rtt_target.a5746e51-cgu.1.rcgu.o):(.rodata._ZN4core4sync6atomic11atomic_load17he2a98d02cc193641E)
3c007444     7444        0     1                 .LJTI5_0
3c007458     7458       14     4         /home/mabez/development/rust/embedded/experiments/esp32c3/target/riscv32imac-unknown-none-elf/debug/deps/librtt_target-ba817fabe6541e78.rlib(rtt_target-ba817fabe6541e78.rtt_target.a5746e51-cgu.1.rcgu.o):(.rodata._ZN4core4sync6atomic5fence17h60e45326d5a6006dE)
3c007458     7458        0     1                 .LJTI6_0
3c00746c     746c       32     1         /home/mabez/development/rust/embedded/experiments/esp32c3/target/riscv32imac-unknown-none-elf/debug/deps/librtt_target-ba817fabe6541e78.rlib(rtt_target-ba817fabe6541e78.rtt_target.a5746e51-cgu.1.rcgu.o):(.rodata..L__unnamed_12)
3c00746c     746c       32     1                 .L__unnamed_12
3c0074a0     74a0        8     4         /home/mabez/development/rust/embedded/experiments/esp32c3/target/riscv32imac-unknown-none-elf/debug/deps/librtt_target-ba817fabe6541e78.rlib(rtt_target-ba817fabe6541e78.rtt_target.a5746e51-cgu.1.rcgu.o):(.rodata..L__unnamed_3)
3c0074a0     74a0        8     1                 .L__unnamed_3
3c0074a8     74a8        0     4         /home/mabez/development/rust/embedded/experiments/esp32c3/target/riscv32imac-unknown-none-elf/debug/deps/librtt_target-ba817fabe6541e78.rlib(rtt_target-ba817fabe6541e78.rtt_target.a5746e51-cgu.1.rcgu.o):(.rodata..L__unnamed_2)
3c0074a8     74a8        0     1                 .L__unnamed_2
3c0074a8     74a8       4f     1         /home/mabez/development/rust/embedded/experiments/esp32c3/target/riscv32imac-unknown-none-elf/debug/deps/librtt_target-ba817fabe6541e78.rlib(rtt_target-ba817fabe6541e78.rtt_target.a5746e51-cgu.1.rcgu.o):(.rodata..L__unnamed_13)
3c0074a8     74a8       4f     1                 .L__unnamed_13
3c0074f8     74f8       10     4         /home/mabez/development/rust/embedded/experiments/esp32c3/target/riscv32imac-unknown-none-elf/debug/deps/librtt_target-ba817fabe6541e78.rlib(rtt_target-ba817fabe6541e78.rtt_target.a5746e51-cgu.1.rcgu.o):(.rodata..L__unnamed_4)
3c0074f8     74f8       10     1                 .L__unnamed_4
3c007508     7508       2a     1         /home/mabez/development/rust/embedded/experiments/esp32c3/target/riscv32imac-unknown-none-elf/debug/deps/librtt_target-ba817fabe6541e78.rlib(rtt_target-ba817fabe6541e78.rtt_target.a5746e51-cgu.1.rcgu.o):(.rodata..L__unnamed_14)
3c007508     7508       2a     1                 .L__unnamed_14
3c007534     7534        8     4         /home/mabez/development/rust/embedded/experiments/esp32c3/target/riscv32imac-unknown-none-elf/debug/deps/librtt_target-ba817fabe6541e78.rlib(rtt_target-ba817fabe6541e78.rtt_target.a5746e51-cgu.1.rcgu.o):(.rodata..L__unnamed_1)
3c007534     7534        8     1                 .L__unnamed_1
3c00753c     753c       10     4         /home/mabez/development/rust/embedded/experiments/esp32c3/target/riscv32imac-unknown-none-elf/debug/deps/librtt_target-ba817fabe6541e78.rlib(rtt_target-ba817fabe6541e78.rtt_target.a5746e51-cgu.1.rcgu.o):(.rodata..L__unnamed_5)
3c00753c     753c       10     1                 .L__unnamed_5
3c00754c     754c       31     1         /home/mabez/development/rust/embedded/experiments/esp32c3/target/riscv32imac-unknown-none-elf/debug/deps/librtt_target-ba817fabe6541e78.rlib(rtt_target-ba817fabe6541e78.rtt_target.a5746e51-cgu.1.rcgu.o):(.rodata..L__unnamed_15)
3c00754c     754c       31     1                 .L__unnamed_15
3c007580     7580        8     4         /home/mabez/development/rust/embedded/experiments/esp32c3/target/riscv32imac-unknown-none-elf/debug/deps/librtt_target-ba817fabe6541e78.rlib(rtt_target-ba817fabe6541e78.rtt_target.a5746e51-cgu.1.rcgu.o):(.rodata..L__unnamed_7)
3c007580     7580        8     1                 .L__unnamed_7
3c007588     7588       10     4         /home/mabez/development/rust/embedded/experiments/esp32c3/target/riscv32imac-unknown-none-elf/debug/deps/librtt_target-ba817fabe6541e78.rlib(rtt_target-ba817fabe6541e78.rtt_target.a5746e51-cgu.1.rcgu.o):(.rodata..L__unnamed_8)
3c007588     7588       10     1                 .L__unnamed_8
3c007598     7598       28     1         /home/mabez/development/rust/embedded/experiments/esp32c3/target/riscv32imac-unknown-none-elf/debug/deps/librtt_target-ba817fabe6541e78.rlib(rtt_target-ba817fabe6541e78.rtt_target.a5746e51-cgu.1.rcgu.o):(.rodata..L__unnamed_16)
3c007598     7598       28     1                 .L__unnamed_16
3c0075c0     75c0        8     4         /home/mabez/development/rust/embedded/experiments/esp32c3/target/riscv32imac-unknown-none-elf/debug/deps/librtt_target-ba817fabe6541e78.rlib(rtt_target-ba817fabe6541e78.rtt_target.a5746e51-cgu.1.rcgu.o):(.rodata..L__unnamed_6)
3c0075c0     75c0        8     1                 .L__unnamed_6
3c0075c8     75c8       10     4         /home/mabez/development/rust/embedded/experiments/esp32c3/target/riscv32imac-unknown-none-elf/debug/deps/librtt_target-ba817fabe6541e78.rlib(rtt_target-ba817fabe6541e78.rtt_target.a5746e51-cgu.1.rcgu.o):(.rodata..L__unnamed_9)
3c0075c8     75c8       10     1                 .L__unnamed_9
3c0075d8     75d8       29     1         /home/mabez/development/rust/embedded/experiments/esp32c3/target/riscv32imac-unknown-none-elf/debug/deps/librtt_target-ba817fabe6541e78.rlib(rtt_target-ba817fabe6541e78.rtt_target.a5746e51-cgu.1.rcgu.o):(.rodata..L__unnamed_17)
3c0075d8     75d8       29     1                 .L__unnamed_17
3c007604     7604        8     4         /home/mabez/development/rust/embedded/experiments/esp32c3/target/riscv32imac-unknown-none-elf/debug/deps/librtt_target-ba817fabe6541e78.rlib(rtt_target-ba817fabe6541e78.rtt_target.a5746e51-cgu.1.rcgu.o):(.rodata..L__unnamed_10)
3c007604     7604        8     1                 .L__unnamed_10
3c00760c     760c       10     4         /home/mabez/development/rust/embedded/experiments/esp32c3/target/riscv32imac-unknown-none-elf/debug/deps/librtt_target-ba817fabe6541e78.rlib(rtt_target-ba817fabe6541e78.rtt_target.a5746e51-cgu.1.rcgu.o):(.rodata..L__unnamed_11)
3c00760c     760c       10     1                 .L__unnamed_11
3c00761c     761c       28     1         /home/mabez/development/rust/embedded/experiments/esp32c3/target/riscv32imac-unknown-none-elf/debug/deps/librtt_target-ba817fabe6541e78.rlib(rtt_target-ba817fabe6541e78.rtt_target.a5746e51-cgu.11.rcgu.o):(.rodata..L__unnamed_1)
3c00761c     761c       28     1                 .L__unnamed_1
3c007644     7644       57     1         /home/mabez/development/rust/embedded/experiments/esp32c3/target/riscv32imac-unknown-none-elf/debug/deps/librtt_target-ba817fabe6541e78.rlib(rtt_target-ba817fabe6541e78.rtt_target.a5746e51-cgu.11.rcgu.o):(.rodata..L__unnamed_3)
3c007644     7644       57     1                 .L__unnamed_3
3c00769c     769c       10     4         /home/mabez/development/rust/embedded/experiments/esp32c3/target/riscv32imac-unknown-none-elf/debug/deps/librtt_target-ba817fabe6541e78.rlib(rtt_target-ba817fabe6541e78.rtt_target.a5746e51-cgu.11.rcgu.o):(.rodata..L__unnamed_2)
3c00769c     769c       10     1                 .L__unnamed_2
3c0076b0     76b0       23    16         /home/mabez/development/rust/embedded/experiments/esp32c3/target/riscv32imac-unknown-none-elf/debug/deps/librtt_target-ba817fabe6541e78.rlib(rtt_target-ba817fabe6541e78.rtt_target.a5746e51-cgu.11.rcgu.o):(.rodata.str.0)
3c0076b0     76b0       23     1                 str.0
3c0076d4     76d4        4     4         /home/mabez/development/rust/embedded/experiments/esp32c3/target/riscv32imac-unknown-none-elf/debug/deps/librtt_target-ba817fabe6541e78.rlib(rtt_target-ba817fabe6541e78.rtt_target.a5746e51-cgu.12.rcgu.o):(.rodata..L__unnamed_1)
3c0076d4     76d4        4     1                 .L__unnamed_1
3c0076d8     76d8       50     1         /home/mabez/development/rust/embedded/experiments/esp32c3/target/riscv32imac-unknown-none-elf/debug/deps/librtt_target-ba817fabe6541e78.rlib(rtt_target-ba817fabe6541e78.rtt_target.a5746e51-cgu.2.rcgu.o):(.rodata..L__unnamed_5)
3c0076d8     76d8       50     1                 .L__unnamed_5
3c007728     7728       10     4         /home/mabez/development/rust/embedded/experiments/esp32c3/target/riscv32imac-unknown-none-elf/debug/deps/librtt_target-ba817fabe6541e78.rlib(rtt_target-ba817fabe6541e78.rtt_target.a5746e51-cgu.2.rcgu.o):(.rodata..L__unnamed_1)
3c007728     7728       10     1                 .L__unnamed_1
3c007738     7738       10     4         /home/mabez/development/rust/embedded/experiments/esp32c3/target/riscv32imac-unknown-none-elf/debug/deps/librtt_target-ba817fabe6541e78.rlib(rtt_target-ba817fabe6541e78.rtt_target.a5746e51-cgu.2.rcgu.o):(.rodata..L__unnamed_2)
3c007738     7738       10     1                 .L__unnamed_2
3c007748     7748       12     1         /home/mabez/development/rust/embedded/experiments/esp32c3/target/riscv32imac-unknown-none-elf/debug/deps/librtt_target-ba817fabe6541e78.rlib(rtt_target-ba817fabe6541e78.rtt_target.a5746e51-cgu.2.rcgu.o):(.rodata..L__unnamed_6)
3c007748     7748       12     1                 .L__unnamed_6
3c00775a     775a       13     1         /home/mabez/development/rust/embedded/experiments/esp32c3/target/riscv32imac-unknown-none-elf/debug/deps/librtt_target-ba817fabe6541e78.rlib(rtt_target-ba817fabe6541e78.rtt_target.a5746e51-cgu.2.rcgu.o):(.rodata..L__unnamed_7)
3c00775a     775a       13     1                 .L__unnamed_7
3c00776d     776d       15     1         /home/mabez/development/rust/embedded/experiments/esp32c3/target/riscv32imac-unknown-none-elf/debug/deps/librtt_target-ba817fabe6541e78.rlib(rtt_target-ba817fabe6541e78.rtt_target.a5746e51-cgu.2.rcgu.o):(.rodata..L__unnamed_8)
3c00776d     776d       15     1                 .L__unnamed_8
3c007784     7784       18     4         /home/mabez/development/rust/embedded/experiments/esp32c3/target/riscv32imac-unknown-none-elf/debug/deps/librtt_target-ba817fabe6541e78.rlib(rtt_target-ba817fabe6541e78.rtt_target.a5746e51-cgu.2.rcgu.o):(.rodata..L__unnamed_3)
3c007784     7784       18     1                 .L__unnamed_3
3c00779c     779c       10     4         /home/mabez/development/rust/embedded/experiments/esp32c3/target/riscv32imac-unknown-none-elf/debug/deps/librtt_target-ba817fabe6541e78.rlib(rtt_target-ba817fabe6541e78.rtt_target.a5746e51-cgu.2.rcgu.o):(.rodata..L__unnamed_4)
3c00779c     779c       10     1                 .L__unnamed_4
3c0077ac     77ac       57     1         /home/mabez/development/rust/embedded/experiments/esp32c3/target/riscv32imac-unknown-none-elf/debug/deps/librtt_target-ba817fabe6541e78.rlib(rtt_target-ba817fabe6541e78.rtt_target.a5746e51-cgu.3.rcgu.o):(.rodata..L__unnamed_5)
3c0077ac     77ac       57     1                 .L__unnamed_5
3c007804     7804       10     4         /home/mabez/development/rust/embedded/experiments/esp32c3/target/riscv32imac-unknown-none-elf/debug/deps/librtt_target-ba817fabe6541e78.rlib(rtt_target-ba817fabe6541e78.rtt_target.a5746e51-cgu.3.rcgu.o):(.rodata..L__unnamed_4)
3c007804     7804       10     1                 .L__unnamed_4
3c007814     7814       18     4         /home/mabez/development/rust/embedded/experiments/esp32c3/target/riscv32imac-unknown-none-elf/debug/deps/librtt_target-ba817fabe6541e78.rlib(rtt_target-ba817fabe6541e78.rtt_target.a5746e51-cgu.3.rcgu.o):(.rodata..L__unnamed_1)
3c007814     7814       18     1                 .L__unnamed_1
3c00782c     782c        c     1         /home/mabez/development/rust/embedded/experiments/esp32c3/target/riscv32imac-unknown-none-elf/debug/deps/librtt_target-ba817fabe6541e78.rlib(rtt_target-ba817fabe6541e78.rtt_target.a5746e51-cgu.5.rcgu.o):(.rodata..L__unnamed_4)
3c00782c     782c        c     1                 .L__unnamed_4
3c007838     7838        8     4         /home/mabez/development/rust/embedded/experiments/esp32c3/target/riscv32imac-unknown-none-elf/debug/deps/librtt_target-ba817fabe6541e78.rlib(rtt_target-ba817fabe6541e78.rtt_target.a5746e51-cgu.5.rcgu.o):(.rodata..L__unnamed_1)
3c007838     7838        8     1                 .L__unnamed_1
3c007840     7840        0     4         /home/mabez/development/rust/embedded/experiments/esp32c3/target/riscv32imac-unknown-none-elf/debug/deps/librtt_target-ba817fabe6541e78.rlib(rtt_target-ba817fabe6541e78.rtt_target.a5746e51-cgu.5.rcgu.o):(.rodata..L__unnamed_2)
3c007840     7840        0     1                 .L__unnamed_2
3c007840     7840       4b     1         /home/mabez/development/rust/embedded/experiments/esp32c3/target/riscv32imac-unknown-none-elf/debug/deps/librtt_target-ba817fabe6541e78.rlib(rtt_target-ba817fabe6541e78.rtt_target.a5746e51-cgu.5.rcgu.o):(.rodata..L__unnamed_5)
3c007840     7840       4b     1                 .L__unnamed_5
3c00788c     788c       10     4         /home/mabez/development/rust/embedded/experiments/esp32c3/target/riscv32imac-unknown-none-elf/debug/deps/librtt_target-ba817fabe6541e78.rlib(rtt_target-ba817fabe6541e78.rtt_target.a5746e51-cgu.5.rcgu.o):(.rodata..L__unnamed_3)
3c00788c     788c       10     1                 .L__unnamed_3
3c00789c     789c        a     1         /home/mabez/development/rust/embedded/experiments/esp32c3/target/riscv32imac-unknown-none-elf/debug/deps/libesp32c3_lib-c6891e451671e2e8.rlib(esp32c3_lib-c6891e451671e2e8.50vycai6f6fblslz.rcgu.o):(.rodata..L__unnamed_6)
3c00789c     789c        a     1                 .L__unnamed_6
3c0078a8     78a8       10     4         /home/mabez/development/rust/embedded/experiments/esp32c3/target/riscv32imac-unknown-none-elf/debug/deps/libesp32c3_lib-c6891e451671e2e8.rlib(esp32c3_lib-c6891e451671e2e8.50vycai6f6fblslz.rcgu.o):(.rodata..L__unnamed_1)
3c0078a8     78a8       10     1                 .L__unnamed_1
3c0078c0     78c0       21    16         /home/mabez/development/rust/embedded/experiments/esp32c3/target/riscv32imac-unknown-none-elf/debug/deps/libesp32c3_lib-c6891e451671e2e8.rlib(esp32c3_lib-c6891e451671e2e8.50vycai6f6fblslz.rcgu.o):(.rodata.str.0)
3c0078c0     78c0       21     1                 str.0
3c0078e4     78e4       10     4         /home/mabez/development/rust/embedded/experiments/esp32c3/target/riscv32imac-unknown-none-elf/debug/deps/libesp32c3_lib-c6891e451671e2e8.rlib(esp32c3_lib-c6891e451671e2e8.50vycai6f6fblslz.rcgu.o):(.rodata..L__unnamed_2)
3c0078e4     78e4       10     1                 .L__unnamed_2
3c007900     7900       1c    16         /home/mabez/development/rust/embedded/experiments/esp32c3/target/riscv32imac-unknown-none-elf/debug/deps/libesp32c3_lib-c6891e451671e2e8.rlib(esp32c3_lib-c6891e451671e2e8.50vycai6f6fblslz.rcgu.o):(.rodata.str.1)
3c007900     7900       1c     1                 str.1
3c00791c     791c       10     4         /home/mabez/development/rust/embedded/experiments/esp32c3/target/riscv32imac-unknown-none-elf/debug/deps/libesp32c3_lib-c6891e451671e2e8.rlib(esp32c3_lib-c6891e451671e2e8.50vycai6f6fblslz.rcgu.o):(.rodata..L__unnamed_3)
3c00791c     791c       10     1                 .L__unnamed_3
3c007930     7930       23    16         /home/mabez/development/rust/embedded/experiments/esp32c3/target/riscv32imac-unknown-none-elf/debug/deps/libesp32c3_lib-c6891e451671e2e8.rlib(esp32c3_lib-c6891e451671e2e8.50vycai6f6fblslz.rcgu.o):(.rodata.str.2)
3c007930     7930       23     1                 str.2
3c007954     7954       10     4         /home/mabez/development/rust/embedded/experiments/esp32c3/target/riscv32imac-unknown-none-elf/debug/deps/libesp32c3_lib-c6891e451671e2e8.rlib(esp32c3_lib-c6891e451671e2e8.50vycai6f6fblslz.rcgu.o):(.rodata..L__unnamed_4)
3c007954     7954       10     1                 .L__unnamed_4
3c007964     7964       10     4         /home/mabez/development/rust/embedded/experiments/esp32c3/target/riscv32imac-unknown-none-elf/debug/deps/libesp32c3_lib-c6891e451671e2e8.rlib(esp32c3_lib-c6891e451671e2e8.50vycai6f6fblslz.rcgu.o):(.rodata..L__unnamed_5)
3c007964     7964       10     1                 .L__unnamed_5
3c007974     7974       7c     4         /home/mabez/.rustup/toolchains/nightly-x86_64-unknown-linux-gnu/lib/rustlib/riscv32imac-unknown-none-elf/lib/libcore-081fd8405fc18f2e.rlib(core-081fd8405fc18f2e.core.364d98f8-cgu.0.rcgu.o):(.rodata._ZN4core4char7methods22_$LT$impl$u20$char$GT$16escape_debug_ext17h04b99252736de0a3E)
3c007974     7974        0     1                 .LJTI91_0
3c0079f0     79f0       30     4         /home/mabez/.rustup/toolchains/nightly-x86_64-unknown-linux-gnu/lib/rustlib/riscv32imac-unknown-none-elf/lib/libcore-081fd8405fc18f2e.rlib(core-081fd8405fc18f2e.core.364d98f8-cgu.0.rcgu.o):(.rodata._ZN40_$LT$str$u20$as$u20$core..fmt..Debug$GT$3fmt17h0d251943f4b36d16E)
3c0079f0     79f0        0     1                 .LJTI200_0
3c007a08     7a08        0     1                 .LJTI200_1
3c007a20     7a20       30     4         /home/mabez/.rustup/toolchains/nightly-x86_64-unknown-linux-gnu/lib/rustlib/riscv32imac-unknown-none-elf/lib/libcore-081fd8405fc18f2e.rlib(core-081fd8405fc18f2e.core.364d98f8-cgu.0.rcgu.o):(.rodata._ZN41_$LT$char$u20$as$u20$core..fmt..Debug$GT$3fmt17h494cd63b7e1d655aE)
3c007a20     7a20        0     1                 .LJTI202_0
3c007a38     7a38        0     1                 .LJTI202_1
3c007a50     7a50        0     4         /home/mabez/.rustup/toolchains/nightly-x86_64-unknown-linux-gnu/lib/rustlib/riscv32imac-unknown-none-elf/lib/libcore-081fd8405fc18f2e.rlib(core-081fd8405fc18f2e.core.364d98f8-cgu.0.rcgu.o):(.rodata..Lanon.7bab87f248b46b90ee6f797e6daabfb3.101)
3c007a50     7a50        0     1                 .Lanon.7bab87f248b46b90ee6f797e6daabfb3.101
3c007a50     7a50        2     1         /home/mabez/.rustup/toolchains/nightly-x86_64-unknown-linux-gnu/lib/rustlib/riscv32imac-unknown-none-elf/lib/libcore-081fd8405fc18f2e.rlib(core-081fd8405fc18f2e.core.364d98f8-cgu.0.rcgu.o):(.rodata..Lanon.7bab87f248b46b90ee6f797e6daabfb3.130)
3c007a50     7a50        2     1                 .Lanon.7bab87f248b46b90ee6f797e6daabfb3.130
3c007a54     7a54        8     4         /home/mabez/.rustup/toolchains/nightly-x86_64-unknown-linux-gnu/lib/rustlib/riscv32imac-unknown-none-elf/lib/libcore-081fd8405fc18f2e.rlib(core-081fd8405fc18f2e.core.364d98f8-cgu.0.rcgu.o):(.rodata..Lanon.7bab87f248b46b90ee6f797e6daabfb3.131)
3c007a54     7a54        8     1                 .Lanon.7bab87f248b46b90ee6f797e6daabfb3.131
3c007a5c     7a5c        3     1         /home/mabez/.rustup/toolchains/nightly-x86_64-unknown-linux-gnu/lib/rustlib/riscv32imac-unknown-none-elf/lib/libcore-081fd8405fc18f2e.rlib(core-081fd8405fc18f2e.core.364d98f8-cgu.0.rcgu.o):(.rodata..Lanon.7bab87f248b46b90ee6f797e6daabfb3.132)
3c007a5c     7a5c        3     1                 .Lanon.7bab87f248b46b90ee6f797e6daabfb3.132
3c007a5f     7a5f       2b     1         /home/mabez/.rustup/toolchains/nightly-x86_64-unknown-linux-gnu/lib/rustlib/riscv32imac-unknown-none-elf/lib/libcore-081fd8405fc18f2e.rlib(core-081fd8405fc18f2e.core.364d98f8-cgu.0.rcgu.o):(.rodata..Lanon.7bab87f248b46b90ee6f797e6daabfb3.166)
3c007a5f     7a5f       2b     1                 .Lanon.7bab87f248b46b90ee6f797e6daabfb3.166
3c007a8c     7a8c       10     4         /home/mabez/.rustup/toolchains/nightly-x86_64-unknown-linux-gnu/lib/rustlib/riscv32imac-unknown-none-elf/lib/libcore-081fd8405fc18f2e.rlib(core-081fd8405fc18f2e.core.364d98f8-cgu.0.rcgu.o):(.rodata..Lanon.7bab87f248b46b90ee6f797e6daabfb3.169)
3c007a8c     7a8c       10     1                 .Lanon.7bab87f248b46b90ee6f797e6daabfb3.169
3c007a9c     7a9c       12     1         /home/mabez/.rustup/toolchains/nightly-x86_64-unknown-linux-gnu/lib/rustlib/riscv32imac-unknown-none-elf/lib/libcore-081fd8405fc18f2e.rlib(core-081fd8405fc18f2e.core.364d98f8-cgu.0.rcgu.o):(.rodata..Lanon.7bab87f248b46b90ee6f797e6daabfb3.176)
3c007a9c     7a9c       12     1                 .Lanon.7bab87f248b46b90ee6f797e6daabfb3.176
3c007ab0     7ab0       10     4         /home/mabez/.rustup/toolchains/nightly-x86_64-unknown-linux-gnu/lib/rustlib/riscv32imac-unknown-none-elf/lib/libcore-081fd8405fc18f2e.rlib(core-081fd8405fc18f2e.core.364d98f8-cgu.0.rcgu.o):(.rodata..Lanon.7bab87f248b46b90ee6f797e6daabfb3.177)
3c007ab0     7ab0       10     1                 .Lanon.7bab87f248b46b90ee6f797e6daabfb3.177
3c007ac0     7ac0        1     1         /home/mabez/.rustup/toolchains/nightly-x86_64-unknown-linux-gnu/lib/rustlib/riscv32imac-unknown-none-elf/lib/libcore-081fd8405fc18f2e.rlib(core-081fd8405fc18f2e.core.364d98f8-cgu.0.rcgu.o):(.rodata..Lanon.7bab87f248b46b90ee6f797e6daabfb3.189)
3c007ac0     7ac0        1     1                 .Lanon.7bab87f248b46b90ee6f797e6daabfb3.189
3c007ac1     7ac1        2     1         /home/mabez/.rustup/toolchains/nightly-x86_64-unknown-linux-gnu/lib/rustlib/riscv32imac-unknown-none-elf/lib/libcore-081fd8405fc18f2e.rlib(core-081fd8405fc18f2e.core.364d98f8-cgu.0.rcgu.o):(.rodata..Lanon.7bab87f248b46b90ee6f797e6daabfb3.191)
3c007ac1     7ac1        2     1                 .Lanon.7bab87f248b46b90ee6f797e6daabfb3.191
3c007ac4     7ac4       10     4         /home/mabez/.rustup/toolchains/nightly-x86_64-unknown-linux-gnu/lib/rustlib/riscv32imac-unknown-none-elf/lib/libcore-081fd8405fc18f2e.rlib(core-081fd8405fc18f2e.core.364d98f8-cgu.0.rcgu.o):(.rodata..Lanon.7bab87f248b46b90ee6f797e6daabfb3.192)
3c007ac4     7ac4       10     1                 .Lanon.7bab87f248b46b90ee6f797e6daabfb3.192
3c007ad4     7ad4       18     4         /home/mabez/.rustup/toolchains/nightly-x86_64-unknown-linux-gnu/lib/rustlib/riscv32imac-unknown-none-elf/lib/libcore-081fd8405fc18f2e.rlib(core-081fd8405fc18f2e.core.364d98f8-cgu.0.rcgu.o):(.rodata..Lanon.7bab87f248b46b90ee6f797e6daabfb3.193)
3c007ad4     7ad4       18     1                 .Lanon.7bab87f248b46b90ee6f797e6daabfb3.193
3c007aec     7aec       10     4         /home/mabez/.rustup/toolchains/nightly-x86_64-unknown-linux-gnu/lib/rustlib/riscv32imac-unknown-none-elf/lib/libcore-081fd8405fc18f2e.rlib(core-081fd8405fc18f2e.core.364d98f8-cgu.0.rcgu.o):(.rodata..Lanon.7bab87f248b46b90ee6f797e6daabfb3.196)
3c007aec     7aec       10     1                 .Lanon.7bab87f248b46b90ee6f797e6daabfb3.196
3c007afc     7afc       10     4         /home/mabez/.rustup/toolchains/nightly-x86_64-unknown-linux-gnu/lib/rustlib/riscv32imac-unknown-none-elf/lib/libcore-081fd8405fc18f2e.rlib(core-081fd8405fc18f2e.core.364d98f8-cgu.0.rcgu.o):(.rodata..Lanon.7bab87f248b46b90ee6f797e6daabfb3.197)
3c007afc     7afc       10     1                 .Lanon.7bab87f248b46b90ee6f797e6daabfb3.197
3c007b0c     7b0c        3     1         /home/mabez/.rustup/toolchains/nightly-x86_64-unknown-linux-gnu/lib/rustlib/riscv32imac-unknown-none-elf/lib/libcore-081fd8405fc18f2e.rlib(core-081fd8405fc18f2e.core.364d98f8-cgu.0.rcgu.o):(.rodata..Lanon.7bab87f248b46b90ee6f797e6daabfb3.198)
3c007b0c     7b0c        3     1                 .Lanon.7bab87f248b46b90ee6f797e6daabfb3.198
3c007b0f     7b0f        2     1         /home/mabez/.rustup/toolchains/nightly-x86_64-unknown-linux-gnu/lib/rustlib/riscv32imac-unknown-none-elf/lib/libcore-081fd8405fc18f2e.rlib(core-081fd8405fc18f2e.core.364d98f8-cgu.0.rcgu.o):(.rodata..Lanon.7bab87f248b46b90ee6f797e6daabfb3.199)
3c007b0f     7b0f        2     1                 .Lanon.7bab87f248b46b90ee6f797e6daabfb3.199
3c007b11     7b11        2     1         /home/mabez/.rustup/toolchains/nightly-x86_64-unknown-linux-gnu/lib/rustlib/riscv32imac-unknown-none-elf/lib/libcore-081fd8405fc18f2e.rlib(core-081fd8405fc18f2e.core.364d98f8-cgu.0.rcgu.o):(.rodata..Lanon.7bab87f248b46b90ee6f797e6daabfb3.200)
3c007b11     7b11        2     1                 .Lanon.7bab87f248b46b90ee6f797e6daabfb3.200
3c007b13     7b13        3     1         /home/mabez/.rustup/toolchains/nightly-x86_64-unknown-linux-gnu/lib/rustlib/riscv32imac-unknown-none-elf/lib/libcore-081fd8405fc18f2e.rlib(core-081fd8405fc18f2e.core.364d98f8-cgu.0.rcgu.o):(.rodata..Lanon.7bab87f248b46b90ee6f797e6daabfb3.201)
3c007b13     7b13        3     1                 .Lanon.7bab87f248b46b90ee6f797e6daabfb3.201
3c007b16     7b16        1     1         /home/mabez/.rustup/toolchains/nightly-x86_64-unknown-linux-gnu/lib/rustlib/riscv32imac-unknown-none-elf/lib/libcore-081fd8405fc18f2e.rlib(core-081fd8405fc18f2e.core.364d98f8-cgu.0.rcgu.o):(.rodata..Lanon.7bab87f248b46b90ee6f797e6daabfb3.203)
3c007b16     7b16        1     1                 .Lanon.7bab87f248b46b90ee6f797e6daabfb3.203
3c007b17     7b17        7     1         /home/mabez/.rustup/toolchains/nightly-x86_64-unknown-linux-gnu/lib/rustlib/riscv32imac-unknown-none-elf/lib/libcore-081fd8405fc18f2e.rlib(core-081fd8405fc18f2e.core.364d98f8-cgu.0.rcgu.o):(.rodata..Lanon.7bab87f248b46b90ee6f797e6daabfb3.205)
3c007b17     7b17        7     1                 .Lanon.7bab87f248b46b90ee6f797e6daabfb3.205
3c007b1e     7b1e        2     1         /home/mabez/.rustup/toolchains/nightly-x86_64-unknown-linux-gnu/lib/rustlib/riscv32imac-unknown-none-elf/lib/libcore-081fd8405fc18f2e.rlib(core-081fd8405fc18f2e.core.364d98f8-cgu.0.rcgu.o):(.rodata..Lanon.7bab87f248b46b90ee6f797e6daabfb3.206)
3c007b1e     7b1e        2     1                 .Lanon.7bab87f248b46b90ee6f797e6daabfb3.206
3c007b20     7b20        2     1         /home/mabez/.rustup/toolchains/nightly-x86_64-unknown-linux-gnu/lib/rustlib/riscv32imac-unknown-none-elf/lib/libcore-081fd8405fc18f2e.rlib(core-081fd8405fc18f2e.core.364d98f8-cgu.0.rcgu.o):(.rodata..Lanon.7bab87f248b46b90ee6f797e6daabfb3.207)
3c007b20     7b20        2     1                 .Lanon.7bab87f248b46b90ee6f797e6daabfb3.207
3c007b22     7b22        1     1         /home/mabez/.rustup/toolchains/nightly-x86_64-unknown-linux-gnu/lib/rustlib/riscv32imac-unknown-none-elf/lib/libcore-081fd8405fc18f2e.rlib(core-081fd8405fc18f2e.core.364d98f8-cgu.0.rcgu.o):(.rodata..Lanon.7bab87f248b46b90ee6f797e6daabfb3.208)
3c007b22     7b22        1     1                 .Lanon.7bab87f248b46b90ee6f797e6daabfb3.208
3c007b23     7b23        1     1         /home/mabez/.rustup/toolchains/nightly-x86_64-unknown-linux-gnu/lib/rustlib/riscv32imac-unknown-none-elf/lib/libcore-081fd8405fc18f2e.rlib(core-081fd8405fc18f2e.core.364d98f8-cgu.0.rcgu.o):(.rodata..Lanon.7bab87f248b46b90ee6f797e6daabfb3.209)
3c007b23     7b23        1     1                 .Lanon.7bab87f248b46b90ee6f797e6daabfb3.209
3c007b24     7b24        1     1         /home/mabez/.rustup/toolchains/nightly-x86_64-unknown-linux-gnu/lib/rustlib/riscv32imac-unknown-none-elf/lib/libcore-081fd8405fc18f2e.rlib(core-081fd8405fc18f2e.core.364d98f8-cgu.0.rcgu.o):(.rodata..Lanon.7bab87f248b46b90ee6f797e6daabfb3.210)
3c007b24     7b24        1     1                 .Lanon.7bab87f248b46b90ee6f797e6daabfb3.210
3c007b25     7b25       1b     1         /home/mabez/.rustup/toolchains/nightly-x86_64-unknown-linux-gnu/lib/rustlib/riscv32imac-unknown-none-elf/lib/libcore-081fd8405fc18f2e.rlib(core-081fd8405fc18f2e.core.364d98f8-cgu.0.rcgu.o):(.rodata..Lanon.7bab87f248b46b90ee6f797e6daabfb3.227)
3c007b25     7b25       1b     1                 .Lanon.7bab87f248b46b90ee6f797e6daabfb3.227
3c007b40     7b40       10     4         /home/mabez/.rustup/toolchains/nightly-x86_64-unknown-linux-gnu/lib/rustlib/riscv32imac-unknown-none-elf/lib/libcore-081fd8405fc18f2e.rlib(core-081fd8405fc18f2e.core.364d98f8-cgu.0.rcgu.o):(.rodata..Lanon.7bab87f248b46b90ee6f797e6daabfb3.228)
3c007b40     7b40       10     1                 .Lanon.7bab87f248b46b90ee6f797e6daabfb3.228
3c007b50     7b50        2     1         /home/mabez/.rustup/toolchains/nightly-x86_64-unknown-linux-gnu/lib/rustlib/riscv32imac-unknown-none-elf/lib/libcore-081fd8405fc18f2e.rlib(core-081fd8405fc18f2e.core.364d98f8-cgu.0.rcgu.o):(.rodata..Lanon.7bab87f248b46b90ee6f797e6daabfb3.230)
3c007b50     7b50        2     1                 .Lanon.7bab87f248b46b90ee6f797e6daabfb3.230
3c007b52     7b52       c8     1         /home/mabez/.rustup/toolchains/nightly-x86_64-unknown-linux-gnu/lib/rustlib/riscv32imac-unknown-none-elf/lib/libcore-081fd8405fc18f2e.rlib(core-081fd8405fc18f2e.core.364d98f8-cgu.0.rcgu.o):(.rodata..Lanon.7bab87f248b46b90ee6f797e6daabfb3.232)
3c007b52     7b52       c8     1                 .Lanon.7bab87f248b46b90ee6f797e6daabfb3.232
3c007c1c     7c1c       18     4         /home/mabez/.rustup/toolchains/nightly-x86_64-unknown-linux-gnu/lib/rustlib/riscv32imac-unknown-none-elf/lib/libcore-081fd8405fc18f2e.rlib(core-081fd8405fc18f2e.core.364d98f8-cgu.0.rcgu.o):(.rodata..Lanon.7bab87f248b46b90ee6f797e6daabfb3.235)
3c007c1c     7c1c       18     1                 .Lanon.7bab87f248b46b90ee6f797e6daabfb3.235
3c007c34     7c34       1b     1         /home/mabez/.rustup/toolchains/nightly-x86_64-unknown-linux-gnu/lib/rustlib/riscv32imac-unknown-none-elf/lib/libcore-081fd8405fc18f2e.rlib(core-081fd8405fc18f2e.core.364d98f8-cgu.0.rcgu.o):(.rodata..Lanon.7bab87f248b46b90ee6f797e6daabfb3.236)
3c007c34     7c34       1b     1                 .Lanon.7bab87f248b46b90ee6f797e6daabfb3.236
3c007c50     7c50       10     4         /home/mabez/.rustup/toolchains/nightly-x86_64-unknown-linux-gnu/lib/rustlib/riscv32imac-unknown-none-elf/lib/libcore-081fd8405fc18f2e.rlib(core-081fd8405fc18f2e.core.364d98f8-cgu.0.rcgu.o):(.rodata..Lanon.7bab87f248b46b90ee6f797e6daabfb3.243)
3c007c50     7c50       10     1                 .Lanon.7bab87f248b46b90ee6f797e6daabfb3.243
3c007c60     7c60       10     4         /home/mabez/.rustup/toolchains/nightly-x86_64-unknown-linux-gnu/lib/rustlib/riscv32imac-unknown-none-elf/lib/libcore-081fd8405fc18f2e.rlib(core-081fd8405fc18f2e.core.364d98f8-cgu.0.rcgu.o):(.rodata..Lanon.7bab87f248b46b90ee6f797e6daabfb3.244)
3c007c60     7c60       10     1                 .Lanon.7bab87f248b46b90ee6f797e6daabfb3.244
3c007c70     7c70       10     4         /home/mabez/.rustup/toolchains/nightly-x86_64-unknown-linux-gnu/lib/rustlib/riscv32imac-unknown-none-elf/lib/libcore-081fd8405fc18f2e.rlib(core-081fd8405fc18f2e.core.364d98f8-cgu.0.rcgu.o):(.rodata..Lanon.7bab87f248b46b90ee6f797e6daabfb3.249)
3c007c70     7c70       10     1                 .Lanon.7bab87f248b46b90ee6f797e6daabfb3.249
3c007c80     7c80       12     1         /home/mabez/.rustup/toolchains/nightly-x86_64-unknown-linux-gnu/lib/rustlib/riscv32imac-unknown-none-elf/lib/libcore-081fd8405fc18f2e.rlib(core-081fd8405fc18f2e.core.364d98f8-cgu.0.rcgu.o):(.rodata..Lanon.7bab87f248b46b90ee6f797e6daabfb3.253)
3c007c80     7c80       12     1                 .Lanon.7bab87f248b46b90ee6f797e6daabfb3.253
3c007c92     7c92       22     1         /home/mabez/.rustup/toolchains/nightly-x86_64-unknown-linux-gnu/lib/rustlib/riscv32imac-unknown-none-elf/lib/libcore-081fd8405fc18f2e.rlib(core-081fd8405fc18f2e.core.364d98f8-cgu.0.rcgu.o):(.rodata..Lanon.7bab87f248b46b90ee6f797e6daabfb3.254)
3c007c92     7c92       22     1                 .Lanon.7bab87f248b46b90ee6f797e6daabfb3.254
3c007cb4     7cb4       10     4         /home/mabez/.rustup/toolchains/nightly-x86_64-unknown-linux-gnu/lib/rustlib/riscv32imac-unknown-none-elf/lib/libcore-081fd8405fc18f2e.rlib(core-081fd8405fc18f2e.core.364d98f8-cgu.0.rcgu.o):(.rodata..Lanon.7bab87f248b46b90ee6f797e6daabfb3.255)
3c007cb4     7cb4       10     1                 .Lanon.7bab87f248b46b90ee6f797e6daabfb3.255
3c007cc4     7cc4       10     4         /home/mabez/.rustup/toolchains/nightly-x86_64-unknown-linux-gnu/lib/rustlib/riscv32imac-unknown-none-elf/lib/libcore-081fd8405fc18f2e.rlib(core-081fd8405fc18f2e.core.364d98f8-cgu.0.rcgu.o):(.rodata..Lanon.7bab87f248b46b90ee6f797e6daabfb3.257)
3c007cc4     7cc4       10     1                 .Lanon.7bab87f248b46b90ee6f797e6daabfb3.257
3c007cd4     7cd4       16     1         /home/mabez/.rustup/toolchains/nightly-x86_64-unknown-linux-gnu/lib/rustlib/riscv32imac-unknown-none-elf/lib/libcore-081fd8405fc18f2e.rlib(core-081fd8405fc18f2e.core.364d98f8-cgu.0.rcgu.o):(.rodata..Lanon.7bab87f248b46b90ee6f797e6daabfb3.258)
3c007cd4     7cd4       16     1                 .Lanon.7bab87f248b46b90ee6f797e6daabfb3.258
3c007cea     7cea        d     1         /home/mabez/.rustup/toolchains/nightly-x86_64-unknown-linux-gnu/lib/rustlib/riscv32imac-unknown-none-elf/lib/libcore-081fd8405fc18f2e.rlib(core-081fd8405fc18f2e.core.364d98f8-cgu.0.rcgu.o):(.rodata..Lanon.7bab87f248b46b90ee6f797e6daabfb3.259)
3c007cea     7cea        d     1                 .Lanon.7bab87f248b46b90ee6f797e6daabfb3.259
3c007cf8     7cf8       10     4         /home/mabez/.rustup/toolchains/nightly-x86_64-unknown-linux-gnu/lib/rustlib/riscv32imac-unknown-none-elf/lib/libcore-081fd8405fc18f2e.rlib(core-081fd8405fc18f2e.core.364d98f8-cgu.0.rcgu.o):(.rodata..Lanon.7bab87f248b46b90ee6f797e6daabfb3.260)
3c007cf8     7cf8       10     1                 .Lanon.7bab87f248b46b90ee6f797e6daabfb3.260
3c007d08     7d08       18     1         <internal>:(.rodata)
3c007d20     7d20       23     1         /home/mabez/.rustup/toolchains/nightly-x86_64-unknown-linux-gnu/lib/rustlib/riscv32imac-unknown-none-elf/lib/libcore-081fd8405fc18f2e.rlib(core-081fd8405fc18f2e.core.364d98f8-cgu.0.rcgu.o):(.rodata..Lanon.7bab87f248b46b90ee6f797e6daabfb3.297)
3c007d20     7d20       23     1                 .Lanon.7bab87f248b46b90ee6f797e6daabfb3.297
3c007d44     7d44       10     4         /home/mabez/.rustup/toolchains/nightly-x86_64-unknown-linux-gnu/lib/rustlib/riscv32imac-unknown-none-elf/lib/libcore-081fd8405fc18f2e.rlib(core-081fd8405fc18f2e.core.364d98f8-cgu.0.rcgu.o):(.rodata..Lanon.7bab87f248b46b90ee6f797e6daabfb3.299)
3c007d44     7d44       10     1                 .Lanon.7bab87f248b46b90ee6f797e6daabfb3.299
3c007d54     7d54        5     1         /home/mabez/.rustup/toolchains/nightly-x86_64-unknown-linux-gnu/lib/rustlib/riscv32imac-unknown-none-elf/lib/libcore-081fd8405fc18f2e.rlib(core-081fd8405fc18f2e.core.364d98f8-cgu.0.rcgu.o):(.rodata..Lanon.7bab87f248b46b90ee6f797e6daabfb3.320)
3c007d54     7d54        5     1                 .Lanon.7bab87f248b46b90ee6f797e6daabfb3.320
3c007d59     7d59        b     1         /home/mabez/.rustup/toolchains/nightly-x86_64-unknown-linux-gnu/lib/rustlib/riscv32imac-unknown-none-elf/lib/libcore-081fd8405fc18f2e.rlib(core-081fd8405fc18f2e.core.364d98f8-cgu.0.rcgu.o):(.rodata..Lanon.7bab87f248b46b90ee6f797e6daabfb3.321)
3c007d59     7d59        b     1                 .Lanon.7bab87f248b46b90ee6f797e6daabfb3.321
3c007d64     7d64       16     1         /home/mabez/.rustup/toolchains/nightly-x86_64-unknown-linux-gnu/lib/rustlib/riscv32imac-unknown-none-elf/lib/libcore-081fd8405fc18f2e.rlib(core-081fd8405fc18f2e.core.364d98f8-cgu.0.rcgu.o):(.rodata..Lanon.7bab87f248b46b90ee6f797e6daabfb3.322)
3c007d64     7d64       16     1                 .Lanon.7bab87f248b46b90ee6f797e6daabfb3.322
3c007d7c     7d7c       18     4         /home/mabez/.rustup/toolchains/nightly-x86_64-unknown-linux-gnu/lib/rustlib/riscv32imac-unknown-none-elf/lib/libcore-081fd8405fc18f2e.rlib(core-081fd8405fc18f2e.core.364d98f8-cgu.0.rcgu.o):(.rodata..Lanon.7bab87f248b46b90ee6f797e6daabfb3.323)
3c007d7c     7d7c       18     1                 .Lanon.7bab87f248b46b90ee6f797e6daabfb3.323
3c007d94     7d94        e     1         /home/mabez/.rustup/toolchains/nightly-x86_64-unknown-linux-gnu/lib/rustlib/riscv32imac-unknown-none-elf/lib/libcore-081fd8405fc18f2e.rlib(core-081fd8405fc18f2e.core.364d98f8-cgu.0.rcgu.o):(.rodata..Lanon.7bab87f248b46b90ee6f797e6daabfb3.324)
3c007d94     7d94        e     1                 .Lanon.7bab87f248b46b90ee6f797e6daabfb3.324
3c007da4     7da4       20     4         /home/mabez/.rustup/toolchains/nightly-x86_64-unknown-linux-gnu/lib/rustlib/riscv32imac-unknown-none-elf/lib/libcore-081fd8405fc18f2e.rlib(core-081fd8405fc18f2e.core.364d98f8-cgu.0.rcgu.o):(.rodata..Lanon.7bab87f248b46b90ee6f797e6daabfb3.327)
3c007da4     7da4       20     1                 .Lanon.7bab87f248b46b90ee6f797e6daabfb3.327
3c007dc4     7dc4       26     1         /home/mabez/.rustup/toolchains/nightly-x86_64-unknown-linux-gnu/lib/rustlib/riscv32imac-unknown-none-elf/lib/libcore-081fd8405fc18f2e.rlib(core-081fd8405fc18f2e.core.364d98f8-cgu.0.rcgu.o):(.rodata..Lanon.7bab87f248b46b90ee6f797e6daabfb3.328)
3c007dc4     7dc4       26     1                 .Lanon.7bab87f248b46b90ee6f797e6daabfb3.328
3c007dea     7dea        6     1         /home/mabez/.rustup/toolchains/nightly-x86_64-unknown-linux-gnu/lib/rustlib/riscv32imac-unknown-none-elf/lib/libcore-081fd8405fc18f2e.rlib(core-081fd8405fc18f2e.core.364d98f8-cgu.0.rcgu.o):(.rodata..Lanon.7bab87f248b46b90ee6f797e6daabfb3.330)
3c007dea     7dea        6     1                 .Lanon.7bab87f248b46b90ee6f797e6daabfb3.330
3c007df0     7df0       28     4         /home/mabez/.rustup/toolchains/nightly-x86_64-unknown-linux-gnu/lib/rustlib/riscv32imac-unknown-none-elf/lib/libcore-081fd8405fc18f2e.rlib(core-081fd8405fc18f2e.core.364d98f8-cgu.0.rcgu.o):(.rodata..Lanon.7bab87f248b46b90ee6f797e6daabfb3.331)
3c007df0     7df0       28     1                 .Lanon.7bab87f248b46b90ee6f797e6daabfb3.331
3c007e18     7e18       25     1         /home/mabez/.rustup/toolchains/nightly-x86_64-unknown-linux-gnu/lib/rustlib/riscv32imac-unknown-none-elf/lib/libcore-081fd8405fc18f2e.rlib(core-081fd8405fc18f2e.core.364d98f8-cgu.0.rcgu.o):(.rodata..Lanon.7bab87f248b46b90ee6f797e6daabfb3.354)
3c007e18     7e18       25     1                 .Lanon.7bab87f248b46b90ee6f797e6daabfb3.354
3c007e40     7e40       10     4         /home/mabez/.rustup/toolchains/nightly-x86_64-unknown-linux-gnu/lib/rustlib/riscv32imac-unknown-none-elf/lib/libcore-081fd8405fc18f2e.rlib(core-081fd8405fc18f2e.core.364d98f8-cgu.0.rcgu.o):(.rodata..Lanon.7bab87f248b46b90ee6f797e6daabfb3.355)
3c007e40     7e40       10     1                 .Lanon.7bab87f248b46b90ee6f797e6daabfb3.355
3c007e50     7e50       10     4         /home/mabez/.rustup/toolchains/nightly-x86_64-unknown-linux-gnu/lib/rustlib/riscv32imac-unknown-none-elf/lib/libcore-081fd8405fc18f2e.rlib(core-081fd8405fc18f2e.core.364d98f8-cgu.0.rcgu.o):(.rodata..Lanon.7bab87f248b46b90ee6f797e6daabfb3.356)
3c007e50     7e50       10     1                 .Lanon.7bab87f248b46b90ee6f797e6daabfb3.356
3c007e60     7e60       50     1         /home/mabez/.rustup/toolchains/nightly-x86_64-unknown-linux-gnu/lib/rustlib/riscv32imac-unknown-none-elf/lib/libcore-081fd8405fc18f2e.rlib(core-081fd8405fc18f2e.core.364d98f8-cgu.0.rcgu.o):(.rodata..Lanon.7bab87f248b46b90ee6f797e6daabfb3.357)
3c007e60     7e60       50     1                 .Lanon.7bab87f248b46b90ee6f797e6daabfb3.357
3c007eb0     7eb0      120     1         /home/mabez/.rustup/toolchains/nightly-x86_64-unknown-linux-gnu/lib/rustlib/riscv32imac-unknown-none-elf/lib/libcore-081fd8405fc18f2e.rlib(core-081fd8405fc18f2e.core.364d98f8-cgu.0.rcgu.o):(.rodata..Lanon.7bab87f248b46b90ee6f797e6daabfb3.358)
3c007eb0     7eb0      120     1                 .Lanon.7bab87f248b46b90ee6f797e6daabfb3.358
3c007fd0     7fd0      12f     1         /home/mabez/.rustup/toolchains/nightly-x86_64-unknown-linux-gnu/lib/rustlib/riscv32imac-unknown-none-elf/lib/libcore-081fd8405fc18f2e.rlib(core-081fd8405fc18f2e.core.364d98f8-cgu.0.rcgu.o):(.rodata..Lanon.7bab87f248b46b90ee6f797e6daabfb3.359)
3c007fd0     7fd0      12f     1                 .Lanon.7bab87f248b46b90ee6f797e6daabfb3.359
3c0080ff     80ff       54     1         /home/mabez/.rustup/toolchains/nightly-x86_64-unknown-linux-gnu/lib/rustlib/riscv32imac-unknown-none-elf/lib/libcore-081fd8405fc18f2e.rlib(core-081fd8405fc18f2e.core.364d98f8-cgu.0.rcgu.o):(.rodata..Lanon.7bab87f248b46b90ee6f797e6daabfb3.360)
3c0080ff     80ff       54     1                 .Lanon.7bab87f248b46b90ee6f797e6daabfb3.360
3c008153     8153       c0     1         /home/mabez/.rustup/toolchains/nightly-x86_64-unknown-linux-gnu/lib/rustlib/riscv32imac-unknown-none-elf/lib/libcore-081fd8405fc18f2e.rlib(core-081fd8405fc18f2e.core.364d98f8-cgu.0.rcgu.o):(.rodata..Lanon.7bab87f248b46b90ee6f797e6daabfb3.361)
3c008153     8153       c0     1                 .Lanon.7bab87f248b46b90ee6f797e6daabfb3.361
3c008213     8213      1b6     1         /home/mabez/.rustup/toolchains/nightly-x86_64-unknown-linux-gnu/lib/rustlib/riscv32imac-unknown-none-elf/lib/libcore-081fd8405fc18f2e.rlib(core-081fd8405fc18f2e.core.364d98f8-cgu.0.rcgu.o):(.rodata..Lanon.7bab87f248b46b90ee6f797e6daabfb3.362)
3c008213     8213      1b6     1                 .Lanon.7bab87f248b46b90ee6f797e6daabfb3.362
3c0083c9     83c9       28     1         /home/mabez/.rustup/toolchains/nightly-x86_64-unknown-linux-gnu/lib/rustlib/riscv32imac-unknown-none-elf/lib/libcore-081fd8405fc18f2e.rlib(core-081fd8405fc18f2e.core.364d98f8-cgu.0.rcgu.o):(.rodata..Lanon.7bab87f248b46b90ee6f797e6daabfb3.363)
3c0083c9     83c9       28     1                 .Lanon.7bab87f248b46b90ee6f797e6daabfb3.363
3c0083f4     83f4       10     4         /home/mabez/.rustup/toolchains/nightly-x86_64-unknown-linux-gnu/lib/rustlib/riscv32imac-unknown-none-elf/lib/libcore-081fd8405fc18f2e.rlib(core-081fd8405fc18f2e.core.364d98f8-cgu.0.rcgu.o):(.rodata..Lanon.7bab87f248b46b90ee6f797e6daabfb3.367)
3c0083f4     83f4       10     1                 .Lanon.7bab87f248b46b90ee6f797e6daabfb3.367
3c008404     8404       10     4         /home/mabez/.rustup/toolchains/nightly-x86_64-unknown-linux-gnu/lib/rustlib/riscv32imac-unknown-none-elf/lib/libcore-081fd8405fc18f2e.rlib(core-081fd8405fc18f2e.core.364d98f8-cgu.0.rcgu.o):(.rodata..Lanon.7bab87f248b46b90ee6f797e6daabfb3.368)
3c008404     8404       10     1                 .Lanon.7bab87f248b46b90ee6f797e6daabfb3.368
3c008414     8414       10     4         /home/mabez/.rustup/toolchains/nightly-x86_64-unknown-linux-gnu/lib/rustlib/riscv32imac-unknown-none-elf/lib/libcore-081fd8405fc18f2e.rlib(core-081fd8405fc18f2e.core.364d98f8-cgu.0.rcgu.o):(.rodata..Lanon.7bab87f248b46b90ee6f797e6daabfb3.369)
3c008414     8414       10     1                 .Lanon.7bab87f248b46b90ee6f797e6daabfb3.369
3c008424     8424       10     4         /home/mabez/.rustup/toolchains/nightly-x86_64-unknown-linux-gnu/lib/rustlib/riscv32imac-unknown-none-elf/lib/libcore-081fd8405fc18f2e.rlib(core-081fd8405fc18f2e.core.364d98f8-cgu.0.rcgu.o):(.rodata..Lanon.7bab87f248b46b90ee6f797e6daabfb3.506)
3c008424     8424       10     1                 .Lanon.7bab87f248b46b90ee6f797e6daabfb3.506
3c008434     8434       10     4         /home/mabez/.rustup/toolchains/nightly-x86_64-unknown-linux-gnu/lib/rustlib/riscv32imac-unknown-none-elf/lib/libcore-081fd8405fc18f2e.rlib(core-081fd8405fc18f2e.core.364d98f8-cgu.0.rcgu.o):(.rodata..Lanon.7bab87f248b46b90ee6f797e6daabfb3.517)
3c008434     8434       10     1                 .Lanon.7bab87f248b46b90ee6f797e6daabfb3.517
3c008444     8444       10     4         /home/mabez/.rustup/toolchains/nightly-x86_64-unknown-linux-gnu/lib/rustlib/riscv32imac-unknown-none-elf/lib/libcore-081fd8405fc18f2e.rlib(core-081fd8405fc18f2e.core.364d98f8-cgu.0.rcgu.o):(.rodata..Lanon.7bab87f248b46b90ee6f797e6daabfb3.519)
3c008444     8444       10     1                 .Lanon.7bab87f248b46b90ee6f797e6daabfb3.519
3c008454     8454        3     1         /home/mabez/.rustup/toolchains/nightly-x86_64-unknown-linux-gnu/lib/rustlib/riscv32imac-unknown-none-elf/lib/libcore-081fd8405fc18f2e.rlib(core-081fd8405fc18f2e.core.364d98f8-cgu.0.rcgu.o):(.rodata..Lanon.7bab87f248b46b90ee6f797e6daabfb3.520)
3c008454     8454        3     1                 .Lanon.7bab87f248b46b90ee6f797e6daabfb3.520
3c008457     8457        9     1         /home/mabez/.rustup/toolchains/nightly-x86_64-unknown-linux-gnu/lib/rustlib/riscv32imac-unknown-none-elf/lib/libcore-081fd8405fc18f2e.rlib(core-081fd8405fc18f2e.core.364d98f8-cgu.0.rcgu.o):(.rodata..Lanon.7bab87f248b46b90ee6f797e6daabfb3.521)
3c008457     8457        9     1                 .Lanon.7bab87f248b46b90ee6f797e6daabfb3.521
3c008460     8460        7     1         /home/mabez/.rustup/toolchains/nightly-x86_64-unknown-linux-gnu/lib/rustlib/riscv32imac-unknown-none-elf/lib/libcore-081fd8405fc18f2e.rlib(core-081fd8405fc18f2e.core.364d98f8-cgu.0.rcgu.o):(.rodata..Lanon.7bab87f248b46b90ee6f797e6daabfb3.522)
3c008460     8460        7     1                 .Lanon.7bab87f248b46b90ee6f797e6daabfb3.522
3c008468     8468       10     4         /home/mabez/.rustup/toolchains/nightly-x86_64-unknown-linux-gnu/lib/rustlib/riscv32imac-unknown-none-elf/lib/libcore-081fd8405fc18f2e.rlib(core-081fd8405fc18f2e.core.364d98f8-cgu.0.rcgu.o):(.rodata..Lanon.7bab87f248b46b90ee6f797e6daabfb3.523)
3c008468     8468       10     1                 .Lanon.7bab87f248b46b90ee6f797e6daabfb3.523
3c008478     8478        7     1         /home/mabez/.rustup/toolchains/nightly-x86_64-unknown-linux-gnu/lib/rustlib/riscv32imac-unknown-none-elf/lib/libcore-081fd8405fc18f2e.rlib(core-081fd8405fc18f2e.core.364d98f8-cgu.0.rcgu.o):(.rodata..Lanon.7bab87f248b46b90ee6f797e6daabfb3.524)
3c008478     8478        7     1                 .Lanon.7bab87f248b46b90ee6f797e6daabfb3.524
3c008480     8480       10     4         /home/mabez/.rustup/toolchains/nightly-x86_64-unknown-linux-gnu/lib/rustlib/riscv32imac-unknown-none-elf/lib/libcore-081fd8405fc18f2e.rlib(core-081fd8405fc18f2e.core.364d98f8-cgu.0.rcgu.o):(.rodata..Lanon.7bab87f248b46b90ee6f797e6daabfb3.525)
3c008480     8480       10     1                 .Lanon.7bab87f248b46b90ee6f797e6daabfb3.525
3c008490     8490       10     4         /home/mabez/.rustup/toolchains/nightly-x86_64-unknown-linux-gnu/lib/rustlib/riscv32imac-unknown-none-elf/lib/libcore-081fd8405fc18f2e.rlib(core-081fd8405fc18f2e.core.364d98f8-cgu.0.rcgu.o):(.rodata..Lanon.7bab87f248b46b90ee6f797e6daabfb3.527)
3c008490     8490       10     1                 .Lanon.7bab87f248b46b90ee6f797e6daabfb3.527
3c0084a0     84a0        5     1         /home/mabez/.rustup/toolchains/nightly-x86_64-unknown-linux-gnu/lib/rustlib/riscv32imac-unknown-none-elf/lib/libcore-081fd8405fc18f2e.rlib(core-081fd8405fc18f2e.core.364d98f8-cgu.0.rcgu.o):(.rodata..Lanon.7bab87f248b46b90ee6f797e6daabfb3.547)
3c0084a0     84a0        5     1                 .Lanon.7bab87f248b46b90ee6f797e6daabfb3.547
3c0084a8     84a8       80     4         /home/mabez/.rustup/toolchains/nightly-x86_64-unknown-linux-gnu/lib/rustlib/riscv32imac-unknown-none-elf/lib/libcore-081fd8405fc18f2e.rlib(core-081fd8405fc18f2e.core.364d98f8-cgu.0.rcgu.o):(.rodata._ZN4core7unicode12unicode_data15grapheme_extend17SHORT_OFFSET_RUNS17h45145de716b9de6dE)
3c0084a8     84a8       80     1                 core::unicode::unicode_data::grapheme_extend::SHORT_OFFSET_RUNS::h45145de716b9de6d
3c008528     8528      2c3     1         /home/mabez/.rustup/toolchains/nightly-x86_64-unknown-linux-gnu/lib/rustlib/riscv32imac-unknown-none-elf/lib/libcore-081fd8405fc18f2e.rlib(core-081fd8405fc18f2e.core.364d98f8-cgu.0.rcgu.o):(.rodata._ZN4core7unicode12unicode_data15grapheme_extend7OFFSETS17hf06473dc9707018aE)
3c008528     8528      2c3     1                 core::unicode::unicode_data::grapheme_extend::OFFSETS::hf06473dc9707018a
3c0087ec     87ec       30     4         /home/mabez/development/rust/embedded/experiments/esp32c3/target/riscv32imac-unknown-none-elf/debug/deps/libriscv_rt-9f6ededa1f4c9759.rlib(riscv_rt-9f6ededa1f4c9759.riscv_rt.da5378fb-cgu.3.rcgu.o):(.rodata.__INTERRUPTS)
3c0087ec     87ec       30     1                 __INTERRUPTS
3c00881c     881c       74     4         /home/mabez/development/rust/embedded/experiments/esp32c3/target/riscv32imac-unknown-none-elf/debug/deps/libriscv_atomic_emulation_trap-fab535a27fe2d765.rlib(riscv_atomic_emulation_trap-fab535a27fe2d765.riscv_atomic_emulation_trap.b3d57533-cgu.0.rcgu.o):(.rodata._ZN27riscv_atomic_emulation_trap16atomic_emulation17h380e954925bdb3abE)
3c00881c     881c        0     1                 .LJTI2_0
3c008890     8890       68     1         /home/mabez/development/rust/embedded/experiments/esp32c3/target/riscv32imac-unknown-none-elf/debug/deps/libriscv_atomic_emulation_trap-fab535a27fe2d765.rlib(riscv_atomic_emulation_trap-fab535a27fe2d765.riscv_atomic_emulation_trap.b3d57533-cgu.0.rcgu.o):(.rodata..L__unnamed_55)
3c008890     8890       68     1                 .L__unnamed_55
3c0088f8     88f8       10     4         /home/mabez/development/rust/embedded/experiments/esp32c3/target/riscv32imac-unknown-none-elf/debug/deps/libriscv_atomic_emulation_trap-fab535a27fe2d765.rlib(riscv_atomic_emulation_trap-fab535a27fe2d765.riscv_atomic_emulation_trap.b3d57533-cgu.0.rcgu.o):(.rodata..L__unnamed_2)
3c0088f8     88f8       10     1                 .L__unnamed_2
3c008910     8910       19    16         /home/mabez/development/rust/embedded/experiments/esp32c3/target/riscv32imac-unknown-none-elf/debug/deps/libriscv_atomic_emulation_trap-fab535a27fe2d765.rlib(riscv_atomic_emulation_trap-fab535a27fe2d765.riscv_atomic_emulation_trap.b3d57533-cgu.0.rcgu.o):(.rodata.str.0)
3c008910     8910       19     1                 str.0
3c00892c     892c       10     4         /home/mabez/development/rust/embedded/experiments/esp32c3/target/riscv32imac-unknown-none-elf/debug/deps/libriscv_atomic_emulation_trap-fab535a27fe2d765.rlib(riscv_atomic_emulation_trap-fab535a27fe2d765.riscv_atomic_emulation_trap.b3d57533-cgu.0.rcgu.o):(.rodata..L__unnamed_3)
3c00892c     892c       10     1                 .L__unnamed_3
3c00893c     893c        0     1         /home/mabez/development/rust/embedded/experiments/esp32c3/target/riscv32imac-unknown-none-elf/debug/deps/libriscv_atomic_emulation_trap-fab535a27fe2d765.rlib(riscv_atomic_emulation_trap-fab535a27fe2d765.riscv_atomic_emulation_trap.b3d57533-cgu.0.rcgu.o):(.rodata..L__unnamed_4)
3c00893c     893c        0     1                 .L__unnamed_4
3c00893c     893c       10     4         /home/mabez/development/rust/embedded/experiments/esp32c3/target/riscv32imac-unknown-none-elf/debug/deps/libriscv_atomic_emulation_trap-fab535a27fe2d765.rlib(riscv_atomic_emulation_trap-fab535a27fe2d765.riscv_atomic_emulation_trap.b3d57533-cgu.0.rcgu.o):(.rodata..L__unnamed_5)
3c00893c     893c       10     1                 .L__unnamed_5
3c00894c     894c       10     4         /home/mabez/development/rust/embedded/experiments/esp32c3/target/riscv32imac-unknown-none-elf/debug/deps/libriscv_atomic_emulation_trap-fab535a27fe2d765.rlib(riscv_atomic_emulation_trap-fab535a27fe2d765.riscv_atomic_emulation_trap.b3d57533-cgu.0.rcgu.o):(.rodata..L__unnamed_6)
3c00894c     894c       10     1                 .L__unnamed_6
3c00895c     895c       10     4         /home/mabez/development/rust/embedded/experiments/esp32c3/target/riscv32imac-unknown-none-elf/debug/deps/libriscv_atomic_emulation_trap-fab535a27fe2d765.rlib(riscv_atomic_emulation_trap-fab535a27fe2d765.riscv_atomic_emulation_trap.b3d57533-cgu.0.rcgu.o):(.rodata..L__unnamed_7)
3c00895c     895c       10     1                 .L__unnamed_7
3c00896c     896c       10     4         /home/mabez/development/rust/embedded/experiments/esp32c3/target/riscv32imac-unknown-none-elf/debug/deps/libriscv_atomic_emulation_trap-fab535a27fe2d765.rlib(riscv_atomic_emulation_trap-fab535a27fe2d765.riscv_atomic_emulation_trap.b3d57533-cgu.0.rcgu.o):(.rodata..L__unnamed_8)
3c00896c     896c       10     1                 .L__unnamed_8
3c00897c     897c       10     4         /home/mabez/development/rust/embedded/experiments/esp32c3/target/riscv32imac-unknown-none-elf/debug/deps/libriscv_atomic_emulation_trap-fab535a27fe2d765.rlib(riscv_atomic_emulation_trap-fab535a27fe2d765.riscv_atomic_emulation_trap.b3d57533-cgu.0.rcgu.o):(.rodata..L__unnamed_9)
3c00897c     897c       10     1                 .L__unnamed_9
3c00898c     898c       10     4         /home/mabez/development/rust/embedded/experiments/esp32c3/target/riscv32imac-unknown-none-elf/debug/deps/libriscv_atomic_emulation_trap-fab535a27fe2d765.rlib(riscv_atomic_emulation_trap-fab535a27fe2d765.riscv_atomic_emulation_trap.b3d57533-cgu.0.rcgu.o):(.rodata..L__unnamed_10)
3c00898c     898c       10     1                 .L__unnamed_10
3c00899c     899c       10     4         /home/mabez/development/rust/embedded/experiments/esp32c3/target/riscv32imac-unknown-none-elf/debug/deps/libriscv_atomic_emulation_trap-fab535a27fe2d765.rlib(riscv_atomic_emulation_trap-fab535a27fe2d765.riscv_atomic_emulation_trap.b3d57533-cgu.0.rcgu.o):(.rodata..L__unnamed_11)
3c00899c     899c       10     1                 .L__unnamed_11
3c0089ac     89ac       10     4         /home/mabez/development/rust/embedded/experiments/esp32c3/target/riscv32imac-unknown-none-elf/debug/deps/libriscv_atomic_emulation_trap-fab535a27fe2d765.rlib(riscv_atomic_emulation_trap-fab535a27fe2d765.riscv_atomic_emulation_trap.b3d57533-cgu.0.rcgu.o):(.rodata..L__unnamed_12)
3c0089ac     89ac       10     1                 .L__unnamed_12
3c0089bc     89bc       10     4         /home/mabez/development/rust/embedded/experiments/esp32c3/target/riscv32imac-unknown-none-elf/debug/deps/libriscv_atomic_emulation_trap-fab535a27fe2d765.rlib(riscv_atomic_emulation_trap-fab535a27fe2d765.riscv_atomic_emulation_trap.b3d57533-cgu.0.rcgu.o):(.rodata..L__unnamed_13)
3c0089bc     89bc       10     1                 .L__unnamed_13
3c0089cc     89cc       10     4         /home/mabez/development/rust/embedded/experiments/esp32c3/target/riscv32imac-unknown-none-elf/debug/deps/libriscv_atomic_emulation_trap-fab535a27fe2d765.rlib(riscv_atomic_emulation_trap-fab535a27fe2d765.riscv_atomic_emulation_trap.b3d57533-cgu.0.rcgu.o):(.rodata..L__unnamed_14)
3c0089cc     89cc       10     1                 .L__unnamed_14
3c0089dc     89dc       10     4         /home/mabez/development/rust/embedded/experiments/esp32c3/target/riscv32imac-unknown-none-elf/debug/deps/libriscv_atomic_emulation_trap-fab535a27fe2d765.rlib(riscv_atomic_emulation_trap-fab535a27fe2d765.riscv_atomic_emulation_trap.b3d57533-cgu.0.rcgu.o):(.rodata..L__unnamed_15)
3c0089dc     89dc       10     1                 .L__unnamed_15
3c0089ec     89ec       10     4         /home/mabez/development/rust/embedded/experiments/esp32c3/target/riscv32imac-unknown-none-elf/debug/deps/libriscv_atomic_emulation_trap-fab535a27fe2d765.rlib(riscv_atomic_emulation_trap-fab535a27fe2d765.riscv_atomic_emulation_trap.b3d57533-cgu.0.rcgu.o):(.rodata..L__unnamed_16)
3c0089ec     89ec       10     1                 .L__unnamed_16
3c0089fc     89fc       10     4         /home/mabez/development/rust/embedded/experiments/esp32c3/target/riscv32imac-unknown-none-elf/debug/deps/libriscv_atomic_emulation_trap-fab535a27fe2d765.rlib(riscv_atomic_emulation_trap-fab535a27fe2d765.riscv_atomic_emulation_trap.b3d57533-cgu.0.rcgu.o):(.rodata..L__unnamed_17)
3c0089fc     89fc       10     1                 .L__unnamed_17
3c008a0c     8a0c       10     4         /home/mabez/development/rust/embedded/experiments/esp32c3/target/riscv32imac-unknown-none-elf/debug/deps/libriscv_atomic_emulation_trap-fab535a27fe2d765.rlib(riscv_atomic_emulation_trap-fab535a27fe2d765.riscv_atomic_emulation_trap.b3d57533-cgu.0.rcgu.o):(.rodata..L__unnamed_18)
3c008a0c     8a0c       10     1                 .L__unnamed_18
3c008a1c     8a1c       10     4         /home/mabez/development/rust/embedded/experiments/esp32c3/target/riscv32imac-unknown-none-elf/debug/deps/libriscv_atomic_emulation_trap-fab535a27fe2d765.rlib(riscv_atomic_emulation_trap-fab535a27fe2d765.riscv_atomic_emulation_trap.b3d57533-cgu.0.rcgu.o):(.rodata..L__unnamed_19)
3c008a1c     8a1c       10     1                 .L__unnamed_19
3c008a30     8a30       1c    16         /home/mabez/development/rust/embedded/experiments/esp32c3/target/riscv32imac-unknown-none-elf/debug/deps/libriscv_atomic_emulation_trap-fab535a27fe2d765.rlib(riscv_atomic_emulation_trap-fab535a27fe2d765.riscv_atomic_emulation_trap.b3d57533-cgu.0.rcgu.o):(.rodata.str.1)
3c008a30     8a30       1c     1                 str.1
3c008a4c     8a4c       10     4         /home/mabez/development/rust/embedded/experiments/esp32c3/target/riscv32imac-unknown-none-elf/debug/deps/libriscv_atomic_emulation_trap-fab535a27fe2d765.rlib(riscv_atomic_emulation_trap-fab535a27fe2d765.riscv_atomic_emulation_trap.b3d57533-cgu.0.rcgu.o):(.rodata..L__unnamed_20)
3c008a4c     8a4c       10     1                 .L__unnamed_20
3c008a5c     8a5c       10     4         /home/mabez/development/rust/embedded/experiments/esp32c3/target/riscv32imac-unknown-none-elf/debug/deps/libriscv_atomic_emulation_trap-fab535a27fe2d765.rlib(riscv_atomic_emulation_trap-fab535a27fe2d765.riscv_atomic_emulation_trap.b3d57533-cgu.0.rcgu.o):(.rodata..L__unnamed_54)
3c008a5c     8a5c       10     1                 .L__unnamed_54
3c008a6c     8a6c       30     4         /home/mabez/development/rust/embedded/experiments/esp32c3/target/riscv32imac-unknown-none-elf/debug/deps/libriscv-2df4d94086d6ad3d.rlib(riscv-2df4d94086d6ad3d.riscv.9f9f37cf-cgu.0.rcgu.o):(.rodata._ZN5riscv8register6mcause9Interrupt4from17h6d2b866b57c49923E)
3c008a6c     8a6c        0     1                 .LJTI0_0
3c008a9c     8a9c       40     4         /home/mabez/development/rust/embedded/experiments/esp32c3/target/riscv32imac-unknown-none-elf/debug/deps/libriscv-2df4d94086d6ad3d.rlib(riscv-2df4d94086d6ad3d.riscv.9f9f37cf-cgu.0.rcgu.o):(.rodata._ZN5riscv8register6mcause9Exception4from17h91f881faf928c9cdE)
3c008a9c     8a9c        0     1                 .LJTI1_0
3c008adc     8adc        0     1         . = ALIGN ( 4 )
3c008adc     8adc        0     1         _erodata = .
3c008adc     8adc        0     1 _rodata_size = _erodata - _srodata + 8
3fc80000 3fc80000        0     1 .data
3fc80000 3fc80000        0     1         _sidata = LOADADDR ( .data )
3fc80000 3fc80000        0     1         _sdata = .
3fc80000 3fc80000        0     1         PROVIDE ( __global_pointer$ = . + 0x800 )
3fc80000 3fc80000        0     1         . = ALIGN ( 4 )
3fc80000 3fc80000        0     1         _edata = .
3fc80000     8ae4      440     4 .bss
3fc80000     8ae4        0     1         _sbss = .
3fc80000     8ae4       30     4         /home/mabez/development/rust/embedded/experiments/esp32c3/target/riscv32imac-unknown-none-elf/debug/deps/esp32c3-6c8eecfb34724107.3dax6gsnt3idpsze.rcgu.o:(.bss._SEGGER_RTT)
3fc80000     8ae4       30     1                 _SEGGER_RTT
3fc80030     8b14      400     1         /home/mabez/development/rust/embedded/experiments/esp32c3/target/riscv32imac-unknown-none-elf/debug/deps/esp32c3-6c8eecfb34724107.3dax6gsnt3idpsze.rcgu.o:(.bss._ZN7esp32c316qvi4c0bjf0a0y1g719_RTT_CHANNEL_BUFFER17h596be963843d0cc3E)
3fc80030     8b14      400     1                 esp32c3::qvi4c0bjf0a0y1g7::_RTT_CHANNEL_BUFFER::h596be963843d0cc3
3fc80430     8f14        c     4         /home/mabez/development/rust/embedded/experiments/esp32c3/target/riscv32imac-unknown-none-elf/debug/deps/librtt_target-ba817fabe6541e78.rlib(rtt_target-ba817fabe6541e78.rtt_target.a5746e51-cgu.12.rcgu.o):(.sbss)
3fc80430     8f14        4     1                 rtt_target::print::CRITICAL_SECTION::h29b0f8969bda4457
3fc80434     8f18        8     1                 rtt_target::print::PRINT_TERMINAL::h77eb442d11fb1f73
3fc8043c     8f20        4     4         /home/mabez/development/rust/embedded/experiments/esp32c3/target/riscv32imac-unknown-none-elf/debug/deps/libriscv_atomic_emulation_trap-fab535a27fe2d765.rlib(riscv_atomic_emulation_trap-fab535a27fe2d765.riscv_atomic_emulation_trap.b3d57533-cgu.0.rcgu.o):(.sbss)
3fc8043c     8f20        4     1                 riscv_atomic_emulation_trap::atomic_emulation::S_LR_ADDR::h313d48c19159659a
3fc80440     8f24        0     1         . = ALIGN ( 4 )
3fc80440     8f24        0     1         _ebss = .
3fc80440     8f24        0     1 .heap
3fc80440     8f24        0     1         _sheap = .
3fc80440     8f24        0     1         . += _heap_size
3fc80440     8f24        0     1         . = ALIGN ( 4 )
3fc80440     8f24        0     1         _eheap = .
3fc80440     8f24    4fbc0     1 .stack
3fc80440     8f24        0     1         _estack = .
3fc80440     8f24    4fbc0     1         . = ABSOLUTE ( _stack_start )
3fcd0000    58ae4        0     1         _sstack = .
       0        0      5a4     4 .eh_frame
       0        0       3c     1         /home/mabez/.rustup/toolchains/nightly-x86_64-unknown-linux-gnu/lib/rustlib/riscv32imac-unknown-none-elf/lib/libcore-081fd8405fc18f2e.rlib(core-081fd8405fc18f2e.core.364d98f8-cgu.0.rcgu.o):(.eh_frame+0x0)
      3c       3c       30     1         /home/mabez/.rustup/toolchains/nightly-x86_64-unknown-linux-gnu/lib/rustlib/riscv32imac-unknown-none-elf/lib/libcore-081fd8405fc18f2e.rlib(core-081fd8405fc18f2e.core.364d98f8-cgu.0.rcgu.o):(.eh_frame+0x754)
      6c       6c       1c     1         /home/mabez/.rustup/toolchains/nightly-x86_64-unknown-linux-gnu/lib/rustlib/riscv32imac-unknown-none-elf/lib/libcore-081fd8405fc18f2e.rlib(core-081fd8405fc18f2e.core.364d98f8-cgu.0.rcgu.o):(.eh_frame+0x92c)
      88       88       18     1         /home/mabez/.rustup/toolchains/nightly-x86_64-unknown-linux-gnu/lib/rustlib/riscv32imac-unknown-none-elf/lib/libcore-081fd8405fc18f2e.rlib(core-081fd8405fc18f2e.core.364d98f8-cgu.0.rcgu.o):(.eh_frame+0xc44)
      a0       a0       30     1         /home/mabez/.rustup/toolchains/nightly-x86_64-unknown-linux-gnu/lib/rustlib/riscv32imac-unknown-none-elf/lib/libcore-081fd8405fc18f2e.rlib(core-081fd8405fc18f2e.core.364d98f8-cgu.0.rcgu.o):(.eh_frame+0xc8c)
      d0       d0       18     1         /home/mabez/.rustup/toolchains/nightly-x86_64-unknown-linux-gnu/lib/rustlib/riscv32imac-unknown-none-elf/lib/libcore-081fd8405fc18f2e.rlib(core-081fd8405fc18f2e.core.364d98f8-cgu.0.rcgu.o):(.eh_frame+0xd18)
      e8       e8       58     1         /home/mabez/.rustup/toolchains/nightly-x86_64-unknown-linux-gnu/lib/rustlib/riscv32imac-unknown-none-elf/lib/libcore-081fd8405fc18f2e.rlib(core-081fd8405fc18f2e.core.364d98f8-cgu.0.rcgu.o):(.eh_frame+0xd44)
     140      140       24     1         /home/mabez/.rustup/toolchains/nightly-x86_64-unknown-linux-gnu/lib/rustlib/riscv32imac-unknown-none-elf/lib/libcore-081fd8405fc18f2e.rlib(core-081fd8405fc18f2e.core.364d98f8-cgu.0.rcgu.o):(.eh_frame+0xdd8)
     164      164       74     1         /home/mabez/.rustup/toolchains/nightly-x86_64-unknown-linux-gnu/lib/rustlib/riscv32imac-unknown-none-elf/lib/libcore-081fd8405fc18f2e.rlib(core-081fd8405fc18f2e.core.364d98f8-cgu.0.rcgu.o):(.eh_frame+0x10a0)
     1d8      1d8       a0     1         /home/mabez/.rustup/toolchains/nightly-x86_64-unknown-linux-gnu/lib/rustlib/riscv32imac-unknown-none-elf/lib/libcore-081fd8405fc18f2e.rlib(core-081fd8405fc18f2e.core.364d98f8-cgu.0.rcgu.o):(.eh_frame+0x116c)
     278      278       28     1         /home/mabez/.rustup/toolchains/nightly-x86_64-unknown-linux-gnu/lib/rustlib/riscv32imac-unknown-none-elf/lib/libcore-081fd8405fc18f2e.rlib(core-081fd8405fc18f2e.core.364d98f8-cgu.0.rcgu.o):(.eh_frame+0x1348)
     2a0      2a0       70     1         /home/mabez/.rustup/toolchains/nightly-x86_64-unknown-linux-gnu/lib/rustlib/riscv32imac-unknown-none-elf/lib/libcore-081fd8405fc18f2e.rlib(core-081fd8405fc18f2e.core.364d98f8-cgu.0.rcgu.o):(.eh_frame+0x1464)
     310      310       48     1         /home/mabez/.rustup/toolchains/nightly-x86_64-unknown-linux-gnu/lib/rustlib/riscv32imac-unknown-none-elf/lib/libcore-081fd8405fc18f2e.rlib(core-081fd8405fc18f2e.core.364d98f8-cgu.0.rcgu.o):(.eh_frame+0x1638)
     358      358       18     1         /home/mabez/.rustup/toolchains/nightly-x86_64-unknown-linux-gnu/lib/rustlib/riscv32imac-unknown-none-elf/lib/libcore-081fd8405fc18f2e.rlib(core-081fd8405fc18f2e.core.364d98f8-cgu.0.rcgu.o):(.eh_frame+0x1934)
     370      370       18     1         /home/mabez/.rustup/toolchains/nightly-x86_64-unknown-linux-gnu/lib/rustlib/riscv32imac-unknown-none-elf/lib/libcore-081fd8405fc18f2e.rlib(core-081fd8405fc18f2e.core.364d98f8-cgu.0.rcgu.o):(.eh_frame+0x1b48)
     388      388       40     1         /home/mabez/.rustup/toolchains/nightly-x86_64-unknown-linux-gnu/lib/rustlib/riscv32imac-unknown-none-elf/lib/libcore-081fd8405fc18f2e.rlib(core-081fd8405fc18f2e.core.364d98f8-cgu.0.rcgu.o):(.eh_frame+0x289c)
     3c8      3c8       30     1         /home/mabez/.rustup/toolchains/nightly-x86_64-unknown-linux-gnu/lib/rustlib/riscv32imac-unknown-none-elf/lib/libcore-081fd8405fc18f2e.rlib(core-081fd8405fc18f2e.core.364d98f8-cgu.0.rcgu.o):(.eh_frame+0x2f80)
     3f8      3f8       4c     1         /home/mabez/.rustup/toolchains/nightly-x86_64-unknown-linux-gnu/lib/rustlib/riscv32imac-unknown-none-elf/lib/libcore-081fd8405fc18f2e.rlib(core-081fd8405fc18f2e.core.364d98f8-cgu.0.rcgu.o):(.eh_frame+0x30e8)
     444      444       28     1         /home/mabez/.rustup/toolchains/nightly-x86_64-unknown-linux-gnu/lib/rustlib/riscv32imac-unknown-none-elf/lib/libcore-081fd8405fc18f2e.rlib(core-081fd8405fc18f2e.core.364d98f8-cgu.0.rcgu.o):(.eh_frame+0x3184)
     46c      46c       14     1         /home/mabez/.rustup/toolchains/nightly-x86_64-unknown-linux-gnu/lib/rustlib/riscv32imac-unknown-none-elf/lib/libcore-081fd8405fc18f2e.rlib(core-081fd8405fc18f2e.core.364d98f8-cgu.0.rcgu.o):(.eh_frame+0x3424)
     480      480       14     1         /home/mabez/.rustup/toolchains/nightly-x86_64-unknown-linux-gnu/lib/rustlib/riscv32imac-unknown-none-elf/lib/libcore-081fd8405fc18f2e.rlib(core-081fd8405fc18f2e.core.364d98f8-cgu.0.rcgu.o):(.eh_frame+0x34c4)
     494      494       1c     1         /home/mabez/.rustup/toolchains/nightly-x86_64-unknown-linux-gnu/lib/rustlib/riscv32imac-unknown-none-elf/lib/libcore-081fd8405fc18f2e.rlib(core-081fd8405fc18f2e.core.364d98f8-cgu.0.rcgu.o):(.eh_frame+0x369c)
     4b0      4b0       14     1         /home/mabez/.rustup/toolchains/nightly-x86_64-unknown-linux-gnu/lib/rustlib/riscv32imac-unknown-none-elf/lib/libcore-081fd8405fc18f2e.rlib(core-081fd8405fc18f2e.core.364d98f8-cgu.0.rcgu.o):(.eh_frame+0x37dc)
     4c4      4c4       14     1         /home/mabez/.rustup/toolchains/nightly-x86_64-unknown-linux-gnu/lib/rustlib/riscv32imac-unknown-none-elf/lib/libcore-081fd8405fc18f2e.rlib(core-081fd8405fc18f2e.core.364d98f8-cgu.0.rcgu.o):(.eh_frame+0x38b8)
     4d8      4d8       1c     1         /home/mabez/.rustup/toolchains/nightly-x86_64-unknown-linux-gnu/lib/rustlib/riscv32imac-unknown-none-elf/lib/libcore-081fd8405fc18f2e.rlib(core-081fd8405fc18f2e.core.364d98f8-cgu.0.rcgu.o):(.eh_frame+0x39a0)
     4f4      4f4       14     1         /home/mabez/.rustup/toolchains/nightly-x86_64-unknown-linux-gnu/lib/rustlib/riscv32imac-unknown-none-elf/lib/libcore-081fd8405fc18f2e.rlib(core-081fd8405fc18f2e.core.364d98f8-cgu.0.rcgu.o):(.eh_frame+0x3a40)
     508      508       18     1         /home/mabez/.rustup/toolchains/nightly-x86_64-unknown-linux-gnu/lib/rustlib/riscv32imac-unknown-none-elf/lib/libcore-081fd8405fc18f2e.rlib(core-081fd8405fc18f2e.core.364d98f8-cgu.0.rcgu.o):(.eh_frame+0x3b98)
     520      520       14     1         /home/mabez/.rustup/toolchains/nightly-x86_64-unknown-linux-gnu/lib/rustlib/riscv32imac-unknown-none-elf/lib/libcore-081fd8405fc18f2e.rlib(core-081fd8405fc18f2e.core.364d98f8-cgu.0.rcgu.o):(.eh_frame+0x3c7c)
     534      534       18     1         /home/mabez/.rustup/toolchains/nightly-x86_64-unknown-linux-gnu/lib/rustlib/riscv32imac-unknown-none-elf/lib/libcore-081fd8405fc18f2e.rlib(core-081fd8405fc18f2e.core.364d98f8-cgu.0.rcgu.o):(.eh_frame+0x40f4)
     54c      54c       14     1         /home/mabez/.rustup/toolchains/nightly-x86_64-unknown-linux-gnu/lib/rustlib/riscv32imac-unknown-none-elf/lib/libcompiler_builtins-64fdae85a7f05972.rlib(compiler_builtins-64fdae85a7f05972.compiler_builtins.ce5182a1-cgu.121.rcgu.o):(.eh_frame+0x14)
     560      560       14     1         /home/mabez/.rustup/toolchains/nightly-x86_64-unknown-linux-gnu/lib/rustlib/riscv32imac-unknown-none-elf/lib/libcompiler_builtins-64fdae85a7f05972.rlib(compiler_builtins-64fdae85a7f05972.compiler_builtins.ce5182a1-cgu.121.rcgu.o):(.eh_frame+0x3c)
     574      574       2c     1         /home/mabez/development/rust/embedded/experiments/esp32c3/target/riscv32imac-unknown-none-elf/debug/deps/libriscv_rt-9f6ededa1f4c9759.rlib(riscv-rt.o):(.eh_frame+0x0)
3fcd0000 3fcd0000        0     1 
3fcd0000 3fcd0000        0     1 
3fcd0000 3fcd0000        0     1 
3fcd0000 3fcd0000        0     1 
3fcd0000 3fcd0000        0     1 
3fcd0000 3fcd0000        0     1 
3fcd0000 3fcd0000        0     1 
3fcd0000 3fcd0000        0     1 
3fcd0000 3fcd0000        0     1 
3fcd0000 3fcd0000        0     1 
3fcd0000 3fcd0000        0     1 
3fcd0000 3fcd0000        0     1 
3fcd0000 3fcd0000        0     1 
3fcd0000 3fcd0000        0     1 
3fcd0000 3fcd0000        0     1 uart_tx_one_char = 0x40000068
3fcd0000 3fcd0000        0     1 ets_delay_us = 0x40000050
       0        0     43f1     1 .debug_abbrev
       0        0       e8     1         /home/mabez/development/rust/embedded/experiments/esp32c3/target/riscv32imac-unknown-none-elf/debug/deps/esp32c3-6c8eecfb34724107.16oo1rtpmbk0weq7.rcgu.o:(.debug_abbrev)
      e8       e8       96     1         /home/mabez/development/rust/embedded/experiments/esp32c3/target/riscv32imac-unknown-none-elf/debug/deps/esp32c3-6c8eecfb34724107.1idhibzi0mpmbahx.rcgu.o:(.debug_abbrev)
     17e      17e      11e     1         /home/mabez/development/rust/embedded/experiments/esp32c3/target/riscv32imac-unknown-none-elf/debug/deps/esp32c3-6c8eecfb34724107.1phwpl9yylfc3qa9.rcgu.o:(.debug_abbrev)
     29c      29c       dd     1         /home/mabez/development/rust/embedded/experiments/esp32c3/target/riscv32imac-unknown-none-elf/debug/deps/esp32c3-6c8eecfb34724107.31w2p0rmtqdazjy9.rcgu.o:(.debug_abbrev)
     379      379       7a     1         /home/mabez/development/rust/embedded/experiments/esp32c3/target/riscv32imac-unknown-none-elf/debug/deps/esp32c3-6c8eecfb34724107.360z2ancvg6ixrl4.rcgu.o:(.debug_abbrev)
     3f3      3f3      1cb     1         /home/mabez/development/rust/embedded/experiments/esp32c3/target/riscv32imac-unknown-none-elf/debug/deps/esp32c3-6c8eecfb34724107.3dax6gsnt3idpsze.rcgu.o:(.debug_abbrev)
     5be      5be       fc     1         /home/mabez/development/rust/embedded/experiments/esp32c3/target/riscv32imac-unknown-none-elf/debug/deps/esp32c3-6c8eecfb34724107.3e2vhcvnvpvomz83.rcgu.o:(.debug_abbrev)
     6ba      6ba      105     1         /home/mabez/development/rust/embedded/experiments/esp32c3/target/riscv32imac-unknown-none-elf/debug/deps/esp32c3-6c8eecfb34724107.3hh2vqqri9noju8i.rcgu.o:(.debug_abbrev)
     7bf      7bf       fc     1         /home/mabez/development/rust/embedded/experiments/esp32c3/target/riscv32imac-unknown-none-elf/debug/deps/esp32c3-6c8eecfb34724107.46dv6jlxri7vu0zk.rcgu.o:(.debug_abbrev)
     8bb      8bb       72     1         /home/mabez/development/rust/embedded/experiments/esp32c3/target/riscv32imac-unknown-none-elf/debug/deps/esp32c3-6c8eecfb34724107.59383vjg8ah1nwp0.rcgu.o:(.debug_abbrev)
     92d      92d       3e     1         /home/mabez/development/rust/embedded/experiments/esp32c3/target/riscv32imac-unknown-none-elf/debug/deps/esp32c3-6c8eecfb34724107.h4h1jg4d5ugkhbg.rcgu.o:(.debug_abbrev)
     96b      96b       c6     1         /home/mabez/development/rust/embedded/experiments/esp32c3/target/riscv32imac-unknown-none-elf/debug/deps/esp32c3-6c8eecfb34724107.p5cpnu5dso05alz.rcgu.o:(.debug_abbrev)
     a31      a31      116     1         /home/mabez/development/rust/embedded/experiments/esp32c3/target/riscv32imac-unknown-none-elf/debug/deps/esp32c3-6c8eecfb34724107.v0f7at9a6qkyll5.rcgu.o:(.debug_abbrev)
     b47      b47       91     1         /home/mabez/development/rust/embedded/experiments/esp32c3/target/riscv32imac-unknown-none-elf/debug/deps/esp32c3-6c8eecfb34724107.zvsvxmou5gfsy4h.rcgu.o:(.debug_abbrev)
     bd8      bd8      24d     1         /home/mabez/development/rust/embedded/experiments/esp32c3/target/riscv32imac-unknown-none-elf/debug/deps/librtt_target-ba817fabe6541e78.rlib(rtt_target-ba817fabe6541e78.rtt_target.a5746e51-cgu.0.rcgu.o):(.debug_abbrev)
     e25      e25       b3     1         /home/mabez/development/rust/embedded/experiments/esp32c3/target/riscv32imac-unknown-none-elf/debug/deps/librtt_target-ba817fabe6541e78.rlib(rtt_target-ba817fabe6541e78.rtt_target.a5746e51-cgu.1.rcgu.o):(.debug_abbrev)
     ed8      ed8       87     1         /home/mabez/development/rust/embedded/experiments/esp32c3/target/riscv32imac-unknown-none-elf/debug/deps/librtt_target-ba817fabe6541e78.rlib(rtt_target-ba817fabe6541e78.rtt_target.a5746e51-cgu.10.rcgu.o):(.debug_abbrev)
     f5f      f5f       d8     1         /home/mabez/development/rust/embedded/experiments/esp32c3/target/riscv32imac-unknown-none-elf/debug/deps/librtt_target-ba817fabe6541e78.rlib(rtt_target-ba817fabe6541e78.rtt_target.a5746e51-cgu.11.rcgu.o):(.debug_abbrev)
    1037     1037       df     1         /home/mabez/development/rust/embedded/experiments/esp32c3/target/riscv32imac-unknown-none-elf/debug/deps/librtt_target-ba817fabe6541e78.rlib(rtt_target-ba817fabe6541e78.rtt_target.a5746e51-cgu.12.rcgu.o):(.debug_abbrev)
    1116     1116       dc     1         /home/mabez/development/rust/embedded/experiments/esp32c3/target/riscv32imac-unknown-none-elf/debug/deps/librtt_target-ba817fabe6541e78.rlib(rtt_target-ba817fabe6541e78.rtt_target.a5746e51-cgu.14.rcgu.o):(.debug_abbrev)
    11f2     11f2       e7     1         /home/mabez/development/rust/embedded/experiments/esp32c3/target/riscv32imac-unknown-none-elf/debug/deps/librtt_target-ba817fabe6541e78.rlib(rtt_target-ba817fabe6541e78.rtt_target.a5746e51-cgu.15.rcgu.o):(.debug_abbrev)
    12d9     12d9       91     1         /home/mabez/development/rust/embedded/experiments/esp32c3/target/riscv32imac-unknown-none-elf/debug/deps/librtt_target-ba817fabe6541e78.rlib(rtt_target-ba817fabe6541e78.rtt_target.a5746e51-cgu.2.rcgu.o):(.debug_abbrev)
    136a     136a      227     1         /home/mabez/development/rust/embedded/experiments/esp32c3/target/riscv32imac-unknown-none-elf/debug/deps/librtt_target-ba817fabe6541e78.rlib(rtt_target-ba817fabe6541e78.rtt_target.a5746e51-cgu.3.rcgu.o):(.debug_abbrev)
    1591     1591       f4     1         /home/mabez/development/rust/embedded/experiments/esp32c3/target/riscv32imac-unknown-none-elf/debug/deps/librtt_target-ba817fabe6541e78.rlib(rtt_target-ba817fabe6541e78.rtt_target.a5746e51-cgu.4.rcgu.o):(.debug_abbrev)
    1685     1685       96     1         /home/mabez/development/rust/embedded/experiments/esp32c3/target/riscv32imac-unknown-none-elf/debug/deps/librtt_target-ba817fabe6541e78.rlib(rtt_target-ba817fabe6541e78.rtt_target.a5746e51-cgu.13.rcgu.o):(.debug_abbrev)
    171b     171b       fc     1         /home/mabez/development/rust/embedded/experiments/esp32c3/target/riscv32imac-unknown-none-elf/debug/deps/librtt_target-ba817fabe6541e78.rlib(rtt_target-ba817fabe6541e78.rtt_target.a5746e51-cgu.5.rcgu.o):(.debug_abbrev)
    1817     1817      14f     1         /home/mabez/development/rust/embedded/experiments/esp32c3/target/riscv32imac-unknown-none-elf/debug/deps/librtt_target-ba817fabe6541e78.rlib(rtt_target-ba817fabe6541e78.rtt_target.a5746e51-cgu.6.rcgu.o):(.debug_abbrev)
    1966     1966       8e     1         /home/mabez/development/rust/embedded/experiments/esp32c3/target/riscv32imac-unknown-none-elf/debug/deps/librtt_target-ba817fabe6541e78.rlib(rtt_target-ba817fabe6541e78.rtt_target.a5746e51-cgu.7.rcgu.o):(.debug_abbrev)
    19f4     19f4      100     1         /home/mabez/development/rust/embedded/experiments/esp32c3/target/riscv32imac-unknown-none-elf/debug/deps/librtt_target-ba817fabe6541e78.rlib(rtt_target-ba817fabe6541e78.rtt_target.a5746e51-cgu.8.rcgu.o):(.debug_abbrev)
    1af4     1af4       88     1         /home/mabez/development/rust/embedded/experiments/esp32c3/target/riscv32imac-unknown-none-elf/debug/deps/librtt_target-ba817fabe6541e78.rlib(rtt_target-ba817fabe6541e78.rtt_target.a5746e51-cgu.9.rcgu.o):(.debug_abbrev)
    1b7c     1b7c      10e     1         /home/mabez/development/rust/embedded/experiments/esp32c3/target/riscv32imac-unknown-none-elf/debug/deps/libesp32c3_lib-c6891e451671e2e8.rlib(esp32c3_lib-c6891e451671e2e8.50vycai6f6fblslz.rcgu.o):(.debug_abbrev)
    1c8a     1c8a       74     1         /home/mabez/development/rust/embedded/experiments/esp32c3/target/riscv32imac-unknown-none-elf/debug/deps/libesp32c3_lib-c6891e451671e2e8.rlib(esp32c3_lib-c6891e451671e2e8.2zwu2gzn9kym8n1i.rcgu.o):(.debug_abbrev)
    1cfe     1cfe       7b     1         /home/mabez/development/rust/embedded/experiments/esp32c3/target/riscv32imac-unknown-none-elf/debug/deps/libesp32c3_lib-c6891e451671e2e8.rlib(esp32c3_lib-c6891e451671e2e8.52x8onntfu5vhxia.rcgu.o):(.debug_abbrev)
    1d79     1d79       58     1         /home/mabez/development/rust/embedded/experiments/esp32c3/target/riscv32imac-unknown-none-elf/debug/deps/libbare_metal-01059decff6db7a9.rlib(bare_metal-01059decff6db7a9.bare_metal.c7fb2979-cgu.0.rcgu.o):(.debug_abbrev)
    1dd1     1dd1       7b     1         /home/mabez/development/rust/embedded/experiments/esp32c3/target/riscv32imac-unknown-none-elf/debug/deps/libembedded_hal-09d0b07e9f5d700b.rlib(embedded_hal-09d0b07e9f5d700b.embedded_hal.a1e71ce7-cgu.10.rcgu.o):(.debug_abbrev)
    1e4c     1e4c      13d     1         /home/mabez/development/rust/embedded/experiments/esp32c3/target/riscv32imac-unknown-none-elf/debug/deps/libembedded_hal-09d0b07e9f5d700b.rlib(embedded_hal-09d0b07e9f5d700b.embedded_hal.a1e71ce7-cgu.6.rcgu.o):(.debug_abbrev)
    1f89     1f89       85     1         /home/mabez/development/rust/embedded/experiments/esp32c3/target/riscv32imac-unknown-none-elf/debug/deps/libembedded_hal-09d0b07e9f5d700b.rlib(embedded_hal-09d0b07e9f5d700b.embedded_hal.a1e71ce7-cgu.4.rcgu.o):(.debug_abbrev)
    200e     200e       9f     1         /home/mabez/development/rust/embedded/experiments/esp32c3/target/riscv32imac-unknown-none-elf/debug/deps/libembedded_hal-09d0b07e9f5d700b.rlib(embedded_hal-09d0b07e9f5d700b.embedded_hal.a1e71ce7-cgu.3.rcgu.o):(.debug_abbrev)
    20ad     20ad       85     1         /home/mabez/development/rust/embedded/experiments/esp32c3/target/riscv32imac-unknown-none-elf/debug/deps/libembedded_hal-09d0b07e9f5d700b.rlib(embedded_hal-09d0b07e9f5d700b.embedded_hal.a1e71ce7-cgu.7.rcgu.o):(.debug_abbrev)
    2132     2132      139     1         /home/mabez/development/rust/embedded/experiments/esp32c3/target/riscv32imac-unknown-none-elf/debug/deps/libvoid-9bf68c712c7c3b51.rlib(void-9bf68c712c7c3b51.void.0c241590-cgu.0.rcgu.o):(.debug_abbrev)
    226b     226b      20c     1         /home/mabez/.rustup/toolchains/nightly-x86_64-unknown-linux-gnu/lib/rustlib/riscv32imac-unknown-none-elf/lib/libcore-081fd8405fc18f2e.rlib(core-081fd8405fc18f2e.core.364d98f8-cgu.0.rcgu.o):(.debug_abbrev)
    2477     2477       8f     1         /home/mabez/.rustup/toolchains/nightly-x86_64-unknown-linux-gnu/lib/rustlib/riscv32imac-unknown-none-elf/lib/libcompiler_builtins-64fdae85a7f05972.rlib(compiler_builtins-64fdae85a7f05972.compiler_builtins.ce5182a1-cgu.1.rcgu.o):(.debug_abbrev)
    2506     2506       b5     1         /home/mabez/.rustup/toolchains/nightly-x86_64-unknown-linux-gnu/lib/rustlib/riscv32imac-unknown-none-elf/lib/libcompiler_builtins-64fdae85a7f05972.rlib(compiler_builtins-64fdae85a7f05972.compiler_builtins.ce5182a1-cgu.104.rcgu.o):(.debug_abbrev)
    25bb     25bb       8f     1         /home/mabez/.rustup/toolchains/nightly-x86_64-unknown-linux-gnu/lib/rustlib/riscv32imac-unknown-none-elf/lib/libcompiler_builtins-64fdae85a7f05972.rlib(compiler_builtins-64fdae85a7f05972.compiler_builtins.ce5182a1-cgu.11.rcgu.o):(.debug_abbrev)
    264a     264a       c0     1         /home/mabez/.rustup/toolchains/nightly-x86_64-unknown-linux-gnu/lib/rustlib/riscv32imac-unknown-none-elf/lib/libcompiler_builtins-64fdae85a7f05972.rlib(compiler_builtins-64fdae85a7f05972.compiler_builtins.ce5182a1-cgu.113.rcgu.o):(.debug_abbrev)
    270a     270a       ca     1         /home/mabez/.rustup/toolchains/nightly-x86_64-unknown-linux-gnu/lib/rustlib/riscv32imac-unknown-none-elf/lib/libcompiler_builtins-64fdae85a7f05972.rlib(compiler_builtins-64fdae85a7f05972.compiler_builtins.ce5182a1-cgu.121.rcgu.o):(.debug_abbrev)
    27d4     27d4       8f     1         /home/mabez/.rustup/toolchains/nightly-x86_64-unknown-linux-gnu/lib/rustlib/riscv32imac-unknown-none-elf/lib/libcompiler_builtins-64fdae85a7f05972.rlib(compiler_builtins-64fdae85a7f05972.compiler_builtins.ce5182a1-cgu.16.rcgu.o):(.debug_abbrev)
    2863     2863       8f     1         /home/mabez/.rustup/toolchains/nightly-x86_64-unknown-linux-gnu/lib/rustlib/riscv32imac-unknown-none-elf/lib/libcompiler_builtins-64fdae85a7f05972.rlib(compiler_builtins-64fdae85a7f05972.compiler_builtins.ce5182a1-cgu.21.rcgu.o):(.debug_abbrev)
    28f2     28f2       e2     1         /home/mabez/.rustup/toolchains/nightly-x86_64-unknown-linux-gnu/lib/rustlib/riscv32imac-unknown-none-elf/lib/libcompiler_builtins-64fdae85a7f05972.rlib(compiler_builtins-64fdae85a7f05972.compiler_builtins.ce5182a1-cgu.22.rcgu.o):(.debug_abbrev)
    29d4     29d4       ed     1         /home/mabez/.rustup/toolchains/nightly-x86_64-unknown-linux-gnu/lib/rustlib/riscv32imac-unknown-none-elf/lib/libcompiler_builtins-64fdae85a7f05972.rlib(compiler_builtins-64fdae85a7f05972.compiler_builtins.ce5182a1-cgu.23.rcgu.o):(.debug_abbrev)
    2ac1     2ac1       8f     1         /home/mabez/.rustup/toolchains/nightly-x86_64-unknown-linux-gnu/lib/rustlib/riscv32imac-unknown-none-elf/lib/libcompiler_builtins-64fdae85a7f05972.rlib(compiler_builtins-64fdae85a7f05972.compiler_builtins.ce5182a1-cgu.42.rcgu.o):(.debug_abbrev)
    2b50     2b50       53     1         /home/mabez/.rustup/toolchains/nightly-x86_64-unknown-linux-gnu/lib/rustlib/riscv32imac-unknown-none-elf/lib/libcompiler_builtins-64fdae85a7f05972.rlib(compiler_builtins-64fdae85a7f05972.compiler_builtins.ce5182a1-cgu.58.rcgu.o):(.debug_abbrev)
    2ba3     2ba3       c0     1         /home/mabez/.rustup/toolchains/nightly-x86_64-unknown-linux-gnu/lib/rustlib/riscv32imac-unknown-none-elf/lib/libcompiler_builtins-64fdae85a7f05972.rlib(compiler_builtins-64fdae85a7f05972.compiler_builtins.ce5182a1-cgu.62.rcgu.o):(.debug_abbrev)
    2c63     2c63       8f     1         /home/mabez/.rustup/toolchains/nightly-x86_64-unknown-linux-gnu/lib/rustlib/riscv32imac-unknown-none-elf/lib/libcompiler_builtins-64fdae85a7f05972.rlib(compiler_builtins-64fdae85a7f05972.compiler_builtins.ce5182a1-cgu.7.rcgu.o):(.debug_abbrev)
    2cf2     2cf2       c2     1         /home/mabez/.rustup/toolchains/nightly-x86_64-unknown-linux-gnu/lib/rustlib/riscv32imac-unknown-none-elf/lib/libcompiler_builtins-64fdae85a7f05972.rlib(compiler_builtins-64fdae85a7f05972.compiler_builtins.ce5182a1-cgu.79.rcgu.o):(.debug_abbrev)
    2db4     2db4       91     1         /home/mabez/.rustup/toolchains/nightly-x86_64-unknown-linux-gnu/lib/rustlib/riscv32imac-unknown-none-elf/lib/libcompiler_builtins-64fdae85a7f05972.rlib(compiler_builtins-64fdae85a7f05972.compiler_builtins.ce5182a1-cgu.86.rcgu.o):(.debug_abbrev)
    2e45     2e45       c2     1         /home/mabez/.rustup/toolchains/nightly-x86_64-unknown-linux-gnu/lib/rustlib/riscv32imac-unknown-none-elf/lib/libcompiler_builtins-64fdae85a7f05972.rlib(compiler_builtins-64fdae85a7f05972.compiler_builtins.ce5182a1-cgu.66.rcgu.o):(.debug_abbrev)
    2f07     2f07       53     1         /home/mabez/.rustup/toolchains/nightly-x86_64-unknown-linux-gnu/lib/rustlib/riscv32imac-unknown-none-elf/lib/libcompiler_builtins-64fdae85a7f05972.rlib(compiler_builtins-64fdae85a7f05972.compiler_builtins.ce5182a1-cgu.96.rcgu.o):(.debug_abbrev)
    2f5a     2f5a       53     1         /home/mabez/.rustup/toolchains/nightly-x86_64-unknown-linux-gnu/lib/rustlib/riscv32imac-unknown-none-elf/lib/libcompiler_builtins-64fdae85a7f05972.rlib(compiler_builtins-64fdae85a7f05972.compiler_builtins.ce5182a1-cgu.98.rcgu.o):(.debug_abbrev)
    2fad     2fad      1b8     1         /home/mabez/development/rust/embedded/experiments/esp32c3/target/riscv32imac-unknown-none-elf/debug/deps/libriscv_rt-9f6ededa1f4c9759.rlib(riscv_rt-9f6ededa1f4c9759.riscv_rt.da5378fb-cgu.3.rcgu.o):(.debug_abbrev)
    3165     3165       a8     1         /home/mabez/development/rust/embedded/experiments/esp32c3/target/riscv32imac-unknown-none-elf/debug/deps/libriscv_rt-9f6ededa1f4c9759.rlib(riscv_rt-9f6ededa1f4c9759.riscv_rt.da5378fb-cgu.5.rcgu.o):(.debug_abbrev)
    320d     320d       d4     1         /home/mabez/development/rust/embedded/experiments/esp32c3/target/riscv32imac-unknown-none-elf/debug/deps/libriscv_rt-9f6ededa1f4c9759.rlib(riscv_rt-9f6ededa1f4c9759.riscv_rt.da5378fb-cgu.0.rcgu.o):(.debug_abbrev)
    32e1     32e1       e8     1         /home/mabez/development/rust/embedded/experiments/esp32c3/target/riscv32imac-unknown-none-elf/debug/deps/libriscv_rt-9f6ededa1f4c9759.rlib(riscv_rt-9f6ededa1f4c9759.riscv_rt.da5378fb-cgu.1.rcgu.o):(.debug_abbrev)
    33c9     33c9       5f     1         /home/mabez/development/rust/embedded/experiments/esp32c3/target/riscv32imac-unknown-none-elf/debug/deps/libriscv_rt-9f6ededa1f4c9759.rlib(riscv_rt-9f6ededa1f4c9759.riscv_rt.da5378fb-cgu.6.rcgu.o):(.debug_abbrev)
    3428     3428       87     1         /home/mabez/development/rust/embedded/experiments/esp32c3/target/riscv32imac-unknown-none-elf/debug/deps/libriscv_rt-9f6ededa1f4c9759.rlib(riscv_rt-9f6ededa1f4c9759.riscv_rt.da5378fb-cgu.4.rcgu.o):(.debug_abbrev)
    34af     34af      12d     1         /home/mabez/development/rust/embedded/experiments/esp32c3/target/riscv32imac-unknown-none-elf/debug/deps/libriscv-39f7ce6f6030497b.rlib(riscv-39f7ce6f6030497b.riscv.b201b7e1-cgu.0.rcgu.o):(.debug_abbrev)
    35dc     35dc      146     1         /home/mabez/development/rust/embedded/experiments/esp32c3/target/riscv32imac-unknown-none-elf/debug/deps/libriscv-39f7ce6f6030497b.rlib(riscv-39f7ce6f6030497b.riscv.b201b7e1-cgu.9.rcgu.o):(.debug_abbrev)
    3722     3722       dd     1         /home/mabez/development/rust/embedded/experiments/esp32c3/target/riscv32imac-unknown-none-elf/debug/deps/libriscv-39f7ce6f6030497b.rlib(riscv-39f7ce6f6030497b.riscv.b201b7e1-cgu.4.rcgu.o):(.debug_abbrev)
    37ff     37ff       3e     1         /home/mabez/development/rust/embedded/experiments/esp32c3/target/riscv32imac-unknown-none-elf/debug/deps/libriscv_rt-9f6ededa1f4c9759.rlib(riscv_rt-9f6ededa1f4c9759.riscv_rt.da5378fb-cgu.8.rcgu.o):(.debug_abbrev)
    383d     383d       31     1         /home/mabez/development/rust/embedded/experiments/esp32c3/target/riscv32imac-unknown-none-elf/debug/deps/libriscv_rt-9f6ededa1f4c9759.rlib(riscv_rt-9f6ededa1f4c9759.riscv_rt.da5378fb-cgu.7.rcgu.o):(.debug_abbrev)
    386e     386e       5d     1         /home/mabez/development/rust/embedded/experiments/esp32c3/target/riscv32imac-unknown-none-elf/debug/deps/libriscv_rt-9f6ededa1f4c9759.rlib(riscv_rt-9f6ededa1f4c9759.riscv_rt.da5378fb-cgu.2.rcgu.o):(.debug_abbrev)
    38cb     38cb       12     1         /home/mabez/development/rust/embedded/experiments/esp32c3/target/riscv32imac-unknown-none-elf/debug/deps/libriscv_rt-9f6ededa1f4c9759.rlib(riscv-rt.o):(.debug_abbrev)
    38dd     38dd       14     1         /home/mabez/development/rust/embedded/experiments/esp32c3/target/riscv32imac-unknown-none-elf/debug/deps/libriscv_atomic_emulation_trap-fab535a27fe2d765.rlib(riscv-atomic-emulation-trap.o):(.debug_abbrev)
    38f1     38f1      16c     1         /home/mabez/development/rust/embedded/experiments/esp32c3/target/riscv32imac-unknown-none-elf/debug/deps/libriscv_atomic_emulation_trap-fab535a27fe2d765.rlib(riscv_atomic_emulation_trap-fab535a27fe2d765.riscv_atomic_emulation_trap.b3d57533-cgu.0.rcgu.o):(.debug_abbrev)
    3a5d     3a5d       8e     1         /home/mabez/development/rust/embedded/experiments/esp32c3/target/riscv32imac-unknown-none-elf/debug/deps/libriscv_atomic_emulation_trap-fab535a27fe2d765.rlib(riscv_atomic_emulation_trap-fab535a27fe2d765.riscv_atomic_emulation_trap.b3d57533-cgu.2.rcgu.o):(.debug_abbrev)
    3aeb     3aeb       7b     1         /home/mabez/development/rust/embedded/experiments/esp32c3/target/riscv32imac-unknown-none-elf/debug/deps/libriscv_atomic_emulation_trap-fab535a27fe2d765.rlib(riscv_atomic_emulation_trap-fab535a27fe2d765.riscv_atomic_emulation_trap.b3d57533-cgu.1.rcgu.o):(.debug_abbrev)
    3b66     3b66       96     1         /home/mabez/development/rust/embedded/experiments/esp32c3/target/riscv32imac-unknown-none-elf/debug/deps/libriscv_atomic_emulation_trap-fab535a27fe2d765.rlib(riscv_atomic_emulation_trap-fab535a27fe2d765.riscv_atomic_emulation_trap.b3d57533-cgu.6.rcgu.o):(.debug_abbrev)
    3bfc     3bfc       bc     1         /home/mabez/development/rust/embedded/experiments/esp32c3/target/riscv32imac-unknown-none-elf/debug/deps/libriscv_atomic_emulation_trap-fab535a27fe2d765.rlib(riscv_atomic_emulation_trap-fab535a27fe2d765.riscv_atomic_emulation_trap.b3d57533-cgu.3.rcgu.o):(.debug_abbrev)
    3cb8     3cb8      12d     1         /home/mabez/development/rust/embedded/experiments/esp32c3/target/riscv32imac-unknown-none-elf/debug/deps/libriscv-2df4d94086d6ad3d.rlib(riscv-2df4d94086d6ad3d.riscv.9f9f37cf-cgu.0.rcgu.o):(.debug_abbrev)
    3de5     3de5      122     1         /home/mabez/development/rust/embedded/experiments/esp32c3/target/riscv32imac-unknown-none-elf/debug/deps/libriscv-2df4d94086d6ad3d.rlib(riscv-2df4d94086d6ad3d.riscv.9f9f37cf-cgu.10.rcgu.o):(.debug_abbrev)
    3f07     3f07      13b     1         /home/mabez/development/rust/embedded/experiments/esp32c3/target/riscv32imac-unknown-none-elf/debug/deps/libriscv-2df4d94086d6ad3d.rlib(riscv-2df4d94086d6ad3d.riscv.9f9f37cf-cgu.8.rcgu.o):(.debug_abbrev)
    4042     4042       dd     1         /home/mabez/development/rust/embedded/experiments/esp32c3/target/riscv32imac-unknown-none-elf/debug/deps/libriscv-2df4d94086d6ad3d.rlib(riscv-2df4d94086d6ad3d.riscv.9f9f37cf-cgu.4.rcgu.o):(.debug_abbrev)
    411f     411f      126     1         /home/mabez/development/rust/embedded/experiments/esp32c3/target/riscv32imac-unknown-none-elf/debug/deps/libriscv-2df4d94086d6ad3d.rlib(riscv-2df4d94086d6ad3d.riscv.9f9f37cf-cgu.11.rcgu.o):(.debug_abbrev)
    4245     4245       88     1         /home/mabez/development/rust/embedded/experiments/esp32c3/target/riscv32imac-unknown-none-elf/debug/deps/libriscv_atomic_emulation_trap-fab535a27fe2d765.rlib(riscv_atomic_emulation_trap-fab535a27fe2d765.riscv_atomic_emulation_trap.b3d57533-cgu.5.rcgu.o):(.debug_abbrev)
    42cd     42cd       b3     1         /home/mabez/development/rust/embedded/experiments/esp32c3/target/riscv32imac-unknown-none-elf/debug/deps/libriscv_atomic_emulation_trap-fab535a27fe2d765.rlib(riscv_atomic_emulation_trap-fab535a27fe2d765.riscv_atomic_emulation_trap.b3d57533-cgu.7.rcgu.o):(.debug_abbrev)
    4380     4380       71     1         /home/mabez/development/rust/embedded/experiments/esp32c3/target/riscv32imac-unknown-none-elf/debug/deps/libriscv_atomic_emulation_trap-fab535a27fe2d765.rlib(riscv_atomic_emulation_trap-fab535a27fe2d765.riscv_atomic_emulation_trap.b3d57533-cgu.4.rcgu.o):(.debug_abbrev)
       0        0    2f5a1     1 .debug_info
       0        0      28d     1         /home/mabez/development/rust/embedded/experiments/esp32c3/target/riscv32imac-unknown-none-elf/debug/deps/esp32c3-6c8eecfb34724107.16oo1rtpmbk0weq7.rcgu.o:(.debug_info)
       0        0        0     1                 
     28d      28d      1d8     1         /home/mabez/development/rust/embedded/experiments/esp32c3/target/riscv32imac-unknown-none-elf/debug/deps/esp32c3-6c8eecfb34724107.1idhibzi0mpmbahx.rcgu.o:(.debug_info)
     28d      28d        0     1                 
     465      465      2df     1         /home/mabez/development/rust/embedded/experiments/esp32c3/target/riscv32imac-unknown-none-elf/debug/deps/esp32c3-6c8eecfb34724107.1phwpl9yylfc3qa9.rcgu.o:(.debug_info)
     465      465        0     1                 
     744      744      1f3     1         /home/mabez/development/rust/embedded/experiments/esp32c3/target/riscv32imac-unknown-none-elf/debug/deps/esp32c3-6c8eecfb34724107.31w2p0rmtqdazjy9.rcgu.o:(.debug_info)
     744      744        0     1                 
     937      937      185     1         /home/mabez/development/rust/embedded/experiments/esp32c3/target/riscv32imac-unknown-none-elf/debug/deps/esp32c3-6c8eecfb34724107.360z2ancvg6ixrl4.rcgu.o:(.debug_info)
     937      937        0     1                 
     abc      abc      bd7     1         /home/mabez/development/rust/embedded/experiments/esp32c3/target/riscv32imac-unknown-none-elf/debug/deps/esp32c3-6c8eecfb34724107.3dax6gsnt3idpsze.rcgu.o:(.debug_info)
     abc      abc        0     1                 
    1693     1693      549     1         /home/mabez/development/rust/embedded/experiments/esp32c3/target/riscv32imac-unknown-none-elf/debug/deps/esp32c3-6c8eecfb34724107.3e2vhcvnvpvomz83.rcgu.o:(.debug_info)
    1693     1693        0     1                 
    1bdc     1bdc      69a     1         /home/mabez/development/rust/embedded/experiments/esp32c3/target/riscv32imac-unknown-none-elf/debug/deps/esp32c3-6c8eecfb34724107.3hh2vqqri9noju8i.rcgu.o:(.debug_info)
    1bdc     1bdc        0     1                 
    2276     2276      4e5     1         /home/mabez/development/rust/embedded/experiments/esp32c3/target/riscv32imac-unknown-none-elf/debug/deps/esp32c3-6c8eecfb34724107.46dv6jlxri7vu0zk.rcgu.o:(.debug_info)
    2276     2276        0     1                 
    275b     275b       b8     1         /home/mabez/development/rust/embedded/experiments/esp32c3/target/riscv32imac-unknown-none-elf/debug/deps/esp32c3-6c8eecfb34724107.59383vjg8ah1nwp0.rcgu.o:(.debug_info)
    275b     275b        0     1                 
    2813     2813       72     1         /home/mabez/development/rust/embedded/experiments/esp32c3/target/riscv32imac-unknown-none-elf/debug/deps/esp32c3-6c8eecfb34724107.h4h1jg4d5ugkhbg.rcgu.o:(.debug_info)
    2813     2813        0     1                 
    2885     2885      1f8     1         /home/mabez/development/rust/embedded/experiments/esp32c3/target/riscv32imac-unknown-none-elf/debug/deps/esp32c3-6c8eecfb34724107.p5cpnu5dso05alz.rcgu.o:(.debug_info)
    2885     2885        0     1                 
    2a7d     2a7d      58e     1         /home/mabez/development/rust/embedded/experiments/esp32c3/target/riscv32imac-unknown-none-elf/debug/deps/esp32c3-6c8eecfb34724107.v0f7at9a6qkyll5.rcgu.o:(.debug_info)
    2a7d     2a7d        0     1                 
    300b     300b      286     1         /home/mabez/development/rust/embedded/experiments/esp32c3/target/riscv32imac-unknown-none-elf/debug/deps/esp32c3-6c8eecfb34724107.zvsvxmou5gfsy4h.rcgu.o:(.debug_info)
    300b     300b        0     1                 
    3291     3291      d87     1         /home/mabez/development/rust/embedded/experiments/esp32c3/target/riscv32imac-unknown-none-elf/debug/deps/librtt_target-ba817fabe6541e78.rlib(rtt_target-ba817fabe6541e78.rtt_target.a5746e51-cgu.0.rcgu.o):(.debug_info)
    3291     3291        0     1                 
    4018     4018      3d0     1         /home/mabez/development/rust/embedded/experiments/esp32c3/target/riscv32imac-unknown-none-elf/debug/deps/librtt_target-ba817fabe6541e78.rlib(rtt_target-ba817fabe6541e78.rtt_target.a5746e51-cgu.1.rcgu.o):(.debug_info)
    4018     4018        0     1                 
    43e8     43e8      207     1         /home/mabez/development/rust/embedded/experiments/esp32c3/target/riscv32imac-unknown-none-elf/debug/deps/librtt_target-ba817fabe6541e78.rlib(rtt_target-ba817fabe6541e78.rtt_target.a5746e51-cgu.10.rcgu.o):(.debug_info)
    43e8     43e8        0     1                 
    45ef     45ef      1fc     1         /home/mabez/development/rust/embedded/experiments/esp32c3/target/riscv32imac-unknown-none-elf/debug/deps/librtt_target-ba817fabe6541e78.rlib(rtt_target-ba817fabe6541e78.rtt_target.a5746e51-cgu.11.rcgu.o):(.debug_info)
    45ef     45ef        0     1                 
    47eb     47eb      3a2     1         /home/mabez/development/rust/embedded/experiments/esp32c3/target/riscv32imac-unknown-none-elf/debug/deps/librtt_target-ba817fabe6541e78.rlib(rtt_target-ba817fabe6541e78.rtt_target.a5746e51-cgu.12.rcgu.o):(.debug_info)
    47eb     47eb        0     1                 
    4b8d     4b8d      1e0     1         /home/mabez/development/rust/embedded/experiments/esp32c3/target/riscv32imac-unknown-none-elf/debug/deps/librtt_target-ba817fabe6541e78.rlib(rtt_target-ba817fabe6541e78.rtt_target.a5746e51-cgu.14.rcgu.o):(.debug_info)
    4b8d     4b8d        0     1                 
    4d6d     4d6d      2a2     1         /home/mabez/development/rust/embedded/experiments/esp32c3/target/riscv32imac-unknown-none-elf/debug/deps/librtt_target-ba817fabe6541e78.rlib(rtt_target-ba817fabe6541e78.rtt_target.a5746e51-cgu.15.rcgu.o):(.debug_info)
    4d6d     4d6d        0     1                 
    500f     500f      286     1         /home/mabez/development/rust/embedded/experiments/esp32c3/target/riscv32imac-unknown-none-elf/debug/deps/librtt_target-ba817fabe6541e78.rlib(rtt_target-ba817fabe6541e78.rtt_target.a5746e51-cgu.2.rcgu.o):(.debug_info)
    500f     500f        0     1                 
    5295     5295      f3f     1         /home/mabez/development/rust/embedded/experiments/esp32c3/target/riscv32imac-unknown-none-elf/debug/deps/librtt_target-ba817fabe6541e78.rlib(rtt_target-ba817fabe6541e78.rtt_target.a5746e51-cgu.3.rcgu.o):(.debug_info)
    5295     5295        0     1                 
    61d4     61d4      56c     1         /home/mabez/development/rust/embedded/experiments/esp32c3/target/riscv32imac-unknown-none-elf/debug/deps/librtt_target-ba817fabe6541e78.rlib(rtt_target-ba817fabe6541e78.rtt_target.a5746e51-cgu.4.rcgu.o):(.debug_info)
    61d4     61d4        0     1                 
    6740     6740      173     1         /home/mabez/development/rust/embedded/experiments/esp32c3/target/riscv32imac-unknown-none-elf/debug/deps/librtt_target-ba817fabe6541e78.rlib(rtt_target-ba817fabe6541e78.rtt_target.a5746e51-cgu.13.rcgu.o):(.debug_info)
    6740     6740        0     1                 
    68b3     68b3      500     1         /home/mabez/development/rust/embedded/experiments/esp32c3/target/riscv32imac-unknown-none-elf/debug/deps/librtt_target-ba817fabe6541e78.rlib(rtt_target-ba817fabe6541e78.rtt_target.a5746e51-cgu.5.rcgu.o):(.debug_info)
    68b3     68b3        0     1                 
    6db3     6db3      8fe     1         /home/mabez/development/rust/embedded/experiments/esp32c3/target/riscv32imac-unknown-none-elf/debug/deps/librtt_target-ba817fabe6541e78.rlib(rtt_target-ba817fabe6541e78.rtt_target.a5746e51-cgu.6.rcgu.o):(.debug_info)
    6db3     6db3        0     1                 
    76b1     76b1      31c     1         /home/mabez/development/rust/embedded/experiments/esp32c3/target/riscv32imac-unknown-none-elf/debug/deps/librtt_target-ba817fabe6541e78.rlib(rtt_target-ba817fabe6541e78.rtt_target.a5746e51-cgu.7.rcgu.o):(.debug_info)
    76b1     76b1        0     1                 
    79cd     79cd      5e4     1         /home/mabez/development/rust/embedded/experiments/esp32c3/target/riscv32imac-unknown-none-elf/debug/deps/librtt_target-ba817fabe6541e78.rlib(rtt_target-ba817fabe6541e78.rtt_target.a5746e51-cgu.8.rcgu.o):(.debug_info)
    79cd     79cd        0     1                 
    7fb1     7fb1      16e     1         /home/mabez/development/rust/embedded/experiments/esp32c3/target/riscv32imac-unknown-none-elf/debug/deps/librtt_target-ba817fabe6541e78.rlib(rtt_target-ba817fabe6541e78.rtt_target.a5746e51-cgu.9.rcgu.o):(.debug_info)
    7fb1     7fb1        0     1                 
    811f     811f      333     1         /home/mabez/development/rust/embedded/experiments/esp32c3/target/riscv32imac-unknown-none-elf/debug/deps/libesp32c3_lib-c6891e451671e2e8.rlib(esp32c3_lib-c6891e451671e2e8.50vycai6f6fblslz.rcgu.o):(.debug_info)
    811f     811f        0     1                 
    8452     8452      117     1         /home/mabez/development/rust/embedded/experiments/esp32c3/target/riscv32imac-unknown-none-elf/debug/deps/libesp32c3_lib-c6891e451671e2e8.rlib(esp32c3_lib-c6891e451671e2e8.2zwu2gzn9kym8n1i.rcgu.o):(.debug_info)
    8452     8452        0     1                 
    8569     8569      127     1         /home/mabez/development/rust/embedded/experiments/esp32c3/target/riscv32imac-unknown-none-elf/debug/deps/libesp32c3_lib-c6891e451671e2e8.rlib(esp32c3_lib-c6891e451671e2e8.52x8onntfu5vhxia.rcgu.o):(.debug_info)
    8569     8569        0     1                 
    8690     8690       5c     1         /home/mabez/development/rust/embedded/experiments/esp32c3/target/riscv32imac-unknown-none-elf/debug/deps/libbare_metal-01059decff6db7a9.rlib(bare_metal-01059decff6db7a9.bare_metal.c7fb2979-cgu.0.rcgu.o):(.debug_info)
    8690     8690        0     1                 
    86ec     86ec      15c     1         /home/mabez/development/rust/embedded/experiments/esp32c3/target/riscv32imac-unknown-none-elf/debug/deps/libembedded_hal-09d0b07e9f5d700b.rlib(embedded_hal-09d0b07e9f5d700b.embedded_hal.a1e71ce7-cgu.10.rcgu.o):(.debug_info)
    86ec     86ec        0     1                 
    8848     8848      48b     1         /home/mabez/development/rust/embedded/experiments/esp32c3/target/riscv32imac-unknown-none-elf/debug/deps/libembedded_hal-09d0b07e9f5d700b.rlib(embedded_hal-09d0b07e9f5d700b.embedded_hal.a1e71ce7-cgu.6.rcgu.o):(.debug_info)
    8848     8848        0     1                 
    8cd3     8cd3       cd     1         /home/mabez/development/rust/embedded/experiments/esp32c3/target/riscv32imac-unknown-none-elf/debug/deps/libembedded_hal-09d0b07e9f5d700b.rlib(embedded_hal-09d0b07e9f5d700b.embedded_hal.a1e71ce7-cgu.4.rcgu.o):(.debug_info)
    8cd3     8cd3        0     1                 
    8da0     8da0       da     1         /home/mabez/development/rust/embedded/experiments/esp32c3/target/riscv32imac-unknown-none-elf/debug/deps/libembedded_hal-09d0b07e9f5d700b.rlib(embedded_hal-09d0b07e9f5d700b.embedded_hal.a1e71ce7-cgu.3.rcgu.o):(.debug_info)
    8da0     8da0        0     1                 
    8e7a     8e7a       cd     1         /home/mabez/development/rust/embedded/experiments/esp32c3/target/riscv32imac-unknown-none-elf/debug/deps/libembedded_hal-09d0b07e9f5d700b.rlib(embedded_hal-09d0b07e9f5d700b.embedded_hal.a1e71ce7-cgu.7.rcgu.o):(.debug_info)
    8e7a     8e7a        0     1                 
    8f47     8f47      2a2     1         /home/mabez/development/rust/embedded/experiments/esp32c3/target/riscv32imac-unknown-none-elf/debug/deps/libvoid-9bf68c712c7c3b51.rlib(void-9bf68c712c7c3b51.void.0c241590-cgu.0.rcgu.o):(.debug_info)
    8f47     8f47        0     1                 
    91e9     91e9    1efb3     1         /home/mabez/.rustup/toolchains/nightly-x86_64-unknown-linux-gnu/lib/rustlib/riscv32imac-unknown-none-elf/lib/libcore-081fd8405fc18f2e.rlib(core-081fd8405fc18f2e.core.364d98f8-cgu.0.rcgu.o):(.debug_info)
    91e9     91e9        0     1                 
   2819c    2819c      1a1     1         /home/mabez/.rustup/toolchains/nightly-x86_64-unknown-linux-gnu/lib/rustlib/riscv32imac-unknown-none-elf/lib/libcompiler_builtins-64fdae85a7f05972.rlib(compiler_builtins-64fdae85a7f05972.compiler_builtins.ce5182a1-cgu.1.rcgu.o):(.debug_info)
   2819c    2819c        0     1                 
   2833d    2833d      209     1         /home/mabez/.rustup/toolchains/nightly-x86_64-unknown-linux-gnu/lib/rustlib/riscv32imac-unknown-none-elf/lib/libcompiler_builtins-64fdae85a7f05972.rlib(compiler_builtins-64fdae85a7f05972.compiler_builtins.ce5182a1-cgu.104.rcgu.o):(.debug_info)
   2833d    2833d        0     1                 
   28546    28546      13e     1         /home/mabez/.rustup/toolchains/nightly-x86_64-unknown-linux-gnu/lib/rustlib/riscv32imac-unknown-none-elf/lib/libcompiler_builtins-64fdae85a7f05972.rlib(compiler_builtins-64fdae85a7f05972.compiler_builtins.ce5182a1-cgu.11.rcgu.o):(.debug_info)
   28546    28546        0     1                 
   28684    28684      287     1         /home/mabez/.rustup/toolchains/nightly-x86_64-unknown-linux-gnu/lib/rustlib/riscv32imac-unknown-none-elf/lib/libcompiler_builtins-64fdae85a7f05972.rlib(compiler_builtins-64fdae85a7f05972.compiler_builtins.ce5182a1-cgu.113.rcgu.o):(.debug_info)
   28684    28684        0     1                 
   2890b    2890b      a26     1         /home/mabez/.rustup/toolchains/nightly-x86_64-unknown-linux-gnu/lib/rustlib/riscv32imac-unknown-none-elf/lib/libcompiler_builtins-64fdae85a7f05972.rlib(compiler_builtins-64fdae85a7f05972.compiler_builtins.ce5182a1-cgu.121.rcgu.o):(.debug_info)
   2890b    2890b        0     1                 
   29331    29331      13e     1         /home/mabez/.rustup/toolchains/nightly-x86_64-unknown-linux-gnu/lib/rustlib/riscv32imac-unknown-none-elf/lib/libcompiler_builtins-64fdae85a7f05972.rlib(compiler_builtins-64fdae85a7f05972.compiler_builtins.ce5182a1-cgu.16.rcgu.o):(.debug_info)
   29331    29331        0     1                 
   2946f    2946f      1a1     1         /home/mabez/.rustup/toolchains/nightly-x86_64-unknown-linux-gnu/lib/rustlib/riscv32imac-unknown-none-elf/lib/libcompiler_builtins-64fdae85a7f05972.rlib(compiler_builtins-64fdae85a7f05972.compiler_builtins.ce5182a1-cgu.21.rcgu.o):(.debug_info)
   2946f    2946f        0     1                 
   29610    29610      264     1         /home/mabez/.rustup/toolchains/nightly-x86_64-unknown-linux-gnu/lib/rustlib/riscv32imac-unknown-none-elf/lib/libcompiler_builtins-64fdae85a7f05972.rlib(compiler_builtins-64fdae85a7f05972.compiler_builtins.ce5182a1-cgu.22.rcgu.o):(.debug_info)
   29610    29610        0     1                 
   29874    29874      244     1         /home/mabez/.rustup/toolchains/nightly-x86_64-unknown-linux-gnu/lib/rustlib/riscv32imac-unknown-none-elf/lib/libcompiler_builtins-64fdae85a7f05972.rlib(compiler_builtins-64fdae85a7f05972.compiler_builtins.ce5182a1-cgu.23.rcgu.o):(.debug_info)
   29874    29874        0     1                 
   29ab8    29ab8      1a1     1         /home/mabez/.rustup/toolchains/nightly-x86_64-unknown-linux-gnu/lib/rustlib/riscv32imac-unknown-none-elf/lib/libcompiler_builtins-64fdae85a7f05972.rlib(compiler_builtins-64fdae85a7f05972.compiler_builtins.ce5182a1-cgu.42.rcgu.o):(.debug_info)
   29ab8    29ab8        0     1                 
   29c59    29c59       70     1         /home/mabez/.rustup/toolchains/nightly-x86_64-unknown-linux-gnu/lib/rustlib/riscv32imac-unknown-none-elf/lib/libcompiler_builtins-64fdae85a7f05972.rlib(compiler_builtins-64fdae85a7f05972.compiler_builtins.ce5182a1-cgu.58.rcgu.o):(.debug_info)
   29c59    29c59        0     1                 
   29cc9    29cc9      287     1         /home/mabez/.rustup/toolchains/nightly-x86_64-unknown-linux-gnu/lib/rustlib/riscv32imac-unknown-none-elf/lib/libcompiler_builtins-64fdae85a7f05972.rlib(compiler_builtins-64fdae85a7f05972.compiler_builtins.ce5182a1-cgu.62.rcgu.o):(.debug_info)
   29cc9    29cc9        0     1                 
   29f50    29f50      13e     1         /home/mabez/.rustup/toolchains/nightly-x86_64-unknown-linux-gnu/lib/rustlib/riscv32imac-unknown-none-elf/lib/libcompiler_builtins-64fdae85a7f05972.rlib(compiler_builtins-64fdae85a7f05972.compiler_builtins.ce5182a1-cgu.7.rcgu.o):(.debug_info)
   29f50    29f50        0     1                 
   2a08e    2a08e      164     1         /home/mabez/.rustup/toolchains/nightly-x86_64-unknown-linux-gnu/lib/rustlib/riscv32imac-unknown-none-elf/lib/libcompiler_builtins-64fdae85a7f05972.rlib(compiler_builtins-64fdae85a7f05972.compiler_builtins.ce5182a1-cgu.79.rcgu.o):(.debug_info)
   2a08e    2a08e        0     1                 
   2a1f2    2a1f2      390     1         /home/mabez/.rustup/toolchains/nightly-x86_64-unknown-linux-gnu/lib/rustlib/riscv32imac-unknown-none-elf/lib/libcompiler_builtins-64fdae85a7f05972.rlib(compiler_builtins-64fdae85a7f05972.compiler_builtins.ce5182a1-cgu.86.rcgu.o):(.debug_info)
   2a1f2    2a1f2        0     1                 
   2a582    2a582      17d     1         /home/mabez/.rustup/toolchains/nightly-x86_64-unknown-linux-gnu/lib/rustlib/riscv32imac-unknown-none-elf/lib/libcompiler_builtins-64fdae85a7f05972.rlib(compiler_builtins-64fdae85a7f05972.compiler_builtins.ce5182a1-cgu.66.rcgu.o):(.debug_info)
   2a582    2a582        0     1                 
   2a6ff    2a6ff       70     1         /home/mabez/.rustup/toolchains/nightly-x86_64-unknown-linux-gnu/lib/rustlib/riscv32imac-unknown-none-elf/lib/libcompiler_builtins-64fdae85a7f05972.rlib(compiler_builtins-64fdae85a7f05972.compiler_builtins.ce5182a1-cgu.96.rcgu.o):(.debug_info)
   2a6ff    2a6ff        0     1                 
   2a76f    2a76f       70     1         /home/mabez/.rustup/toolchains/nightly-x86_64-unknown-linux-gnu/lib/rustlib/riscv32imac-unknown-none-elf/lib/libcompiler_builtins-64fdae85a7f05972.rlib(compiler_builtins-64fdae85a7f05972.compiler_builtins.ce5182a1-cgu.98.rcgu.o):(.debug_info)
   2a76f    2a76f        0     1                 
   2a7df    2a7df      5ce     1         /home/mabez/development/rust/embedded/experiments/esp32c3/target/riscv32imac-unknown-none-elf/debug/deps/libriscv_rt-9f6ededa1f4c9759.rlib(riscv_rt-9f6ededa1f4c9759.riscv_rt.da5378fb-cgu.3.rcgu.o):(.debug_info)
   2a7df    2a7df        0     1                 
   2adad    2adad      1f7     1         /home/mabez/development/rust/embedded/experiments/esp32c3/target/riscv32imac-unknown-none-elf/debug/deps/libriscv_rt-9f6ededa1f4c9759.rlib(riscv_rt-9f6ededa1f4c9759.riscv_rt.da5378fb-cgu.5.rcgu.o):(.debug_info)
   2adad    2adad        0     1                 
   2afa4    2afa4      1a4     1         /home/mabez/development/rust/embedded/experiments/esp32c3/target/riscv32imac-unknown-none-elf/debug/deps/libriscv_rt-9f6ededa1f4c9759.rlib(riscv_rt-9f6ededa1f4c9759.riscv_rt.da5378fb-cgu.0.rcgu.o):(.debug_info)
   2afa4    2afa4        0     1                 
   2b148    2b148      18b     1         /home/mabez/development/rust/embedded/experiments/esp32c3/target/riscv32imac-unknown-none-elf/debug/deps/libriscv_rt-9f6ededa1f4c9759.rlib(riscv_rt-9f6ededa1f4c9759.riscv_rt.da5378fb-cgu.1.rcgu.o):(.debug_info)
   2b148    2b148        0     1                 
   2b2d3    2b2d3       a2     1         /home/mabez/development/rust/embedded/experiments/esp32c3/target/riscv32imac-unknown-none-elf/debug/deps/libriscv_rt-9f6ededa1f4c9759.rlib(riscv_rt-9f6ededa1f4c9759.riscv_rt.da5378fb-cgu.6.rcgu.o):(.debug_info)
   2b2d3    2b2d3        0     1                 
   2b375    2b375       e9     1         /home/mabez/development/rust/embedded/experiments/esp32c3/target/riscv32imac-unknown-none-elf/debug/deps/libriscv_rt-9f6ededa1f4c9759.rlib(riscv_rt-9f6ededa1f4c9759.riscv_rt.da5378fb-cgu.4.rcgu.o):(.debug_info)
   2b375    2b375        0     1                 
   2b45e    2b45e      67f     1         /home/mabez/development/rust/embedded/experiments/esp32c3/target/riscv32imac-unknown-none-elf/debug/deps/libriscv-39f7ce6f6030497b.rlib(riscv-39f7ce6f6030497b.riscv.b201b7e1-cgu.0.rcgu.o):(.debug_info)
   2b45e    2b45e        0     1                 
   2badd    2badd      697     1         /home/mabez/development/rust/embedded/experiments/esp32c3/target/riscv32imac-unknown-none-elf/debug/deps/libriscv-39f7ce6f6030497b.rlib(riscv-39f7ce6f6030497b.riscv.b201b7e1-cgu.9.rcgu.o):(.debug_info)
   2badd    2badd        0     1                 
   2c174    2c174      23c     1         /home/mabez/development/rust/embedded/experiments/esp32c3/target/riscv32imac-unknown-none-elf/debug/deps/libriscv-39f7ce6f6030497b.rlib(riscv-39f7ce6f6030497b.riscv.b201b7e1-cgu.4.rcgu.o):(.debug_info)
   2c174    2c174        0     1                 
   2c3b0    2c3b0       72     1         /home/mabez/development/rust/embedded/experiments/esp32c3/target/riscv32imac-unknown-none-elf/debug/deps/libriscv_rt-9f6ededa1f4c9759.rlib(riscv_rt-9f6ededa1f4c9759.riscv_rt.da5378fb-cgu.8.rcgu.o):(.debug_info)
   2c3b0    2c3b0        0     1                 
   2c422    2c422       48     1         /home/mabez/development/rust/embedded/experiments/esp32c3/target/riscv32imac-unknown-none-elf/debug/deps/libriscv_rt-9f6ededa1f4c9759.rlib(riscv_rt-9f6ededa1f4c9759.riscv_rt.da5378fb-cgu.7.rcgu.o):(.debug_info)
   2c422    2c422        0     1                 
   2c46a    2c46a       7d     1         /home/mabez/development/rust/embedded/experiments/esp32c3/target/riscv32imac-unknown-none-elf/debug/deps/libriscv_rt-9f6ededa1f4c9759.rlib(riscv_rt-9f6ededa1f4c9759.riscv_rt.da5378fb-cgu.2.rcgu.o):(.debug_info)
   2c46a    2c46a        0     1                 
   2c4e7    2c4e7       23     1         /home/mabez/development/rust/embedded/experiments/esp32c3/target/riscv32imac-unknown-none-elf/debug/deps/libriscv_rt-9f6ededa1f4c9759.rlib(riscv-rt.o):(.debug_info)
   2c50a    2c50a       25     1         /home/mabez/development/rust/embedded/experiments/esp32c3/target/riscv32imac-unknown-none-elf/debug/deps/libriscv_atomic_emulation_trap-fab535a27fe2d765.rlib(riscv-atomic-emulation-trap.o):(.debug_info)
   2c52f    2c52f      e9d     1         /home/mabez/development/rust/embedded/experiments/esp32c3/target/riscv32imac-unknown-none-elf/debug/deps/libriscv_atomic_emulation_trap-fab535a27fe2d765.rlib(riscv_atomic_emulation_trap-fab535a27fe2d765.riscv_atomic_emulation_trap.b3d57533-cgu.0.rcgu.o):(.debug_info)
   2c52f    2c52f        0     1                 
   2d3cc    2d3cc       f2     1         /home/mabez/development/rust/embedded/experiments/esp32c3/target/riscv32imac-unknown-none-elf/debug/deps/libriscv_atomic_emulation_trap-fab535a27fe2d765.rlib(riscv_atomic_emulation_trap-fab535a27fe2d765.riscv_atomic_emulation_trap.b3d57533-cgu.2.rcgu.o):(.debug_info)
   2d3cc    2d3cc        0     1                 
   2d4be    2d4be       b4     1         /home/mabez/development/rust/embedded/experiments/esp32c3/target/riscv32imac-unknown-none-elf/debug/deps/libriscv_atomic_emulation_trap-fab535a27fe2d765.rlib(riscv_atomic_emulation_trap-fab535a27fe2d765.riscv_atomic_emulation_trap.b3d57533-cgu.1.rcgu.o):(.debug_info)
   2d4be    2d4be        0     1                 
   2d572    2d572       d1     1         /home/mabez/development/rust/embedded/experiments/esp32c3/target/riscv32imac-unknown-none-elf/debug/deps/libriscv_atomic_emulation_trap-fab535a27fe2d765.rlib(riscv_atomic_emulation_trap-fab535a27fe2d765.riscv_atomic_emulation_trap.b3d57533-cgu.6.rcgu.o):(.debug_info)
   2d572    2d572        0     1                 
   2d643    2d643      1f5     1         /home/mabez/development/rust/embedded/experiments/esp32c3/target/riscv32imac-unknown-none-elf/debug/deps/libriscv_atomic_emulation_trap-fab535a27fe2d765.rlib(riscv_atomic_emulation_trap-fab535a27fe2d765.riscv_atomic_emulation_trap.b3d57533-cgu.3.rcgu.o):(.debug_info)
   2d643    2d643        0     1                 
   2d838    2d838      67f     1         /home/mabez/development/rust/embedded/experiments/esp32c3/target/riscv32imac-unknown-none-elf/debug/deps/libriscv-2df4d94086d6ad3d.rlib(riscv-2df4d94086d6ad3d.riscv.9f9f37cf-cgu.0.rcgu.o):(.debug_info)
   2d838    2d838        0     1                 
   2deb7    2deb7      6e4     1         /home/mabez/development/rust/embedded/experiments/esp32c3/target/riscv32imac-unknown-none-elf/debug/deps/libriscv-2df4d94086d6ad3d.rlib(riscv-2df4d94086d6ad3d.riscv.9f9f37cf-cgu.10.rcgu.o):(.debug_info)
   2deb7    2deb7        0     1                 
   2e59b    2e59b      408     1         /home/mabez/development/rust/embedded/experiments/esp32c3/target/riscv32imac-unknown-none-elf/debug/deps/libriscv-2df4d94086d6ad3d.rlib(riscv-2df4d94086d6ad3d.riscv.9f9f37cf-cgu.8.rcgu.o):(.debug_info)
   2e59b    2e59b        0     1                 
   2e9a3    2e9a3      23c     1         /home/mabez/development/rust/embedded/experiments/esp32c3/target/riscv32imac-unknown-none-elf/debug/deps/libriscv-2df4d94086d6ad3d.rlib(riscv-2df4d94086d6ad3d.riscv.9f9f37cf-cgu.4.rcgu.o):(.debug_info)
   2e9a3    2e9a3        0     1                 
   2ebdf    2ebdf      3c7     1         /home/mabez/development/rust/embedded/experiments/esp32c3/target/riscv32imac-unknown-none-elf/debug/deps/libriscv-2df4d94086d6ad3d.rlib(riscv-2df4d94086d6ad3d.riscv.9f9f37cf-cgu.11.rcgu.o):(.debug_info)
   2ebdf    2ebdf        0     1                 
   2efa6    2efa6      331     1         /home/mabez/development/rust/embedded/experiments/esp32c3/target/riscv32imac-unknown-none-elf/debug/deps/libriscv_atomic_emulation_trap-fab535a27fe2d765.rlib(riscv_atomic_emulation_trap-fab535a27fe2d765.riscv_atomic_emulation_trap.b3d57533-cgu.5.rcgu.o):(.debug_info)
   2efa6    2efa6        0     1                 
   2f2d7    2f2d7      1c5     1         /home/mabez/development/rust/embedded/experiments/esp32c3/target/riscv32imac-unknown-none-elf/debug/deps/libriscv_atomic_emulation_trap-fab535a27fe2d765.rlib(riscv_atomic_emulation_trap-fab535a27fe2d765.riscv_atomic_emulation_trap.b3d57533-cgu.7.rcgu.o):(.debug_info)
   2f2d7    2f2d7        0     1                 
   2f49c    2f49c      105     1         /home/mabez/development/rust/embedded/experiments/esp32c3/target/riscv32imac-unknown-none-elf/debug/deps/libriscv_atomic_emulation_trap-fab535a27fe2d765.rlib(riscv_atomic_emulation_trap-fab535a27fe2d765.riscv_atomic_emulation_trap.b3d57533-cgu.4.rcgu.o):(.debug_info)
   2f49c    2f49c        0     1                 
       0        0     2a18     8 .debug_aranges
       0        0       38     1         /home/mabez/development/rust/embedded/experiments/esp32c3/target/riscv32imac-unknown-none-elf/debug/deps/esp32c3-6c8eecfb34724107.16oo1rtpmbk0weq7.rcgu.o:(.debug_aranges)
      38       38       20     1         /home/mabez/development/rust/embedded/experiments/esp32c3/target/riscv32imac-unknown-none-elf/debug/deps/esp32c3-6c8eecfb34724107.1idhibzi0mpmbahx.rcgu.o:(.debug_aranges)
      58       58       58     1         /home/mabez/development/rust/embedded/experiments/esp32c3/target/riscv32imac-unknown-none-elf/debug/deps/esp32c3-6c8eecfb34724107.1phwpl9yylfc3qa9.rcgu.o:(.debug_aranges)
      b0       b0       20     1         /home/mabez/development/rust/embedded/experiments/esp32c3/target/riscv32imac-unknown-none-elf/debug/deps/esp32c3-6c8eecfb34724107.31w2p0rmtqdazjy9.rcgu.o:(.debug_aranges)
      d0       d0       40     1         /home/mabez/development/rust/embedded/experiments/esp32c3/target/riscv32imac-unknown-none-elf/debug/deps/esp32c3-6c8eecfb34724107.360z2ancvg6ixrl4.rcgu.o:(.debug_aranges)
     110      110       50     1         /home/mabez/development/rust/embedded/experiments/esp32c3/target/riscv32imac-unknown-none-elf/debug/deps/esp32c3-6c8eecfb34724107.3dax6gsnt3idpsze.rcgu.o:(.debug_aranges)
     160      160       20     1         /home/mabez/development/rust/embedded/experiments/esp32c3/target/riscv32imac-unknown-none-elf/debug/deps/esp32c3-6c8eecfb34724107.3e2vhcvnvpvomz83.rcgu.o:(.debug_aranges)
     180      180       38     1         /home/mabez/development/rust/embedded/experiments/esp32c3/target/riscv32imac-unknown-none-elf/debug/deps/esp32c3-6c8eecfb34724107.3hh2vqqri9noju8i.rcgu.o:(.debug_aranges)
     1b8      1b8       30     1         /home/mabez/development/rust/embedded/experiments/esp32c3/target/riscv32imac-unknown-none-elf/debug/deps/esp32c3-6c8eecfb34724107.46dv6jlxri7vu0zk.rcgu.o:(.debug_aranges)
     1e8      1e8       20     1         /home/mabez/development/rust/embedded/experiments/esp32c3/target/riscv32imac-unknown-none-elf/debug/deps/esp32c3-6c8eecfb34724107.59383vjg8ah1nwp0.rcgu.o:(.debug_aranges)
     208      208       28     1         /home/mabez/development/rust/embedded/experiments/esp32c3/target/riscv32imac-unknown-none-elf/debug/deps/esp32c3-6c8eecfb34724107.h4h1jg4d5ugkhbg.rcgu.o:(.debug_aranges)
     230      230       28     1         /home/mabez/development/rust/embedded/experiments/esp32c3/target/riscv32imac-unknown-none-elf/debug/deps/esp32c3-6c8eecfb34724107.p5cpnu5dso05alz.rcgu.o:(.debug_aranges)
     258      258       48     1         /home/mabez/development/rust/embedded/experiments/esp32c3/target/riscv32imac-unknown-none-elf/debug/deps/esp32c3-6c8eecfb34724107.v0f7at9a6qkyll5.rcgu.o:(.debug_aranges)
     2a0      2a0       30     1         /home/mabez/development/rust/embedded/experiments/esp32c3/target/riscv32imac-unknown-none-elf/debug/deps/esp32c3-6c8eecfb34724107.zvsvxmou5gfsy4h.rcgu.o:(.debug_aranges)
     2d0      2d0       e8     1         /home/mabez/development/rust/embedded/experiments/esp32c3/target/riscv32imac-unknown-none-elf/debug/deps/librtt_target-ba817fabe6541e78.rlib(rtt_target-ba817fabe6541e78.rtt_target.a5746e51-cgu.0.rcgu.o):(.debug_aranges)
     3b8      3b8       60     1         /home/mabez/development/rust/embedded/experiments/esp32c3/target/riscv32imac-unknown-none-elf/debug/deps/librtt_target-ba817fabe6541e78.rlib(rtt_target-ba817fabe6541e78.rtt_target.a5746e51-cgu.1.rcgu.o):(.debug_aranges)
     418      418       38     1         /home/mabez/development/rust/embedded/experiments/esp32c3/target/riscv32imac-unknown-none-elf/debug/deps/librtt_target-ba817fabe6541e78.rlib(rtt_target-ba817fabe6541e78.rtt_target.a5746e51-cgu.10.rcgu.o):(.debug_aranges)
     450      450       60     1         /home/mabez/development/rust/embedded/experiments/esp32c3/target/riscv32imac-unknown-none-elf/debug/deps/librtt_target-ba817fabe6541e78.rlib(rtt_target-ba817fabe6541e78.rtt_target.a5746e51-cgu.11.rcgu.o):(.debug_aranges)
     4b0      4b0       48     1         /home/mabez/development/rust/embedded/experiments/esp32c3/target/riscv32imac-unknown-none-elf/debug/deps/librtt_target-ba817fabe6541e78.rlib(rtt_target-ba817fabe6541e78.rtt_target.a5746e51-cgu.12.rcgu.o):(.debug_aranges)
     4f8      4f8       38     1         /home/mabez/development/rust/embedded/experiments/esp32c3/target/riscv32imac-unknown-none-elf/debug/deps/librtt_target-ba817fabe6541e78.rlib(rtt_target-ba817fabe6541e78.rtt_target.a5746e51-cgu.14.rcgu.o):(.debug_aranges)
     530      530       48     1         /home/mabez/development/rust/embedded/experiments/esp32c3/target/riscv32imac-unknown-none-elf/debug/deps/librtt_target-ba817fabe6541e78.rlib(rtt_target-ba817fabe6541e78.rtt_target.a5746e51-cgu.15.rcgu.o):(.debug_aranges)
     578      578       30     1         /home/mabez/development/rust/embedded/experiments/esp32c3/target/riscv32imac-unknown-none-elf/debug/deps/librtt_target-ba817fabe6541e78.rlib(rtt_target-ba817fabe6541e78.rtt_target.a5746e51-cgu.2.rcgu.o):(.debug_aranges)
     5a8      5a8       f8     1         /home/mabez/development/rust/embedded/experiments/esp32c3/target/riscv32imac-unknown-none-elf/debug/deps/librtt_target-ba817fabe6541e78.rlib(rtt_target-ba817fabe6541e78.rtt_target.a5746e51-cgu.3.rcgu.o):(.debug_aranges)
     6a0      6a0       60     1         /home/mabez/development/rust/embedded/experiments/esp32c3/target/riscv32imac-unknown-none-elf/debug/deps/librtt_target-ba817fabe6541e78.rlib(rtt_target-ba817fabe6541e78.rtt_target.a5746e51-cgu.4.rcgu.o):(.debug_aranges)
     700      700       30     1         /home/mabez/development/rust/embedded/experiments/esp32c3/target/riscv32imac-unknown-none-elf/debug/deps/librtt_target-ba817fabe6541e78.rlib(rtt_target-ba817fabe6541e78.rtt_target.a5746e51-cgu.13.rcgu.o):(.debug_aranges)
     730      730       30     1         /home/mabez/development/rust/embedded/experiments/esp32c3/target/riscv32imac-unknown-none-elf/debug/deps/librtt_target-ba817fabe6541e78.rlib(rtt_target-ba817fabe6541e78.rtt_target.a5746e51-cgu.5.rcgu.o):(.debug_aranges)
     760      760       58     1         /home/mabez/development/rust/embedded/experiments/esp32c3/target/riscv32imac-unknown-none-elf/debug/deps/librtt_target-ba817fabe6541e78.rlib(rtt_target-ba817fabe6541e78.rtt_target.a5746e51-cgu.6.rcgu.o):(.debug_aranges)
     7b8      7b8       48     1         /home/mabez/development/rust/embedded/experiments/esp32c3/target/riscv32imac-unknown-none-elf/debug/deps/librtt_target-ba817fabe6541e78.rlib(rtt_target-ba817fabe6541e78.rtt_target.a5746e51-cgu.7.rcgu.o):(.debug_aranges)
     800      800       80     1         /home/mabez/development/rust/embedded/experiments/esp32c3/target/riscv32imac-unknown-none-elf/debug/deps/librtt_target-ba817fabe6541e78.rlib(rtt_target-ba817fabe6541e78.rtt_target.a5746e51-cgu.8.rcgu.o):(.debug_aranges)
     880      880       30     1         /home/mabez/development/rust/embedded/experiments/esp32c3/target/riscv32imac-unknown-none-elf/debug/deps/librtt_target-ba817fabe6541e78.rlib(rtt_target-ba817fabe6541e78.rtt_target.a5746e51-cgu.9.rcgu.o):(.debug_aranges)
     8b0      8b0       50     1         /home/mabez/development/rust/embedded/experiments/esp32c3/target/riscv32imac-unknown-none-elf/debug/deps/libesp32c3_lib-c6891e451671e2e8.rlib(esp32c3_lib-c6891e451671e2e8.50vycai6f6fblslz.rcgu.o):(.debug_aranges)
     900      900       30     1         /home/mabez/development/rust/embedded/experiments/esp32c3/target/riscv32imac-unknown-none-elf/debug/deps/libesp32c3_lib-c6891e451671e2e8.rlib(esp32c3_lib-c6891e451671e2e8.2zwu2gzn9kym8n1i.rcgu.o):(.debug_aranges)
     930      930       20     1         /home/mabez/development/rust/embedded/experiments/esp32c3/target/riscv32imac-unknown-none-elf/debug/deps/libesp32c3_lib-c6891e451671e2e8.rlib(esp32c3_lib-c6891e451671e2e8.52x8onntfu5vhxia.rcgu.o):(.debug_aranges)
     950      950       20     1         /home/mabez/development/rust/embedded/experiments/esp32c3/target/riscv32imac-unknown-none-elf/debug/deps/libbare_metal-01059decff6db7a9.rlib(bare_metal-01059decff6db7a9.bare_metal.c7fb2979-cgu.0.rcgu.o):(.debug_aranges)
     970      970       28     1         /home/mabez/development/rust/embedded/experiments/esp32c3/target/riscv32imac-unknown-none-elf/debug/deps/libembedded_hal-09d0b07e9f5d700b.rlib(embedded_hal-09d0b07e9f5d700b.embedded_hal.a1e71ce7-cgu.10.rcgu.o):(.debug_aranges)
     998      998       30     1         /home/mabez/development/rust/embedded/experiments/esp32c3/target/riscv32imac-unknown-none-elf/debug/deps/libembedded_hal-09d0b07e9f5d700b.rlib(embedded_hal-09d0b07e9f5d700b.embedded_hal.a1e71ce7-cgu.6.rcgu.o):(.debug_aranges)
     9c8      9c8       28     1         /home/mabez/development/rust/embedded/experiments/esp32c3/target/riscv32imac-unknown-none-elf/debug/deps/libembedded_hal-09d0b07e9f5d700b.rlib(embedded_hal-09d0b07e9f5d700b.embedded_hal.a1e71ce7-cgu.4.rcgu.o):(.debug_aranges)
     9f0      9f0       28     1         /home/mabez/development/rust/embedded/experiments/esp32c3/target/riscv32imac-unknown-none-elf/debug/deps/libembedded_hal-09d0b07e9f5d700b.rlib(embedded_hal-09d0b07e9f5d700b.embedded_hal.a1e71ce7-cgu.3.rcgu.o):(.debug_aranges)
     a18      a18       28     1         /home/mabez/development/rust/embedded/experiments/esp32c3/target/riscv32imac-unknown-none-elf/debug/deps/libembedded_hal-09d0b07e9f5d700b.rlib(embedded_hal-09d0b07e9f5d700b.embedded_hal.a1e71ce7-cgu.7.rcgu.o):(.debug_aranges)
     a40      a40       30     1         /home/mabez/development/rust/embedded/experiments/esp32c3/target/riscv32imac-unknown-none-elf/debug/deps/libvoid-9bf68c712c7c3b51.rlib(void-9bf68c712c7c3b51.void.0c241590-cgu.0.rcgu.o):(.debug_aranges)
     a70      a70     1660     1         /home/mabez/.rustup/toolchains/nightly-x86_64-unknown-linux-gnu/lib/rustlib/riscv32imac-unknown-none-elf/lib/libcore-081fd8405fc18f2e.rlib(core-081fd8405fc18f2e.core.364d98f8-cgu.0.rcgu.o):(.debug_aranges)
    20d0     20d0       20     1         /home/mabez/.rustup/toolchains/nightly-x86_64-unknown-linux-gnu/lib/rustlib/riscv32imac-unknown-none-elf/lib/libcompiler_builtins-64fdae85a7f05972.rlib(compiler_builtins-64fdae85a7f05972.compiler_builtins.ce5182a1-cgu.1.rcgu.o):(.debug_aranges)
    20f0     20f0       20     1         /home/mabez/.rustup/toolchains/nightly-x86_64-unknown-linux-gnu/lib/rustlib/riscv32imac-unknown-none-elf/lib/libcompiler_builtins-64fdae85a7f05972.rlib(compiler_builtins-64fdae85a7f05972.compiler_builtins.ce5182a1-cgu.104.rcgu.o):(.debug_aranges)
    2110     2110       20     1         /home/mabez/.rustup/toolchains/nightly-x86_64-unknown-linux-gnu/lib/rustlib/riscv32imac-unknown-none-elf/lib/libcompiler_builtins-64fdae85a7f05972.rlib(compiler_builtins-64fdae85a7f05972.compiler_builtins.ce5182a1-cgu.11.rcgu.o):(.debug_aranges)
    2130     2130       20     1         /home/mabez/.rustup/toolchains/nightly-x86_64-unknown-linux-gnu/lib/rustlib/riscv32imac-unknown-none-elf/lib/libcompiler_builtins-64fdae85a7f05972.rlib(compiler_builtins-64fdae85a7f05972.compiler_builtins.ce5182a1-cgu.113.rcgu.o):(.debug_aranges)
    2150     2150       88     1         /home/mabez/.rustup/toolchains/nightly-x86_64-unknown-linux-gnu/lib/rustlib/riscv32imac-unknown-none-elf/lib/libcompiler_builtins-64fdae85a7f05972.rlib(compiler_builtins-64fdae85a7f05972.compiler_builtins.ce5182a1-cgu.121.rcgu.o):(.debug_aranges)
    21d8     21d8       20     1         /home/mabez/.rustup/toolchains/nightly-x86_64-unknown-linux-gnu/lib/rustlib/riscv32imac-unknown-none-elf/lib/libcompiler_builtins-64fdae85a7f05972.rlib(compiler_builtins-64fdae85a7f05972.compiler_builtins.ce5182a1-cgu.16.rcgu.o):(.debug_aranges)
    21f8     21f8       20     1         /home/mabez/.rustup/toolchains/nightly-x86_64-unknown-linux-gnu/lib/rustlib/riscv32imac-unknown-none-elf/lib/libcompiler_builtins-64fdae85a7f05972.rlib(compiler_builtins-64fdae85a7f05972.compiler_builtins.ce5182a1-cgu.21.rcgu.o):(.debug_aranges)
    2218     2218       20     1         /home/mabez/.rustup/toolchains/nightly-x86_64-unknown-linux-gnu/lib/rustlib/riscv32imac-unknown-none-elf/lib/libcompiler_builtins-64fdae85a7f05972.rlib(compiler_builtins-64fdae85a7f05972.compiler_builtins.ce5182a1-cgu.22.rcgu.o):(.debug_aranges)
    2238     2238       20     1         /home/mabez/.rustup/toolchains/nightly-x86_64-unknown-linux-gnu/lib/rustlib/riscv32imac-unknown-none-elf/lib/libcompiler_builtins-64fdae85a7f05972.rlib(compiler_builtins-64fdae85a7f05972.compiler_builtins.ce5182a1-cgu.23.rcgu.o):(.debug_aranges)
    2258     2258       20     1         /home/mabez/.rustup/toolchains/nightly-x86_64-unknown-linux-gnu/lib/rustlib/riscv32imac-unknown-none-elf/lib/libcompiler_builtins-64fdae85a7f05972.rlib(compiler_builtins-64fdae85a7f05972.compiler_builtins.ce5182a1-cgu.42.rcgu.o):(.debug_aranges)
    2278     2278       20     1         /home/mabez/.rustup/toolchains/nightly-x86_64-unknown-linux-gnu/lib/rustlib/riscv32imac-unknown-none-elf/lib/libcompiler_builtins-64fdae85a7f05972.rlib(compiler_builtins-64fdae85a7f05972.compiler_builtins.ce5182a1-cgu.58.rcgu.o):(.debug_aranges)
    2298     2298       20     1         /home/mabez/.rustup/toolchains/nightly-x86_64-unknown-linux-gnu/lib/rustlib/riscv32imac-unknown-none-elf/lib/libcompiler_builtins-64fdae85a7f05972.rlib(compiler_builtins-64fdae85a7f05972.compiler_builtins.ce5182a1-cgu.62.rcgu.o):(.debug_aranges)
    22b8     22b8       20     1         /home/mabez/.rustup/toolchains/nightly-x86_64-unknown-linux-gnu/lib/rustlib/riscv32imac-unknown-none-elf/lib/libcompiler_builtins-64fdae85a7f05972.rlib(compiler_builtins-64fdae85a7f05972.compiler_builtins.ce5182a1-cgu.7.rcgu.o):(.debug_aranges)
    22d8     22d8       20     1         /home/mabez/.rustup/toolchains/nightly-x86_64-unknown-linux-gnu/lib/rustlib/riscv32imac-unknown-none-elf/lib/libcompiler_builtins-64fdae85a7f05972.rlib(compiler_builtins-64fdae85a7f05972.compiler_builtins.ce5182a1-cgu.79.rcgu.o):(.debug_aranges)
    22f8     22f8       30     1         /home/mabez/.rustup/toolchains/nightly-x86_64-unknown-linux-gnu/lib/rustlib/riscv32imac-unknown-none-elf/lib/libcompiler_builtins-64fdae85a7f05972.rlib(compiler_builtins-64fdae85a7f05972.compiler_builtins.ce5182a1-cgu.86.rcgu.o):(.debug_aranges)
    2328     2328       20     1         /home/mabez/.rustup/toolchains/nightly-x86_64-unknown-linux-gnu/lib/rustlib/riscv32imac-unknown-none-elf/lib/libcompiler_builtins-64fdae85a7f05972.rlib(compiler_builtins-64fdae85a7f05972.compiler_builtins.ce5182a1-cgu.66.rcgu.o):(.debug_aranges)
    2348     2348       20     1         /home/mabez/.rustup/toolchains/nightly-x86_64-unknown-linux-gnu/lib/rustlib/riscv32imac-unknown-none-elf/lib/libcompiler_builtins-64fdae85a7f05972.rlib(compiler_builtins-64fdae85a7f05972.compiler_builtins.ce5182a1-cgu.96.rcgu.o):(.debug_aranges)
    2368     2368       20     1         /home/mabez/.rustup/toolchains/nightly-x86_64-unknown-linux-gnu/lib/rustlib/riscv32imac-unknown-none-elf/lib/libcompiler_builtins-64fdae85a7f05972.rlib(compiler_builtins-64fdae85a7f05972.compiler_builtins.ce5182a1-cgu.98.rcgu.o):(.debug_aranges)
    2388     2388       68     1         /home/mabez/development/rust/embedded/experiments/esp32c3/target/riscv32imac-unknown-none-elf/debug/deps/libriscv_rt-9f6ededa1f4c9759.rlib(riscv_rt-9f6ededa1f4c9759.riscv_rt.da5378fb-cgu.3.rcgu.o):(.debug_aranges)
    23f0     23f0       28     1         /home/mabez/development/rust/embedded/experiments/esp32c3/target/riscv32imac-unknown-none-elf/debug/deps/libriscv_rt-9f6ededa1f4c9759.rlib(riscv_rt-9f6ededa1f4c9759.riscv_rt.da5378fb-cgu.5.rcgu.o):(.debug_aranges)
    2418     2418       30     1         /home/mabez/development/rust/embedded/experiments/esp32c3/target/riscv32imac-unknown-none-elf/debug/deps/libriscv_rt-9f6ededa1f4c9759.rlib(riscv_rt-9f6ededa1f4c9759.riscv_rt.da5378fb-cgu.0.rcgu.o):(.debug_aranges)
    2448     2448       20     1         /home/mabez/development/rust/embedded/experiments/esp32c3/target/riscv32imac-unknown-none-elf/debug/deps/libriscv_rt-9f6ededa1f4c9759.rlib(riscv_rt-9f6ededa1f4c9759.riscv_rt.da5378fb-cgu.1.rcgu.o):(.debug_aranges)
    2468     2468       20     1         /home/mabez/development/rust/embedded/experiments/esp32c3/target/riscv32imac-unknown-none-elf/debug/deps/libriscv_rt-9f6ededa1f4c9759.rlib(riscv_rt-9f6ededa1f4c9759.riscv_rt.da5378fb-cgu.6.rcgu.o):(.debug_aranges)
    2488     2488       38     1         /home/mabez/development/rust/embedded/experiments/esp32c3/target/riscv32imac-unknown-none-elf/debug/deps/libriscv_rt-9f6ededa1f4c9759.rlib(riscv_rt-9f6ededa1f4c9759.riscv_rt.da5378fb-cgu.4.rcgu.o):(.debug_aranges)
    24c0     24c0       78     1         /home/mabez/development/rust/embedded/experiments/esp32c3/target/riscv32imac-unknown-none-elf/debug/deps/libriscv-39f7ce6f6030497b.rlib(riscv-39f7ce6f6030497b.riscv.b201b7e1-cgu.0.rcgu.o):(.debug_aranges)
    2538     2538       70     1         /home/mabez/development/rust/embedded/experiments/esp32c3/target/riscv32imac-unknown-none-elf/debug/deps/libriscv-39f7ce6f6030497b.rlib(riscv-39f7ce6f6030497b.riscv.b201b7e1-cgu.9.rcgu.o):(.debug_aranges)
    25a8     25a8       28     1         /home/mabez/development/rust/embedded/experiments/esp32c3/target/riscv32imac-unknown-none-elf/debug/deps/libriscv-39f7ce6f6030497b.rlib(riscv-39f7ce6f6030497b.riscv.b201b7e1-cgu.4.rcgu.o):(.debug_aranges)
    25d0     25d0       28     1         /home/mabez/development/rust/embedded/experiments/esp32c3/target/riscv32imac-unknown-none-elf/debug/deps/libriscv_rt-9f6ededa1f4c9759.rlib(riscv_rt-9f6ededa1f4c9759.riscv_rt.da5378fb-cgu.8.rcgu.o):(.debug_aranges)
    25f8     25f8       20     1         /home/mabez/development/rust/embedded/experiments/esp32c3/target/riscv32imac-unknown-none-elf/debug/deps/libriscv_rt-9f6ededa1f4c9759.rlib(riscv_rt-9f6ededa1f4c9759.riscv_rt.da5378fb-cgu.7.rcgu.o):(.debug_aranges)
    2618     2618       20     1         /home/mabez/development/rust/embedded/experiments/esp32c3/target/riscv32imac-unknown-none-elf/debug/deps/libriscv_rt-9f6ededa1f4c9759.rlib(riscv_rt-9f6ededa1f4c9759.riscv_rt.da5378fb-cgu.2.rcgu.o):(.debug_aranges)
    2638     2638       30     8         /home/mabez/development/rust/embedded/experiments/esp32c3/target/riscv32imac-unknown-none-elf/debug/deps/libriscv_rt-9f6ededa1f4c9759.rlib(riscv-rt.o):(.debug_aranges)
    2668     2668       20     8         /home/mabez/development/rust/embedded/experiments/esp32c3/target/riscv32imac-unknown-none-elf/debug/deps/libriscv_atomic_emulation_trap-fab535a27fe2d765.rlib(riscv-atomic-emulation-trap.o):(.debug_aranges)
    2688     2688       98     1         /home/mabez/development/rust/embedded/experiments/esp32c3/target/riscv32imac-unknown-none-elf/debug/deps/libriscv_atomic_emulation_trap-fab535a27fe2d765.rlib(riscv_atomic_emulation_trap-fab535a27fe2d765.riscv_atomic_emulation_trap.b3d57533-cgu.0.rcgu.o):(.debug_aranges)
    2720     2720       28     1         /home/mabez/development/rust/embedded/experiments/esp32c3/target/riscv32imac-unknown-none-elf/debug/deps/libriscv_atomic_emulation_trap-fab535a27fe2d765.rlib(riscv_atomic_emulation_trap-fab535a27fe2d765.riscv_atomic_emulation_trap.b3d57533-cgu.2.rcgu.o):(.debug_aranges)
    2748     2748       20     1         /home/mabez/development/rust/embedded/experiments/esp32c3/target/riscv32imac-unknown-none-elf/debug/deps/libriscv_atomic_emulation_trap-fab535a27fe2d765.rlib(riscv_atomic_emulation_trap-fab535a27fe2d765.riscv_atomic_emulation_trap.b3d57533-cgu.1.rcgu.o):(.debug_aranges)
    2768     2768       20     1         /home/mabez/development/rust/embedded/experiments/esp32c3/target/riscv32imac-unknown-none-elf/debug/deps/libriscv_atomic_emulation_trap-fab535a27fe2d765.rlib(riscv_atomic_emulation_trap-fab535a27fe2d765.riscv_atomic_emulation_trap.b3d57533-cgu.6.rcgu.o):(.debug_aranges)
    2788     2788       38     1         /home/mabez/development/rust/embedded/experiments/esp32c3/target/riscv32imac-unknown-none-elf/debug/deps/libriscv_atomic_emulation_trap-fab535a27fe2d765.rlib(riscv_atomic_emulation_trap-fab535a27fe2d765.riscv_atomic_emulation_trap.b3d57533-cgu.3.rcgu.o):(.debug_aranges)
    27c0     27c0       78     1         /home/mabez/development/rust/embedded/experiments/esp32c3/target/riscv32imac-unknown-none-elf/debug/deps/libriscv-2df4d94086d6ad3d.rlib(riscv-2df4d94086d6ad3d.riscv.9f9f37cf-cgu.0.rcgu.o):(.debug_aranges)
    2838     2838       80     1         /home/mabez/development/rust/embedded/experiments/esp32c3/target/riscv32imac-unknown-none-elf/debug/deps/libriscv-2df4d94086d6ad3d.rlib(riscv-2df4d94086d6ad3d.riscv.9f9f37cf-cgu.10.rcgu.o):(.debug_aranges)
    28b8     28b8       48     1         /home/mabez/development/rust/embedded/experiments/esp32c3/target/riscv32imac-unknown-none-elf/debug/deps/libriscv-2df4d94086d6ad3d.rlib(riscv-2df4d94086d6ad3d.riscv.9f9f37cf-cgu.8.rcgu.o):(.debug_aranges)
    2900     2900       28     1         /home/mabez/development/rust/embedded/experiments/esp32c3/target/riscv32imac-unknown-none-elf/debug/deps/libriscv-2df4d94086d6ad3d.rlib(riscv-2df4d94086d6ad3d.riscv.9f9f37cf-cgu.4.rcgu.o):(.debug_aranges)
    2928     2928       40     1         /home/mabez/development/rust/embedded/experiments/esp32c3/target/riscv32imac-unknown-none-elf/debug/deps/libriscv-2df4d94086d6ad3d.rlib(riscv-2df4d94086d6ad3d.riscv.9f9f37cf-cgu.11.rcgu.o):(.debug_aranges)
    2968     2968       58     1         /home/mabez/development/rust/embedded/experiments/esp32c3/target/riscv32imac-unknown-none-elf/debug/deps/libriscv_atomic_emulation_trap-fab535a27fe2d765.rlib(riscv_atomic_emulation_trap-fab535a27fe2d765.riscv_atomic_emulation_trap.b3d57533-cgu.5.rcgu.o):(.debug_aranges)
    29c0     29c0       30     1         /home/mabez/development/rust/embedded/experiments/esp32c3/target/riscv32imac-unknown-none-elf/debug/deps/libriscv_atomic_emulation_trap-fab535a27fe2d765.rlib(riscv_atomic_emulation_trap-fab535a27fe2d765.riscv_atomic_emulation_trap.b3d57533-cgu.7.rcgu.o):(.debug_aranges)
    29f0     29f0       28     1         /home/mabez/development/rust/embedded/experiments/esp32c3/target/riscv32imac-unknown-none-elf/debug/deps/libriscv_atomic_emulation_trap-fab535a27fe2d765.rlib(riscv_atomic_emulation_trap-fab535a27fe2d765.riscv_atomic_emulation_trap.b3d57533-cgu.4.rcgu.o):(.debug_aranges)
       0        0     e500     1 .debug_ranges
       0        0       28     1         /home/mabez/development/rust/embedded/experiments/esp32c3/target/riscv32imac-unknown-none-elf/debug/deps/esp32c3-6c8eecfb34724107.16oo1rtpmbk0weq7.rcgu.o:(.debug_ranges)
       0        0        0     1                 
      28       28       28     1         /home/mabez/development/rust/embedded/experiments/esp32c3/target/riscv32imac-unknown-none-elf/debug/deps/esp32c3-6c8eecfb34724107.1phwpl9yylfc3qa9.rcgu.o:(.debug_ranges)
      28       28        0     1                 
      50       50       30     1         /home/mabez/development/rust/embedded/experiments/esp32c3/target/riscv32imac-unknown-none-elf/debug/deps/esp32c3-6c8eecfb34724107.360z2ancvg6ixrl4.rcgu.o:(.debug_ranges)
      50       50        0     1                 
      80       80       20     1         /home/mabez/development/rust/embedded/experiments/esp32c3/target/riscv32imac-unknown-none-elf/debug/deps/esp32c3-6c8eecfb34724107.3dax6gsnt3idpsze.rcgu.o:(.debug_ranges)
      80       80        0     1                 
      a0       a0       28     1         /home/mabez/development/rust/embedded/experiments/esp32c3/target/riscv32imac-unknown-none-elf/debug/deps/esp32c3-6c8eecfb34724107.3hh2vqqri9noju8i.rcgu.o:(.debug_ranges)
      a0       a0        0     1                 
      c8       c8       20     1         /home/mabez/development/rust/embedded/experiments/esp32c3/target/riscv32imac-unknown-none-elf/debug/deps/esp32c3-6c8eecfb34724107.46dv6jlxri7vu0zk.rcgu.o:(.debug_ranges)
      c8       c8        0     1                 
      e8       e8       18     1         /home/mabez/development/rust/embedded/experiments/esp32c3/target/riscv32imac-unknown-none-elf/debug/deps/esp32c3-6c8eecfb34724107.h4h1jg4d5ugkhbg.rcgu.o:(.debug_ranges)
      e8       e8        0     1                 
     100      100       30     1         /home/mabez/development/rust/embedded/experiments/esp32c3/target/riscv32imac-unknown-none-elf/debug/deps/esp32c3-6c8eecfb34724107.p5cpnu5dso05alz.rcgu.o:(.debug_ranges)
     100      100        0     1                 
     118      118        0     1                 
     130      130       30     1         /home/mabez/development/rust/embedded/experiments/esp32c3/target/riscv32imac-unknown-none-elf/debug/deps/esp32c3-6c8eecfb34724107.v0f7at9a6qkyll5.rcgu.o:(.debug_ranges)
     130      130        0     1                 
     160      160       50     1         /home/mabez/development/rust/embedded/experiments/esp32c3/target/riscv32imac-unknown-none-elf/debug/deps/esp32c3-6c8eecfb34724107.zvsvxmou5gfsy4h.rcgu.o:(.debug_ranges)
     160      160        0     1                 
     178      178        0     1                 
     190      190        0     1                 
     1b0      1b0      130     1         /home/mabez/development/rust/embedded/experiments/esp32c3/target/riscv32imac-unknown-none-elf/debug/deps/librtt_target-ba817fabe6541e78.rlib(rtt_target-ba817fabe6541e78.rtt_target.a5746e51-cgu.0.rcgu.o):(.debug_ranges)
     1b0      1b0        0     1                 
     1c8      1c8        0     1                 
     1e0      1e0        0     1                 
     1f8      1f8        0     1                 
     210      210        0     1                 
     2e0      2e0       50     1         /home/mabez/development/rust/embedded/experiments/esp32c3/target/riscv32imac-unknown-none-elf/debug/deps/librtt_target-ba817fabe6541e78.rlib(rtt_target-ba817fabe6541e78.rtt_target.a5746e51-cgu.1.rcgu.o):(.debug_ranges)
     2e0      2e0        0     1                 
     330      330       28     1         /home/mabez/development/rust/embedded/experiments/esp32c3/target/riscv32imac-unknown-none-elf/debug/deps/librtt_target-ba817fabe6541e78.rlib(rtt_target-ba817fabe6541e78.rtt_target.a5746e51-cgu.10.rcgu.o):(.debug_ranges)
     330      330        0     1                 
     358      358       50     1         /home/mabez/development/rust/embedded/experiments/esp32c3/target/riscv32imac-unknown-none-elf/debug/deps/librtt_target-ba817fabe6541e78.rlib(rtt_target-ba817fabe6541e78.rtt_target.a5746e51-cgu.11.rcgu.o):(.debug_ranges)
     358      358        0     1                 
     3a8      3a8       30     1         /home/mabez/development/rust/embedded/experiments/esp32c3/target/riscv32imac-unknown-none-elf/debug/deps/librtt_target-ba817fabe6541e78.rlib(rtt_target-ba817fabe6541e78.rtt_target.a5746e51-cgu.12.rcgu.o):(.debug_ranges)
     3a8      3a8        0     1                 
     3d8      3d8       28     1         /home/mabez/development/rust/embedded/experiments/esp32c3/target/riscv32imac-unknown-none-elf/debug/deps/librtt_target-ba817fabe6541e78.rlib(rtt_target-ba817fabe6541e78.rtt_target.a5746e51-cgu.14.rcgu.o):(.debug_ranges)
     3d8      3d8        0     1                 
     400      400       68     1         /home/mabez/development/rust/embedded/experiments/esp32c3/target/riscv32imac-unknown-none-elf/debug/deps/librtt_target-ba817fabe6541e78.rlib(rtt_target-ba817fabe6541e78.rtt_target.a5746e51-cgu.15.rcgu.o):(.debug_ranges)
     400      400        0     1                 
     418      418        0     1                 
     430      430        0     1                 
     468      468       50     1         /home/mabez/development/rust/embedded/experiments/esp32c3/target/riscv32imac-unknown-none-elf/debug/deps/librtt_target-ba817fabe6541e78.rlib(rtt_target-ba817fabe6541e78.rtt_target.a5746e51-cgu.2.rcgu.o):(.debug_ranges)
     468      468        0     1                 
     480      480        0     1                 
     498      498        0     1                 
     4b8      4b8      110     1         /home/mabez/development/rust/embedded/experiments/esp32c3/target/riscv32imac-unknown-none-elf/debug/deps/librtt_target-ba817fabe6541e78.rlib(rtt_target-ba817fabe6541e78.rtt_target.a5746e51-cgu.3.rcgu.o):(.debug_ranges)
     4b8      4b8        0     1                 
     4d0      4d0        0     1                 
     4e8      4e8        0     1                 
     5c8      5c8       50     1         /home/mabez/development/rust/embedded/experiments/esp32c3/target/riscv32imac-unknown-none-elf/debug/deps/librtt_target-ba817fabe6541e78.rlib(rtt_target-ba817fabe6541e78.rtt_target.a5746e51-cgu.4.rcgu.o):(.debug_ranges)
     5c8      5c8        0     1                 
     618      618       20     1         /home/mabez/development/rust/embedded/experiments/esp32c3/target/riscv32imac-unknown-none-elf/debug/deps/librtt_target-ba817fabe6541e78.rlib(rtt_target-ba817fabe6541e78.rtt_target.a5746e51-cgu.13.rcgu.o):(.debug_ranges)
     618      618        0     1                 
     638      638       20     1         /home/mabez/development/rust/embedded/experiments/esp32c3/target/riscv32imac-unknown-none-elf/debug/deps/librtt_target-ba817fabe6541e78.rlib(rtt_target-ba817fabe6541e78.rtt_target.a5746e51-cgu.5.rcgu.o):(.debug_ranges)
     638      638        0     1                 
     658      658       78     1         /home/mabez/development/rust/embedded/experiments/esp32c3/target/riscv32imac-unknown-none-elf/debug/deps/librtt_target-ba817fabe6541e78.rlib(rtt_target-ba817fabe6541e78.rtt_target.a5746e51-cgu.6.rcgu.o):(.debug_ranges)
     658      658        0     1                 
     670      670        0     1                 
     688      688        0     1                 
     6d0      6d0       38     1         /home/mabez/development/rust/embedded/experiments/esp32c3/target/riscv32imac-unknown-none-elf/debug/deps/librtt_target-ba817fabe6541e78.rlib(rtt_target-ba817fabe6541e78.rtt_target.a5746e51-cgu.7.rcgu.o):(.debug_ranges)
     6d0      6d0        0     1                 
     708      708       70     1         /home/mabez/development/rust/embedded/experiments/esp32c3/target/riscv32imac-unknown-none-elf/debug/deps/librtt_target-ba817fabe6541e78.rlib(rtt_target-ba817fabe6541e78.rtt_target.a5746e51-cgu.8.rcgu.o):(.debug_ranges)
     708      708        0     1                 
     778      778       20     1         /home/mabez/development/rust/embedded/experiments/esp32c3/target/riscv32imac-unknown-none-elf/debug/deps/librtt_target-ba817fabe6541e78.rlib(rtt_target-ba817fabe6541e78.rtt_target.a5746e51-cgu.9.rcgu.o):(.debug_ranges)
     778      778        0     1                 
     798      798       70     1         /home/mabez/development/rust/embedded/experiments/esp32c3/target/riscv32imac-unknown-none-elf/debug/deps/libesp32c3_lib-c6891e451671e2e8.rlib(esp32c3_lib-c6891e451671e2e8.50vycai6f6fblslz.rcgu.o):(.debug_ranges)
     798      798        0     1                 
     7b0      7b0        0     1                 
     7c8      7c8        0     1                 
     808      808       20     1         /home/mabez/development/rust/embedded/experiments/esp32c3/target/riscv32imac-unknown-none-elf/debug/deps/libesp32c3_lib-c6891e451671e2e8.rlib(esp32c3_lib-c6891e451671e2e8.2zwu2gzn9kym8n1i.rcgu.o):(.debug_ranges)
     808      808        0     1                 
     828      828       18     1         /home/mabez/development/rust/embedded/experiments/esp32c3/target/riscv32imac-unknown-none-elf/debug/deps/libembedded_hal-09d0b07e9f5d700b.rlib(embedded_hal-09d0b07e9f5d700b.embedded_hal.a1e71ce7-cgu.10.rcgu.o):(.debug_ranges)
     828      828        0     1                 
     840      840       38     1         /home/mabez/development/rust/embedded/experiments/esp32c3/target/riscv32imac-unknown-none-elf/debug/deps/libembedded_hal-09d0b07e9f5d700b.rlib(embedded_hal-09d0b07e9f5d700b.embedded_hal.a1e71ce7-cgu.6.rcgu.o):(.debug_ranges)
     840      840        0     1                 
     858      858        0     1                 
     878      878       18     1         /home/mabez/development/rust/embedded/experiments/esp32c3/target/riscv32imac-unknown-none-elf/debug/deps/libembedded_hal-09d0b07e9f5d700b.rlib(embedded_hal-09d0b07e9f5d700b.embedded_hal.a1e71ce7-cgu.4.rcgu.o):(.debug_ranges)
     878      878        0     1                 
     890      890       18     1         /home/mabez/development/rust/embedded/experiments/esp32c3/target/riscv32imac-unknown-none-elf/debug/deps/libembedded_hal-09d0b07e9f5d700b.rlib(embedded_hal-09d0b07e9f5d700b.embedded_hal.a1e71ce7-cgu.3.rcgu.o):(.debug_ranges)
     890      890        0     1                 
     8a8      8a8       18     1         /home/mabez/development/rust/embedded/experiments/esp32c3/target/riscv32imac-unknown-none-elf/debug/deps/libembedded_hal-09d0b07e9f5d700b.rlib(embedded_hal-09d0b07e9f5d700b.embedded_hal.a1e71ce7-cgu.7.rcgu.o):(.debug_ranges)
     8a8      8a8        0     1                 
     8c0      8c0       20     1         /home/mabez/development/rust/embedded/experiments/esp32c3/target/riscv32imac-unknown-none-elf/debug/deps/libvoid-9bf68c712c7c3b51.rlib(void-9bf68c712c7c3b51.void.0c241590-cgu.0.rcgu.o):(.debug_ranges)
     8c0      8c0        0     1                 
     8e0      8e0     ced0     1         /home/mabez/.rustup/toolchains/nightly-x86_64-unknown-linux-gnu/lib/rustlib/riscv32imac-unknown-none-elf/lib/libcore-081fd8405fc18f2e.rlib(core-081fd8405fc18f2e.core.364d98f8-cgu.0.rcgu.o):(.debug_ranges)
     8e0      8e0        0     1                 
     8f8      8f8        0     1                 
     910      910        0     1                 
     928      928        0     1                 
     940      940        0     1                 
     958      958        0     1                 
     970      970        0     1                 
     988      988        0     1                 
     9a0      9a0        0     1                 
     9b8      9b8        0     1                 
     9d8      9d8        0     1                 
     9f8      9f8        0     1                 
     a10      a10        0     1                 
     a28      a28        0     1                 
     a40      a40        0     1                 
     a58      a58        0     1                 
     a70      a70        0     1                 
     a88      a88        0     1                 
     aa0      aa0        0     1                 
     ab8      ab8        0     1                 
     ad0      ad0        0     1                 
     ae8      ae8        0     1                 
     b00      b00        0     1                 
     b18      b18        0     1                 
     b30      b30        0     1                 
     b48      b48        0     1                 
     b60      b60        0     1                 
     b78      b78        0     1                 
     b90      b90        0     1                 
     bb0      bb0        0     1                 
     bd0      bd0        0     1                 
     be8      be8        0     1                 
     c00      c00        0     1                 
     c18      c18        0     1                 
     c30      c30        0     1                 
     c48      c48        0     1                 
     c60      c60        0     1                 
     c78      c78        0     1                 
     c90      c90        0     1                 
     ca8      ca8        0     1                 
     cd0      cd0        0     1                 
     ce8      ce8        0     1                 
     d10      d10        0     1                 
     d30      d30        0     1                 
     d50      d50        0     1                 
     d70      d70        0     1                 
     d88      d88        0     1                 
     da0      da0        0     1                 
     db8      db8        0     1                 
     dd0      dd0        0     1                 
     de8      de8        0     1                 
     e08      e08        0     1                 
     e20      e20        0     1                 
     e38      e38        0     1                 
     e68      e68        0     1                 
     e80      e80        0     1                 
     e98      e98        0     1                 
     eb0      eb0        0     1                 
     ec8      ec8        0     1                 
     f20      f20        0     1                 
     f38      f38        0     1                 
     f50      f50        0     1                 
     f68      f68        0     1                 
     f80      f80        0     1                 
     f98      f98        0     1                 
     fb0      fb0        0     1                 
     fc8      fc8        0     1                 
     ff0      ff0        0     1                 
    1008     1008        0     1                 
    1020     1020        0     1                 
    1048     1048        0     1                 
    1060     1060        0     1                 
    1078     1078        0     1                 
    1090     1090        0     1                 
    10b8     10b8        0     1                 
    10d0     10d0        0     1                 
    10e8     10e8        0     1                 
    1100     1100        0     1                 
    1118     1118        0     1                 
    1140     1140        0     1                 
    1160     1160        0     1                 
    1180     1180        0     1                 
    11a8     11a8        0     1                 
    11c8     11c8        0     1                 
    11f0     11f0        0     1                 
    1210     1210        0     1                 
    1238     1238        0     1                 
    1258     1258        0     1                 
    1278     1278        0     1                 
    1298     1298        0     1                 
    12b8     12b8        0     1                 
    12d8     12d8        0     1                 
    12f8     12f8        0     1                 
    1310     1310        0     1                 
    1328     1328        0     1                 
    1340     1340        0     1                 
    1358     1358        0     1                 
    1370     1370        0     1                 
    1388     1388        0     1                 
    13a0     13a0        0     1                 
    13b8     13b8        0     1                 
    13d8     13d8        0     1                 
    13f0     13f0        0     1                 
    1410     1410        0     1                 
    1428     1428        0     1                 
    1440     1440        0     1                 
    1458     1458        0     1                 
    1470     1470        0     1                 
    1488     1488        0     1                 
    14a0     14a0        0     1                 
    14c0     14c0        0     1                 
    14e8     14e8        0     1                 
    1508     1508        0     1                 
    1528     1528        0     1                 
    1540     1540        0     1                 
    1558     1558        0     1                 
    1570     1570        0     1                 
    1588     1588        0     1                 
    15b0     15b0        0     1                 
    15d0     15d0        0     1                 
    15e8     15e8        0     1                 
    1610     1610        0     1                 
    1630     1630        0     1                 
    1648     1648        0     1                 
    1660     1660        0     1                 
    1678     1678        0     1                 
    1690     1690        0     1                 
    16a8     16a8        0     1                 
    16c0     16c0        0     1                 
    16d8     16d8        0     1                 
    16f0     16f0        0     1                 
    1710     1710        0     1                 
    1728     1728        0     1                 
    1740     1740        0     1                 
    1758     1758        0     1                 
    1770     1770        0     1                 
    1788     1788        0     1                 
    17a8     17a8        0     1                 
    17c8     17c8        0     1                 
    17e0     17e0        0     1                 
    1800     1800        0     1                 
    1820     1820        0     1                 
    1840     1840        0     1                 
    1858     1858        0     1                 
    1870     1870        0     1                 
    1888     1888        0     1                 
    18a0     18a0        0     1                 
    18b8     18b8        0     1                 
    18d0     18d0        0     1                 
    18e8     18e8        0     1                 
    1900     1900        0     1                 
    1918     1918        0     1                 
    1930     1930        0     1                 
    1948     1948        0     1                 
    1968     1968        0     1                 
    1990     1990        0     1                 
    19b0     19b0        0     1                 
    19c8     19c8        0     1                 
    19e0     19e0        0     1                 
    19f8     19f8        0     1                 
    1a10     1a10        0     1                 
    1a28     1a28        0     1                 
    1a40     1a40        0     1                 
    1a58     1a58        0     1                 
    1a70     1a70        0     1                 
    1a88     1a88        0     1                 
    1aa0     1aa0        0     1                 
    1ac0     1ac0        0     1                 
    1ae8     1ae8        0     1                 
    1b08     1b08        0     1                 
    1b20     1b20        0     1                 
    1b38     1b38        0     1                 
    1b50     1b50        0     1                 
    1b68     1b68        0     1                 
    1b98     1b98        0     1                 
    1bb0     1bb0        0     1                 
    1bc8     1bc8        0     1                 
    1be0     1be0        0     1                 
    1bf8     1bf8        0     1                 
    1c20     1c20        0     1                 
    1c40     1c40        0     1                 
    1c68     1c68        0     1                 
    1c80     1c80        0     1                 
    1c98     1c98        0     1                 
    1cb0     1cb0        0     1                 
    1cc8     1cc8        0     1                 
    1ce0     1ce0        0     1                 
    1cf8     1cf8        0     1                 
    1d10     1d10        0     1                 
    1d28     1d28        0     1                 
    1d40     1d40        0     1                 
    1d58     1d58        0     1                 
    1d80     1d80        0     1                 
    1d98     1d98        0     1                 
    1db0     1db0        0     1                 
    1dc8     1dc8        0     1                 
    1de0     1de0        0     1                 
    1df8     1df8        0     1                 
    1e10     1e10        0     1                 
    1e28     1e28        0     1                 
    1e58     1e58        0     1                 
    1e70     1e70        0     1                 
    1e88     1e88        0     1                 
    1ea0     1ea0        0     1                 
    1eb8     1eb8        0     1                 
    1ed0     1ed0        0     1                 
    1ef8     1ef8        0     1                 
    1f10     1f10        0     1                 
    1f28     1f28        0     1                 
    1f40     1f40        0     1                 
    1f58     1f58        0     1                 
    1f70     1f70        0     1                 
    1f88     1f88        0     1                 
    1fa0     1fa0        0     1                 
    1fb8     1fb8        0     1                 
    1fd0     1fd0        0     1                 
    1ff0     1ff0        0     1                 
    2008     2008        0     1                 
    2020     2020        0     1                 
    2038     2038        0     1                 
    2050     2050        0     1                 
    2068     2068        0     1                 
    2080     2080        0     1                 
    2098     2098        0     1                 
    20b0     20b0        0     1                 
    20c8     20c8        0     1                 
    20e0     20e0        0     1                 
    2100     2100        0     1                 
    2118     2118        0     1                 
    2130     2130        0     1                 
    2148     2148        0     1                 
    2160     2160        0     1                 
    2178     2178        0     1                 
    2190     2190        0     1                 
    21a8     21a8        0     1                 
    21c0     21c0        0     1                 
    21d8     21d8        0     1                 
    21f0     21f0        0     1                 
    2208     2208        0     1                 
    2220     2220        0     1                 
    2238     2238        0     1                 
    2250     2250        0     1                 
    2268     2268        0     1                 
    2280     2280        0     1                 
    2298     2298        0     1                 
    22b0     22b0        0     1                 
    22d0     22d0        0     1                 
    22e8     22e8        0     1                 
    2300     2300        0     1                 
    2318     2318        0     1                 
    2330     2330        0     1                 
    2348     2348        0     1                 
    2360     2360        0     1                 
    2378     2378        0     1                 
    2390     2390        0     1                 
    23a8     23a8        0     1                 
    23c0     23c0        0     1                 
    23d8     23d8        0     1                 
    23f0     23f0        0     1                 
    2408     2408        0     1                 
    2420     2420        0     1                 
    2438     2438        0     1                 
    2450     2450        0     1                 
    2468     2468        0     1                 
    2480     2480        0     1                 
    2498     2498        0     1                 
    24b8     24b8        0     1                 
    24d0     24d0        0     1                 
    24e8     24e8        0     1                 
    2500     2500        0     1                 
    2518     2518        0     1                 
    2530     2530        0     1                 
    2548     2548        0     1                 
    2560     2560        0     1                 
    2578     2578        0     1                 
    2598     2598        0     1                 
    25b0     25b0        0     1                 
    25c8     25c8        0     1                 
    25e0     25e0        0     1                 
    25f8     25f8        0     1                 
    2610     2610        0     1                 
    2628     2628        0     1                 
    2640     2640        0     1                 
    2658     2658        0     1                 
    2670     2670        0     1                 
    2688     2688        0     1                 
    26a0     26a0        0     1                 
    26b8     26b8        0     1                 
    26d0     26d0        0     1                 
    26f8     26f8        0     1                 
    2720     2720        0     1                 
    2748     2748        0     1                 
    2760     2760        0     1                 
    2778     2778        0     1                 
    2790     2790        0     1                 
    27a8     27a8        0     1                 
    27c0     27c0        0     1                 
    27d8     27d8        0     1                 
    27f0     27f0        0     1                 
    2810     2810        0     1                 
    2828     2828        0     1                 
    2840     2840        0     1                 
    2858     2858        0     1                 
    2870     2870        0     1                 
    2888     2888        0     1                 
    28a0     28a0        0     1                 
    28b8     28b8        0     1                 
    28d0     28d0        0     1                 
    28e8     28e8        0     1                 
    2900     2900        0     1                 
    2918     2918        0     1                 
    2938     2938        0     1                 
    2950     2950        0     1                 
    2978     2978        0     1                 
    29a0     29a0        0     1                 
    29c8     29c8        0     1                 
    29e0     29e0        0     1                 
    29f8     29f8        0     1                 
    2a10     2a10        0     1                 
    2a28     2a28        0     1                 
    2a40     2a40        0     1                 
    2a58     2a58        0     1                 
    2a70     2a70        0     1                 
    2a90     2a90        0     1                 
    2aa8     2aa8        0     1                 
    2ac0     2ac0        0     1                 
    2ad8     2ad8        0     1                 
    2af0     2af0        0     1                 
    2b08     2b08        0     1                 
    2b20     2b20        0     1                 
    2b38     2b38        0     1                 
    2b50     2b50        0     1                 
    2b68     2b68        0     1                 
    2b80     2b80        0     1                 
    2b98     2b98        0     1                 
    2bb0     2bb0        0     1                 
    2bc8     2bc8        0     1                 
    2be0     2be0        0     1                 
    2bf8     2bf8        0     1                 
    2c10     2c10        0     1                 
    2c28     2c28        0     1                 
    2c40     2c40        0     1                 
    2c58     2c58        0     1                 
    2c80     2c80        0     1                 
    2ca8     2ca8        0     1                 
    2cd0     2cd0        0     1                 
    2ce8     2ce8        0     1                 
    2d00     2d00        0     1                 
    2d18     2d18        0     1                 
    2d30     2d30        0     1                 
    2d48     2d48        0     1                 
    2d60     2d60        0     1                 
    2d80     2d80        0     1                 
    2d98     2d98        0     1                 
    2dc0     2dc0        0     1                 
    2de8     2de8        0     1                 
    2e10     2e10        0     1                 
    2e28     2e28        0     1                 
    2e40     2e40        0     1                 
    2e58     2e58        0     1                 
    2e70     2e70        0     1                 
    2e88     2e88        0     1                 
    2ea0     2ea0        0     1                 
    2eb8     2eb8        0     1                 
    2ed0     2ed0        0     1                 
    2ee8     2ee8        0     1                 
    2f00     2f00        0     1                 
    2f18     2f18        0     1                 
    2f30     2f30        0     1                 
    2f48     2f48        0     1                 
    2f60     2f60        0     1                 
    2f78     2f78        0     1                 
    2f90     2f90        0     1                 
    2fa8     2fa8        0     1                 
    2fc0     2fc0        0     1                 
    2fd8     2fd8        0     1                 
    2ff0     2ff0        0     1                 
    3008     3008        0     1                 
    3020     3020        0     1                 
    3038     3038        0     1                 
    3050     3050        0     1                 
    3068     3068        0     1                 
    3080     3080        0     1                 
    3098     3098        0     1                 
    30b8     30b8        0     1                 
    30d0     30d0        0     1                 
    30e8     30e8        0     1                 
    3100     3100        0     1                 
    3118     3118        0     1                 
    3130     3130        0     1                 
    3148     3148        0     1                 
    3160     3160        0     1                 
    3178     3178        0     1                 
    3190     3190        0     1                 
    31a8     31a8        0     1                 
    31c0     31c0        0     1                 
    31d8     31d8        0     1                 
    31f0     31f0        0     1                 
    3208     3208        0     1                 
    3220     3220        0     1                 
    3238     3238        0     1                 
    3250     3250        0     1                 
    3268     3268        0     1                 
    3280     3280        0     1                 
    32a0     32a0        0     1                 
    32c0     32c0        0     1                 
    32e0     32e0        0     1                 
    32f8     32f8        0     1                 
    3310     3310        0     1                 
    3328     3328        0     1                 
    3360     3360        0     1                 
    3378     3378        0     1                 
    3390     3390        0     1                 
    33a8     33a8        0     1                 
    33e0     33e0        0     1                 
    33f8     33f8        0     1                 
    3410     3410        0     1                 
    3428     3428        0     1                 
    3478     3478        0     1                 
    34b0     34b0        0     1                 
    34d0     34d0        0     1                 
    34e8     34e8        0     1                 
    3500     3500        0     1                 
    3518     3518        0     1                 
    3530     3530        0     1                 
    3548     3548        0     1                 
    3560     3560        0     1                 
    3578     3578        0     1                 
    3590     3590        0     1                 
    35a8     35a8        0     1                 
    35c0     35c0        0     1                 
    35d8     35d8        0     1                 
    35f0     35f0        0     1                 
    3608     3608        0     1                 
    3620     3620        0     1                 
    3638     3638        0     1                 
    3650     3650        0     1                 
    3668     3668        0     1                 
    3680     3680        0     1                 
    3698     3698        0     1                 
    36b0     36b0        0     1                 
    36c8     36c8        0     1                 
    36e0     36e0        0     1                 
    36f8     36f8        0     1                 
    3710     3710        0     1                 
    3728     3728        0     1                 
    3740     3740        0     1                 
    3758     3758        0     1                 
    3770     3770        0     1                 
    3788     3788        0     1                 
    37a0     37a0        0     1                 
    37b8     37b8        0     1                 
    37d0     37d0        0     1                 
    37e8     37e8        0     1                 
    3800     3800        0     1                 
    3818     3818        0     1                 
    3830     3830        0     1                 
    3848     3848        0     1                 
    3860     3860        0     1                 
    3878     3878        0     1                 
    3890     3890        0     1                 
    38b0     38b0        0     1                 
    38d0     38d0        0     1                 
    38e8     38e8        0     1                 
    3908     3908        0     1                 
    3928     3928        0     1                 
    3940     3940        0     1                 
    3958     3958        0     1                 
    3980     3980        0     1                 
    3998     3998        0     1                 
    39b0     39b0        0     1                 
    39c8     39c8        0     1                 
    39e0     39e0        0     1                 
    39f8     39f8        0     1                 
    3a20     3a20        0     1                 
    3a38     3a38        0     1                 
    3a50     3a50        0     1                 
    3a78     3a78        0     1                 
    3a90     3a90        0     1                 
    3aa8     3aa8        0     1                 
    3ac0     3ac0        0     1                 
    3ad8     3ad8        0     1                 
    3b00     3b00        0     1                 
    3b18     3b18        0     1                 
    3b30     3b30        0     1                 
    3b48     3b48        0     1                 
    3b60     3b60        0     1                 
    3b78     3b78        0     1                 
    3ba0     3ba0        0     1                 
    3bb8     3bb8        0     1                 
    3bd0     3bd0        0     1                 
    3be8     3be8        0     1                 
    3c00     3c00        0     1                 
    3c18     3c18        0     1                 
    3c30     3c30        0     1                 
    3c58     3c58        0     1                 
    3c70     3c70        0     1                 
    3c88     3c88        0     1                 
    3ca0     3ca0        0     1                 
    3cb8     3cb8        0     1                 
    3cd0     3cd0        0     1                 
    3ce8     3ce8        0     1                 
    3d00     3d00        0     1                 
    3d28     3d28        0     1                 
    3d40     3d40        0     1                 
    3d58     3d58        0     1                 
    3d80     3d80        0     1                 
    3d98     3d98        0     1                 
    3db0     3db0        0     1                 
    3dd0     3dd0        0     1                 
    3de8     3de8        0     1                 
    3e00     3e00        0     1                 
    3e18     3e18        0     1                 
    3e30     3e30        0     1                 
    3e48     3e48        0     1                 
    3e60     3e60        0     1                 
    3e78     3e78        0     1                 
    3e98     3e98        0     1                 
    3eb0     3eb0        0     1                 
    3ec8     3ec8        0     1                 
    3ee0     3ee0        0     1                 
    3ef8     3ef8        0     1                 
    3f10     3f10        0     1                 
    3f28     3f28        0     1                 
    3f40     3f40        0     1                 
    3f60     3f60        0     1                 
    3f80     3f80        0     1                 
    3f98     3f98        0     1                 
    3fb0     3fb0        0     1                 
    3fc8     3fc8        0     1                 
    3fe0     3fe0        0     1                 
    4000     4000        0     1                 
    4020     4020        0     1                 
    4038     4038        0     1                 
    4050     4050        0     1                 
    4070     4070        0     1                 
    4098     4098        0     1                 
    40b0     40b0        0     1                 
    40d0     40d0        0     1                 
    40e8     40e8        0     1                 
    4100     4100        0     1                 
    4120     4120        0     1                 
    4138     4138        0     1                 
    4150     4150        0     1                 
    4168     4168        0     1                 
    4188     4188        0     1                 
    41a8     41a8        0     1                 
    41c8     41c8        0     1                 
    41e8     41e8        0     1                 
    4208     4208        0     1                 
    4220     4220        0     1                 
    4238     4238        0     1                 
    4258     4258        0     1                 
    4270     4270        0     1                 
    4288     4288        0     1                 
    42a8     42a8        0     1                 
    42c0     42c0        0     1                 
    42e0     42e0        0     1                 
    4300     4300        0     1                 
    4320     4320        0     1                 
    4338     4338        0     1                 
    4350     4350        0     1                 
    4368     4368        0     1                 
    4388     4388        0     1                 
    43a8     43a8        0     1                 
    43c8     43c8        0     1                 
    43e0     43e0        0     1                 
    4400     4400        0     1                 
    4418     4418        0     1                 
    4430     4430        0     1                 
    4448     4448        0     1                 
    4460     4460        0     1                 
    4478     4478        0     1                 
    4490     4490        0     1                 
    44a8     44a8        0     1                 
    44c0     44c0        0     1                 
    44e0     44e0        0     1                 
    4500     4500        0     1                 
    4520     4520        0     1                 
    4538     4538        0     1                 
    4558     4558        0     1                 
    4578     4578        0     1                 
    4590     4590        0     1                 
    45a8     45a8        0     1                 
    45c0     45c0        0     1                 
    45d8     45d8        0     1                 
    45f0     45f0        0     1                 
    4608     4608        0     1                 
    4628     4628        0     1                 
    4648     4648        0     1                 
    4660     4660        0     1                 
    4678     4678        0     1                 
    4690     4690        0     1                 
    46a8     46a8        0     1                 
    46c0     46c0        0     1                 
    46d8     46d8        0     1                 
    46f0     46f0        0     1                 
    4708     4708        0     1                 
    4728     4728        0     1                 
    4740     4740        0     1                 
    4758     4758        0     1                 
    4770     4770        0     1                 
    4788     4788        0     1                 
    47a0     47a0        0     1                 
    47b8     47b8        0     1                 
    47d0     47d0        0     1                 
    47e8     47e8        0     1                 
    4800     4800        0     1                 
    4818     4818        0     1                 
    4830     4830        0     1                 
    4848     4848        0     1                 
    4860     4860        0     1                 
    4878     4878        0     1                 
    4890     4890        0     1                 
    48a8     48a8        0     1                 
    48c0     48c0        0     1                 
    48d8     48d8        0     1                 
    48f0     48f0        0     1                 
    4908     4908        0     1                 
    4920     4920        0     1                 
    4938     4938        0     1                 
    4950     4950        0     1                 
    4968     4968        0     1                 
    4980     4980        0     1                 
    4998     4998        0     1                 
    49b0     49b0        0     1                 
    49c8     49c8        0     1                 
    49e0     49e0        0     1                 
    49f8     49f8        0     1                 
    4a10     4a10        0     1                 
    4a28     4a28        0     1                 
    4a40     4a40        0     1                 
    4a60     4a60        0     1                 
    4a78     4a78        0     1                 
    4a90     4a90        0     1                 
    4aa8     4aa8        0     1                 
    4ac0     4ac0        0     1                 
    4ad8     4ad8        0     1                 
    4af0     4af0        0     1                 
    4b10     4b10        0     1                 
    4b30     4b30        0     1                 
    4b50     4b50        0     1                 
    4b70     4b70        0     1                 
    4b98     4b98        0     1                 
    4bc0     4bc0        0     1                 
    4be8     4be8        0     1                 
    4c00     4c00        0     1                 
    4c18     4c18        0     1                 
    4c30     4c30        0     1                 
    4c48     4c48        0     1                 
    4c68     4c68        0     1                 
    4c88     4c88        0     1                 
    4ca8     4ca8        0     1                 
    4cc8     4cc8        0     1                 
    4ce0     4ce0        0     1                 
    4cf8     4cf8        0     1                 
    4d18     4d18        0     1                 
    4d38     4d38        0     1                 
    4d58     4d58        0     1                 
    4d78     4d78        0     1                 
    4d98     4d98        0     1                 
    4dc8     4dc8        0     1                 
    4de8     4de8        0     1                 
    4e08     4e08        0     1                 
    4e20     4e20        0     1                 
    4e38     4e38        0     1                 
    4e58     4e58        0     1                 
    4e78     4e78        0     1                 
    4e98     4e98        0     1                 
    4eb8     4eb8        0     1                 
    4ed8     4ed8        0     1                 
    4f08     4f08        0     1                 
    4f20     4f20        0     1                 
    4f50     4f50        0     1                 
    4f80     4f80        0     1                 
    4fa8     4fa8        0     1                 
    4fd0     4fd0        0     1                 
    4ff8     4ff8        0     1                 
    5020     5020        0     1                 
    5038     5038        0     1                 
    5068     5068        0     1                 
    5088     5088        0     1                 
    50a8     50a8        0     1                 
    50c0     50c0        0     1                 
    50d8     50d8        0     1                 
    50f0     50f0        0     1                 
    5108     5108        0     1                 
    5120     5120        0     1                 
    5138     5138        0     1                 
    5150     5150        0     1                 
    5168     5168        0     1                 
    5180     5180        0     1                 
    5198     5198        0     1                 
    51b8     51b8        0     1                 
    51d0     51d0        0     1                 
    51e8     51e8        0     1                 
    5200     5200        0     1                 
    5218     5218        0     1                 
    5230     5230        0     1                 
    5248     5248        0     1                 
    5260     5260        0     1                 
    5278     5278        0     1                 
    5290     5290        0     1                 
    52a8     52a8        0     1                 
    52c0     52c0        0     1                 
    52d8     52d8        0     1                 
    52f0     52f0        0     1                 
    5308     5308        0     1                 
    5320     5320        0     1                 
    5338     5338        0     1                 
    5350     5350        0     1                 
    5368     5368        0     1                 
    5388     5388        0     1                 
    53a8     53a8        0     1                 
    53c0     53c0        0     1                 
    53d8     53d8        0     1                 
    53f0     53f0        0     1                 
    5408     5408        0     1                 
    5420     5420        0     1                 
    5438     5438        0     1                 
    5450     5450        0     1                 
    5468     5468        0     1                 
    5480     5480        0     1                 
    5498     5498        0     1                 
    54b8     54b8        0     1                 
    54d0     54d0        0     1                 
    54e8     54e8        0     1                 
    5500     5500        0     1                 
    5518     5518        0     1                 
    5530     5530        0     1                 
    5548     5548        0     1                 
    5560     5560        0     1                 
    5578     5578        0     1                 
    5590     5590        0     1                 
    55a8     55a8        0     1                 
    55c8     55c8        0     1                 
    55e0     55e0        0     1                 
    55f8     55f8        0     1                 
    5610     5610        0     1                 
    5628     5628        0     1                 
    5640     5640        0     1                 
    5658     5658        0     1                 
    5670     5670        0     1                 
    5690     5690        0     1                 
    56a8     56a8        0     1                 
    56d0     56d0        0     1                 
    56e8     56e8        0     1                 
    5700     5700        0     1                 
    5718     5718        0     1                 
    5730     5730        0     1                 
    5750     5750        0     1                 
    5768     5768        0     1                 
    5780     5780        0     1                 
    5798     5798        0     1                 
    57b0     57b0        0     1                 
    57c8     57c8        0     1                 
    57e0     57e0        0     1                 
    5800     5800        0     1                 
    5818     5818        0     1                 
    5830     5830        0     1                 
    5848     5848        0     1                 
    5868     5868        0     1                 
    5888     5888        0     1                 
    58a0     58a0        0     1                 
    58b8     58b8        0     1                 
    58d0     58d0        0     1                 
    58e8     58e8        0     1                 
    5900     5900        0     1                 
    5918     5918        0     1                 
    5930     5930        0     1                 
    5948     5948        0     1                 
    5960     5960        0     1                 
    5978     5978        0     1                 
    5990     5990        0     1                 
    59a8     59a8        0     1                 
    59c0     59c0        0     1                 
    59d8     59d8        0     1                 
    59f0     59f0        0     1                 
    5a08     5a08        0     1                 
    5a20     5a20        0     1                 
    5a38     5a38        0     1                 
    5a50     5a50        0     1                 
    5a68     5a68        0     1                 
    5a80     5a80        0     1                 
    5a98     5a98        0     1                 
    5ab0     5ab0        0     1                 
    5ac8     5ac8        0     1                 
    5ae0     5ae0        0     1                 
    5af8     5af8        0     1                 
    5c38     5c38        0     1                 
    5c50     5c50        0     1                 
    5c68     5c68        0     1                 
    5c80     5c80        0     1                 
    5c98     5c98        0     1                 
    5cb0     5cb0        0     1                 
    5cc8     5cc8        0     1                 
    5ce0     5ce0        0     1                 
    5cf8     5cf8        0     1                 
    5d10     5d10        0     1                 
    5d28     5d28        0     1                 
    5d50     5d50        0     1                 
    5d70     5d70        0     1                 
    5d88     5d88        0     1                 
    5da0     5da0        0     1                 
    5db8     5db8        0     1                 
    5f08     5f08        0     1                 
    6058     6058        0     1                 
    6070     6070        0     1                 
    6088     6088        0     1                 
    60a0     60a0        0     1                 
    60c0     60c0        0     1                 
    60e0     60e0        0     1                 
    6108     6108        0     1                 
    6128     6128        0     1                 
    6148     6148        0     1                 
    6178     6178        0     1                 
    6198     6198        0     1                 
    61b8     61b8        0     1                 
    61d0     61d0        0     1                 
    61e8     61e8        0     1                 
    6210     6210        0     1                 
    6238     6238        0     1                 
    6250     6250        0     1                 
    6268     6268        0     1                 
    6280     6280        0     1                 
    6298     6298        0     1                 
    62b0     62b0        0     1                 
    62c8     62c8        0     1                 
    62e8     62e8        0     1                 
    6308     6308        0     1                 
    6320     6320        0     1                 
    6338     6338        0     1                 
    6350     6350        0     1                 
    6368     6368        0     1                 
    6380     6380        0     1                 
    6398     6398        0     1                 
    63b0     63b0        0     1                 
    63d0     63d0        0     1                 
    63f0     63f0        0     1                 
    6408     6408        0     1                 
    6420     6420        0     1                 
    6438     6438        0     1                 
    6450     6450        0     1                 
    6468     6468        0     1                 
    6480     6480        0     1                 
    6498     6498        0     1                 
    64c0     64c0        0     1                 
    64e8     64e8        0     1                 
    6510     6510        0     1                 
    6538     6538        0     1                 
    6560     6560        0     1                 
    6578     6578        0     1                 
    6590     6590        0     1                 
    65a8     65a8        0     1                 
    65c0     65c0        0     1                 
    65e0     65e0        0     1                 
    6600     6600        0     1                 
    6620     6620        0     1                 
    6638     6638        0     1                 
    6650     6650        0     1                 
    6668     6668        0     1                 
    6680     6680        0     1                 
    6698     6698        0     1                 
    66b0     66b0        0     1                 
    66c8     66c8        0     1                 
    66e0     66e0        0     1                 
    66f8     66f8        0     1                 
    6710     6710        0     1                 
    6728     6728        0     1                 
    6740     6740        0     1                 
    6758     6758        0     1                 
    6770     6770        0     1                 
    6788     6788        0     1                 
    67a0     67a0        0     1                 
    67b8     67b8        0     1                 
    67d0     67d0        0     1                 
    67e8     67e8        0     1                 
    6800     6800        0     1                 
    6818     6818        0     1                 
    6830     6830        0     1                 
    6848     6848        0     1                 
    6860     6860        0     1                 
    6878     6878        0     1                 
    6890     6890        0     1                 
    68a8     68a8        0     1                 
    68c0     68c0        0     1                 
    68d8     68d8        0     1                 
    68f0     68f0        0     1                 
    6908     6908        0     1                 
    6920     6920        0     1                 
    6938     6938        0     1                 
    6950     6950        0     1                 
    6968     6968        0     1                 
    6980     6980        0     1                 
    6998     6998        0     1                 
    69b0     69b0        0     1                 
    69c8     69c8        0     1                 
    69e0     69e0        0     1                 
    69f8     69f8        0     1                 
    6a10     6a10        0     1                 
    6a28     6a28        0     1                 
    6a40     6a40        0     1                 
    6a60     6a60        0     1                 
    6a80     6a80        0     1                 
    6aa0     6aa0        0     1                 
    6ac0     6ac0        0     1                 
    6ae8     6ae8        0     1                 
    6b10     6b10        0     1                 
    6b28     6b28        0     1                 
    6b40     6b40        0     1                 
    6b58     6b58        0     1                 
    6b78     6b78        0     1                 
    6b98     6b98        0     1                 
    6bc0     6bc0        0     1                 
    6be0     6be0        0     1                 
    6c10     6c10        0     1                 
    6c28     6c28        0     1                 
    6c40     6c40        0     1                 
    6c58     6c58        0     1                 
    6c70     6c70        0     1                 
    6c90     6c90        0     1                 
    6cc0     6cc0        0     1                 
    6ce0     6ce0        0     1                 
    6d00     6d00        0     1                 
    6d20     6d20        0     1                 
    6d38     6d38        0     1                 
    6d50     6d50        0     1                 
    6d68     6d68        0     1                 
    6d80     6d80        0     1                 
    6da0     6da0        0     1                 
    6dc0     6dc0        0     1                 
    6dd8     6dd8        0     1                 
    6df0     6df0        0     1                 
    6e08     6e08        0     1                 
    6e20     6e20        0     1                 
    6e38     6e38        0     1                 
    6e50     6e50        0     1                 
    6e70     6e70        0     1                 
    6e90     6e90        0     1                 
    6ea8     6ea8        0     1                 
    6ec0     6ec0        0     1                 
    6ed8     6ed8        0     1                 
    6ef0     6ef0        0     1                 
    6f08     6f08        0     1                 
    6f20     6f20        0     1                 
    6f38     6f38        0     1                 
    6f60     6f60        0     1                 
    6f80     6f80        0     1                 
    6fa0     6fa0        0     1                 
    6fc0     6fc0        0     1                 
    6fe0     6fe0        0     1                 
    6ff8     6ff8        0     1                 
    7010     7010        0     1                 
    7028     7028        0     1                 
    7040     7040        0     1                 
    7060     7060        0     1                 
    7080     7080        0     1                 
    70a0     70a0        0     1                 
    70b8     70b8        0     1                 
    70d0     70d0        0     1                 
    70e8     70e8        0     1                 
    7100     7100        0     1                 
    7118     7118        0     1                 
    7130     7130        0     1                 
    7148     7148        0     1                 
    7160     7160        0     1                 
    7178     7178        0     1                 
    7190     7190        0     1                 
    71a8     71a8        0     1                 
    71c0     71c0        0     1                 
    71d8     71d8        0     1                 
    71f0     71f0        0     1                 
    7208     7208        0     1                 
    7220     7220        0     1                 
    7238     7238        0     1                 
    7250     7250        0     1                 
    7268     7268        0     1                 
    7280     7280        0     1                 
    7298     7298        0     1                 
    72b8     72b8        0     1                 
    72d8     72d8        0     1                 
    72f8     72f8        0     1                 
    7310     7310        0     1                 
    7328     7328        0     1                 
    7340     7340        0     1                 
    7358     7358        0     1                 
    7370     7370        0     1                 
    7388     7388        0     1                 
    73a0     73a0        0     1                 
    73b8     73b8        0     1                 
    73d0     73d0        0     1                 
    73e8     73e8        0     1                 
    7400     7400        0     1                 
    7418     7418        0     1                 
    7430     7430        0     1                 
    7448     7448        0     1                 
    7460     7460        0     1                 
    7478     7478        0     1                 
    7490     7490        0     1                 
    74a8     74a8        0     1                 
    74c0     74c0        0     1                 
    74d8     74d8        0     1                 
    74f0     74f0        0     1                 
    7508     7508        0     1                 
    7520     7520        0     1                 
    7538     7538        0     1                 
    7550     7550        0     1                 
    7568     7568        0     1                 
    7580     7580        0     1                 
    7598     7598        0     1                 
    75b0     75b0        0     1                 
    75c8     75c8        0     1                 
    75e0     75e0        0     1                 
    75f8     75f8        0     1                 
    7610     7610        0     1                 
    7628     7628        0     1                 
    7648     7648        0     1                 
    7660     7660        0     1                 
    7678     7678        0     1                 
    7690     7690        0     1                 
    76a8     76a8        0     1                 
    76c0     76c0        0     1                 
    76e0     76e0        0     1                 
    76f8     76f8        0     1                 
    7710     7710        0     1                 
    7728     7728        0     1                 
    7740     7740        0     1                 
    7760     7760        0     1                 
    7780     7780        0     1                 
    7798     7798        0     1                 
    77b0     77b0        0     1                 
    77c8     77c8        0     1                 
    77e0     77e0        0     1                 
    7800     7800        0     1                 
    7818     7818        0     1                 
    7830     7830        0     1                 
    7848     7848        0     1                 
    7860     7860        0     1                 
    7880     7880        0     1                 
    7898     7898        0     1                 
    78b0     78b0        0     1                 
    78c8     78c8        0     1                 
    78e0     78e0        0     1                 
    78f8     78f8        0     1                 
    7910     7910        0     1                 
    7928     7928        0     1                 
    7940     7940        0     1                 
    7958     7958        0     1                 
    7970     7970        0     1                 
    7988     7988        0     1                 
    79a0     79a0        0     1                 
    79b8     79b8        0     1                 
    79d0     79d0        0     1                 
    79e8     79e8        0     1                 
    7a00     7a00        0     1                 
    7a20     7a20        0     1                 
    7a60     7a60        0     1                 
    7a78     7a78        0     1                 
    7a90     7a90        0     1                 
    7aa8     7aa8        0     1                 
    7ac0     7ac0        0     1                 
    7af0     7af0        0     1                 
    7b08     7b08        0     1                 
    7b20     7b20        0     1                 
    7b38     7b38        0     1                 
    7b50     7b50        0     1                 
    7b80     7b80        0     1                 
    7b98     7b98        0     1                 
    7bb0     7bb0        0     1                 
    7bc8     7bc8        0     1                 
    7be0     7be0        0     1                 
    7bf8     7bf8        0     1                 
    7c10     7c10        0     1                 
    7c28     7c28        0     1                 
    7c40     7c40        0     1                 
    7c58     7c58        0     1                 
    7c70     7c70        0     1                 
    7c88     7c88        0     1                 
    7ca0     7ca0        0     1                 
    7cb8     7cb8        0     1                 
    7cd0     7cd0        0     1                 
    7ce8     7ce8        0     1                 
    7d00     7d00        0     1                 
    7d18     7d18        0     1                 
    7d30     7d30        0     1                 
    7d48     7d48        0     1                 
    7d60     7d60        0     1                 
    7d78     7d78        0     1                 
    7d90     7d90        0     1                 
    7da8     7da8        0     1                 
    7dc0     7dc0        0     1                 
    7dd8     7dd8        0     1                 
    7df0     7df0        0     1                 
    7e08     7e08        0     1                 
    7e38     7e38        0     1                 
    7e50     7e50        0     1                 
    7e68     7e68        0     1                 
    7e80     7e80        0     1                 
    7e98     7e98        0     1                 
    7eb0     7eb0        0     1                 
    7ec8     7ec8        0     1                 
    7ee0     7ee0        0     1                 
    7ef8     7ef8        0     1                 
    7f10     7f10        0     1                 
    7f28     7f28        0     1                 
    7f40     7f40        0     1                 
    7f68     7f68        0     1                 
    7f80     7f80        0     1                 
    7f98     7f98        0     1                 
    7fb0     7fb0        0     1                 
    7fc8     7fc8        0     1                 
    7fe0     7fe0        0     1                 
    7ff8     7ff8        0     1                 
    8010     8010        0     1                 
    8028     8028        0     1                 
    8040     8040        0     1                 
    8058     8058        0     1                 
    8070     8070        0     1                 
    8088     8088        0     1                 
    80a0     80a0        0     1                 
    80b8     80b8        0     1                 
    80d0     80d0        0     1                 
    80e8     80e8        0     1                 
    8100     8100        0     1                 
    8118     8118        0     1                 
    8130     8130        0     1                 
    8148     8148        0     1                 
    8160     8160        0     1                 
    8178     8178        0     1                 
    8190     8190        0     1                 
    81a8     81a8        0     1                 
    81c0     81c0        0     1                 
    81d8     81d8        0     1                 
    81f0     81f0        0     1                 
    8208     8208        0     1                 
    8220     8220        0     1                 
    8238     8238        0     1                 
    8250     8250        0     1                 
    8268     8268        0     1                 
    8280     8280        0     1                 
    8298     8298        0     1                 
    82b0     82b0        0     1                 
    82c8     82c8        0     1                 
    82e0     82e0        0     1                 
    82f8     82f8        0     1                 
    8310     8310        0     1                 
    8328     8328        0     1                 
    8340     8340        0     1                 
    8358     8358        0     1                 
    8370     8370        0     1                 
    8388     8388        0     1                 
    83a0     83a0        0     1                 
    83b8     83b8        0     1                 
    83d0     83d0        0     1                 
    83e8     83e8        0     1                 
    8400     8400        0     1                 
    8418     8418        0     1                 
    8430     8430        0     1                 
    8448     8448        0     1                 
    8460     8460        0     1                 
    8478     8478        0     1                 
    8490     8490        0     1                 
    84a8     84a8        0     1                 
    84c0     84c0        0     1                 
    84d8     84d8        0     1                 
    84f0     84f0        0     1                 
    8508     8508        0     1                 
    8520     8520        0     1                 
    8538     8538        0     1                 
    8550     8550        0     1                 
    8568     8568        0     1                 
    8580     8580        0     1                 
    8598     8598        0     1                 
    85b0     85b0        0     1                 
    85c8     85c8        0     1                 
    85e0     85e0        0     1                 
    85f8     85f8        0     1                 
    8610     8610        0     1                 
    8628     8628        0     1                 
    8640     8640        0     1                 
    8658     8658        0     1                 
    8670     8670        0     1                 
    8688     8688        0     1                 
    86a0     86a0        0     1                 
    86b8     86b8        0     1                 
    86d0     86d0        0     1                 
    86e8     86e8        0     1                 
    8700     8700        0     1                 
    8718     8718        0     1                 
    8730     8730        0     1                 
    8748     8748        0     1                 
    8760     8760        0     1                 
    8778     8778        0     1                 
    8790     8790        0     1                 
    87a8     87a8        0     1                 
    87c0     87c0        0     1                 
    87d8     87d8        0     1                 
    87f0     87f0        0     1                 
    8808     8808        0     1                 
    8820     8820        0     1                 
    8838     8838        0     1                 
    8850     8850        0     1                 
    8868     8868        0     1                 
    8880     8880        0     1                 
    8898     8898        0     1                 
    88b0     88b0        0     1                 
    88c8     88c8        0     1                 
    88e0     88e0        0     1                 
    88f8     88f8        0     1                 
    8910     8910        0     1                 
    8928     8928        0     1                 
    8940     8940        0     1                 
    8958     8958        0     1                 
    8970     8970        0     1                 
    8988     8988        0     1                 
    89a0     89a0        0     1                 
    89b8     89b8        0     1                 
    89d0     89d0        0     1                 
    89e8     89e8        0     1                 
    8a00     8a00        0     1                 
    8a18     8a18        0     1                 
    8a30     8a30        0     1                 
    8a48     8a48        0     1                 
    8a60     8a60        0     1                 
    8a78     8a78        0     1                 
    8a90     8a90        0     1                 
    8aa8     8aa8        0     1                 
    8ac0     8ac0        0     1                 
    8ad8     8ad8        0     1                 
    8af0     8af0        0     1                 
    8b08     8b08        0     1                 
    8b20     8b20        0     1                 
    8b38     8b38        0     1                 
    8b50     8b50        0     1                 
    8b68     8b68        0     1                 
    8b80     8b80        0     1                 
    8b98     8b98        0     1                 
    8bb0     8bb0        0     1                 
    8bc8     8bc8        0     1                 
    8be0     8be0        0     1                 
    8bf8     8bf8        0     1                 
    8c10     8c10        0     1                 
    8c28     8c28        0     1                 
    8c40     8c40        0     1                 
    8c58     8c58        0     1                 
    8c70     8c70        0     1                 
    8c88     8c88        0     1                 
    8ca0     8ca0        0     1                 
    8cb8     8cb8        0     1                 
    8cd0     8cd0        0     1                 
    8ce8     8ce8        0     1                 
    8d00     8d00        0     1                 
    8d18     8d18        0     1                 
    8d30     8d30        0     1                 
    8d48     8d48        0     1                 
    8d60     8d60        0     1                 
    8d78     8d78        0     1                 
    8d90     8d90        0     1                 
    8da8     8da8        0     1                 
    8dc0     8dc0        0     1                 
    8dd8     8dd8        0     1                 
    8df0     8df0        0     1                 
    8e08     8e08        0     1                 
    8e20     8e20        0     1                 
    8e38     8e38        0     1                 
    8e50     8e50        0     1                 
    8e68     8e68        0     1                 
    8e80     8e80        0     1                 
    8e98     8e98        0     1                 
    8eb0     8eb0        0     1                 
    8ec8     8ec8        0     1                 
    8ee0     8ee0        0     1                 
    8ef8     8ef8        0     1                 
    8f10     8f10        0     1                 
    8f28     8f28        0     1                 
    8f40     8f40        0     1                 
    8f58     8f58        0     1                 
    8f70     8f70        0     1                 
    8f88     8f88        0     1                 
    8fa0     8fa0        0     1                 
    8fb8     8fb8        0     1                 
    8fd0     8fd0        0     1                 
    8fe8     8fe8        0     1                 
    9000     9000        0     1                 
    9018     9018        0     1                 
    9030     9030        0     1                 
    9048     9048        0     1                 
    9060     9060        0     1                 
    9088     9088        0     1                 
    90b0     90b0        0     1                 
    90c8     90c8        0     1                 
    90f0     90f0        0     1                 
    9118     9118        0     1                 
    9130     9130        0     1                 
    9148     9148        0     1                 
    9168     9168        0     1                 
    9188     9188        0     1                 
    91a0     91a0        0     1                 
    91b8     91b8        0     1                 
    91d0     91d0        0     1                 
    91e8     91e8        0     1                 
    9200     9200        0     1                 
    9218     9218        0     1                 
    9230     9230        0     1                 
    9248     9248        0     1                 
    9260     9260        0     1                 
    9278     9278        0     1                 
    9290     9290        0     1                 
    92a8     92a8        0     1                 
    92c0     92c0        0     1                 
    92d8     92d8        0     1                 
    92f0     92f0        0     1                 
    9308     9308        0     1                 
    9320     9320        0     1                 
    9338     9338        0     1                 
    9350     9350        0     1                 
    9368     9368        0     1                 
    9380     9380        0     1                 
    9398     9398        0     1                 
    93b0     93b0        0     1                 
    93c8     93c8        0     1                 
    93e0     93e0        0     1                 
    93f8     93f8        0     1                 
    9410     9410        0     1                 
    9428     9428        0     1                 
    9440     9440        0     1                 
    9458     9458        0     1                 
    9470     9470        0     1                 
    9488     9488        0     1                 
    94a8     94a8        0     1                 
    94c8     94c8        0     1                 
    94e8     94e8        0     1                 
    9500     9500        0     1                 
    9518     9518        0     1                 
    9530     9530        0     1                 
    9548     9548        0     1                 
    9560     9560        0     1                 
    9578     9578        0     1                 
    9590     9590        0     1                 
    95a8     95a8        0     1                 
    95c0     95c0        0     1                 
    95d8     95d8        0     1                 
    95f0     95f0        0     1                 
    9608     9608        0     1                 
    9620     9620        0     1                 
    9638     9638        0     1                 
    9650     9650        0     1                 
    9668     9668        0     1                 
    9680     9680        0     1                 
    9698     9698        0     1                 
    96b0     96b0        0     1                 
    96c8     96c8        0     1                 
    96e0     96e0        0     1                 
    96f8     96f8        0     1                 
    9710     9710        0     1                 
    9728     9728        0     1                 
    9740     9740        0     1                 
    9758     9758        0     1                 
    9770     9770        0     1                 
    9788     9788        0     1                 
    97a0     97a0        0     1                 
    97b8     97b8        0     1                 
    97d8     97d8        0     1                 
    97f8     97f8        0     1                 
    9818     9818        0     1                 
    9830     9830        0     1                 
    9848     9848        0     1                 
    9860     9860        0     1                 
    9878     9878        0     1                 
    9898     9898        0     1                 
    98b0     98b0        0     1                 
    98c8     98c8        0     1                 
    98e0     98e0        0     1                 
    98f8     98f8        0     1                 
    9910     9910        0     1                 
    9928     9928        0     1                 
    9940     9940        0     1                 
    9958     9958        0     1                 
    9970     9970        0     1                 
    9988     9988        0     1                 
    99a0     99a0        0     1                 
    99b8     99b8        0     1                 
    99d0     99d0        0     1                 
    99f0     99f0        0     1                 
    9a10     9a10        0     1                 
    9a30     9a30        0     1                 
    9a48     9a48        0     1                 
    9a60     9a60        0     1                 
    9a78     9a78        0     1                 
    9a90     9a90        0     1                 
    9aa8     9aa8        0     1                 
    9ac0     9ac0        0     1                 
    9ad8     9ad8        0     1                 
    9af0     9af0        0     1                 
    9b08     9b08        0     1                 
    9b20     9b20        0     1                 
    9b38     9b38        0     1                 
    9b50     9b50        0     1                 
    9b68     9b68        0     1                 
    9b80     9b80        0     1                 
    9b98     9b98        0     1                 
    9bb0     9bb0        0     1                 
    9bc8     9bc8        0     1                 
    9be0     9be0        0     1                 
    9bf8     9bf8        0     1                 
    9c10     9c10        0     1                 
    9c28     9c28        0     1                 
    9c40     9c40        0     1                 
    9c58     9c58        0     1                 
    9c70     9c70        0     1                 
    9c88     9c88        0     1                 
    9ca0     9ca0        0     1                 
    9cb8     9cb8        0     1                 
    9cd0     9cd0        0     1                 
    9ce8     9ce8        0     1                 
    9d00     9d00        0     1                 
    9d18     9d18        0     1                 
    9d30     9d30        0     1                 
    9d48     9d48        0     1                 
    9d60     9d60        0     1                 
    9d78     9d78        0     1                 
    9d90     9d90        0     1                 
    9da8     9da8        0     1                 
    9dc0     9dc0        0     1                 
    9dd8     9dd8        0     1                 
    9df0     9df0        0     1                 
    9e08     9e08        0     1                 
    9e20     9e20        0     1                 
    9e40     9e40        0     1                 
    9e60     9e60        0     1                 
    9e80     9e80        0     1                 
    9e98     9e98        0     1                 
    9eb0     9eb0        0     1                 
    9ec8     9ec8        0     1                 
    9ee0     9ee0        0     1                 
    9ef8     9ef8        0     1                 
    9f10     9f10        0     1                 
    9f28     9f28        0     1                 
    9f40     9f40        0     1                 
    9f58     9f58        0     1                 
    9f70     9f70        0     1                 
    9f88     9f88        0     1                 
    9fa0     9fa0        0     1                 
    9fb8     9fb8        0     1                 
    9fd0     9fd0        0     1                 
    9fe8     9fe8        0     1                 
    a000     a000        0     1                 
    a018     a018        0     1                 
    a030     a030        0     1                 
    a048     a048        0     1                 
    a068     a068        0     1                 
    a088     a088        0     1                 
    a0a8     a0a8        0     1                 
    a0d0     a0d0        0     1                 
    a0e8     a0e8        0     1                 
    a100     a100        0     1                 
    a118     a118        0     1                 
    a130     a130        0     1                 
    a148     a148        0     1                 
    a168     a168        0     1                 
    a188     a188        0     1                 
    a1a8     a1a8        0     1                 
    a1c0     a1c0        0     1                 
    a1d8     a1d8        0     1                 
    a1f0     a1f0        0     1                 
    a208     a208        0     1                 
    a228     a228        0     1                 
    a240     a240        0     1                 
    a258     a258        0     1                 
    a270     a270        0     1                 
    a288     a288        0     1                 
    a2a0     a2a0        0     1                 
    a2b8     a2b8        0     1                 
    a2d0     a2d0        0     1                 
    a2e8     a2e8        0     1                 
    a300     a300        0     1                 
    a318     a318        0     1                 
    a330     a330        0     1                 
    a348     a348        0     1                 
    a360     a360        0     1                 
    a378     a378        0     1                 
    a390     a390        0     1                 
    a3a8     a3a8        0     1                 
    a3c0     a3c0        0     1                 
    a3d8     a3d8        0     1                 
    a3f0     a3f0        0     1                 
    a408     a408        0     1                 
    a430     a430        0     1                 
    a450     a450        0     1                 
    a470     a470        0     1                 
    a488     a488        0     1                 
    a4a0     a4a0        0     1                 
    a4b8     a4b8        0     1                 
    a4d0     a4d0        0     1                 
    a4e8     a4e8        0     1                 
    a500     a500        0     1                 
    a518     a518        0     1                 
    a530     a530        0     1                 
    a560     a560        0     1                 
    a578     a578        0     1                 
    a590     a590        0     1                 
    a5a8     a5a8        0     1                 
    a5c8     a5c8        0     1                 
    a5e8     a5e8        0     1                 
    a608     a608        0     1                 
    a628     a628        0     1                 
    a650     a650        0     1                 
    a668     a668        0     1                 
    a680     a680        0     1                 
    a6a0     a6a0        0     1                 
    a6c0     a6c0        0     1                 
    a6f8     a6f8        0     1                 
    a710     a710        0     1                 
    a728     a728        0     1                 
    a740     a740        0     1                 
    a760     a760        0     1                 
    a780     a780        0     1                 
    a7a0     a7a0        0     1                 
    a7c0     a7c0        0     1                 
    a7d8     a7d8        0     1                 
    a7f0     a7f0        0     1                 
    a808     a808        0     1                 
    a820     a820        0     1                 
    a838     a838        0     1                 
    a850     a850        0     1                 
    a868     a868        0     1                 
    a880     a880        0     1                 
    a898     a898        0     1                 
    a8c0     a8c0        0     1                 
    a8e0     a8e0        0     1                 
    a900     a900        0     1                 
    a928     a928        0     1                 
    a948     a948        0     1                 
    a968     a968        0     1                 
    a980     a980        0     1                 
    a9a0     a9a0        0     1                 
    a9c0     a9c0        0     1                 
    a9e0     a9e0        0     1                 
    aa00     aa00        0     1                 
    aa18     aa18        0     1                 
    aa30     aa30        0     1                 
    aa48     aa48        0     1                 
    aa60     aa60        0     1                 
    aa78     aa78        0     1                 
    aa90     aa90        0     1                 
    aaa8     aaa8        0     1                 
    aac0     aac0        0     1                 
    aad8     aad8        0     1                 
    aaf8     aaf8        0     1                 
    ab18     ab18        0     1                 
    ab38     ab38        0     1                 
    ab50     ab50        0     1                 
    ab68     ab68        0     1                 
    ab80     ab80        0     1                 
    ab98     ab98        0     1                 
    abb0     abb0        0     1                 
    abc8     abc8        0     1                 
    abe0     abe0        0     1                 
    abf8     abf8        0     1                 
    ac10     ac10        0     1                 
    ac30     ac30        0     1                 
    ac50     ac50        0     1                 
    ac70     ac70        0     1                 
    ac90     ac90        0     1                 
    acb0     acb0        0     1                 
    acd0     acd0        0     1                 
    ace8     ace8        0     1                 
    ad00     ad00        0     1                 
    ad18     ad18        0     1                 
    ad30     ad30        0     1                 
    ad48     ad48        0     1                 
    ad60     ad60        0     1                 
    ad78     ad78        0     1                 
    ad90     ad90        0     1                 
    ada8     ada8        0     1                 
    adc0     adc0        0     1                 
    add8     add8        0     1                 
    adf0     adf0        0     1                 
    ae08     ae08        0     1                 
    ae20     ae20        0     1                 
    ae38     ae38        0     1                 
    ae50     ae50        0     1                 
    ae68     ae68        0     1                 
    ae80     ae80        0     1                 
    ae98     ae98        0     1                 
    aeb0     aeb0        0     1                 
    aec8     aec8        0     1                 
    aee0     aee0        0     1                 
    aef8     aef8        0     1                 
    af20     af20        0     1                 
    af38     af38        0     1                 
    af50     af50        0     1                 
    af68     af68        0     1                 
    af80     af80        0     1                 
    af98     af98        0     1                 
    afb0     afb0        0     1                 
    afd8     afd8        0     1                 
    aff0     aff0        0     1                 
    b008     b008        0     1                 
    b020     b020        0     1                 
    b038     b038        0     1                 
    b050     b050        0     1                 
    b068     b068        0     1                 
    b080     b080        0     1                 
    b098     b098        0     1                 
    b0b0     b0b0        0     1                 
    b0c8     b0c8        0     1                 
    b0e0     b0e0        0     1                 
    b0f8     b0f8        0     1                 
    b110     b110        0     1                 
    b128     b128        0     1                 
    b140     b140        0     1                 
    b158     b158        0     1                 
    b170     b170        0     1                 
    b188     b188        0     1                 
    b1a0     b1a0        0     1                 
    b1b8     b1b8        0     1                 
    b1d0     b1d0        0     1                 
    b1e8     b1e8        0     1                 
    b200     b200        0     1                 
    b218     b218        0     1                 
    b230     b230        0     1                 
    b248     b248        0     1                 
    b260     b260        0     1                 
    b278     b278        0     1                 
    b290     b290        0     1                 
    b2a8     b2a8        0     1                 
    b2c0     b2c0        0     1                 
    b2d8     b2d8        0     1                 
    b2f0     b2f0        0     1                 
    b310     b310        0     1                 
    b330     b330        0     1                 
    b350     b350        0     1                 
    b368     b368        0     1                 
    b380     b380        0     1                 
    b398     b398        0     1                 
    b3b0     b3b0        0     1                 
    b3c8     b3c8        0     1                 
    b3e0     b3e0        0     1                 
    b400     b400        0     1                 
    b420     b420        0     1                 
    b440     b440        0     1                 
    b458     b458        0     1                 
    b470     b470        0     1                 
    b488     b488        0     1                 
    b4a0     b4a0        0     1                 
    b4b8     b4b8        0     1                 
    b4d0     b4d0        0     1                 
    b4e8     b4e8        0     1                 
    b500     b500        0     1                 
    b518     b518        0     1                 
    b538     b538        0     1                 
    b558     b558        0     1                 
    b578     b578        0     1                 
    b598     b598        0     1                 
    b5b8     b5b8        0     1                 
    b5d8     b5d8        0     1                 
    b5f0     b5f0        0     1                 
    b608     b608        0     1                 
    b620     b620        0     1                 
    b638     b638        0     1                 
    b650     b650        0     1                 
    b668     b668        0     1                 
    b688     b688        0     1                 
    b6a8     b6a8        0     1                 
    b6c8     b6c8        0     1                 
    b6e8     b6e8        0     1                 
    b708     b708        0     1                 
    b728     b728        0     1                 
    b740     b740        0     1                 
    b758     b758        0     1                 
    b770     b770        0     1                 
    b788     b788        0     1                 
    b7a0     b7a0        0     1                 
    b7b8     b7b8        0     1                 
    b7d0     b7d0        0     1                 
    b7e8     b7e8        0     1                 
    b800     b800        0     1                 
    b818     b818        0     1                 
    b830     b830        0     1                 
    b848     b848        0     1                 
    b860     b860        0     1                 
    b878     b878        0     1                 
    b890     b890        0     1                 
    b8b0     b8b0        0     1                 
    b8d0     b8d0        0     1                 
    b8f0     b8f0        0     1                 
    b910     b910        0     1                 
    b930     b930        0     1                 
    b950     b950        0     1                 
    b968     b968        0     1                 
    b980     b980        0     1                 
    b998     b998        0     1                 
    b9b0     b9b0        0     1                 
    b9c8     b9c8        0     1                 
    b9e0     b9e0        0     1                 
    ba08     ba08        0     1                 
    ba30     ba30        0     1                 
    ba58     ba58        0     1                 
    ba78     ba78        0     1                 
    ba98     ba98        0     1                 
    bab8     bab8        0     1                 
    bad8     bad8        0     1                 
    baf8     baf8        0     1                 
    bb18     bb18        0     1                 
    bb30     bb30        0     1                 
    bb48     bb48        0     1                 
    bb60     bb60        0     1                 
    bb88     bb88        0     1                 
    bbb0     bbb0        0     1                 
    bbd8     bbd8        0     1                 
    bbf8     bbf8        0     1                 
    bc18     bc18        0     1                 
    bc38     bc38        0     1                 
    bc58     bc58        0     1                 
    bc78     bc78        0     1                 
    bc98     bc98        0     1                 
    bcb0     bcb0        0     1                 
    bcc8     bcc8        0     1                 
    bce0     bce0        0     1                 
    bd00     bd00        0     1                 
    bd20     bd20        0     1                 
    bd40     bd40        0     1                 
    bd68     bd68        0     1                 
    bd90     bd90        0     1                 
    bdb8     bdb8        0     1                 
    bde0     bde0        0     1                 
    be08     be08        0     1                 
    be30     be30        0     1                 
    be58     be58        0     1                 
    be80     be80        0     1                 
    bea8     bea8        0     1                 
    bed0     bed0        0     1                 
    bef8     bef8        0     1                 
    bf20     bf20        0     1                 
    bf40     bf40        0     1                 
    bf60     bf60        0     1                 
    bf80     bf80        0     1                 
    bfa0     bfa0        0     1                 
    bfc0     bfc0        0     1                 
    bfe0     bfe0        0     1                 
    c000     c000        0     1                 
    c020     c020        0     1                 
    c040     c040        0     1                 
    c060     c060        0     1                 
    c080     c080        0     1                 
    c0a0     c0a0        0     1                 
    c0c0     c0c0        0     1                 
    c0e0     c0e0        0     1                 
    c100     c100        0     1                 
    c120     c120        0     1                 
    c140     c140        0     1                 
    c160     c160        0     1                 
    d7b0     d7b0       40     1         /home/mabez/.rustup/toolchains/nightly-x86_64-unknown-linux-gnu/lib/rustlib/riscv32imac-unknown-none-elf/lib/libcompiler_builtins-64fdae85a7f05972.rlib(compiler_builtins-64fdae85a7f05972.compiler_builtins.ce5182a1-cgu.1.rcgu.o):(.debug_ranges)
    d7b0     d7b0        0     1                 
    d7d0     d7d0        0     1                 
    d7f0     d7f0       30     1         /home/mabez/.rustup/toolchains/nightly-x86_64-unknown-linux-gnu/lib/rustlib/riscv32imac-unknown-none-elf/lib/libcompiler_builtins-64fdae85a7f05972.rlib(compiler_builtins-64fdae85a7f05972.compiler_builtins.ce5182a1-cgu.11.rcgu.o):(.debug_ranges)
    d7f0     d7f0        0     1                 
    d808     d808        0     1                 
    d820     d820       78     1         /home/mabez/.rustup/toolchains/nightly-x86_64-unknown-linux-gnu/lib/rustlib/riscv32imac-unknown-none-elf/lib/libcompiler_builtins-64fdae85a7f05972.rlib(compiler_builtins-64fdae85a7f05972.compiler_builtins.ce5182a1-cgu.113.rcgu.o):(.debug_ranges)
    d820     d820        0     1                 
    d838     d838        0     1                 
    d850     d850        0     1                 
    d868     d868        0     1                 
    d880     d880        0     1                 
    d898     d898       d8     1         /home/mabez/.rustup/toolchains/nightly-x86_64-unknown-linux-gnu/lib/rustlib/riscv32imac-unknown-none-elf/lib/libcompiler_builtins-64fdae85a7f05972.rlib(compiler_builtins-64fdae85a7f05972.compiler_builtins.ce5182a1-cgu.121.rcgu.o):(.debug_ranges)
    d898     d898        0     1                 
    d8b0     d8b0        0     1                 
    d8c8     d8c8        0     1                 
    d8e0     d8e0        0     1                 
    d8f8     d8f8        0     1                 
    d970     d970       30     1         /home/mabez/.rustup/toolchains/nightly-x86_64-unknown-linux-gnu/lib/rustlib/riscv32imac-unknown-none-elf/lib/libcompiler_builtins-64fdae85a7f05972.rlib(compiler_builtins-64fdae85a7f05972.compiler_builtins.ce5182a1-cgu.16.rcgu.o):(.debug_ranges)
    d970     d970        0     1                 
    d988     d988        0     1                 
    d9a0     d9a0       40     1         /home/mabez/.rustup/toolchains/nightly-x86_64-unknown-linux-gnu/lib/rustlib/riscv32imac-unknown-none-elf/lib/libcompiler_builtins-64fdae85a7f05972.rlib(compiler_builtins-64fdae85a7f05972.compiler_builtins.ce5182a1-cgu.21.rcgu.o):(.debug_ranges)
    d9a0     d9a0        0     1                 
    d9c0     d9c0        0     1                 
    d9e0     d9e0       48     1         /home/mabez/.rustup/toolchains/nightly-x86_64-unknown-linux-gnu/lib/rustlib/riscv32imac-unknown-none-elf/lib/libcompiler_builtins-64fdae85a7f05972.rlib(compiler_builtins-64fdae85a7f05972.compiler_builtins.ce5182a1-cgu.22.rcgu.o):(.debug_ranges)
    d9e0     d9e0        0     1                 
    da10     da10        0     1                 
    da28     da28       c8     1         /home/mabez/.rustup/toolchains/nightly-x86_64-unknown-linux-gnu/lib/rustlib/riscv32imac-unknown-none-elf/lib/libcompiler_builtins-64fdae85a7f05972.rlib(compiler_builtins-64fdae85a7f05972.compiler_builtins.ce5182a1-cgu.23.rcgu.o):(.debug_ranges)
    da28     da28        0     1                 
    da50     da50        0     1                 
    da70     da70        0     1                 
    da98     da98        0     1                 
    dab0     dab0        0     1                 
    dad0     dad0        0     1                 
    daf0     daf0       40     1         /home/mabez/.rustup/toolchains/nightly-x86_64-unknown-linux-gnu/lib/rustlib/riscv32imac-unknown-none-elf/lib/libcompiler_builtins-64fdae85a7f05972.rlib(compiler_builtins-64fdae85a7f05972.compiler_builtins.ce5182a1-cgu.42.rcgu.o):(.debug_ranges)
    daf0     daf0        0     1                 
    db10     db10        0     1                 
    db30     db30       78     1         /home/mabez/.rustup/toolchains/nightly-x86_64-unknown-linux-gnu/lib/rustlib/riscv32imac-unknown-none-elf/lib/libcompiler_builtins-64fdae85a7f05972.rlib(compiler_builtins-64fdae85a7f05972.compiler_builtins.ce5182a1-cgu.62.rcgu.o):(.debug_ranges)
    db30     db30        0     1                 
    db48     db48        0     1                 
    db60     db60        0     1                 
    db78     db78        0     1                 
    db90     db90        0     1                 
    dba8     dba8       30     1         /home/mabez/.rustup/toolchains/nightly-x86_64-unknown-linux-gnu/lib/rustlib/riscv32imac-unknown-none-elf/lib/libcompiler_builtins-64fdae85a7f05972.rlib(compiler_builtins-64fdae85a7f05972.compiler_builtins.ce5182a1-cgu.7.rcgu.o):(.debug_ranges)
    dba8     dba8        0     1                 
    dbc0     dbc0        0     1                 
    dbd8     dbd8       48     1         /home/mabez/.rustup/toolchains/nightly-x86_64-unknown-linux-gnu/lib/rustlib/riscv32imac-unknown-none-elf/lib/libcompiler_builtins-64fdae85a7f05972.rlib(compiler_builtins-64fdae85a7f05972.compiler_builtins.ce5182a1-cgu.79.rcgu.o):(.debug_ranges)
    dbd8     dbd8        0     1                 
    dbf0     dbf0        0     1                 
    dc08     dc08        0     1                 
    dc20     dc20       50     1         /home/mabez/.rustup/toolchains/nightly-x86_64-unknown-linux-gnu/lib/rustlib/riscv32imac-unknown-none-elf/lib/libcompiler_builtins-64fdae85a7f05972.rlib(compiler_builtins-64fdae85a7f05972.compiler_builtins.ce5182a1-cgu.86.rcgu.o):(.debug_ranges)
    dc20     dc20        0     1                 
    dc38     dc38        0     1                 
    dc50     dc50        0     1                 
    dc70     dc70       78     1         /home/mabez/.rustup/toolchains/nightly-x86_64-unknown-linux-gnu/lib/rustlib/riscv32imac-unknown-none-elf/lib/libcompiler_builtins-64fdae85a7f05972.rlib(compiler_builtins-64fdae85a7f05972.compiler_builtins.ce5182a1-cgu.66.rcgu.o):(.debug_ranges)
    dc70     dc70        0     1                 
    dc88     dc88        0     1                 
    dca0     dca0        0     1                 
    dcb8     dcb8        0     1                 
    dcd0     dcd0        0     1                 
    dce8     dce8       70     1         /home/mabez/development/rust/embedded/experiments/esp32c3/target/riscv32imac-unknown-none-elf/debug/deps/libriscv_rt-9f6ededa1f4c9759.rlib(riscv_rt-9f6ededa1f4c9759.riscv_rt.da5378fb-cgu.3.rcgu.o):(.debug_ranges)
    dce8     dce8        0     1                 
    dd00     dd00        0     1                 
    dd18     dd18        0     1                 
    dd58     dd58       18     1         /home/mabez/development/rust/embedded/experiments/esp32c3/target/riscv32imac-unknown-none-elf/debug/deps/libriscv_rt-9f6ededa1f4c9759.rlib(riscv_rt-9f6ededa1f4c9759.riscv_rt.da5378fb-cgu.5.rcgu.o):(.debug_ranges)
    dd58     dd58        0     1                 
    dd70     dd70       20     1         /home/mabez/development/rust/embedded/experiments/esp32c3/target/riscv32imac-unknown-none-elf/debug/deps/libriscv_rt-9f6ededa1f4c9759.rlib(riscv_rt-9f6ededa1f4c9759.riscv_rt.da5378fb-cgu.0.rcgu.o):(.debug_ranges)
    dd70     dd70        0     1                 
    dd90     dd90       28     1         /home/mabez/development/rust/embedded/experiments/esp32c3/target/riscv32imac-unknown-none-elf/debug/deps/libriscv_rt-9f6ededa1f4c9759.rlib(riscv_rt-9f6ededa1f4c9759.riscv_rt.da5378fb-cgu.4.rcgu.o):(.debug_ranges)
    dd90     dd90        0     1                 
    ddb8     ddb8       68     1         /home/mabez/development/rust/embedded/experiments/esp32c3/target/riscv32imac-unknown-none-elf/debug/deps/libriscv-39f7ce6f6030497b.rlib(riscv-39f7ce6f6030497b.riscv.b201b7e1-cgu.0.rcgu.o):(.debug_ranges)
    ddb8     ddb8        0     1                 
    ddd0     ddd0        0     1                 
    de20     de20       58     1         /home/mabez/development/rust/embedded/experiments/esp32c3/target/riscv32imac-unknown-none-elf/debug/deps/libriscv-39f7ce6f6030497b.rlib(riscv-39f7ce6f6030497b.riscv.b201b7e1-cgu.9.rcgu.o):(.debug_ranges)
    de20     de20        0     1                 
    de78     de78       18     1         /home/mabez/development/rust/embedded/experiments/esp32c3/target/riscv32imac-unknown-none-elf/debug/deps/libriscv-39f7ce6f6030497b.rlib(riscv-39f7ce6f6030497b.riscv.b201b7e1-cgu.4.rcgu.o):(.debug_ranges)
    de78     de78        0     1                 
    de90     de90       18     1         /home/mabez/development/rust/embedded/experiments/esp32c3/target/riscv32imac-unknown-none-elf/debug/deps/libriscv_rt-9f6ededa1f4c9759.rlib(riscv_rt-9f6ededa1f4c9759.riscv_rt.da5378fb-cgu.8.rcgu.o):(.debug_ranges)
    de90     de90        0     1                 
    dea8     dea8      460     1         /home/mabez/development/rust/embedded/experiments/esp32c3/target/riscv32imac-unknown-none-elf/debug/deps/libriscv_atomic_emulation_trap-fab535a27fe2d765.rlib(riscv_atomic_emulation_trap-fab535a27fe2d765.riscv_atomic_emulation_trap.b3d57533-cgu.0.rcgu.o):(.debug_ranges)
    dea8     dea8        0     1                 
    dec0     dec0        0     1                 
    ded8     ded8        0     1                 
    def0     def0        0     1                 
    df08     df08        0     1                 
    df20     df20        0     1                 
    df38     df38        0     1                 
    df50     df50        0     1                 
    df68     df68        0     1                 
    df80     df80        0     1                 
    df98     df98        0     1                 
    dfb0     dfb0        0     1                 
    dfc8     dfc8        0     1                 
    dfe0     dfe0        0     1                 
    dff8     dff8        0     1                 
    e010     e010        0     1                 
    e028     e028        0     1                 
    e040     e040        0     1                 
    e058     e058        0     1                 
    e070     e070        0     1                 
    e088     e088        0     1                 
    e0a0     e0a0        0     1                 
    e0b8     e0b8        0     1                 
    e0d0     e0d0        0     1                 
    e0e8     e0e8        0     1                 
    e100     e100        0     1                 
    e118     e118        0     1                 
    e130     e130        0     1                 
    e148     e148        0     1                 
    e168     e168        0     1                 
    e188     e188        0     1                 
    e1a8     e1a8        0     1                 
    e1c8     e1c8        0     1                 
    e1e8     e1e8        0     1                 
    e210     e210        0     1                 
    e230     e230        0     1                 
    e248     e248        0     1                 
    e260     e260        0     1                 
    e278     e278        0     1                 
    e290     e290        0     1                 
    e308     e308       18     1         /home/mabez/development/rust/embedded/experiments/esp32c3/target/riscv32imac-unknown-none-elf/debug/deps/libriscv_atomic_emulation_trap-fab535a27fe2d765.rlib(riscv_atomic_emulation_trap-fab535a27fe2d765.riscv_atomic_emulation_trap.b3d57533-cgu.2.rcgu.o):(.debug_ranges)
    e308     e308        0     1                 
    e320     e320       28     1         /home/mabez/development/rust/embedded/experiments/esp32c3/target/riscv32imac-unknown-none-elf/debug/deps/libriscv_atomic_emulation_trap-fab535a27fe2d765.rlib(riscv_atomic_emulation_trap-fab535a27fe2d765.riscv_atomic_emulation_trap.b3d57533-cgu.3.rcgu.o):(.debug_ranges)
    e320     e320        0     1                 
    e348     e348       68     1         /home/mabez/development/rust/embedded/experiments/esp32c3/target/riscv32imac-unknown-none-elf/debug/deps/libriscv-2df4d94086d6ad3d.rlib(riscv-2df4d94086d6ad3d.riscv.9f9f37cf-cgu.0.rcgu.o):(.debug_ranges)
    e348     e348        0     1                 
    e360     e360        0     1                 
    e3b0     e3b0       60     1         /home/mabez/development/rust/embedded/experiments/esp32c3/target/riscv32imac-unknown-none-elf/debug/deps/libriscv-2df4d94086d6ad3d.rlib(riscv-2df4d94086d6ad3d.riscv.9f9f37cf-cgu.10.rcgu.o):(.debug_ranges)
    e3b0     e3b0        0     1                 
    e410     e410       30     1         /home/mabez/development/rust/embedded/experiments/esp32c3/target/riscv32imac-unknown-none-elf/debug/deps/libriscv-2df4d94086d6ad3d.rlib(riscv-2df4d94086d6ad3d.riscv.9f9f37cf-cgu.8.rcgu.o):(.debug_ranges)
    e410     e410        0     1                 
    e440     e440       18     1         /home/mabez/development/rust/embedded/experiments/esp32c3/target/riscv32imac-unknown-none-elf/debug/deps/libriscv-2df4d94086d6ad3d.rlib(riscv-2df4d94086d6ad3d.riscv.9f9f37cf-cgu.4.rcgu.o):(.debug_ranges)
    e440     e440        0     1                 
    e458     e458       28     1         /home/mabez/development/rust/embedded/experiments/esp32c3/target/riscv32imac-unknown-none-elf/debug/deps/libriscv-2df4d94086d6ad3d.rlib(riscv-2df4d94086d6ad3d.riscv.9f9f37cf-cgu.11.rcgu.o):(.debug_ranges)
    e458     e458        0     1                 
    e480     e480       48     1         /home/mabez/development/rust/embedded/experiments/esp32c3/target/riscv32imac-unknown-none-elf/debug/deps/libriscv_atomic_emulation_trap-fab535a27fe2d765.rlib(riscv_atomic_emulation_trap-fab535a27fe2d765.riscv_atomic_emulation_trap.b3d57533-cgu.5.rcgu.o):(.debug_ranges)
    e480     e480        0     1                 
    e4c8     e4c8       20     1         /home/mabez/development/rust/embedded/experiments/esp32c3/target/riscv32imac-unknown-none-elf/debug/deps/libriscv_atomic_emulation_trap-fab535a27fe2d765.rlib(riscv_atomic_emulation_trap-fab535a27fe2d765.riscv_atomic_emulation_trap.b3d57533-cgu.7.rcgu.o):(.debug_ranges)
    e4c8     e4c8        0     1                 
    e4e8     e4e8       18     1         /home/mabez/development/rust/embedded/experiments/esp32c3/target/riscv32imac-unknown-none-elf/debug/deps/libriscv_atomic_emulation_trap-fab535a27fe2d765.rlib(riscv_atomic_emulation_trap-fab535a27fe2d765.riscv_atomic_emulation_trap.b3d57533-cgu.4.rcgu.o):(.debug_ranges)
    e4e8     e4e8        0     1                 
       0        0    39106     1 .debug_str
       0        0    39106     1         <internal>:(.debug_str)
       0        0    110f2     1 .debug_pubnames
       0        0       c0     1         /home/mabez/development/rust/embedded/experiments/esp32c3/target/riscv32imac-unknown-none-elf/debug/deps/esp32c3-6c8eecfb34724107.16oo1rtpmbk0weq7.rcgu.o:(.debug_pubnames)
      c0       c0       bb     1         /home/mabez/development/rust/embedded/experiments/esp32c3/target/riscv32imac-unknown-none-elf/debug/deps/esp32c3-6c8eecfb34724107.1idhibzi0mpmbahx.rcgu.o:(.debug_pubnames)
     17b      17b      163     1         /home/mabez/development/rust/embedded/experiments/esp32c3/target/riscv32imac-unknown-none-elf/debug/deps/esp32c3-6c8eecfb34724107.1phwpl9yylfc3qa9.rcgu.o:(.debug_pubnames)
     2de      2de       96     1         /home/mabez/development/rust/embedded/experiments/esp32c3/target/riscv32imac-unknown-none-elf/debug/deps/esp32c3-6c8eecfb34724107.31w2p0rmtqdazjy9.rcgu.o:(.debug_pubnames)
     374      374       df     1         /home/mabez/development/rust/embedded/experiments/esp32c3/target/riscv32imac-unknown-none-elf/debug/deps/esp32c3-6c8eecfb34724107.360z2ancvg6ixrl4.rcgu.o:(.debug_pubnames)
     453      453      1ff     1         /home/mabez/development/rust/embedded/experiments/esp32c3/target/riscv32imac-unknown-none-elf/debug/deps/esp32c3-6c8eecfb34724107.3dax6gsnt3idpsze.rcgu.o:(.debug_pubnames)
     652      652       e0     1         /home/mabez/development/rust/embedded/experiments/esp32c3/target/riscv32imac-unknown-none-elf/debug/deps/esp32c3-6c8eecfb34724107.3e2vhcvnvpvomz83.rcgu.o:(.debug_pubnames)
     732      732      109     1         /home/mabez/development/rust/embedded/experiments/esp32c3/target/riscv32imac-unknown-none-elf/debug/deps/esp32c3-6c8eecfb34724107.3hh2vqqri9noju8i.rcgu.o:(.debug_pubnames)
     83b      83b       ae     1         /home/mabez/development/rust/embedded/experiments/esp32c3/target/riscv32imac-unknown-none-elf/debug/deps/esp32c3-6c8eecfb34724107.46dv6jlxri7vu0zk.rcgu.o:(.debug_pubnames)
     8e9      8e9       4c     1         /home/mabez/development/rust/embedded/experiments/esp32c3/target/riscv32imac-unknown-none-elf/debug/deps/esp32c3-6c8eecfb34724107.59383vjg8ah1nwp0.rcgu.o:(.debug_pubnames)
     935      935       45     1         /home/mabez/development/rust/embedded/experiments/esp32c3/target/riscv32imac-unknown-none-elf/debug/deps/esp32c3-6c8eecfb34724107.h4h1jg4d5ugkhbg.rcgu.o:(.debug_pubnames)
     97a      97a       ad     1         /home/mabez/development/rust/embedded/experiments/esp32c3/target/riscv32imac-unknown-none-elf/debug/deps/esp32c3-6c8eecfb34724107.p5cpnu5dso05alz.rcgu.o:(.debug_pubnames)
     a27      a27      146     1         /home/mabez/development/rust/embedded/experiments/esp32c3/target/riscv32imac-unknown-none-elf/debug/deps/esp32c3-6c8eecfb34724107.v0f7at9a6qkyll5.rcgu.o:(.debug_pubnames)
     b6d      b6d       6e     1         /home/mabez/development/rust/embedded/experiments/esp32c3/target/riscv32imac-unknown-none-elf/debug/deps/esp32c3-6c8eecfb34724107.zvsvxmou5gfsy4h.rcgu.o:(.debug_pubnames)
     bdb      bdb      398     1         /home/mabez/development/rust/embedded/experiments/esp32c3/target/riscv32imac-unknown-none-elf/debug/deps/librtt_target-ba817fabe6541e78.rlib(rtt_target-ba817fabe6541e78.rtt_target.a5746e51-cgu.0.rcgu.o):(.debug_pubnames)
     f73      f73      164     1         /home/mabez/development/rust/embedded/experiments/esp32c3/target/riscv32imac-unknown-none-elf/debug/deps/librtt_target-ba817fabe6541e78.rlib(rtt_target-ba817fabe6541e78.rtt_target.a5746e51-cgu.1.rcgu.o):(.debug_pubnames)
    10d7     10d7      126     1         /home/mabez/development/rust/embedded/experiments/esp32c3/target/riscv32imac-unknown-none-elf/debug/deps/librtt_target-ba817fabe6541e78.rlib(rtt_target-ba817fabe6541e78.rtt_target.a5746e51-cgu.10.rcgu.o):(.debug_pubnames)
    11fd     11fd       d9     1         /home/mabez/development/rust/embedded/experiments/esp32c3/target/riscv32imac-unknown-none-elf/debug/deps/librtt_target-ba817fabe6541e78.rlib(rtt_target-ba817fabe6541e78.rtt_target.a5746e51-cgu.11.rcgu.o):(.debug_pubnames)
    12d6     12d6       fa     1         /home/mabez/development/rust/embedded/experiments/esp32c3/target/riscv32imac-unknown-none-elf/debug/deps/librtt_target-ba817fabe6541e78.rlib(rtt_target-ba817fabe6541e78.rtt_target.a5746e51-cgu.12.rcgu.o):(.debug_pubnames)
    13d0     13d0       c1     1         /home/mabez/development/rust/embedded/experiments/esp32c3/target/riscv32imac-unknown-none-elf/debug/deps/librtt_target-ba817fabe6541e78.rlib(rtt_target-ba817fabe6541e78.rtt_target.a5746e51-cgu.14.rcgu.o):(.debug_pubnames)
    1491     1491      17d     1         /home/mabez/development/rust/embedded/experiments/esp32c3/target/riscv32imac-unknown-none-elf/debug/deps/librtt_target-ba817fabe6541e78.rlib(rtt_target-ba817fabe6541e78.rtt_target.a5746e51-cgu.15.rcgu.o):(.debug_pubnames)
    160e     160e       6e     1         /home/mabez/development/rust/embedded/experiments/esp32c3/target/riscv32imac-unknown-none-elf/debug/deps/librtt_target-ba817fabe6541e78.rlib(rtt_target-ba817fabe6541e78.rtt_target.a5746e51-cgu.2.rcgu.o):(.debug_pubnames)
    167c     167c      38c     1         /home/mabez/development/rust/embedded/experiments/esp32c3/target/riscv32imac-unknown-none-elf/debug/deps/librtt_target-ba817fabe6541e78.rlib(rtt_target-ba817fabe6541e78.rtt_target.a5746e51-cgu.3.rcgu.o):(.debug_pubnames)
    1a08     1a08      128     1         /home/mabez/development/rust/embedded/experiments/esp32c3/target/riscv32imac-unknown-none-elf/debug/deps/librtt_target-ba817fabe6541e78.rlib(rtt_target-ba817fabe6541e78.rtt_target.a5746e51-cgu.4.rcgu.o):(.debug_pubnames)
    1b30     1b30       79     1         /home/mabez/development/rust/embedded/experiments/esp32c3/target/riscv32imac-unknown-none-elf/debug/deps/librtt_target-ba817fabe6541e78.rlib(rtt_target-ba817fabe6541e78.rtt_target.a5746e51-cgu.13.rcgu.o):(.debug_pubnames)
    1ba9     1ba9       a7     1         /home/mabez/development/rust/embedded/experiments/esp32c3/target/riscv32imac-unknown-none-elf/debug/deps/librtt_target-ba817fabe6541e78.rlib(rtt_target-ba817fabe6541e78.rtt_target.a5746e51-cgu.5.rcgu.o):(.debug_pubnames)
    1c50     1c50      248     1         /home/mabez/development/rust/embedded/experiments/esp32c3/target/riscv32imac-unknown-none-elf/debug/deps/librtt_target-ba817fabe6541e78.rlib(rtt_target-ba817fabe6541e78.rtt_target.a5746e51-cgu.6.rcgu.o):(.debug_pubnames)
    1e98     1e98      110     1         /home/mabez/development/rust/embedded/experiments/esp32c3/target/riscv32imac-unknown-none-elf/debug/deps/librtt_target-ba817fabe6541e78.rlib(rtt_target-ba817fabe6541e78.rtt_target.a5746e51-cgu.7.rcgu.o):(.debug_pubnames)
    1fa8     1fa8      38c     1         /home/mabez/development/rust/embedded/experiments/esp32c3/target/riscv32imac-unknown-none-elf/debug/deps/librtt_target-ba817fabe6541e78.rlib(rtt_target-ba817fabe6541e78.rtt_target.a5746e51-cgu.8.rcgu.o):(.debug_pubnames)
    2334     2334       96     1         /home/mabez/development/rust/embedded/experiments/esp32c3/target/riscv32imac-unknown-none-elf/debug/deps/librtt_target-ba817fabe6541e78.rlib(rtt_target-ba817fabe6541e78.rtt_target.a5746e51-cgu.9.rcgu.o):(.debug_pubnames)
    23ca     23ca      10a     1         /home/mabez/development/rust/embedded/experiments/esp32c3/target/riscv32imac-unknown-none-elf/debug/deps/libesp32c3_lib-c6891e451671e2e8.rlib(esp32c3_lib-c6891e451671e2e8.50vycai6f6fblslz.rcgu.o):(.debug_pubnames)
    24d4     24d4       6a     1         /home/mabez/development/rust/embedded/experiments/esp32c3/target/riscv32imac-unknown-none-elf/debug/deps/libesp32c3_lib-c6891e451671e2e8.rlib(esp32c3_lib-c6891e451671e2e8.2zwu2gzn9kym8n1i.rcgu.o):(.debug_pubnames)
    253e     253e       6d     1         /home/mabez/development/rust/embedded/experiments/esp32c3/target/riscv32imac-unknown-none-elf/debug/deps/libesp32c3_lib-c6891e451671e2e8.rlib(esp32c3_lib-c6891e451671e2e8.52x8onntfu5vhxia.rcgu.o):(.debug_pubnames)
    25ab     25ab       29     1         /home/mabez/development/rust/embedded/experiments/esp32c3/target/riscv32imac-unknown-none-elf/debug/deps/libbare_metal-01059decff6db7a9.rlib(bare_metal-01059decff6db7a9.bare_metal.c7fb2979-cgu.0.rcgu.o):(.debug_pubnames)
    25d4     25d4       77     1         /home/mabez/development/rust/embedded/experiments/esp32c3/target/riscv32imac-unknown-none-elf/debug/deps/libembedded_hal-09d0b07e9f5d700b.rlib(embedded_hal-09d0b07e9f5d700b.embedded_hal.a1e71ce7-cgu.10.rcgu.o):(.debug_pubnames)
    264b     264b      149     1         /home/mabez/development/rust/embedded/experiments/esp32c3/target/riscv32imac-unknown-none-elf/debug/deps/libembedded_hal-09d0b07e9f5d700b.rlib(embedded_hal-09d0b07e9f5d700b.embedded_hal.a1e71ce7-cgu.6.rcgu.o):(.debug_pubnames)
    2794     2794       64     1         /home/mabez/development/rust/embedded/experiments/esp32c3/target/riscv32imac-unknown-none-elf/debug/deps/libembedded_hal-09d0b07e9f5d700b.rlib(embedded_hal-09d0b07e9f5d700b.embedded_hal.a1e71ce7-cgu.4.rcgu.o):(.debug_pubnames)
    27f8     27f8       55     1         /home/mabez/development/rust/embedded/experiments/esp32c3/target/riscv32imac-unknown-none-elf/debug/deps/libembedded_hal-09d0b07e9f5d700b.rlib(embedded_hal-09d0b07e9f5d700b.embedded_hal.a1e71ce7-cgu.3.rcgu.o):(.debug_pubnames)
    284d     284d       62     1         /home/mabez/development/rust/embedded/experiments/esp32c3/target/riscv32imac-unknown-none-elf/debug/deps/libembedded_hal-09d0b07e9f5d700b.rlib(embedded_hal-09d0b07e9f5d700b.embedded_hal.a1e71ce7-cgu.7.rcgu.o):(.debug_pubnames)
    28af     28af       ca     1         /home/mabez/development/rust/embedded/experiments/esp32c3/target/riscv32imac-unknown-none-elf/debug/deps/libvoid-9bf68c712c7c3b51.rlib(void-9bf68c712c7c3b51.void.0c241590-cgu.0.rcgu.o):(.debug_pubnames)
    2979     2979     b00c     1         /home/mabez/.rustup/toolchains/nightly-x86_64-unknown-linux-gnu/lib/rustlib/riscv32imac-unknown-none-elf/lib/libcore-081fd8405fc18f2e.rlib(core-081fd8405fc18f2e.core.364d98f8-cgu.0.rcgu.o):(.debug_pubnames)
    d985     d985       f4     1         /home/mabez/.rustup/toolchains/nightly-x86_64-unknown-linux-gnu/lib/rustlib/riscv32imac-unknown-none-elf/lib/libcompiler_builtins-64fdae85a7f05972.rlib(compiler_builtins-64fdae85a7f05972.compiler_builtins.ce5182a1-cgu.1.rcgu.o):(.debug_pubnames)
    da79     da79       e4     1         /home/mabez/.rustup/toolchains/nightly-x86_64-unknown-linux-gnu/lib/rustlib/riscv32imac-unknown-none-elf/lib/libcompiler_builtins-64fdae85a7f05972.rlib(compiler_builtins-64fdae85a7f05972.compiler_builtins.ce5182a1-cgu.104.rcgu.o):(.debug_pubnames)
    db5d     db5d       ca     1         /home/mabez/.rustup/toolchains/nightly-x86_64-unknown-linux-gnu/lib/rustlib/riscv32imac-unknown-none-elf/lib/libcompiler_builtins-64fdae85a7f05972.rlib(compiler_builtins-64fdae85a7f05972.compiler_builtins.ce5182a1-cgu.11.rcgu.o):(.debug_pubnames)
    dc27     dc27      1b5     1         /home/mabez/.rustup/toolchains/nightly-x86_64-unknown-linux-gnu/lib/rustlib/riscv32imac-unknown-none-elf/lib/libcompiler_builtins-64fdae85a7f05972.rlib(compiler_builtins-64fdae85a7f05972.compiler_builtins.ce5182a1-cgu.113.rcgu.o):(.debug_pubnames)
    dddc     dddc      559     1         /home/mabez/.rustup/toolchains/nightly-x86_64-unknown-linux-gnu/lib/rustlib/riscv32imac-unknown-none-elf/lib/libcompiler_builtins-64fdae85a7f05972.rlib(compiler_builtins-64fdae85a7f05972.compiler_builtins.ce5182a1-cgu.121.rcgu.o):(.debug_pubnames)
    e335     e335       ca     1         /home/mabez/.rustup/toolchains/nightly-x86_64-unknown-linux-gnu/lib/rustlib/riscv32imac-unknown-none-elf/lib/libcompiler_builtins-64fdae85a7f05972.rlib(compiler_builtins-64fdae85a7f05972.compiler_builtins.ce5182a1-cgu.16.rcgu.o):(.debug_pubnames)
    e3ff     e3ff       f4     1         /home/mabez/.rustup/toolchains/nightly-x86_64-unknown-linux-gnu/lib/rustlib/riscv32imac-unknown-none-elf/lib/libcompiler_builtins-64fdae85a7f05972.rlib(compiler_builtins-64fdae85a7f05972.compiler_builtins.ce5182a1-cgu.21.rcgu.o):(.debug_pubnames)
    e4f3     e4f3      120     1         /home/mabez/.rustup/toolchains/nightly-x86_64-unknown-linux-gnu/lib/rustlib/riscv32imac-unknown-none-elf/lib/libcompiler_builtins-64fdae85a7f05972.rlib(compiler_builtins-64fdae85a7f05972.compiler_builtins.ce5182a1-cgu.22.rcgu.o):(.debug_pubnames)
    e613     e613      12a     1         /home/mabez/.rustup/toolchains/nightly-x86_64-unknown-linux-gnu/lib/rustlib/riscv32imac-unknown-none-elf/lib/libcompiler_builtins-64fdae85a7f05972.rlib(compiler_builtins-64fdae85a7f05972.compiler_builtins.ce5182a1-cgu.23.rcgu.o):(.debug_pubnames)
    e73d     e73d       f4     1         /home/mabez/.rustup/toolchains/nightly-x86_64-unknown-linux-gnu/lib/rustlib/riscv32imac-unknown-none-elf/lib/libcompiler_builtins-64fdae85a7f05972.rlib(compiler_builtins-64fdae85a7f05972.compiler_builtins.ce5182a1-cgu.42.rcgu.o):(.debug_pubnames)
    e831     e831       47     1         /home/mabez/.rustup/toolchains/nightly-x86_64-unknown-linux-gnu/lib/rustlib/riscv32imac-unknown-none-elf/lib/libcompiler_builtins-64fdae85a7f05972.rlib(compiler_builtins-64fdae85a7f05972.compiler_builtins.ce5182a1-cgu.58.rcgu.o):(.debug_pubnames)
    e878     e878      1b5     1         /home/mabez/.rustup/toolchains/nightly-x86_64-unknown-linux-gnu/lib/rustlib/riscv32imac-unknown-none-elf/lib/libcompiler_builtins-64fdae85a7f05972.rlib(compiler_builtins-64fdae85a7f05972.compiler_builtins.ce5182a1-cgu.62.rcgu.o):(.debug_pubnames)
    ea2d     ea2d       ca     1         /home/mabez/.rustup/toolchains/nightly-x86_64-unknown-linux-gnu/lib/rustlib/riscv32imac-unknown-none-elf/lib/libcompiler_builtins-64fdae85a7f05972.rlib(compiler_builtins-64fdae85a7f05972.compiler_builtins.ce5182a1-cgu.7.rcgu.o):(.debug_pubnames)
    eaf7     eaf7       e5     1         /home/mabez/.rustup/toolchains/nightly-x86_64-unknown-linux-gnu/lib/rustlib/riscv32imac-unknown-none-elf/lib/libcompiler_builtins-64fdae85a7f05972.rlib(compiler_builtins-64fdae85a7f05972.compiler_builtins.ce5182a1-cgu.79.rcgu.o):(.debug_pubnames)
    ebdc     ebdc      179     1         /home/mabez/.rustup/toolchains/nightly-x86_64-unknown-linux-gnu/lib/rustlib/riscv32imac-unknown-none-elf/lib/libcompiler_builtins-64fdae85a7f05972.rlib(compiler_builtins-64fdae85a7f05972.compiler_builtins.ce5182a1-cgu.86.rcgu.o):(.debug_pubnames)
    ed55     ed55       e5     1         /home/mabez/.rustup/toolchains/nightly-x86_64-unknown-linux-gnu/lib/rustlib/riscv32imac-unknown-none-elf/lib/libcompiler_builtins-64fdae85a7f05972.rlib(compiler_builtins-64fdae85a7f05972.compiler_builtins.ce5182a1-cgu.66.rcgu.o):(.debug_pubnames)
    ee3a     ee3a       47     1         /home/mabez/.rustup/toolchains/nightly-x86_64-unknown-linux-gnu/lib/rustlib/riscv32imac-unknown-none-elf/lib/libcompiler_builtins-64fdae85a7f05972.rlib(compiler_builtins-64fdae85a7f05972.compiler_builtins.ce5182a1-cgu.96.rcgu.o):(.debug_pubnames)
    ee81     ee81       47     1         /home/mabez/.rustup/toolchains/nightly-x86_64-unknown-linux-gnu/lib/rustlib/riscv32imac-unknown-none-elf/lib/libcompiler_builtins-64fdae85a7f05972.rlib(compiler_builtins-64fdae85a7f05972.compiler_builtins.ce5182a1-cgu.98.rcgu.o):(.debug_pubnames)
    eec8     eec8      196     1         /home/mabez/development/rust/embedded/experiments/esp32c3/target/riscv32imac-unknown-none-elf/debug/deps/libriscv_rt-9f6ededa1f4c9759.rlib(riscv_rt-9f6ededa1f4c9759.riscv_rt.da5378fb-cgu.3.rcgu.o):(.debug_pubnames)
    f05e     f05e       9e     1         /home/mabez/development/rust/embedded/experiments/esp32c3/target/riscv32imac-unknown-none-elf/debug/deps/libriscv_rt-9f6ededa1f4c9759.rlib(riscv_rt-9f6ededa1f4c9759.riscv_rt.da5378fb-cgu.5.rcgu.o):(.debug_pubnames)
    f0fc     f0fc       93     1         /home/mabez/development/rust/embedded/experiments/esp32c3/target/riscv32imac-unknown-none-elf/debug/deps/libriscv_rt-9f6ededa1f4c9759.rlib(riscv_rt-9f6ededa1f4c9759.riscv_rt.da5378fb-cgu.0.rcgu.o):(.debug_pubnames)
    f18f     f18f       9c     1         /home/mabez/development/rust/embedded/experiments/esp32c3/target/riscv32imac-unknown-none-elf/debug/deps/libriscv_rt-9f6ededa1f4c9759.rlib(riscv_rt-9f6ededa1f4c9759.riscv_rt.da5378fb-cgu.1.rcgu.o):(.debug_pubnames)
    f22b     f22b       3f     1         /home/mabez/development/rust/embedded/experiments/esp32c3/target/riscv32imac-unknown-none-elf/debug/deps/libriscv_rt-9f6ededa1f4c9759.rlib(riscv_rt-9f6ededa1f4c9759.riscv_rt.da5378fb-cgu.6.rcgu.o):(.debug_pubnames)
    f26a     f26a       69     1         /home/mabez/development/rust/embedded/experiments/esp32c3/target/riscv32imac-unknown-none-elf/debug/deps/libriscv_rt-9f6ededa1f4c9759.rlib(riscv_rt-9f6ededa1f4c9759.riscv_rt.da5378fb-cgu.4.rcgu.o):(.debug_pubnames)
    f2d3     f2d3      3c7     1         /home/mabez/development/rust/embedded/experiments/esp32c3/target/riscv32imac-unknown-none-elf/debug/deps/libriscv-39f7ce6f6030497b.rlib(riscv-39f7ce6f6030497b.riscv.b201b7e1-cgu.0.rcgu.o):(.debug_pubnames)
    f69a     f69a      432     1         /home/mabez/development/rust/embedded/experiments/esp32c3/target/riscv32imac-unknown-none-elf/debug/deps/libriscv-39f7ce6f6030497b.rlib(riscv-39f7ce6f6030497b.riscv.b201b7e1-cgu.9.rcgu.o):(.debug_pubnames)
    facc     facc       a4     1         /home/mabez/development/rust/embedded/experiments/esp32c3/target/riscv32imac-unknown-none-elf/debug/deps/libriscv-39f7ce6f6030497b.rlib(riscv-39f7ce6f6030497b.riscv.b201b7e1-cgu.4.rcgu.o):(.debug_pubnames)
    fb70     fb70       48     1         /home/mabez/development/rust/embedded/experiments/esp32c3/target/riscv32imac-unknown-none-elf/debug/deps/libriscv_rt-9f6ededa1f4c9759.rlib(riscv_rt-9f6ededa1f4c9759.riscv_rt.da5378fb-cgu.8.rcgu.o):(.debug_pubnames)
    fbb8     fbb8       2c     1         /home/mabez/development/rust/embedded/experiments/esp32c3/target/riscv32imac-unknown-none-elf/debug/deps/libriscv_rt-9f6ededa1f4c9759.rlib(riscv_rt-9f6ededa1f4c9759.riscv_rt.da5378fb-cgu.7.rcgu.o):(.debug_pubnames)
    fbe4     fbe4       3d     1         /home/mabez/development/rust/embedded/experiments/esp32c3/target/riscv32imac-unknown-none-elf/debug/deps/libriscv_rt-9f6ededa1f4c9759.rlib(riscv_rt-9f6ededa1f4c9759.riscv_rt.da5378fb-cgu.2.rcgu.o):(.debug_pubnames)
    fc21     fc21      31f     1         /home/mabez/development/rust/embedded/experiments/esp32c3/target/riscv32imac-unknown-none-elf/debug/deps/libriscv_atomic_emulation_trap-fab535a27fe2d765.rlib(riscv_atomic_emulation_trap-fab535a27fe2d765.riscv_atomic_emulation_trap.b3d57533-cgu.0.rcgu.o):(.debug_pubnames)
    ff40     ff40       6b     1         /home/mabez/development/rust/embedded/experiments/esp32c3/target/riscv32imac-unknown-none-elf/debug/deps/libriscv_atomic_emulation_trap-fab535a27fe2d765.rlib(riscv_atomic_emulation_trap-fab535a27fe2d765.riscv_atomic_emulation_trap.b3d57533-cgu.2.rcgu.o):(.debug_pubnames)
    ffab     ffab       47     1         /home/mabez/development/rust/embedded/experiments/esp32c3/target/riscv32imac-unknown-none-elf/debug/deps/libriscv_atomic_emulation_trap-fab535a27fe2d765.rlib(riscv_atomic_emulation_trap-fab535a27fe2d765.riscv_atomic_emulation_trap.b3d57533-cgu.1.rcgu.o):(.debug_pubnames)
    fff2     fff2       50     1         /home/mabez/development/rust/embedded/experiments/esp32c3/target/riscv32imac-unknown-none-elf/debug/deps/libriscv_atomic_emulation_trap-fab535a27fe2d765.rlib(riscv_atomic_emulation_trap-fab535a27fe2d765.riscv_atomic_emulation_trap.b3d57533-cgu.6.rcgu.o):(.debug_pubnames)
   10042    10042      21d     1         /home/mabez/development/rust/embedded/experiments/esp32c3/target/riscv32imac-unknown-none-elf/debug/deps/libriscv_atomic_emulation_trap-fab535a27fe2d765.rlib(riscv_atomic_emulation_trap-fab535a27fe2d765.riscv_atomic_emulation_trap.b3d57533-cgu.3.rcgu.o):(.debug_pubnames)
   1025f    1025f      3c7     1         /home/mabez/development/rust/embedded/experiments/esp32c3/target/riscv32imac-unknown-none-elf/debug/deps/libriscv-2df4d94086d6ad3d.rlib(riscv-2df4d94086d6ad3d.riscv.9f9f37cf-cgu.0.rcgu.o):(.debug_pubnames)
   10626    10626      47c     1         /home/mabez/development/rust/embedded/experiments/esp32c3/target/riscv32imac-unknown-none-elf/debug/deps/libriscv-2df4d94086d6ad3d.rlib(riscv-2df4d94086d6ad3d.riscv.9f9f37cf-cgu.10.rcgu.o):(.debug_pubnames)
   10aa2    10aa2      167     1         /home/mabez/development/rust/embedded/experiments/esp32c3/target/riscv32imac-unknown-none-elf/debug/deps/libriscv-2df4d94086d6ad3d.rlib(riscv-2df4d94086d6ad3d.riscv.9f9f37cf-cgu.8.rcgu.o):(.debug_pubnames)
   10c09    10c09       a4     1         /home/mabez/development/rust/embedded/experiments/esp32c3/target/riscv32imac-unknown-none-elf/debug/deps/libriscv-2df4d94086d6ad3d.rlib(riscv-2df4d94086d6ad3d.riscv.9f9f37cf-cgu.4.rcgu.o):(.debug_pubnames)
   10cad    10cad      149     1         /home/mabez/development/rust/embedded/experiments/esp32c3/target/riscv32imac-unknown-none-elf/debug/deps/libriscv-2df4d94086d6ad3d.rlib(riscv-2df4d94086d6ad3d.riscv.9f9f37cf-cgu.11.rcgu.o):(.debug_pubnames)
   10df6    10df6      17a     1         /home/mabez/development/rust/embedded/experiments/esp32c3/target/riscv32imac-unknown-none-elf/debug/deps/libriscv_atomic_emulation_trap-fab535a27fe2d765.rlib(riscv_atomic_emulation_trap-fab535a27fe2d765.riscv_atomic_emulation_trap.b3d57533-cgu.5.rcgu.o):(.debug_pubnames)
   10f70    10f70      11a     1         /home/mabez/development/rust/embedded/experiments/esp32c3/target/riscv32imac-unknown-none-elf/debug/deps/libriscv_atomic_emulation_trap-fab535a27fe2d765.rlib(riscv_atomic_emulation_trap-fab535a27fe2d765.riscv_atomic_emulation_trap.b3d57533-cgu.7.rcgu.o):(.debug_pubnames)
   1108a    1108a       68     1         /home/mabez/development/rust/embedded/experiments/esp32c3/target/riscv32imac-unknown-none-elf/debug/deps/libriscv_atomic_emulation_trap-fab535a27fe2d765.rlib(riscv_atomic_emulation_trap-fab535a27fe2d765.riscv_atomic_emulation_trap.b3d57533-cgu.4.rcgu.o):(.debug_pubnames)
       0        0     4c7a     1 .debug_pubtypes
       0        0       88     1         /home/mabez/development/rust/embedded/experiments/esp32c3/target/riscv32imac-unknown-none-elf/debug/deps/esp32c3-6c8eecfb34724107.16oo1rtpmbk0weq7.rcgu.o:(.debug_pubtypes)
      88       88       ad     1         /home/mabez/development/rust/embedded/experiments/esp32c3/target/riscv32imac-unknown-none-elf/debug/deps/esp32c3-6c8eecfb34724107.1idhibzi0mpmbahx.rcgu.o:(.debug_pubtypes)
     135      135       92     1         /home/mabez/development/rust/embedded/experiments/esp32c3/target/riscv32imac-unknown-none-elf/debug/deps/esp32c3-6c8eecfb34724107.1phwpl9yylfc3qa9.rcgu.o:(.debug_pubtypes)
     1c7      1c7       c5     1         /home/mabez/development/rust/embedded/experiments/esp32c3/target/riscv32imac-unknown-none-elf/debug/deps/esp32c3-6c8eecfb34724107.31w2p0rmtqdazjy9.rcgu.o:(.debug_pubtypes)
     28c      28c       98     1         /home/mabez/development/rust/embedded/experiments/esp32c3/target/riscv32imac-unknown-none-elf/debug/deps/esp32c3-6c8eecfb34724107.360z2ancvg6ixrl4.rcgu.o:(.debug_pubtypes)
     324      324      530     1         /home/mabez/development/rust/embedded/experiments/esp32c3/target/riscv32imac-unknown-none-elf/debug/deps/esp32c3-6c8eecfb34724107.3dax6gsnt3idpsze.rcgu.o:(.debug_pubtypes)
     854      854      2f4     1         /home/mabez/development/rust/embedded/experiments/esp32c3/target/riscv32imac-unknown-none-elf/debug/deps/esp32c3-6c8eecfb34724107.3e2vhcvnvpvomz83.rcgu.o:(.debug_pubtypes)
     b48      b48      439     1         /home/mabez/development/rust/embedded/experiments/esp32c3/target/riscv32imac-unknown-none-elf/debug/deps/esp32c3-6c8eecfb34724107.3hh2vqqri9noju8i.rcgu.o:(.debug_pubtypes)
     f81      f81      269     1         /home/mabez/development/rust/embedded/experiments/esp32c3/target/riscv32imac-unknown-none-elf/debug/deps/esp32c3-6c8eecfb34724107.46dv6jlxri7vu0zk.rcgu.o:(.debug_pubtypes)
    11ea     11ea       4c     1         /home/mabez/development/rust/embedded/experiments/esp32c3/target/riscv32imac-unknown-none-elf/debug/deps/esp32c3-6c8eecfb34724107.59383vjg8ah1nwp0.rcgu.o:(.debug_pubtypes)
    1236     1236       1c     1         /home/mabez/development/rust/embedded/experiments/esp32c3/target/riscv32imac-unknown-none-elf/debug/deps/esp32c3-6c8eecfb34724107.h4h1jg4d5ugkhbg.rcgu.o:(.debug_pubtypes)
    1252     1252       69     1         /home/mabez/development/rust/embedded/experiments/esp32c3/target/riscv32imac-unknown-none-elf/debug/deps/esp32c3-6c8eecfb34724107.p5cpnu5dso05alz.rcgu.o:(.debug_pubtypes)
    12bb     12bb      28b     1         /home/mabez/development/rust/embedded/experiments/esp32c3/target/riscv32imac-unknown-none-elf/debug/deps/esp32c3-6c8eecfb34724107.v0f7at9a6qkyll5.rcgu.o:(.debug_pubtypes)
    1546     1546       98     1         /home/mabez/development/rust/embedded/experiments/esp32c3/target/riscv32imac-unknown-none-elf/debug/deps/esp32c3-6c8eecfb34724107.zvsvxmou5gfsy4h.rcgu.o:(.debug_pubtypes)
    15de     15de      3ad     1         /home/mabez/development/rust/embedded/experiments/esp32c3/target/riscv32imac-unknown-none-elf/debug/deps/librtt_target-ba817fabe6541e78.rlib(rtt_target-ba817fabe6541e78.rtt_target.a5746e51-cgu.0.rcgu.o):(.debug_pubtypes)
    198b     198b      1b8     1         /home/mabez/development/rust/embedded/experiments/esp32c3/target/riscv32imac-unknown-none-elf/debug/deps/librtt_target-ba817fabe6541e78.rlib(rtt_target-ba817fabe6541e78.rtt_target.a5746e51-cgu.1.rcgu.o):(.debug_pubtypes)
    1b43     1b43       7f     1         /home/mabez/development/rust/embedded/experiments/esp32c3/target/riscv32imac-unknown-none-elf/debug/deps/librtt_target-ba817fabe6541e78.rlib(rtt_target-ba817fabe6541e78.rtt_target.a5746e51-cgu.10.rcgu.o):(.debug_pubtypes)
    1bc2     1bc2       6a     1         /home/mabez/development/rust/embedded/experiments/esp32c3/target/riscv32imac-unknown-none-elf/debug/deps/librtt_target-ba817fabe6541e78.rlib(rtt_target-ba817fabe6541e78.rtt_target.a5746e51-cgu.11.rcgu.o):(.debug_pubtypes)
    1c2c     1c2c      223     1         /home/mabez/development/rust/embedded/experiments/esp32c3/target/riscv32imac-unknown-none-elf/debug/deps/librtt_target-ba817fabe6541e78.rlib(rtt_target-ba817fabe6541e78.rtt_target.a5746e51-cgu.12.rcgu.o):(.debug_pubtypes)
    1e4f     1e4f       85     1         /home/mabez/development/rust/embedded/experiments/esp32c3/target/riscv32imac-unknown-none-elf/debug/deps/librtt_target-ba817fabe6541e78.rlib(rtt_target-ba817fabe6541e78.rtt_target.a5746e51-cgu.14.rcgu.o):(.debug_pubtypes)
    1ed4     1ed4       fd     1         /home/mabez/development/rust/embedded/experiments/esp32c3/target/riscv32imac-unknown-none-elf/debug/deps/librtt_target-ba817fabe6541e78.rlib(rtt_target-ba817fabe6541e78.rtt_target.a5746e51-cgu.15.rcgu.o):(.debug_pubtypes)
    1fd1     1fd1       98     1         /home/mabez/development/rust/embedded/experiments/esp32c3/target/riscv32imac-unknown-none-elf/debug/deps/librtt_target-ba817fabe6541e78.rlib(rtt_target-ba817fabe6541e78.rtt_target.a5746e51-cgu.2.rcgu.o):(.debug_pubtypes)
    2069     2069      484     1         /home/mabez/development/rust/embedded/experiments/esp32c3/target/riscv32imac-unknown-none-elf/debug/deps/librtt_target-ba817fabe6541e78.rlib(rtt_target-ba817fabe6541e78.rtt_target.a5746e51-cgu.3.rcgu.o):(.debug_pubtypes)
    24ed     24ed       c4     1         /home/mabez/development/rust/embedded/experiments/esp32c3/target/riscv32imac-unknown-none-elf/debug/deps/librtt_target-ba817fabe6541e78.rlib(rtt_target-ba817fabe6541e78.rtt_target.a5746e51-cgu.4.rcgu.o):(.debug_pubtypes)
    25b1     25b1       70     1         /home/mabez/development/rust/embedded/experiments/esp32c3/target/riscv32imac-unknown-none-elf/debug/deps/librtt_target-ba817fabe6541e78.rlib(rtt_target-ba817fabe6541e78.rtt_target.a5746e51-cgu.13.rcgu.o):(.debug_pubtypes)
    2621     2621      30e     1         /home/mabez/development/rust/embedded/experiments/esp32c3/target/riscv32imac-unknown-none-elf/debug/deps/librtt_target-ba817fabe6541e78.rlib(rtt_target-ba817fabe6541e78.rtt_target.a5746e51-cgu.5.rcgu.o):(.debug_pubtypes)
    292f     292f      4ba     1         /home/mabez/development/rust/embedded/experiments/esp32c3/target/riscv32imac-unknown-none-elf/debug/deps/librtt_target-ba817fabe6541e78.rlib(rtt_target-ba817fabe6541e78.rtt_target.a5746e51-cgu.6.rcgu.o):(.debug_pubtypes)
    2de9     2de9      112     1         /home/mabez/development/rust/embedded/experiments/esp32c3/target/riscv32imac-unknown-none-elf/debug/deps/librtt_target-ba817fabe6541e78.rlib(rtt_target-ba817fabe6541e78.rtt_target.a5746e51-cgu.7.rcgu.o):(.debug_pubtypes)
    2efb     2efb      225     1         /home/mabez/development/rust/embedded/experiments/esp32c3/target/riscv32imac-unknown-none-elf/debug/deps/librtt_target-ba817fabe6541e78.rlib(rtt_target-ba817fabe6541e78.rtt_target.a5746e51-cgu.8.rcgu.o):(.debug_pubtypes)
    3120     3120       69     1         /home/mabez/development/rust/embedded/experiments/esp32c3/target/riscv32imac-unknown-none-elf/debug/deps/librtt_target-ba817fabe6541e78.rlib(rtt_target-ba817fabe6541e78.rtt_target.a5746e51-cgu.9.rcgu.o):(.debug_pubtypes)
    3189     3189       ea     1         /home/mabez/development/rust/embedded/experiments/esp32c3/target/riscv32imac-unknown-none-elf/debug/deps/libesp32c3_lib-c6891e451671e2e8.rlib(esp32c3_lib-c6891e451671e2e8.50vycai6f6fblslz.rcgu.o):(.debug_pubtypes)
    3273     3273       4b     1         /home/mabez/development/rust/embedded/experiments/esp32c3/target/riscv32imac-unknown-none-elf/debug/deps/libesp32c3_lib-c6891e451671e2e8.rlib(esp32c3_lib-c6891e451671e2e8.2zwu2gzn9kym8n1i.rcgu.o):(.debug_pubtypes)
    32be     32be       75     1         /home/mabez/development/rust/embedded/experiments/esp32c3/target/riscv32imac-unknown-none-elf/debug/deps/libesp32c3_lib-c6891e451671e2e8.rlib(esp32c3_lib-c6891e451671e2e8.52x8onntfu5vhxia.rcgu.o):(.debug_pubtypes)
    3333     3333       2d     1         /home/mabez/development/rust/embedded/experiments/esp32c3/target/riscv32imac-unknown-none-elf/debug/deps/libbare_metal-01059decff6db7a9.rlib(bare_metal-01059decff6db7a9.bare_metal.c7fb2979-cgu.0.rcgu.o):(.debug_pubtypes)
    3360     3360       75     1         /home/mabez/development/rust/embedded/experiments/esp32c3/target/riscv32imac-unknown-none-elf/debug/deps/libembedded_hal-09d0b07e9f5d700b.rlib(embedded_hal-09d0b07e9f5d700b.embedded_hal.a1e71ce7-cgu.10.rcgu.o):(.debug_pubtypes)
    33d5     33d5       b5     1         /home/mabez/development/rust/embedded/experiments/esp32c3/target/riscv32imac-unknown-none-elf/debug/deps/libembedded_hal-09d0b07e9f5d700b.rlib(embedded_hal-09d0b07e9f5d700b.embedded_hal.a1e71ce7-cgu.6.rcgu.o):(.debug_pubtypes)
    348a     348a       30     1         /home/mabez/development/rust/embedded/experiments/esp32c3/target/riscv32imac-unknown-none-elf/debug/deps/libembedded_hal-09d0b07e9f5d700b.rlib(embedded_hal-09d0b07e9f5d700b.embedded_hal.a1e71ce7-cgu.4.rcgu.o):(.debug_pubtypes)
    34ba     34ba       43     1         /home/mabez/development/rust/embedded/experiments/esp32c3/target/riscv32imac-unknown-none-elf/debug/deps/libembedded_hal-09d0b07e9f5d700b.rlib(embedded_hal-09d0b07e9f5d700b.embedded_hal.a1e71ce7-cgu.3.rcgu.o):(.debug_pubtypes)
    34fd     34fd       2e     1         /home/mabez/development/rust/embedded/experiments/esp32c3/target/riscv32imac-unknown-none-elf/debug/deps/libembedded_hal-09d0b07e9f5d700b.rlib(embedded_hal-09d0b07e9f5d700b.embedded_hal.a1e71ce7-cgu.7.rcgu.o):(.debug_pubtypes)
    352b     352b       cd     1         /home/mabez/development/rust/embedded/experiments/esp32c3/target/riscv32imac-unknown-none-elf/debug/deps/libvoid-9bf68c712c7c3b51.rlib(void-9bf68c712c7c3b51.void.0c241590-cgu.0.rcgu.o):(.debug_pubtypes)
    35f8     35f8       12     1         /home/mabez/.rustup/toolchains/nightly-x86_64-unknown-linux-gnu/lib/rustlib/riscv32imac-unknown-none-elf/lib/libcore-081fd8405fc18f2e.rlib(core-081fd8405fc18f2e.core.364d98f8-cgu.0.rcgu.o):(.debug_pubtypes)
    360a     360a       12     1         /home/mabez/.rustup/toolchains/nightly-x86_64-unknown-linux-gnu/lib/rustlib/riscv32imac-unknown-none-elf/lib/libcompiler_builtins-64fdae85a7f05972.rlib(compiler_builtins-64fdae85a7f05972.compiler_builtins.ce5182a1-cgu.1.rcgu.o):(.debug_pubtypes)
    361c     361c       12     1         /home/mabez/.rustup/toolchains/nightly-x86_64-unknown-linux-gnu/lib/rustlib/riscv32imac-unknown-none-elf/lib/libcompiler_builtins-64fdae85a7f05972.rlib(compiler_builtins-64fdae85a7f05972.compiler_builtins.ce5182a1-cgu.104.rcgu.o):(.debug_pubtypes)
    362e     362e       12     1         /home/mabez/.rustup/toolchains/nightly-x86_64-unknown-linux-gnu/lib/rustlib/riscv32imac-unknown-none-elf/lib/libcompiler_builtins-64fdae85a7f05972.rlib(compiler_builtins-64fdae85a7f05972.compiler_builtins.ce5182a1-cgu.11.rcgu.o):(.debug_pubtypes)
    3640     3640       12     1         /home/mabez/.rustup/toolchains/nightly-x86_64-unknown-linux-gnu/lib/rustlib/riscv32imac-unknown-none-elf/lib/libcompiler_builtins-64fdae85a7f05972.rlib(compiler_builtins-64fdae85a7f05972.compiler_builtins.ce5182a1-cgu.113.rcgu.o):(.debug_pubtypes)
    3652     3652       12     1         /home/mabez/.rustup/toolchains/nightly-x86_64-unknown-linux-gnu/lib/rustlib/riscv32imac-unknown-none-elf/lib/libcompiler_builtins-64fdae85a7f05972.rlib(compiler_builtins-64fdae85a7f05972.compiler_builtins.ce5182a1-cgu.121.rcgu.o):(.debug_pubtypes)
    3664     3664       12     1         /home/mabez/.rustup/toolchains/nightly-x86_64-unknown-linux-gnu/lib/rustlib/riscv32imac-unknown-none-elf/lib/libcompiler_builtins-64fdae85a7f05972.rlib(compiler_builtins-64fdae85a7f05972.compiler_builtins.ce5182a1-cgu.16.rcgu.o):(.debug_pubtypes)
    3676     3676       12     1         /home/mabez/.rustup/toolchains/nightly-x86_64-unknown-linux-gnu/lib/rustlib/riscv32imac-unknown-none-elf/lib/libcompiler_builtins-64fdae85a7f05972.rlib(compiler_builtins-64fdae85a7f05972.compiler_builtins.ce5182a1-cgu.21.rcgu.o):(.debug_pubtypes)
    3688     3688       12     1         /home/mabez/.rustup/toolchains/nightly-x86_64-unknown-linux-gnu/lib/rustlib/riscv32imac-unknown-none-elf/lib/libcompiler_builtins-64fdae85a7f05972.rlib(compiler_builtins-64fdae85a7f05972.compiler_builtins.ce5182a1-cgu.22.rcgu.o):(.debug_pubtypes)
    369a     369a       12     1         /home/mabez/.rustup/toolchains/nightly-x86_64-unknown-linux-gnu/lib/rustlib/riscv32imac-unknown-none-elf/lib/libcompiler_builtins-64fdae85a7f05972.rlib(compiler_builtins-64fdae85a7f05972.compiler_builtins.ce5182a1-cgu.23.rcgu.o):(.debug_pubtypes)
    36ac     36ac       12     1         /home/mabez/.rustup/toolchains/nightly-x86_64-unknown-linux-gnu/lib/rustlib/riscv32imac-unknown-none-elf/lib/libcompiler_builtins-64fdae85a7f05972.rlib(compiler_builtins-64fdae85a7f05972.compiler_builtins.ce5182a1-cgu.42.rcgu.o):(.debug_pubtypes)
    36be     36be       12     1         /home/mabez/.rustup/toolchains/nightly-x86_64-unknown-linux-gnu/lib/rustlib/riscv32imac-unknown-none-elf/lib/libcompiler_builtins-64fdae85a7f05972.rlib(compiler_builtins-64fdae85a7f05972.compiler_builtins.ce5182a1-cgu.58.rcgu.o):(.debug_pubtypes)
    36d0     36d0       12     1         /home/mabez/.rustup/toolchains/nightly-x86_64-unknown-linux-gnu/lib/rustlib/riscv32imac-unknown-none-elf/lib/libcompiler_builtins-64fdae85a7f05972.rlib(compiler_builtins-64fdae85a7f05972.compiler_builtins.ce5182a1-cgu.62.rcgu.o):(.debug_pubtypes)
    36e2     36e2       12     1         /home/mabez/.rustup/toolchains/nightly-x86_64-unknown-linux-gnu/lib/rustlib/riscv32imac-unknown-none-elf/lib/libcompiler_builtins-64fdae85a7f05972.rlib(compiler_builtins-64fdae85a7f05972.compiler_builtins.ce5182a1-cgu.7.rcgu.o):(.debug_pubtypes)
    36f4     36f4       12     1         /home/mabez/.rustup/toolchains/nightly-x86_64-unknown-linux-gnu/lib/rustlib/riscv32imac-unknown-none-elf/lib/libcompiler_builtins-64fdae85a7f05972.rlib(compiler_builtins-64fdae85a7f05972.compiler_builtins.ce5182a1-cgu.79.rcgu.o):(.debug_pubtypes)
    3706     3706       12     1         /home/mabez/.rustup/toolchains/nightly-x86_64-unknown-linux-gnu/lib/rustlib/riscv32imac-unknown-none-elf/lib/libcompiler_builtins-64fdae85a7f05972.rlib(compiler_builtins-64fdae85a7f05972.compiler_builtins.ce5182a1-cgu.86.rcgu.o):(.debug_pubtypes)
    3718     3718       12     1         /home/mabez/.rustup/toolchains/nightly-x86_64-unknown-linux-gnu/lib/rustlib/riscv32imac-unknown-none-elf/lib/libcompiler_builtins-64fdae85a7f05972.rlib(compiler_builtins-64fdae85a7f05972.compiler_builtins.ce5182a1-cgu.66.rcgu.o):(.debug_pubtypes)
    372a     372a       12     1         /home/mabez/.rustup/toolchains/nightly-x86_64-unknown-linux-gnu/lib/rustlib/riscv32imac-unknown-none-elf/lib/libcompiler_builtins-64fdae85a7f05972.rlib(compiler_builtins-64fdae85a7f05972.compiler_builtins.ce5182a1-cgu.96.rcgu.o):(.debug_pubtypes)
    373c     373c       12     1         /home/mabez/.rustup/toolchains/nightly-x86_64-unknown-linux-gnu/lib/rustlib/riscv32imac-unknown-none-elf/lib/libcompiler_builtins-64fdae85a7f05972.rlib(compiler_builtins-64fdae85a7f05972.compiler_builtins.ce5182a1-cgu.98.rcgu.o):(.debug_pubtypes)
    374e     374e      177     1         /home/mabez/development/rust/embedded/experiments/esp32c3/target/riscv32imac-unknown-none-elf/debug/deps/libriscv_rt-9f6ededa1f4c9759.rlib(riscv_rt-9f6ededa1f4c9759.riscv_rt.da5378fb-cgu.3.rcgu.o):(.debug_pubtypes)
    38c5     38c5       40     1         /home/mabez/development/rust/embedded/experiments/esp32c3/target/riscv32imac-unknown-none-elf/debug/deps/libriscv_rt-9f6ededa1f4c9759.rlib(riscv_rt-9f6ededa1f4c9759.riscv_rt.da5378fb-cgu.5.rcgu.o):(.debug_pubtypes)
    3905     3905       68     1         /home/mabez/development/rust/embedded/experiments/esp32c3/target/riscv32imac-unknown-none-elf/debug/deps/libriscv_rt-9f6ededa1f4c9759.rlib(riscv_rt-9f6ededa1f4c9759.riscv_rt.da5378fb-cgu.0.rcgu.o):(.debug_pubtypes)
    396d     396d       6a     1         /home/mabez/development/rust/embedded/experiments/esp32c3/target/riscv32imac-unknown-none-elf/debug/deps/libriscv_rt-9f6ededa1f4c9759.rlib(riscv_rt-9f6ededa1f4c9759.riscv_rt.da5378fb-cgu.1.rcgu.o):(.debug_pubtypes)
    39d7     39d7       38     1         /home/mabez/development/rust/embedded/experiments/esp32c3/target/riscv32imac-unknown-none-elf/debug/deps/libriscv_rt-9f6ededa1f4c9759.rlib(riscv_rt-9f6ededa1f4c9759.riscv_rt.da5378fb-cgu.6.rcgu.o):(.debug_pubtypes)
    3a0f     3a0f       3c     1         /home/mabez/development/rust/embedded/experiments/esp32c3/target/riscv32imac-unknown-none-elf/debug/deps/libriscv_rt-9f6ededa1f4c9759.rlib(riscv_rt-9f6ededa1f4c9759.riscv_rt.da5378fb-cgu.4.rcgu.o):(.debug_pubtypes)
    3a4b     3a4b      1af     1         /home/mabez/development/rust/embedded/experiments/esp32c3/target/riscv32imac-unknown-none-elf/debug/deps/libriscv-39f7ce6f6030497b.rlib(riscv-39f7ce6f6030497b.riscv.b201b7e1-cgu.0.rcgu.o):(.debug_pubtypes)
    3bfa     3bfa      1f2     1         /home/mabez/development/rust/embedded/experiments/esp32c3/target/riscv32imac-unknown-none-elf/debug/deps/libriscv-39f7ce6f6030497b.rlib(riscv-39f7ce6f6030497b.riscv.b201b7e1-cgu.9.rcgu.o):(.debug_pubtypes)
    3dec     3dec       ce     1         /home/mabez/development/rust/embedded/experiments/esp32c3/target/riscv32imac-unknown-none-elf/debug/deps/libriscv-39f7ce6f6030497b.rlib(riscv-39f7ce6f6030497b.riscv.b201b7e1-cgu.4.rcgu.o):(.debug_pubtypes)
    3eba     3eba       1c     1         /home/mabez/development/rust/embedded/experiments/esp32c3/target/riscv32imac-unknown-none-elf/debug/deps/libriscv_rt-9f6ededa1f4c9759.rlib(riscv_rt-9f6ededa1f4c9759.riscv_rt.da5378fb-cgu.8.rcgu.o):(.debug_pubtypes)
    3ed6     3ed6       12     1         /home/mabez/development/rust/embedded/experiments/esp32c3/target/riscv32imac-unknown-none-elf/debug/deps/libriscv_rt-9f6ededa1f4c9759.rlib(riscv_rt-9f6ededa1f4c9759.riscv_rt.da5378fb-cgu.7.rcgu.o):(.debug_pubtypes)
    3ee8     3ee8       37     1         /home/mabez/development/rust/embedded/experiments/esp32c3/target/riscv32imac-unknown-none-elf/debug/deps/libriscv_rt-9f6ededa1f4c9759.rlib(riscv_rt-9f6ededa1f4c9759.riscv_rt.da5378fb-cgu.2.rcgu.o):(.debug_pubtypes)
    3f1f     3f1f      2eb     1         /home/mabez/development/rust/embedded/experiments/esp32c3/target/riscv32imac-unknown-none-elf/debug/deps/libriscv_atomic_emulation_trap-fab535a27fe2d765.rlib(riscv_atomic_emulation_trap-fab535a27fe2d765.riscv_atomic_emulation_trap.b3d57533-cgu.0.rcgu.o):(.debug_pubtypes)
    420a     420a       4d     1         /home/mabez/development/rust/embedded/experiments/esp32c3/target/riscv32imac-unknown-none-elf/debug/deps/libriscv_atomic_emulation_trap-fab535a27fe2d765.rlib(riscv_atomic_emulation_trap-fab535a27fe2d765.riscv_atomic_emulation_trap.b3d57533-cgu.2.rcgu.o):(.debug_pubtypes)
    4257     4257       4d     1         /home/mabez/development/rust/embedded/experiments/esp32c3/target/riscv32imac-unknown-none-elf/debug/deps/libriscv_atomic_emulation_trap-fab535a27fe2d765.rlib(riscv_atomic_emulation_trap-fab535a27fe2d765.riscv_atomic_emulation_trap.b3d57533-cgu.1.rcgu.o):(.debug_pubtypes)
    42a4     42a4       51     1         /home/mabez/development/rust/embedded/experiments/esp32c3/target/riscv32imac-unknown-none-elf/debug/deps/libriscv_atomic_emulation_trap-fab535a27fe2d765.rlib(riscv_atomic_emulation_trap-fab535a27fe2d765.riscv_atomic_emulation_trap.b3d57533-cgu.6.rcgu.o):(.debug_pubtypes)
    42f5     42f5       68     1         /home/mabez/development/rust/embedded/experiments/esp32c3/target/riscv32imac-unknown-none-elf/debug/deps/libriscv_atomic_emulation_trap-fab535a27fe2d765.rlib(riscv_atomic_emulation_trap-fab535a27fe2d765.riscv_atomic_emulation_trap.b3d57533-cgu.3.rcgu.o):(.debug_pubtypes)
    435d     435d      1af     1         /home/mabez/development/rust/embedded/experiments/esp32c3/target/riscv32imac-unknown-none-elf/debug/deps/libriscv-2df4d94086d6ad3d.rlib(riscv-2df4d94086d6ad3d.riscv.9f9f37cf-cgu.0.rcgu.o):(.debug_pubtypes)
    450c     450c      1f9     1         /home/mabez/development/rust/embedded/experiments/esp32c3/target/riscv32imac-unknown-none-elf/debug/deps/libriscv-2df4d94086d6ad3d.rlib(riscv-2df4d94086d6ad3d.riscv.9f9f37cf-cgu.10.rcgu.o):(.debug_pubtypes)
    4705     4705      164     1         /home/mabez/development/rust/embedded/experiments/esp32c3/target/riscv32imac-unknown-none-elf/debug/deps/libriscv-2df4d94086d6ad3d.rlib(riscv-2df4d94086d6ad3d.riscv.9f9f37cf-cgu.8.rcgu.o):(.debug_pubtypes)
    4869     4869       ce     1         /home/mabez/development/rust/embedded/experiments/esp32c3/target/riscv32imac-unknown-none-elf/debug/deps/libriscv-2df4d94086d6ad3d.rlib(riscv-2df4d94086d6ad3d.riscv.9f9f37cf-cgu.4.rcgu.o):(.debug_pubtypes)
    4937     4937      161     1         /home/mabez/development/rust/embedded/experiments/esp32c3/target/riscv32imac-unknown-none-elf/debug/deps/libriscv-2df4d94086d6ad3d.rlib(riscv-2df4d94086d6ad3d.riscv.9f9f37cf-cgu.11.rcgu.o):(.debug_pubtypes)
    4a98     4a98       ac     1         /home/mabez/development/rust/embedded/experiments/esp32c3/target/riscv32imac-unknown-none-elf/debug/deps/libriscv_atomic_emulation_trap-fab535a27fe2d765.rlib(riscv_atomic_emulation_trap-fab535a27fe2d765.riscv_atomic_emulation_trap.b3d57533-cgu.5.rcgu.o):(.debug_pubtypes)
    4b44     4b44       e6     1         /home/mabez/development/rust/embedded/experiments/esp32c3/target/riscv32imac-unknown-none-elf/debug/deps/libriscv_atomic_emulation_trap-fab535a27fe2d765.rlib(riscv_atomic_emulation_trap-fab535a27fe2d765.riscv_atomic_emulation_trap.b3d57533-cgu.7.rcgu.o):(.debug_pubtypes)
    4c2a     4c2a       50     1         /home/mabez/development/rust/embedded/experiments/esp32c3/target/riscv32imac-unknown-none-elf/debug/deps/libriscv_atomic_emulation_trap-fab535a27fe2d765.rlib(riscv_atomic_emulation_trap-fab535a27fe2d765.riscv_atomic_emulation_trap.b3d57533-cgu.4.rcgu.o):(.debug_pubtypes)
       0        0       2b     1 .riscv.attributes
       0        0       2b     1         /home/mabez/development/rust/embedded/experiments/esp32c3/target/riscv32imac-unknown-none-elf/debug/deps/esp32c3-6c8eecfb34724107.16oo1rtpmbk0weq7.rcgu.o:(.riscv.attributes)
       0        0     2090     4 .debug_frame
       0        0       70     4         /home/mabez/development/rust/embedded/experiments/esp32c3/target/riscv32imac-unknown-none-elf/debug/deps/esp32c3-6c8eecfb34724107.16oo1rtpmbk0weq7.rcgu.o:(.debug_frame)
       0        0        0     1                 
      70       70       2c     4         /home/mabez/development/rust/embedded/experiments/esp32c3/target/riscv32imac-unknown-none-elf/debug/deps/esp32c3-6c8eecfb34724107.1idhibzi0mpmbahx.rcgu.o:(.debug_frame)
      70       70        0     1                 
      9c       9c       64     4         /home/mabez/development/rust/embedded/experiments/esp32c3/target/riscv32imac-unknown-none-elf/debug/deps/esp32c3-6c8eecfb34724107.1phwpl9yylfc3qa9.rcgu.o:(.debug_frame)
      9c       9c        0     1                 
     100      100       2c     4         /home/mabez/development/rust/embedded/experiments/esp32c3/target/riscv32imac-unknown-none-elf/debug/deps/esp32c3-6c8eecfb34724107.31w2p0rmtqdazjy9.rcgu.o:(.debug_frame)
     100      100        0     1                 
     12c      12c       78     4         /home/mabez/development/rust/embedded/experiments/esp32c3/target/riscv32imac-unknown-none-elf/debug/deps/esp32c3-6c8eecfb34724107.360z2ancvg6ixrl4.rcgu.o:(.debug_frame)
     12c      12c        0     1                 
     1a4      1a4       5c     4         /home/mabez/development/rust/embedded/experiments/esp32c3/target/riscv32imac-unknown-none-elf/debug/deps/esp32c3-6c8eecfb34724107.3dax6gsnt3idpsze.rcgu.o:(.debug_frame)
     1a4      1a4        0     1                 
     200      200       2c     4         /home/mabez/development/rust/embedded/experiments/esp32c3/target/riscv32imac-unknown-none-elf/debug/deps/esp32c3-6c8eecfb34724107.3e2vhcvnvpvomz83.rcgu.o:(.debug_frame)
     200      200        0     1                 
     22c      22c       68     4         /home/mabez/development/rust/embedded/experiments/esp32c3/target/riscv32imac-unknown-none-elf/debug/deps/esp32c3-6c8eecfb34724107.3hh2vqqri9noju8i.rcgu.o:(.debug_frame)
     22c      22c        0     1                 
     294      294       58     4         /home/mabez/development/rust/embedded/experiments/esp32c3/target/riscv32imac-unknown-none-elf/debug/deps/esp32c3-6c8eecfb34724107.46dv6jlxri7vu0zk.rcgu.o:(.debug_frame)
     294      294        0     1                 
     2ec      2ec       28     4         /home/mabez/development/rust/embedded/experiments/esp32c3/target/riscv32imac-unknown-none-elf/debug/deps/esp32c3-6c8eecfb34724107.59383vjg8ah1nwp0.rcgu.o:(.debug_frame)
     2ec      2ec        0     1                 
     314      314       44     4         /home/mabez/development/rust/embedded/experiments/esp32c3/target/riscv32imac-unknown-none-elf/debug/deps/esp32c3-6c8eecfb34724107.h4h1jg4d5ugkhbg.rcgu.o:(.debug_frame)
     314      314        0     1                 
     358      358       40     4         /home/mabez/development/rust/embedded/experiments/esp32c3/target/riscv32imac-unknown-none-elf/debug/deps/esp32c3-6c8eecfb34724107.p5cpnu5dso05alz.rcgu.o:(.debug_frame)
     358      358        0     1                 
     398      398       8c     4         /home/mabez/development/rust/embedded/experiments/esp32c3/target/riscv32imac-unknown-none-elf/debug/deps/esp32c3-6c8eecfb34724107.v0f7at9a6qkyll5.rcgu.o:(.debug_frame)
     398      398        0     1                 
     424      424       58     4         /home/mabez/development/rust/embedded/experiments/esp32c3/target/riscv32imac-unknown-none-elf/debug/deps/esp32c3-6c8eecfb34724107.zvsvxmou5gfsy4h.rcgu.o:(.debug_frame)
     424      424        0     1                 
     47c      47c      25c     4         /home/mabez/development/rust/embedded/experiments/esp32c3/target/riscv32imac-unknown-none-elf/debug/deps/librtt_target-ba817fabe6541e78.rlib(rtt_target-ba817fabe6541e78.rtt_target.a5746e51-cgu.0.rcgu.o):(.debug_frame)
     47c      47c        0     1                 
     6d8      6d8       ec     4         /home/mabez/development/rust/embedded/experiments/esp32c3/target/riscv32imac-unknown-none-elf/debug/deps/librtt_target-ba817fabe6541e78.rlib(rtt_target-ba817fabe6541e78.rtt_target.a5746e51-cgu.1.rcgu.o):(.debug_frame)
     6d8      6d8        0     1                 
     7c4      7c4       74     4         /home/mabez/development/rust/embedded/experiments/esp32c3/target/riscv32imac-unknown-none-elf/debug/deps/librtt_target-ba817fabe6541e78.rlib(rtt_target-ba817fabe6541e78.rtt_target.a5746e51-cgu.10.rcgu.o):(.debug_frame)
     7c4      7c4        0     1                 
     838      838       e8     4         /home/mabez/development/rust/embedded/experiments/esp32c3/target/riscv32imac-unknown-none-elf/debug/deps/librtt_target-ba817fabe6541e78.rlib(rtt_target-ba817fabe6541e78.rtt_target.a5746e51-cgu.11.rcgu.o):(.debug_frame)
     838      838        0     1                 
     920      920       8c     4         /home/mabez/development/rust/embedded/experiments/esp32c3/target/riscv32imac-unknown-none-elf/debug/deps/librtt_target-ba817fabe6541e78.rlib(rtt_target-ba817fabe6541e78.rtt_target.a5746e51-cgu.12.rcgu.o):(.debug_frame)
     920      920        0     1                 
     9ac      9ac       64     4         /home/mabez/development/rust/embedded/experiments/esp32c3/target/riscv32imac-unknown-none-elf/debug/deps/librtt_target-ba817fabe6541e78.rlib(rtt_target-ba817fabe6541e78.rtt_target.a5746e51-cgu.14.rcgu.o):(.debug_frame)
     9ac      9ac        0     1                 
     a10      a10       9c     4         /home/mabez/development/rust/embedded/experiments/esp32c3/target/riscv32imac-unknown-none-elf/debug/deps/librtt_target-ba817fabe6541e78.rlib(rtt_target-ba817fabe6541e78.rtt_target.a5746e51-cgu.15.rcgu.o):(.debug_frame)
     a10      a10        0     1                 
     aac      aac       58     4         /home/mabez/development/rust/embedded/experiments/esp32c3/target/riscv32imac-unknown-none-elf/debug/deps/librtt_target-ba817fabe6541e78.rlib(rtt_target-ba817fabe6541e78.rtt_target.a5746e51-cgu.2.rcgu.o):(.debug_frame)
     aac      aac        0     1                 
     b04      b04      284     4         /home/mabez/development/rust/embedded/experiments/esp32c3/target/riscv32imac-unknown-none-elf/debug/deps/librtt_target-ba817fabe6541e78.rlib(rtt_target-ba817fabe6541e78.rtt_target.a5746e51-cgu.3.rcgu.o):(.debug_frame)
     b04      b04        0     1                 
     d88      d88       e8     4         /home/mabez/development/rust/embedded/experiments/esp32c3/target/riscv32imac-unknown-none-elf/debug/deps/librtt_target-ba817fabe6541e78.rlib(rtt_target-ba817fabe6541e78.rtt_target.a5746e51-cgu.4.rcgu.o):(.debug_frame)
     d88      d88        0     1                 
     e70      e70       50     4         /home/mabez/development/rust/embedded/experiments/esp32c3/target/riscv32imac-unknown-none-elf/debug/deps/librtt_target-ba817fabe6541e78.rlib(rtt_target-ba817fabe6541e78.rtt_target.a5746e51-cgu.13.rcgu.o):(.debug_frame)
     e70      e70        0     1                 
     ec0      ec0       54     4         /home/mabez/development/rust/embedded/experiments/esp32c3/target/riscv32imac-unknown-none-elf/debug/deps/librtt_target-ba817fabe6541e78.rlib(rtt_target-ba817fabe6541e78.rtt_target.a5746e51-cgu.5.rcgu.o):(.debug_frame)
     ec0      ec0        0     1                 
     f14      f14       d4     4         /home/mabez/development/rust/embedded/experiments/esp32c3/target/riscv32imac-unknown-none-elf/debug/deps/librtt_target-ba817fabe6541e78.rlib(rtt_target-ba817fabe6541e78.rtt_target.a5746e51-cgu.6.rcgu.o):(.debug_frame)
     f14      f14        0     1                 
     fe8      fe8       94     4         /home/mabez/development/rust/embedded/experiments/esp32c3/target/riscv32imac-unknown-none-elf/debug/deps/librtt_target-ba817fabe6541e78.rlib(rtt_target-ba817fabe6541e78.rtt_target.a5746e51-cgu.7.rcgu.o):(.debug_frame)
     fe8      fe8        0     1                 
    107c     107c      138     4         /home/mabez/development/rust/embedded/experiments/esp32c3/target/riscv32imac-unknown-none-elf/debug/deps/librtt_target-ba817fabe6541e78.rlib(rtt_target-ba817fabe6541e78.rtt_target.a5746e51-cgu.8.rcgu.o):(.debug_frame)
    107c     107c        0     1                 
    11b4     11b4       5c     4         /home/mabez/development/rust/embedded/experiments/esp32c3/target/riscv32imac-unknown-none-elf/debug/deps/librtt_target-ba817fabe6541e78.rlib(rtt_target-ba817fabe6541e78.rtt_target.a5746e51-cgu.9.rcgu.o):(.debug_frame)
    11b4     11b4        0     1                 
    1210     1210       b8     4         /home/mabez/development/rust/embedded/experiments/esp32c3/target/riscv32imac-unknown-none-elf/debug/deps/libesp32c3_lib-c6891e451671e2e8.rlib(esp32c3_lib-c6891e451671e2e8.50vycai6f6fblslz.rcgu.o):(.debug_frame)
    1210     1210        0     1                 
    12c8     12c8       50     4         /home/mabez/development/rust/embedded/experiments/esp32c3/target/riscv32imac-unknown-none-elf/debug/deps/libesp32c3_lib-c6891e451671e2e8.rlib(esp32c3_lib-c6891e451671e2e8.2zwu2gzn9kym8n1i.rcgu.o):(.debug_frame)
    12c8     12c8        0     1                 
    1318     1318       2c     4         /home/mabez/development/rust/embedded/experiments/esp32c3/target/riscv32imac-unknown-none-elf/debug/deps/libesp32c3_lib-c6891e451671e2e8.rlib(esp32c3_lib-c6891e451671e2e8.52x8onntfu5vhxia.rcgu.o):(.debug_frame)
    1318     1318        0     1                 
    1344     1344       24     4         /home/mabez/development/rust/embedded/experiments/esp32c3/target/riscv32imac-unknown-none-elf/debug/deps/libbare_metal-01059decff6db7a9.rlib(bare_metal-01059decff6db7a9.bare_metal.c7fb2979-cgu.0.rcgu.o):(.debug_frame)
    1344     1344        0     1                 
    1368     1368       40     4         /home/mabez/development/rust/embedded/experiments/esp32c3/target/riscv32imac-unknown-none-elf/debug/deps/libembedded_hal-09d0b07e9f5d700b.rlib(embedded_hal-09d0b07e9f5d700b.embedded_hal.a1e71ce7-cgu.10.rcgu.o):(.debug_frame)
    1368     1368        0     1                 
    13a8     13a8       58     4         /home/mabez/development/rust/embedded/experiments/esp32c3/target/riscv32imac-unknown-none-elf/debug/deps/libembedded_hal-09d0b07e9f5d700b.rlib(embedded_hal-09d0b07e9f5d700b.embedded_hal.a1e71ce7-cgu.6.rcgu.o):(.debug_frame)
    13a8     13a8        0     1                 
    1400     1400       40     4         /home/mabez/development/rust/embedded/experiments/esp32c3/target/riscv32imac-unknown-none-elf/debug/deps/libembedded_hal-09d0b07e9f5d700b.rlib(embedded_hal-09d0b07e9f5d700b.embedded_hal.a1e71ce7-cgu.4.rcgu.o):(.debug_frame)
    1400     1400        0     1                 
    1440     1440       3c     4         /home/mabez/development/rust/embedded/experiments/esp32c3/target/riscv32imac-unknown-none-elf/debug/deps/libembedded_hal-09d0b07e9f5d700b.rlib(embedded_hal-09d0b07e9f5d700b.embedded_hal.a1e71ce7-cgu.3.rcgu.o):(.debug_frame)
    1440     1440        0     1                 
    147c     147c       40     4         /home/mabez/development/rust/embedded/experiments/esp32c3/target/riscv32imac-unknown-none-elf/debug/deps/libembedded_hal-09d0b07e9f5d700b.rlib(embedded_hal-09d0b07e9f5d700b.embedded_hal.a1e71ce7-cgu.7.rcgu.o):(.debug_frame)
    147c     147c        0     1                 
    14bc     14bc       50     4         /home/mabez/development/rust/embedded/experiments/esp32c3/target/riscv32imac-unknown-none-elf/debug/deps/libvoid-9bf68c712c7c3b51.rlib(void-9bf68c712c7c3b51.void.0c241590-cgu.0.rcgu.o):(.debug_frame)
    14bc     14bc        0     1                 
    150c     150c       a8     4         /home/mabez/development/rust/embedded/experiments/esp32c3/target/riscv32imac-unknown-none-elf/debug/deps/libriscv_rt-9f6ededa1f4c9759.rlib(riscv_rt-9f6ededa1f4c9759.riscv_rt.da5378fb-cgu.3.rcgu.o):(.debug_frame)
    150c     150c        0     1                 
    15b4     15b4       44     4         /home/mabez/development/rust/embedded/experiments/esp32c3/target/riscv32imac-unknown-none-elf/debug/deps/libriscv_rt-9f6ededa1f4c9759.rlib(riscv_rt-9f6ededa1f4c9759.riscv_rt.da5378fb-cgu.5.rcgu.o):(.debug_frame)
    15b4     15b4        0     1                 
    15f8     15f8       50     4         /home/mabez/development/rust/embedded/experiments/esp32c3/target/riscv32imac-unknown-none-elf/debug/deps/libriscv_rt-9f6ededa1f4c9759.rlib(riscv_rt-9f6ededa1f4c9759.riscv_rt.da5378fb-cgu.0.rcgu.o):(.debug_frame)
    15f8     15f8        0     1                 
    1648     1648       2c     4         /home/mabez/development/rust/embedded/experiments/esp32c3/target/riscv32imac-unknown-none-elf/debug/deps/libriscv_rt-9f6ededa1f4c9759.rlib(riscv_rt-9f6ededa1f4c9759.riscv_rt.da5378fb-cgu.1.rcgu.o):(.debug_frame)
    1648     1648        0     1                 
    1674     1674       2c     4         /home/mabez/development/rust/embedded/experiments/esp32c3/target/riscv32imac-unknown-none-elf/debug/deps/libriscv_rt-9f6ededa1f4c9759.rlib(riscv_rt-9f6ededa1f4c9759.riscv_rt.da5378fb-cgu.6.rcgu.o):(.debug_frame)
    1674     1674        0     1                 
    16a0     16a0       70     4         /home/mabez/development/rust/embedded/experiments/esp32c3/target/riscv32imac-unknown-none-elf/debug/deps/libriscv_rt-9f6ededa1f4c9759.rlib(riscv_rt-9f6ededa1f4c9759.riscv_rt.da5378fb-cgu.4.rcgu.o):(.debug_frame)
    16a0     16a0        0     1                 
    1710     1710       e0     4         /home/mabez/development/rust/embedded/experiments/esp32c3/target/riscv32imac-unknown-none-elf/debug/deps/libriscv-39f7ce6f6030497b.rlib(riscv-39f7ce6f6030497b.riscv.b201b7e1-cgu.0.rcgu.o):(.debug_frame)
    1710     1710        0     1                 
    17f0     17f0       e8     4         /home/mabez/development/rust/embedded/experiments/esp32c3/target/riscv32imac-unknown-none-elf/debug/deps/libriscv-39f7ce6f6030497b.rlib(riscv-39f7ce6f6030497b.riscv.b201b7e1-cgu.9.rcgu.o):(.debug_frame)
    17f0     17f0        0     1                 
    18d8     18d8       44     4         /home/mabez/development/rust/embedded/experiments/esp32c3/target/riscv32imac-unknown-none-elf/debug/deps/libriscv-39f7ce6f6030497b.rlib(riscv-39f7ce6f6030497b.riscv.b201b7e1-cgu.4.rcgu.o):(.debug_frame)
    18d8     18d8        0     1                 
    191c     191c       44     4         /home/mabez/development/rust/embedded/experiments/esp32c3/target/riscv32imac-unknown-none-elf/debug/deps/libriscv_rt-9f6ededa1f4c9759.rlib(riscv_rt-9f6ededa1f4c9759.riscv_rt.da5378fb-cgu.8.rcgu.o):(.debug_frame)
    191c     191c        0     1                 
    1960     1960       2c     4         /home/mabez/development/rust/embedded/experiments/esp32c3/target/riscv32imac-unknown-none-elf/debug/deps/libriscv_rt-9f6ededa1f4c9759.rlib(riscv_rt-9f6ededa1f4c9759.riscv_rt.da5378fb-cgu.7.rcgu.o):(.debug_frame)
    1960     1960        0     1                 
    198c     198c       28     4         /home/mabez/development/rust/embedded/experiments/esp32c3/target/riscv32imac-unknown-none-elf/debug/deps/libriscv_rt-9f6ededa1f4c9759.rlib(riscv_rt-9f6ededa1f4c9759.riscv_rt.da5378fb-cgu.2.rcgu.o):(.debug_frame)
    198c     198c        0     1                 
    19b4     19b4      150     4         /home/mabez/development/rust/embedded/experiments/esp32c3/target/riscv32imac-unknown-none-elf/debug/deps/libriscv_atomic_emulation_trap-fab535a27fe2d765.rlib(riscv_atomic_emulation_trap-fab535a27fe2d765.riscv_atomic_emulation_trap.b3d57533-cgu.0.rcgu.o):(.debug_frame)
    19b4     19b4        0     1                 
    1b04     1b04       40     4         /home/mabez/development/rust/embedded/experiments/esp32c3/target/riscv32imac-unknown-none-elf/debug/deps/libriscv_atomic_emulation_trap-fab535a27fe2d765.rlib(riscv_atomic_emulation_trap-fab535a27fe2d765.riscv_atomic_emulation_trap.b3d57533-cgu.2.rcgu.o):(.debug_frame)
    1b04     1b04        0     1                 
    1b44     1b44       2c     4         /home/mabez/development/rust/embedded/experiments/esp32c3/target/riscv32imac-unknown-none-elf/debug/deps/libriscv_atomic_emulation_trap-fab535a27fe2d765.rlib(riscv_atomic_emulation_trap-fab535a27fe2d765.riscv_atomic_emulation_trap.b3d57533-cgu.1.rcgu.o):(.debug_frame)
    1b44     1b44        0     1                 
    1b70     1b70       28     4         /home/mabez/development/rust/embedded/experiments/esp32c3/target/riscv32imac-unknown-none-elf/debug/deps/libriscv_atomic_emulation_trap-fab535a27fe2d765.rlib(riscv_atomic_emulation_trap-fab535a27fe2d765.riscv_atomic_emulation_trap.b3d57533-cgu.6.rcgu.o):(.debug_frame)
    1b70     1b70        0     1                 
    1b98     1b98       70     4         /home/mabez/development/rust/embedded/experiments/esp32c3/target/riscv32imac-unknown-none-elf/debug/deps/libriscv_atomic_emulation_trap-fab535a27fe2d765.rlib(riscv_atomic_emulation_trap-fab535a27fe2d765.riscv_atomic_emulation_trap.b3d57533-cgu.3.rcgu.o):(.debug_frame)
    1b98     1b98        0     1                 
    1c08     1c08       e0     4         /home/mabez/development/rust/embedded/experiments/esp32c3/target/riscv32imac-unknown-none-elf/debug/deps/libriscv-2df4d94086d6ad3d.rlib(riscv-2df4d94086d6ad3d.riscv.9f9f37cf-cgu.0.rcgu.o):(.debug_frame)
    1c08     1c08        0     1                 
    1ce8     1ce8      100     4         /home/mabez/development/rust/embedded/experiments/esp32c3/target/riscv32imac-unknown-none-elf/debug/deps/libriscv-2df4d94086d6ad3d.rlib(riscv-2df4d94086d6ad3d.riscv.9f9f37cf-cgu.10.rcgu.o):(.debug_frame)
    1ce8     1ce8        0     1                 
    1de8     1de8       88     4         /home/mabez/development/rust/embedded/experiments/esp32c3/target/riscv32imac-unknown-none-elf/debug/deps/libriscv-2df4d94086d6ad3d.rlib(riscv-2df4d94086d6ad3d.riscv.9f9f37cf-cgu.8.rcgu.o):(.debug_frame)
    1de8     1de8        0     1                 
    1e70     1e70       44     4         /home/mabez/development/rust/embedded/experiments/esp32c3/target/riscv32imac-unknown-none-elf/debug/deps/libriscv-2df4d94086d6ad3d.rlib(riscv-2df4d94086d6ad3d.riscv.9f9f37cf-cgu.4.rcgu.o):(.debug_frame)
    1e70     1e70        0     1                 
    1eb4     1eb4       74     4         /home/mabez/development/rust/embedded/experiments/esp32c3/target/riscv32imac-unknown-none-elf/debug/deps/libriscv-2df4d94086d6ad3d.rlib(riscv-2df4d94086d6ad3d.riscv.9f9f37cf-cgu.11.rcgu.o):(.debug_frame)
    1eb4     1eb4        0     1                 
    1f28     1f28       d4     4         /home/mabez/development/rust/embedded/experiments/esp32c3/target/riscv32imac-unknown-none-elf/debug/deps/libriscv_atomic_emulation_trap-fab535a27fe2d765.rlib(riscv_atomic_emulation_trap-fab535a27fe2d765.riscv_atomic_emulation_trap.b3d57533-cgu.5.rcgu.o):(.debug_frame)
    1f28     1f28        0     1                 
    1ffc     1ffc       58     4         /home/mabez/development/rust/embedded/experiments/esp32c3/target/riscv32imac-unknown-none-elf/debug/deps/libriscv_atomic_emulation_trap-fab535a27fe2d765.rlib(riscv_atomic_emulation_trap-fab535a27fe2d765.riscv_atomic_emulation_trap.b3d57533-cgu.7.rcgu.o):(.debug_frame)
    1ffc     1ffc        0     1                 
    2054     2054       3c     4         /home/mabez/development/rust/embedded/experiments/esp32c3/target/riscv32imac-unknown-none-elf/debug/deps/libriscv_atomic_emulation_trap-fab535a27fe2d765.rlib(riscv_atomic_emulation_trap-fab535a27fe2d765.riscv_atomic_emulation_trap.b3d57533-cgu.4.rcgu.o):(.debug_frame)
    2054     2054        0     1                 
       0        0    33a16     1 .debug_line
       0        0      17b     1         /home/mabez/development/rust/embedded/experiments/esp32c3/target/riscv32imac-unknown-none-elf/debug/deps/esp32c3-6c8eecfb34724107.16oo1rtpmbk0weq7.rcgu.o:(.debug_line)
       0        0        0     1                 .Lline_table_start0
     17b      17b       92     1         /home/mabez/development/rust/embedded/experiments/esp32c3/target/riscv32imac-unknown-none-elf/debug/deps/esp32c3-6c8eecfb34724107.1idhibzi0mpmbahx.rcgu.o:(.debug_line)
     17b      17b        0     1                 .Lline_table_start0
     20d      20d      14d     1         /home/mabez/development/rust/embedded/experiments/esp32c3/target/riscv32imac-unknown-none-elf/debug/deps/esp32c3-6c8eecfb34724107.1phwpl9yylfc3qa9.rcgu.o:(.debug_line)
     20d      20d        0     1                 .Lline_table_start0
     35a      35a       ef     1         /home/mabez/development/rust/embedded/experiments/esp32c3/target/riscv32imac-unknown-none-elf/debug/deps/esp32c3-6c8eecfb34724107.31w2p0rmtqdazjy9.rcgu.o:(.debug_line)
     35a      35a        0     1                 .Lline_table_start0
     449      449       ef     1         /home/mabez/development/rust/embedded/experiments/esp32c3/target/riscv32imac-unknown-none-elf/debug/deps/esp32c3-6c8eecfb34724107.360z2ancvg6ixrl4.rcgu.o:(.debug_line)
     449      449        0     1                 .Lline_table_start0
     538      538      456     1         /home/mabez/development/rust/embedded/experiments/esp32c3/target/riscv32imac-unknown-none-elf/debug/deps/esp32c3-6c8eecfb34724107.3dax6gsnt3idpsze.rcgu.o:(.debug_line)
     538      538        0     1                 .Lline_table_start0
     98e      98e       98     1         /home/mabez/development/rust/embedded/experiments/esp32c3/target/riscv32imac-unknown-none-elf/debug/deps/esp32c3-6c8eecfb34724107.3e2vhcvnvpvomz83.rcgu.o:(.debug_line)
     98e      98e        0     1                 .Lline_table_start0
     a26      a26      134     1         /home/mabez/development/rust/embedded/experiments/esp32c3/target/riscv32imac-unknown-none-elf/debug/deps/esp32c3-6c8eecfb34724107.3hh2vqqri9noju8i.rcgu.o:(.debug_line)
     a26      a26        0     1                 .Lline_table_start0
     b5a      b5a      127     1         /home/mabez/development/rust/embedded/experiments/esp32c3/target/riscv32imac-unknown-none-elf/debug/deps/esp32c3-6c8eecfb34724107.46dv6jlxri7vu0zk.rcgu.o:(.debug_line)
     b5a      b5a        0     1                 .Lline_table_start0
     c81      c81       8c     1         /home/mabez/development/rust/embedded/experiments/esp32c3/target/riscv32imac-unknown-none-elf/debug/deps/esp32c3-6c8eecfb34724107.59383vjg8ah1nwp0.rcgu.o:(.debug_line)
     c81      c81        0     1                 .Lline_table_start0
     d0d      d0d       c1     1         /home/mabez/development/rust/embedded/experiments/esp32c3/target/riscv32imac-unknown-none-elf/debug/deps/esp32c3-6c8eecfb34724107.h4h1jg4d5ugkhbg.rcgu.o:(.debug_line)
     d0d      d0d        0     1                 .Lline_table_start0
     dce      dce      2c5     1         /home/mabez/development/rust/embedded/experiments/esp32c3/target/riscv32imac-unknown-none-elf/debug/deps/esp32c3-6c8eecfb34724107.p5cpnu5dso05alz.rcgu.o:(.debug_line)
     dce      dce        0     1                 .Lline_table_start0
    1093     1093      153     1         /home/mabez/development/rust/embedded/experiments/esp32c3/target/riscv32imac-unknown-none-elf/debug/deps/esp32c3-6c8eecfb34724107.v0f7at9a6qkyll5.rcgu.o:(.debug_line)
    1093     1093        0     1                 .Lline_table_start0
    11e6     11e6      381     1         /home/mabez/development/rust/embedded/experiments/esp32c3/target/riscv32imac-unknown-none-elf/debug/deps/esp32c3-6c8eecfb34724107.zvsvxmou5gfsy4h.rcgu.o:(.debug_line)
    11e6     11e6        0     1                 .Lline_table_start0
    1567     1567      b97     1         /home/mabez/development/rust/embedded/experiments/esp32c3/target/riscv32imac-unknown-none-elf/debug/deps/librtt_target-ba817fabe6541e78.rlib(rtt_target-ba817fabe6541e78.rtt_target.a5746e51-cgu.0.rcgu.o):(.debug_line)
    1567     1567        0     1                 .Lline_table_start0
    20fe     20fe      375     1         /home/mabez/development/rust/embedded/experiments/esp32c3/target/riscv32imac-unknown-none-elf/debug/deps/librtt_target-ba817fabe6541e78.rlib(rtt_target-ba817fabe6541e78.rtt_target.a5746e51-cgu.1.rcgu.o):(.debug_line)
    20fe     20fe        0     1                 .Lline_table_start0
    2473     2473       f5     1         /home/mabez/development/rust/embedded/experiments/esp32c3/target/riscv32imac-unknown-none-elf/debug/deps/librtt_target-ba817fabe6541e78.rlib(rtt_target-ba817fabe6541e78.rtt_target.a5746e51-cgu.10.rcgu.o):(.debug_line)
    2473     2473        0     1                 .Lline_table_start0
    2568     2568      2aa     1         /home/mabez/development/rust/embedded/experiments/esp32c3/target/riscv32imac-unknown-none-elf/debug/deps/librtt_target-ba817fabe6541e78.rlib(rtt_target-ba817fabe6541e78.rtt_target.a5746e51-cgu.11.rcgu.o):(.debug_line)
    2568     2568        0     1                 .Lline_table_start0
    2812     2812      171     1         /home/mabez/development/rust/embedded/experiments/esp32c3/target/riscv32imac-unknown-none-elf/debug/deps/librtt_target-ba817fabe6541e78.rlib(rtt_target-ba817fabe6541e78.rtt_target.a5746e51-cgu.12.rcgu.o):(.debug_line)
    2812     2812        0     1                 .Lline_table_start0
    2983     2983      180     1         /home/mabez/development/rust/embedded/experiments/esp32c3/target/riscv32imac-unknown-none-elf/debug/deps/librtt_target-ba817fabe6541e78.rlib(rtt_target-ba817fabe6541e78.rtt_target.a5746e51-cgu.14.rcgu.o):(.debug_line)
    2983     2983        0     1                 .Lline_table_start0
    2b03     2b03      233     1         /home/mabez/development/rust/embedded/experiments/esp32c3/target/riscv32imac-unknown-none-elf/debug/deps/librtt_target-ba817fabe6541e78.rlib(rtt_target-ba817fabe6541e78.rtt_target.a5746e51-cgu.15.rcgu.o):(.debug_line)
    2b03     2b03        0     1                 .Lline_table_start0
    2d36     2d36      381     1         /home/mabez/development/rust/embedded/experiments/esp32c3/target/riscv32imac-unknown-none-elf/debug/deps/librtt_target-ba817fabe6541e78.rlib(rtt_target-ba817fabe6541e78.rtt_target.a5746e51-cgu.2.rcgu.o):(.debug_line)
    2d36     2d36        0     1                 .Lline_table_start0
    30b7     30b7      7f4     1         /home/mabez/development/rust/embedded/experiments/esp32c3/target/riscv32imac-unknown-none-elf/debug/deps/librtt_target-ba817fabe6541e78.rlib(rtt_target-ba817fabe6541e78.rtt_target.a5746e51-cgu.3.rcgu.o):(.debug_line)
    30b7     30b7        0     1                 .Lline_table_start0
    38ab     38ab      2c2     1         /home/mabez/development/rust/embedded/experiments/esp32c3/target/riscv32imac-unknown-none-elf/debug/deps/librtt_target-ba817fabe6541e78.rlib(rtt_target-ba817fabe6541e78.rtt_target.a5746e51-cgu.4.rcgu.o):(.debug_line)
    38ab     38ab        0     1                 .Lline_table_start0
    3b6d     3b6d       ec     1         /home/mabez/development/rust/embedded/experiments/esp32c3/target/riscv32imac-unknown-none-elf/debug/deps/librtt_target-ba817fabe6541e78.rlib(rtt_target-ba817fabe6541e78.rtt_target.a5746e51-cgu.13.rcgu.o):(.debug_line)
    3b6d     3b6d        0     1                 .Lline_table_start0
    3c59     3c59      141     1         /home/mabez/development/rust/embedded/experiments/esp32c3/target/riscv32imac-unknown-none-elf/debug/deps/librtt_target-ba817fabe6541e78.rlib(rtt_target-ba817fabe6541e78.rtt_target.a5746e51-cgu.5.rcgu.o):(.debug_line)
    3c59     3c59        0     1                 .Lline_table_start0
    3d9a     3d9a      327     1         /home/mabez/development/rust/embedded/experiments/esp32c3/target/riscv32imac-unknown-none-elf/debug/deps/librtt_target-ba817fabe6541e78.rlib(rtt_target-ba817fabe6541e78.rtt_target.a5746e51-cgu.6.rcgu.o):(.debug_line)
    3d9a     3d9a        0     1                 .Lline_table_start0
    40c1     40c1      14d     1         /home/mabez/development/rust/embedded/experiments/esp32c3/target/riscv32imac-unknown-none-elf/debug/deps/librtt_target-ba817fabe6541e78.rlib(rtt_target-ba817fabe6541e78.rtt_target.a5746e51-cgu.7.rcgu.o):(.debug_line)
    40c1     40c1        0     1                 .Lline_table_start0
    420e     420e      30f     1         /home/mabez/development/rust/embedded/experiments/esp32c3/target/riscv32imac-unknown-none-elf/debug/deps/librtt_target-ba817fabe6541e78.rlib(rtt_target-ba817fabe6541e78.rtt_target.a5746e51-cgu.8.rcgu.o):(.debug_line)
    420e     420e        0     1                 .Lline_table_start0
    451d     451d      114     1         /home/mabez/development/rust/embedded/experiments/esp32c3/target/riscv32imac-unknown-none-elf/debug/deps/librtt_target-ba817fabe6541e78.rlib(rtt_target-ba817fabe6541e78.rtt_target.a5746e51-cgu.9.rcgu.o):(.debug_line)
    451d     451d        0     1                 .Lline_table_start0
    4631     4631      334     1         /home/mabez/development/rust/embedded/experiments/esp32c3/target/riscv32imac-unknown-none-elf/debug/deps/libesp32c3_lib-c6891e451671e2e8.rlib(esp32c3_lib-c6891e451671e2e8.50vycai6f6fblslz.rcgu.o):(.debug_line)
    4631     4631        0     1                 .Lline_table_start0
    4965     4965       d3     1         /home/mabez/development/rust/embedded/experiments/esp32c3/target/riscv32imac-unknown-none-elf/debug/deps/libesp32c3_lib-c6891e451671e2e8.rlib(esp32c3_lib-c6891e451671e2e8.2zwu2gzn9kym8n1i.rcgu.o):(.debug_line)
    4965     4965        0     1                 .Lline_table_start0
    4a38     4a38       91     1         /home/mabez/development/rust/embedded/experiments/esp32c3/target/riscv32imac-unknown-none-elf/debug/deps/libesp32c3_lib-c6891e451671e2e8.rlib(esp32c3_lib-c6891e451671e2e8.52x8onntfu5vhxia.rcgu.o):(.debug_line)
    4a38     4a38        0     1                 .Lline_table_start0
    4ac9     4ac9       92     1         /home/mabez/development/rust/embedded/experiments/esp32c3/target/riscv32imac-unknown-none-elf/debug/deps/libbare_metal-01059decff6db7a9.rlib(bare_metal-01059decff6db7a9.bare_metal.c7fb2979-cgu.0.rcgu.o):(.debug_line)
    4ac9     4ac9        0     1                 .Lline_table_start0
    4b5b     4b5b       ab     1         /home/mabez/development/rust/embedded/experiments/esp32c3/target/riscv32imac-unknown-none-elf/debug/deps/libembedded_hal-09d0b07e9f5d700b.rlib(embedded_hal-09d0b07e9f5d700b.embedded_hal.a1e71ce7-cgu.10.rcgu.o):(.debug_line)
    4b5b     4b5b        0     1                 .Lline_table_start0
    4c06     4c06      33f     1         /home/mabez/development/rust/embedded/experiments/esp32c3/target/riscv32imac-unknown-none-elf/debug/deps/libembedded_hal-09d0b07e9f5d700b.rlib(embedded_hal-09d0b07e9f5d700b.embedded_hal.a1e71ce7-cgu.6.rcgu.o):(.debug_line)
    4c06     4c06        0     1                 .Lline_table_start0
    4f45     4f45       c0     1         /home/mabez/development/rust/embedded/experiments/esp32c3/target/riscv32imac-unknown-none-elf/debug/deps/libembedded_hal-09d0b07e9f5d700b.rlib(embedded_hal-09d0b07e9f5d700b.embedded_hal.a1e71ce7-cgu.4.rcgu.o):(.debug_line)
    4f45     4f45        0     1                 .Lline_table_start0
    5005     5005       ae     1         /home/mabez/development/rust/embedded/experiments/esp32c3/target/riscv32imac-unknown-none-elf/debug/deps/libembedded_hal-09d0b07e9f5d700b.rlib(embedded_hal-09d0b07e9f5d700b.embedded_hal.a1e71ce7-cgu.3.rcgu.o):(.debug_line)
    5005     5005        0     1                 .Lline_table_start0
    50b3     50b3       be     1         /home/mabez/development/rust/embedded/experiments/esp32c3/target/riscv32imac-unknown-none-elf/debug/deps/libembedded_hal-09d0b07e9f5d700b.rlib(embedded_hal-09d0b07e9f5d700b.embedded_hal.a1e71ce7-cgu.7.rcgu.o):(.debug_line)
    50b3     50b3        0     1                 .Lline_table_start0
    5171     5171       be     1         /home/mabez/development/rust/embedded/experiments/esp32c3/target/riscv32imac-unknown-none-elf/debug/deps/libvoid-9bf68c712c7c3b51.rlib(void-9bf68c712c7c3b51.void.0c241590-cgu.0.rcgu.o):(.debug_line)
    5171     5171        0     1                 .Lline_table_start0
    522f     522f    27185     1         /home/mabez/.rustup/toolchains/nightly-x86_64-unknown-linux-gnu/lib/rustlib/riscv32imac-unknown-none-elf/lib/libcore-081fd8405fc18f2e.rlib(core-081fd8405fc18f2e.core.364d98f8-cgu.0.rcgu.o):(.debug_line)
    522f     522f        0     1                 .Lline_table_start0
   2c3b4    2c3b4      245     1         /home/mabez/.rustup/toolchains/nightly-x86_64-unknown-linux-gnu/lib/rustlib/riscv32imac-unknown-none-elf/lib/libcompiler_builtins-64fdae85a7f05972.rlib(compiler_builtins-64fdae85a7f05972.compiler_builtins.ce5182a1-cgu.1.rcgu.o):(.debug_line)
   2c3b4    2c3b4        0     1                 .Lline_table_start0
   2c5f9    2c5f9      191     1         /home/mabez/.rustup/toolchains/nightly-x86_64-unknown-linux-gnu/lib/rustlib/riscv32imac-unknown-none-elf/lib/libcompiler_builtins-64fdae85a7f05972.rlib(compiler_builtins-64fdae85a7f05972.compiler_builtins.ce5182a1-cgu.104.rcgu.o):(.debug_line)
   2c5f9    2c5f9        0     1                 .Lline_table_start0
   2c78a    2c78a      211     1         /home/mabez/.rustup/toolchains/nightly-x86_64-unknown-linux-gnu/lib/rustlib/riscv32imac-unknown-none-elf/lib/libcompiler_builtins-64fdae85a7f05972.rlib(compiler_builtins-64fdae85a7f05972.compiler_builtins.ce5182a1-cgu.11.rcgu.o):(.debug_line)
   2c78a    2c78a        0     1                 .Lline_table_start0
   2c99b    2c99b      41a     1         /home/mabez/.rustup/toolchains/nightly-x86_64-unknown-linux-gnu/lib/rustlib/riscv32imac-unknown-none-elf/lib/libcompiler_builtins-64fdae85a7f05972.rlib(compiler_builtins-64fdae85a7f05972.compiler_builtins.ce5182a1-cgu.113.rcgu.o):(.debug_line)
   2c99b    2c99b        0     1                 .Lline_table_start0
   2cdb5    2cdb5      bd6     1         /home/mabez/.rustup/toolchains/nightly-x86_64-unknown-linux-gnu/lib/rustlib/riscv32imac-unknown-none-elf/lib/libcompiler_builtins-64fdae85a7f05972.rlib(compiler_builtins-64fdae85a7f05972.compiler_builtins.ce5182a1-cgu.121.rcgu.o):(.debug_line)
   2cdb5    2cdb5        0     1                 .Lline_table_start0
   2d98b    2d98b      211     1         /home/mabez/.rustup/toolchains/nightly-x86_64-unknown-linux-gnu/lib/rustlib/riscv32imac-unknown-none-elf/lib/libcompiler_builtins-64fdae85a7f05972.rlib(compiler_builtins-64fdae85a7f05972.compiler_builtins.ce5182a1-cgu.16.rcgu.o):(.debug_line)
   2d98b    2d98b        0     1                 .Lline_table_start0
   2db9c    2db9c      28a     1         /home/mabez/.rustup/toolchains/nightly-x86_64-unknown-linux-gnu/lib/rustlib/riscv32imac-unknown-none-elf/lib/libcompiler_builtins-64fdae85a7f05972.rlib(compiler_builtins-64fdae85a7f05972.compiler_builtins.ce5182a1-cgu.21.rcgu.o):(.debug_line)
   2db9c    2db9c        0     1                 .Lline_table_start0
   2de26    2de26      33a     1         /home/mabez/.rustup/toolchains/nightly-x86_64-unknown-linux-gnu/lib/rustlib/riscv32imac-unknown-none-elf/lib/libcompiler_builtins-64fdae85a7f05972.rlib(compiler_builtins-64fdae85a7f05972.compiler_builtins.ce5182a1-cgu.22.rcgu.o):(.debug_line)
   2de26    2de26        0     1                 .Lline_table_start0
   2e160    2e160      30a     1         /home/mabez/.rustup/toolchains/nightly-x86_64-unknown-linux-gnu/lib/rustlib/riscv32imac-unknown-none-elf/lib/libcompiler_builtins-64fdae85a7f05972.rlib(compiler_builtins-64fdae85a7f05972.compiler_builtins.ce5182a1-cgu.23.rcgu.o):(.debug_line)
   2e160    2e160        0     1                 .Lline_table_start0
   2e46a    2e46a      245     1         /home/mabez/.rustup/toolchains/nightly-x86_64-unknown-linux-gnu/lib/rustlib/riscv32imac-unknown-none-elf/lib/libcompiler_builtins-64fdae85a7f05972.rlib(compiler_builtins-64fdae85a7f05972.compiler_builtins.ce5182a1-cgu.42.rcgu.o):(.debug_line)
   2e46a    2e46a        0     1                 .Lline_table_start0
   2e6af    2e6af       fc     1         /home/mabez/.rustup/toolchains/nightly-x86_64-unknown-linux-gnu/lib/rustlib/riscv32imac-unknown-none-elf/lib/libcompiler_builtins-64fdae85a7f05972.rlib(compiler_builtins-64fdae85a7f05972.compiler_builtins.ce5182a1-cgu.58.rcgu.o):(.debug_line)
   2e6af    2e6af        0     1                 .Lline_table_start0
   2e7ab    2e7ab      41a     1         /home/mabez/.rustup/toolchains/nightly-x86_64-unknown-linux-gnu/lib/rustlib/riscv32imac-unknown-none-elf/lib/libcompiler_builtins-64fdae85a7f05972.rlib(compiler_builtins-64fdae85a7f05972.compiler_builtins.ce5182a1-cgu.62.rcgu.o):(.debug_line)
   2e7ab    2e7ab        0     1                 .Lline_table_start0
   2ebc5    2ebc5      20f     1         /home/mabez/.rustup/toolchains/nightly-x86_64-unknown-linux-gnu/lib/rustlib/riscv32imac-unknown-none-elf/lib/libcompiler_builtins-64fdae85a7f05972.rlib(compiler_builtins-64fdae85a7f05972.compiler_builtins.ce5182a1-cgu.7.rcgu.o):(.debug_line)
   2ebc5    2ebc5        0     1                 .Lline_table_start0
   2edd4    2edd4      269     1         /home/mabez/.rustup/toolchains/nightly-x86_64-unknown-linux-gnu/lib/rustlib/riscv32imac-unknown-none-elf/lib/libcompiler_builtins-64fdae85a7f05972.rlib(compiler_builtins-64fdae85a7f05972.compiler_builtins.ce5182a1-cgu.79.rcgu.o):(.debug_line)
   2edd4    2edd4        0     1                 .Lline_table_start0
   2f03d    2f03d      b8c     1         /home/mabez/.rustup/toolchains/nightly-x86_64-unknown-linux-gnu/lib/rustlib/riscv32imac-unknown-none-elf/lib/libcompiler_builtins-64fdae85a7f05972.rlib(compiler_builtins-64fdae85a7f05972.compiler_builtins.ce5182a1-cgu.86.rcgu.o):(.debug_line)
   2f03d    2f03d        0     1                 .Lline_table_start0
   2fbc9    2fbc9      28e     1         /home/mabez/.rustup/toolchains/nightly-x86_64-unknown-linux-gnu/lib/rustlib/riscv32imac-unknown-none-elf/lib/libcompiler_builtins-64fdae85a7f05972.rlib(compiler_builtins-64fdae85a7f05972.compiler_builtins.ce5182a1-cgu.66.rcgu.o):(.debug_line)
   2fbc9    2fbc9        0     1                 .Lline_table_start0
   2fe57    2fe57       fc     1         /home/mabez/.rustup/toolchains/nightly-x86_64-unknown-linux-gnu/lib/rustlib/riscv32imac-unknown-none-elf/lib/libcompiler_builtins-64fdae85a7f05972.rlib(compiler_builtins-64fdae85a7f05972.compiler_builtins.ce5182a1-cgu.96.rcgu.o):(.debug_line)
   2fe57    2fe57        0     1                 .Lline_table_start0
   2ff53    2ff53       fc     1         /home/mabez/.rustup/toolchains/nightly-x86_64-unknown-linux-gnu/lib/rustlib/riscv32imac-unknown-none-elf/lib/libcompiler_builtins-64fdae85a7f05972.rlib(compiler_builtins-64fdae85a7f05972.compiler_builtins.ce5182a1-cgu.98.rcgu.o):(.debug_line)
   2ff53    2ff53        0     1                 .Lline_table_start0
   3004f    3004f      3a2     1         /home/mabez/development/rust/embedded/experiments/esp32c3/target/riscv32imac-unknown-none-elf/debug/deps/libriscv_rt-9f6ededa1f4c9759.rlib(riscv_rt-9f6ededa1f4c9759.riscv_rt.da5378fb-cgu.3.rcgu.o):(.debug_line)
   3004f    3004f        0     1                 .Lline_table_start0
   303f1    303f1      249     1         /home/mabez/development/rust/embedded/experiments/esp32c3/target/riscv32imac-unknown-none-elf/debug/deps/libriscv_rt-9f6ededa1f4c9759.rlib(riscv_rt-9f6ededa1f4c9759.riscv_rt.da5378fb-cgu.5.rcgu.o):(.debug_line)
   303f1    303f1        0     1                 .Lline_table_start0
   3063a    3063a      15b     1         /home/mabez/development/rust/embedded/experiments/esp32c3/target/riscv32imac-unknown-none-elf/debug/deps/libriscv_rt-9f6ededa1f4c9759.rlib(riscv_rt-9f6ededa1f4c9759.riscv_rt.da5378fb-cgu.0.rcgu.o):(.debug_line)
   3063a    3063a        0     1                 .Lline_table_start0
   30795    30795      126     1         /home/mabez/development/rust/embedded/experiments/esp32c3/target/riscv32imac-unknown-none-elf/debug/deps/libriscv_rt-9f6ededa1f4c9759.rlib(riscv_rt-9f6ededa1f4c9759.riscv_rt.da5378fb-cgu.1.rcgu.o):(.debug_line)
   30795    30795        0     1                 .Lline_table_start0
   308bb    308bb       92     1         /home/mabez/development/rust/embedded/experiments/esp32c3/target/riscv32imac-unknown-none-elf/debug/deps/libriscv_rt-9f6ededa1f4c9759.rlib(riscv_rt-9f6ededa1f4c9759.riscv_rt.da5378fb-cgu.6.rcgu.o):(.debug_line)
   308bb    308bb        0     1                 .Lline_table_start0
   3094d    3094d      128     1         /home/mabez/development/rust/embedded/experiments/esp32c3/target/riscv32imac-unknown-none-elf/debug/deps/libriscv_rt-9f6ededa1f4c9759.rlib(riscv_rt-9f6ededa1f4c9759.riscv_rt.da5378fb-cgu.4.rcgu.o):(.debug_line)
   3094d    3094d        0     1                 .Lline_table_start0
   30a75    30a75      4ae     1         /home/mabez/development/rust/embedded/experiments/esp32c3/target/riscv32imac-unknown-none-elf/debug/deps/libriscv-39f7ce6f6030497b.rlib(riscv-39f7ce6f6030497b.riscv.b201b7e1-cgu.0.rcgu.o):(.debug_line)
   30a75    30a75        0     1                 .Lline_table_start0
   30f23    30f23      2d5     1         /home/mabez/development/rust/embedded/experiments/esp32c3/target/riscv32imac-unknown-none-elf/debug/deps/libriscv-39f7ce6f6030497b.rlib(riscv-39f7ce6f6030497b.riscv.b201b7e1-cgu.9.rcgu.o):(.debug_line)
   30f23    30f23        0     1                 .Lline_table_start0
   311f8    311f8      171     1         /home/mabez/development/rust/embedded/experiments/esp32c3/target/riscv32imac-unknown-none-elf/debug/deps/libriscv-39f7ce6f6030497b.rlib(riscv-39f7ce6f6030497b.riscv.b201b7e1-cgu.4.rcgu.o):(.debug_line)
   311f8    311f8        0     1                 .Lline_table_start0
   31369    31369       c1     1         /home/mabez/development/rust/embedded/experiments/esp32c3/target/riscv32imac-unknown-none-elf/debug/deps/libriscv_rt-9f6ededa1f4c9759.rlib(riscv_rt-9f6ededa1f4c9759.riscv_rt.da5378fb-cgu.8.rcgu.o):(.debug_line)
   31369    31369        0     1                 .Lline_table_start0
   3142a    3142a       93     1         /home/mabez/development/rust/embedded/experiments/esp32c3/target/riscv32imac-unknown-none-elf/debug/deps/libriscv_rt-9f6ededa1f4c9759.rlib(riscv_rt-9f6ededa1f4c9759.riscv_rt.da5378fb-cgu.7.rcgu.o):(.debug_line)
   3142a    3142a        0     1                 .Lline_table_start0
   314bd    314bd       87     1         /home/mabez/development/rust/embedded/experiments/esp32c3/target/riscv32imac-unknown-none-elf/debug/deps/libriscv_rt-9f6ededa1f4c9759.rlib(riscv_rt-9f6ededa1f4c9759.riscv_rt.da5378fb-cgu.2.rcgu.o):(.debug_line)
   314bd    314bd        0     1                 .Lline_table_start0
   31544    31544      25a     1         /home/mabez/development/rust/embedded/experiments/esp32c3/target/riscv32imac-unknown-none-elf/debug/deps/libriscv_rt-9f6ededa1f4c9759.rlib(riscv-rt.o):(.debug_line)
   3179e    3179e      1ea     1         /home/mabez/development/rust/embedded/experiments/esp32c3/target/riscv32imac-unknown-none-elf/debug/deps/libriscv_atomic_emulation_trap-fab535a27fe2d765.rlib(riscv-atomic-emulation-trap.o):(.debug_line)
   31988    31988      aa7     1         /home/mabez/development/rust/embedded/experiments/esp32c3/target/riscv32imac-unknown-none-elf/debug/deps/libriscv_atomic_emulation_trap-fab535a27fe2d765.rlib(riscv_atomic_emulation_trap-fab535a27fe2d765.riscv_atomic_emulation_trap.b3d57533-cgu.0.rcgu.o):(.debug_line)
   31988    31988        0     1                 .Lline_table_start0
   3242f    3242f       b3     1         /home/mabez/development/rust/embedded/experiments/esp32c3/target/riscv32imac-unknown-none-elf/debug/deps/libriscv_atomic_emulation_trap-fab535a27fe2d765.rlib(riscv_atomic_emulation_trap-fab535a27fe2d765.riscv_atomic_emulation_trap.b3d57533-cgu.2.rcgu.o):(.debug_line)
   3242f    3242f        0     1                 .Lline_table_start0
   324e2    324e2       99     1         /home/mabez/development/rust/embedded/experiments/esp32c3/target/riscv32imac-unknown-none-elf/debug/deps/libriscv_atomic_emulation_trap-fab535a27fe2d765.rlib(riscv_atomic_emulation_trap-fab535a27fe2d765.riscv_atomic_emulation_trap.b3d57533-cgu.1.rcgu.o):(.debug_line)
   324e2    324e2        0     1                 .Lline_table_start0
   3257b    3257b       9e     1         /home/mabez/development/rust/embedded/experiments/esp32c3/target/riscv32imac-unknown-none-elf/debug/deps/libriscv_atomic_emulation_trap-fab535a27fe2d765.rlib(riscv_atomic_emulation_trap-fab535a27fe2d765.riscv_atomic_emulation_trap.b3d57533-cgu.6.rcgu.o):(.debug_line)
   3257b    3257b        0     1                 .Lline_table_start0
   32619    32619      170     1         /home/mabez/development/rust/embedded/experiments/esp32c3/target/riscv32imac-unknown-none-elf/debug/deps/libriscv_atomic_emulation_trap-fab535a27fe2d765.rlib(riscv_atomic_emulation_trap-fab535a27fe2d765.riscv_atomic_emulation_trap.b3d57533-cgu.3.rcgu.o):(.debug_line)
   32619    32619        0     1                 .Lline_table_start0
   32789    32789      4ae     1         /home/mabez/development/rust/embedded/experiments/esp32c3/target/riscv32imac-unknown-none-elf/debug/deps/libriscv-2df4d94086d6ad3d.rlib(riscv-2df4d94086d6ad3d.riscv.9f9f37cf-cgu.0.rcgu.o):(.debug_line)
   32789    32789        0     1                 .Lline_table_start0
   32c37    32c37      2d6     1         /home/mabez/development/rust/embedded/experiments/esp32c3/target/riscv32imac-unknown-none-elf/debug/deps/libriscv-2df4d94086d6ad3d.rlib(riscv-2df4d94086d6ad3d.riscv.9f9f37cf-cgu.10.rcgu.o):(.debug_line)
   32c37    32c37        0     1                 .Lline_table_start0
   32f0d    32f0d      257     1         /home/mabez/development/rust/embedded/experiments/esp32c3/target/riscv32imac-unknown-none-elf/debug/deps/libriscv-2df4d94086d6ad3d.rlib(riscv-2df4d94086d6ad3d.riscv.9f9f37cf-cgu.8.rcgu.o):(.debug_line)
   32f0d    32f0d        0     1                 .Lline_table_start0
   33164    33164      171     1         /home/mabez/development/rust/embedded/experiments/esp32c3/target/riscv32imac-unknown-none-elf/debug/deps/libriscv-2df4d94086d6ad3d.rlib(riscv-2df4d94086d6ad3d.riscv.9f9f37cf-cgu.4.rcgu.o):(.debug_line)
   33164    33164        0     1                 .Lline_table_start0
   332d5    332d5      1f2     1         /home/mabez/development/rust/embedded/experiments/esp32c3/target/riscv32imac-unknown-none-elf/debug/deps/libriscv-2df4d94086d6ad3d.rlib(riscv-2df4d94086d6ad3d.riscv.9f9f37cf-cgu.11.rcgu.o):(.debug_line)
   332d5    332d5        0     1                 .Lline_table_start0
   334c7    334c7      28d     1         /home/mabez/development/rust/embedded/experiments/esp32c3/target/riscv32imac-unknown-none-elf/debug/deps/libriscv_atomic_emulation_trap-fab535a27fe2d765.rlib(riscv_atomic_emulation_trap-fab535a27fe2d765.riscv_atomic_emulation_trap.b3d57533-cgu.5.rcgu.o):(.debug_line)
   334c7    334c7        0     1                 .Lline_table_start0
   33754    33754      111     1         /home/mabez/development/rust/embedded/experiments/esp32c3/target/riscv32imac-unknown-none-elf/debug/deps/libriscv_atomic_emulation_trap-fab535a27fe2d765.rlib(riscv_atomic_emulation_trap-fab535a27fe2d765.riscv_atomic_emulation_trap.b3d57533-cgu.7.rcgu.o):(.debug_line)
   33754    33754        0     1                 .Lline_table_start0
   33865    33865      1b1     1         /home/mabez/development/rust/embedded/experiments/esp32c3/target/riscv32imac-unknown-none-elf/debug/deps/libriscv_atomic_emulation_trap-fab535a27fe2d765.rlib(riscv_atomic_emulation_trap-fab535a27fe2d765.riscv_atomic_emulation_trap.b3d57533-cgu.4.rcgu.o):(.debug_line)
   33865    33865        0     1                 .Lline_table_start0
       0        0      168     1 .debug_loc
       0        0       38     1         /home/mabez/development/rust/embedded/experiments/esp32c3/target/riscv32imac-unknown-none-elf/debug/deps/esp32c3-6c8eecfb34724107.v0f7at9a6qkyll5.rcgu.o:(.debug_loc)
       0        0        0     1                 
      1c       1c        0     1                 
      38       38       61     1         /home/mabez/development/rust/embedded/experiments/esp32c3/target/riscv32imac-unknown-none-elf/debug/deps/librtt_target-ba817fabe6541e78.rlib(rtt_target-ba817fabe6541e78.rtt_target.a5746e51-cgu.0.rcgu.o):(.debug_loc)
      38       38        0     1                 
      61       61        0     1                 
      7d       7d        0     1                 
      99       99       61     1         /home/mabez/development/rust/embedded/experiments/esp32c3/target/riscv32imac-unknown-none-elf/debug/deps/librtt_target-ba817fabe6541e78.rlib(rtt_target-ba817fabe6541e78.rtt_target.a5746e51-cgu.3.rcgu.o):(.debug_loc)
      99       99        0     1                 
      c2       c2        0     1                 
      de       de        0     1                 
      fa       fa       6e     1         /home/mabez/development/rust/embedded/experiments/esp32c3/target/riscv32imac-unknown-none-elf/debug/deps/librtt_target-ba817fabe6541e78.rlib(rtt_target-ba817fabe6541e78.rtt_target.a5746e51-cgu.6.rcgu.o):(.debug_loc)
      fa       fa        0     1                 
     123      123        0     1                 
     13f      13f        0     1                 
       0        0       10     1 .debug_line_str
       0        0       10     1         <internal>:(.debug_line_str)
       0        0       20     1 .debug_rnglists
       0        0       20     1         /home/mabez/development/rust/embedded/experiments/esp32c3/target/riscv32imac-unknown-none-elf/debug/deps/libriscv_rt-9f6ededa1f4c9759.rlib(riscv-rt.o):(.debug_rnglists)
       c        c        0     1                 .L0 
       0        0       13     1 .comment
       0        0       13     1         <internal>:(.comment)
       0        0    22710     4 .symtab
       0        0    22710     4         <internal>:(.symtab)
       0        0      120     1 .shstrtab
       0        0      120     1         <internal>:(.shstrtab)
       0        0     6c88     1 .strtab
       0        0     6c88     1         <internal>:(.strtab)
