     VMA      LMA     Size Align Out     In      Symbol
42000000        0        8     1 .header
42000000        0        4     1         LONG ( 0xaedb041d )
42000004        4        4     1         LONG ( 0xaedb041d )
42000008        8        0     1 _stext = ORIGIN ( IROM ) + 8
42000008        8        0     1 PROVIDE ( _stack_start = ORIGIN ( REGION_STACK ) + LENGTH ( REGION_STACK ) )
42000008        8        0     1 PROVIDE ( _max_hart_id = 0 )
42000008        8        0     1 PROVIDE ( _hart_stack_size = 2K )
42000008        8        0     1 PROVIDE ( _heap_size = 0 )
42000008        8        0     1 PROVIDE ( UserSoft = DefaultHandler )
42000008        8        0     1 PROVIDE ( SupervisorSoft = DefaultHandler )
42000008        8        0     1 PROVIDE ( MachineSoft = DefaultHandler )
42000008        8        0     1 PROVIDE ( UserTimer = DefaultHandler )
42000008        8        0     1 PROVIDE ( SupervisorTimer = DefaultHandler )
42000008        8        0     1 PROVIDE ( MachineTimer = DefaultHandler )
42000008        8        0     1 PROVIDE ( UserExternal = DefaultHandler )
42000008        8        0     1 PROVIDE ( SupervisorExternal = DefaultHandler )
42000008        8        0     1 PROVIDE ( MachineExternal = DefaultHandler )
42000008        8        0     1 PROVIDE ( DefaultHandler = DefaultInterruptHandler )
42000008        8        0     1 PROVIDE ( __pre_init = default_pre_init )
42000008        8        0     1 PROVIDE ( _setup_interrupts = default_setup_interrupts )
42000008        8        0     1 PROVIDE ( _mp_hook = default_mp_hook )
42000008        8        0     1 .text.dummy
42000008        8        0     1         . = ABSOLUTE ( _stext )
42000008        8     6be2     2 .text
42000008        8       82     1         /Users/mabez/Development/rust/embedded/experiments/esp32c3-experiments/target/riscv32imac-unknown-none-elf/debug/deps/libriscv_rt-792395b706c7e295.rlib(riscv-rt.o):(.init)
42000008        8        0     1                 .L0 
42000008        8        0     1                 .L0 
42000008        8        0     1                 .L0 
42000008        8        0     1                 _start
4200000c        c        0     1                 .L0 
42000010       10        0     1                 _abs_start
42000010       10        0     1                 .L0 
42000010       10        0     1                 .L0 
42000012       12        0     1                 .L0 
42000014       14        0     1                 .L0 
42000016       16        0     1                 .L0 
42000018       18        0     1                 .L0 
4200001a       1a        0     1                 .L0 
4200001c       1c        0     1                 .L0 
4200001e       1e        0     1                 .L0 
42000020       20        0     1                 .L0 
42000022       22        0     1                 .L0 
42000024       24        0     1                 .L0 
42000026       26        0     1                 .L0 
42000028       28        0     1                 .L0 
4200002a       2a        0     1                 .L0 
4200002c       2c        0     1                 .L0 
4200002e       2e        0     1                 .L0 
42000030       30        0     1                 .L0 
42000032       32        0     1                 .L0 
42000034       34        0     1                 .L0 
42000036       36        0     1                 .L0 
42000038       38        0     1                 .L0 
4200003a       3a        0     1                 .L0 
4200003c       3c        0     1                 .L0 
4200003e       3e        0     1                 .L0 
42000040       40        0     1                 .L0 
42000042       42        0     1                 .L0 
42000044       44        0     1                 .L0 
42000046       46        0     1                 .L0 
42000048       48        0     1                 .L0 
4200004a       4a        0     1                 .L0 
4200004c       4c        0     1                 .L0 
4200004e       4e        0     1                 .L0 
4200004e       4e        0     1                 .L0 
42000056       56        0     1                 .L0 
4200005a       5a        0     1                 .L0 
4200005e       5e        0     1                 .L0 
42000062       62        0     1                 .L0 
4200006a       6a        0     1                 .L0 
4200006a       6a        0     1                 .L0 
42000072       72        0     1                 .L0 
42000076       76        0     1                 .L0 
4200007a       7a        0     1                 .L0 
4200007e       7e        0     1                 .L0 
42000082       82        0     1                 .L0 
42000086       86        0     1                 .L0 
4200008a       8a        0     1                 .L0 
4200008a       8a        0     1                 .L0 
4200008a       8a        0     1                 .L0 
4200008a       8a       74     2         /Users/mabez/Development/rust/embedded/experiments/esp32c3-experiments/target/riscv32imac-unknown-none-elf/debug/deps/libriscv_rt-792395b706c7e295.rlib(riscv_rt-792395b706c7e295.n23zmh27zi56vj2.rcgu.o):(.init.rust)
4200008a       8a        0     1                 
4200008a       8a        0     1                 
4200008a       8a        0     1                 
4200008a       8a       74     1                 _start_rust
4200008c       8c        0     1                 
4200008c       8c        0     1                 
4200008e       8e        0     1                 
4200009a       9a        0     1                 
4200009e       9e        0     1                 
420000a4       a4        0     1                 
420000ae       ae        0     1                 
420000b8       b8        0     1                 
420000d2       d2        0     1                 
420000f4       f4        0     1                 
420000fe       fe        0     1                 
420000fe       fe        0     1                 
420000fe       fe        0     1                 
420000fe       fe        2     1         . = ALIGN ( 4 )
42000100      100       98     1         /Users/mabez/Development/rust/embedded/experiments/esp32c3-experiments/target/riscv32imac-unknown-none-elf/debug/deps/libriscv_atomic_emulation_trap-36c6147cf3a7da2f.rlib(riscv-atomic-emulation-trap.o):(.trap)
42000100      100        0     1                 .L0 
42000100      100        0     1                 .L0 
42000100      100        0     1                 _start_trap
42000102      102        0     1                 .L0 
42000104      104        0     1                 .L0 
42000106      106        0     1                 .L0 
42000108      108        0     1                 .L0 
4200010a      10a        0     1                 .L0 
4200010c      10c        0     1                 .L0 
4200010e      10e        0     1                 .L0 
42000110      110        0     1                 .L0 
42000112      112        0     1                 .L0 
42000114      114        0     1                 .L0 
42000116      116        0     1                 .L0 
42000118      118        0     1                 .L0 
4200011a      11a        0     1                 .L0 
4200011c      11c        0     1                 .L0 
4200011e      11e        0     1                 .L0 
42000120      120        0     1                 .L0 
42000122      122        0     1                 .L0 
42000124      124        0     1                 .L0 
42000126      126        0     1                 .L0 
42000128      128        0     1                 .L0 
4200012a      12a        0     1                 .L0 
4200012c      12c        0     1                 .L0 
4200012e      12e        0     1                 .L0 
42000130      130        0     1                 .L0 
42000132      132        0     1                 .L0 
42000134      134        0     1                 .L0 
42000136      136        0     1                 .L0 
42000138      138        0     1                 .L0 
4200013a      13a        0     1                 .L0 
4200013c      13c        0     1                 .L0 
4200013e      13e        0     1                 .L0 
42000140      140        0     1                 .L0 
42000144      144        0     1                 .L0 
42000146      146        0     1                 .L0 
4200014a      14a        0     1                 .L0 
4200014e      14e        0     1                 .L0 
42000150      150        0     1                 .L0 
42000152      152        0     1                 .L0 
42000154      154        0     1                 .L0 
42000156      156        0     1                 .L0 
42000158      158        0     1                 .L0 
4200015a      15a        0     1                 .L0 
4200015c      15c        0     1                 .L0 
4200015e      15e        0     1                 .L0 
42000160      160        0     1                 .L0 
42000162      162        0     1                 .L0 
42000164      164        0     1                 .L0 
42000166      166        0     1                 .L0 
42000168      168        0     1                 .L0 
4200016a      16a        0     1                 .L0 
4200016c      16c        0     1                 .L0 
4200016e      16e        0     1                 .L0 
42000170      170        0     1                 .L0 
42000172      172        0     1                 .L0 
42000174      174        0     1                 .L0 
42000176      176        0     1                 .L0 
42000178      178        0     1                 .L0 
4200017a      17a        0     1                 .L0 
4200017c      17c        0     1                 .L0 
4200017e      17e        0     1                 .L0 
42000180      180        0     1                 .L0 
42000182      182        0     1                 .L0 
42000184      184        0     1                 .L0 
42000186      186        0     1                 .L0 
42000188      188        0     1                 .L0 
4200018a      18a        0     1                 .L0 
4200018c      18c        0     1                 .L0 
4200018e      18e        0     1                 .L0 
42000192      192        0     1                 .L0 
42000194      194        0     1                 .L0 
42000198      198        0     1                 .L0 
42000198      198        0     1                 .L0 
42000198      198      14a     2         /Users/mabez/Development/rust/embedded/experiments/esp32c3-experiments/target/riscv32imac-unknown-none-elf/debug/deps/libriscv_atomic_emulation_trap-36c6147cf3a7da2f.rlib(riscv_atomic_emulation_trap-36c6147cf3a7da2f.192heijy3m9d29qe.rcgu.o):(.trap.rust)
42000198      198        0     1                 
42000198      198        0     1                 
42000198      198        0     1                 
42000198      198      14a     1                 _start_trap_atomic_rust
4200019a      19a        0     1                 
4200019c      19c        0     1                 
420001a0      1a0        0     1                 
420001ac      1ac        0     1                 
420001ac      1ac        0     1                 
420001b2      1b2        0     1                 
420001b2      1b2        0     1                 
420001cc      1cc        0     1                 
420001d4      1d4        0     1                 
420001d6      1d6        0     1                 
420001d8      1d8        0     1                 
420001e8      1e8        0     1                 
420001f2      1f2        0     1                 
420001f2      1f2        0     1                 
420001f8      1f8        0     1                 
42000206      206        0     1                 
42000214      214        0     1                 
42000216      216        0     1                 
42000220      220        0     1                 
42000220      220        0     1                 
42000226      226        0     1                 
4200022a      22a        0     1                 
4200022a      22a        0     1                 
42000230      230        0     1                 
4200023e      23e        0     1                 
42000240      240        0     1                 
42000256      256        0     1                 
42000258      258        0     1                 
42000274      274        0     1                 
42000276      276        0     1                 
42000280      280        0     1                 
42000280      280        0     1                 
42000284      284        0     1                 
42000284      284        0     1                 
4200028a      28a        0     1                 
42000294      294        0     1                 
42000298      298        0     1                 
4200029e      29e        0     1                 
420002b0      2b0        0     1                 
420002b0      2b0        0     1                 
420002ba      2ba        0     1                 
420002ba      2ba        0     1                 
420002d0      2d0        0     1                 
420002d0      2d0        0     1                 
420002da      2da        0     1                 
420002e2      2e2        0     1                 
420002e2      2e2        0     1                 
420002e2      2e2        0     1                 
420002e2      2e2        0     1                 
420002e2      2e2       3a     2         /Users/mabez/Development/rust/embedded/experiments/esp32c3-experiments/target/riscv32imac-unknown-none-elf/debug/deps/esp32c3-0792fe58911f872d.1e78zwiugb76rjx.rcgu.o:(.text._ZN4core6result19Result$LT$T$C$E$GT$6unwrap17h7942e8911baf2cd6E)
420002e2      2e2        0     1                 
420002e2      2e2        0     1                 
420002e2      2e2        0     1                 
420002e2      2e2       3a     1                 core::result::Result$LT$T$C$E$GT$::unwrap::h7942e8911baf2cd6
420002e4      2e4        0     1                 
420002ec      2ec        0     1                 
420002f4      2f4        0     1                 
420002f6      2f6        0     1                 
420002fa      2fa        0     1                 
420002fa      2fa        0     1                 
4200031c      31c        0     1                 
4200031c      31c        0     1                 
4200031c      31c        0     1                 
4200031c      31c        0     1                 
4200031c      31c       42     2         /Users/mabez/Development/rust/embedded/experiments/esp32c3-experiments/target/riscv32imac-unknown-none-elf/debug/deps/esp32c3-0792fe58911f872d.1e78zwiugb76rjx.rcgu.o:(.text._ZN4core6result19Result$LT$T$C$E$GT$6unwrap17h7bf9df7136b95f38E)
4200031c      31c        0     1                 
4200031c      31c        0     1                 
4200031c      31c        0     1                 
4200031c      31c       42     1                 core::result::Result$LT$T$C$E$GT$::unwrap::h7bf9df7136b95f38
4200031e      31e        0     1                 
42000326      326        0     1                 
4200032e      32e        0     1                 
42000330      330        0     1                 
42000334      334        0     1                 
42000338      338        0     1                 
4200033e      33e        0     1                 
4200033e      33e        0     1                 
4200035e      35e        0     1                 
4200035e      35e        0     1                 
4200035e      35e        0     1                 
4200035e      35e        0     1                 
4200035e      35e       38     2         /Users/mabez/Development/rust/embedded/experiments/esp32c3-experiments/target/riscv32imac-unknown-none-elf/debug/deps/esp32c3-0792fe58911f872d.1e78zwiugb76rjx.rcgu.o:(.text._ZN4core6result19Result$LT$T$C$E$GT$6unwrap17h8a70bf0de0389ed4E)
4200035e      35e        0     1                 
4200035e      35e        0     1                 
4200035e      35e        0     1                 
4200035e      35e       38     1                 core::result::Result$LT$T$C$E$GT$::unwrap::h8a70bf0de0389ed4
42000360      360        0     1                 
42000366      366        0     1                 
4200036e      36e        0     1                 
42000370      370        0     1                 
42000374      374        0     1                 
42000374      374        0     1                 
42000396      396        0     1                 
42000396      396        0     1                 
42000396      396        0     1                 
42000396      396        0     1                 
42000396      396       3a     2         /Users/mabez/Development/rust/embedded/experiments/esp32c3-experiments/target/riscv32imac-unknown-none-elf/debug/deps/esp32c3-0792fe58911f872d.1e78zwiugb76rjx.rcgu.o:(.text._ZN4core6result19Result$LT$T$C$E$GT$6unwrap17hf05282f66b06cdc8E)
42000396      396        0     1                 
42000396      396        0     1                 
42000396      396        0     1                 
42000396      396       3a     1                 core::result::Result$LT$T$C$E$GT$::unwrap::hf05282f66b06cdc8
42000398      398        0     1                 
420003a0      3a0        0     1                 
420003a8      3a8        0     1                 
420003aa      3aa        0     1                 
420003ae      3ae        0     1                 
420003ae      3ae        0     1                 
420003d0      3d0        0     1                 
420003d0      3d0        0     1                 
420003d0      3d0        0     1                 
420003d0      3d0        0     1                 
420003d0      3d0       18     2         /Users/mabez/Development/rust/embedded/experiments/esp32c3-experiments/target/riscv32imac-unknown-none-elf/debug/deps/esp32c3-0792fe58911f872d.1gcjs714mi186sn9.rcgu.o:(.text._ZN5riscv8register4mepc4read17ha63467ed3824251cE)
420003d0      3d0        0     1                 
420003d0      3d0        0     1                 
420003d0      3d0        0     1                 
420003d0      3d0       18     1                 riscv::register::mepc::read::ha63467ed3824251c
420003d2      3d2        0     1                 
420003d2      3d2        0     1                 
420003d4      3d4        0     1                 
420003e0      3e0        0     1                 
420003e8      3e8        0     1                 
420003e8      3e8        0     1                 
420003e8      3e8        0     1                 
420003e8      3e8       18     2         /Users/mabez/Development/rust/embedded/experiments/esp32c3-experiments/target/riscv32imac-unknown-none-elf/debug/deps/esp32c3-0792fe58911f872d.1gcjs714mi186sn9.rcgu.o:(.text._ZN5riscv8register4mepc5_read17h21bb73e145b6653cE)
420003e8      3e8       18     1                 riscv::register::mepc::_read::h21bb73e145b6653c
420003e8      3e8        0     1                 
420003e8      3e8        0     1                 
420003e8      3e8        0     1                 
420003ea      3ea        0     1                 
420003ea      3ea        0     1                 
420003ec      3ec        0     1                 
420003f8      3f8        0     1                 
42000400      400        0     1                 
42000400      400        0     1                 
42000400      400        0     1                 
42000400      400       74     2         /Users/mabez/Development/rust/embedded/experiments/esp32c3-experiments/target/riscv32imac-unknown-none-elf/debug/deps/esp32c3-0792fe58911f872d.1nerp55l46tnskb3.rcgu.o:(.text._ZN4core4sync6atomic10atomic_add17h4cf74e1f4500bec4E)
42000400      400        0     1                 
42000400      400        0     1                 
42000400      400        0     1                 
42000400      400       74     1                 core::sync::atomic::atomic_add::h4cf74e1f4500bec4
42000402      402        0     1                 
4200040e      40e        0     1                 
42000414      414        0     1                 
42000426      426        0     1                 
42000428      428        0     1                 .LBB0_3
42000428      428        0     1                 
42000434      434        0     1                 .LBB0_4
42000434      434        0     1                 
42000440      440        0     1                 .LBB0_5
42000440      440        0     1                 
4200044c      44c        0     1                 .LBB0_6
4200044c      44c        0     1                 
42000458      458        0     1                 .LBB0_7
42000458      458        0     1                 
42000464      464        0     1                 
42000466      466        0     1                 
4200046c      46c        0     1                 
4200046e      46e        0     1                 
42000470      470        0     1                 
42000472      472        0     1                 
42000474      474        0     1                 
42000474      474        0     1                 
42000474      474        0     1                 
42000474      474      292     2         /Users/mabez/Development/rust/embedded/experiments/esp32c3-experiments/target/riscv32imac-unknown-none-elf/debug/deps/esp32c3-0792fe58911f872d.1nerp55l46tnskb3.rcgu.o:(.text._ZN4core4sync6atomic23atomic_compare_exchange17h1bbe87a9f68e5ef8E)
42000474      474        0     1                 
42000474      474        0     1                 
42000474      474        0     1                 
42000474      474      292     1                 core::sync::atomic::atomic_compare_exchange::h1bbe87a9f68e5ef8
42000476      476        0     1                 
4200048a      48a        0     1                 
4200049a      49a        0     1                 
4200049e      49e        0     1                 
420004b0      4b0        0     1                 
420004b8      4b8        0     1                 
420004be      4be        0     1                 
420004c2      4c2        0     1                 
420004c8      4c8        0     1                 .LBB1_4
420004c8      4c8        0     1                 
420004ce      4ce        0     1                 
420004d4      4d4        0     1                 .LBB1_5
420004d4      4d4        0     1                 
420004da      4da        0     1                 
420004e0      4e0        0     1                 .LBB1_6
420004e0      4e0        0     1                 
420004e8      4e8        0     1                 
420004ee      4ee        0     1                 
420004f2      4f2        0     1                 
420004f8      4f8        0     1                 .LBB1_8
420004f8      4f8        0     1                 
42000500      500        0     1                 
42000506      506        0     1                 
4200050a      50a        0     1                 
42000510      510        0     1                 .LBB1_10
42000510      510        0     1                 
42000518      518        0     1                 
4200051e      51e        0     1                 
42000522      522        0     1                 
42000528      528        0     1                 
4200052c      52c        0     1                 
42000532      532        0     1                 
42000554      554        0     1                 
42000576      576        0     1                 
42000598      598        0     1                 
4200059a      59a        0     1                 
420005a0      5a0        0     1                 
420005ae      5ae        0     1                 
420005ae      5ae        0     1                 
420005b4      5b4        0     1                 
420005b4      5b4        0     1                 
420005b6      5b6        0     1                 
420005b8      5b8        0     1                 
420005da      5da        0     1                 
420005fc      5fc        0     1                 
420005fe      5fe        0     1                 
42000600      600        0     1                 
42000622      622        0     1                 
42000644      644        0     1                 
42000646      646        0     1                 
42000648      648        0     1                 
4200066a      66a        0     1                 
4200066c      66c        0     1                 
4200068e      68e        0     1                 
420006ac      6ac        0     1                 
420006ca      6ca        0     1                 
420006e8      6e8        0     1                 
420006ea      6ea        0     1                 
420006ea      6ea        0     1                 
420006f2      6f2        0     1                 
420006f4      6f4        0     1                 
420006fc      6fc        0     1                 
420006fe      6fe        0     1                 
420006fe      6fe        0     1                 
42000706      706        0     1                 
42000706      706        0     1                 
42000706      706        0     1                 
42000706      706       2c     2         /Users/mabez/Development/rust/embedded/experiments/esp32c3-experiments/target/riscv32imac-unknown-none-elf/debug/deps/esp32c3-0792fe58911f872d.297xt9owoyeiose3.rcgu.o:(.text._ZN45_$LT$$LP$$RP$$u20$as$u20$core..fmt..Debug$GT$3fmt17hf2b57382918a5624E)
42000706      706        0     1                 
42000706      706        0     1                 
42000706      706        0     1                 
42000706      706       2c     1                 _$LT$$LP$$RP$$u20$as$u20$core..fmt..Debug$GT$::fmt::hf2b57382918a5624
42000708      708        0     1                 
4200070a      70a        0     1                 
42000714      714        0     1                 
4200072a      72a        0     1                 
42000732      732        0     1                 
42000732      732        0     1                 
42000732      732        0     1                 
42000732      732       26     2         /Users/mabez/Development/rust/embedded/experiments/esp32c3-experiments/target/riscv32imac-unknown-none-elf/debug/deps/esp32c3-0792fe58911f872d.297xt9owoyeiose3.rcgu.o:(.text._ZN4core3fmt9Arguments16new_v1_formatted17hee85ac4cfdf23beaE)
42000732      732        0     1                 
42000732      732        0     1                 
42000732      732        0     1                 
42000732      732       26     1                 core::fmt::Arguments::new_v1_formatted::hee85ac4cfdf23bea
42000734      734        0     1                 
42000740      740        0     1                 
42000744      744        0     1                 
42000754      754        0     1                 
42000758      758        0     1                 
42000758      758        0     1                 
42000758      758        0     1                 
42000758      758       7e     2         /Users/mabez/Development/rust/embedded/experiments/esp32c3-experiments/target/riscv32imac-unknown-none-elf/debug/deps/esp32c3-0792fe58911f872d.297xt9owoyeiose3.rcgu.o:(.text._ZN4core3fmt9Arguments6new_v117h48759c6692677d2dE)
42000758      758        0     1                 
42000758      758        0     1                 
42000758      758        0     1                 
42000758      758       7e     1                 core::fmt::Arguments::new_v1::h48759c6692677d2d
4200075a      75a        0     1                 
4200076c      76c        0     1                 
42000772      772        0     1                 
42000778      778        0     1                 
4200077c      77c        0     1                 
42000782      782        0     1                 
42000784      784        0     1                 
42000798      798        0     1                 
420007a4      7a4        0     1                 
420007a6      7a6        0     1                 
420007b6      7b6        0     1                 
420007ba      7ba        0     1                 
420007d6      7d6        0     1                 
420007d6      7d6        0     1                 
420007d6      7d6        0     1                 
420007d6      7d6       40     2         /Users/mabez/Development/rust/embedded/experiments/esp32c3-experiments/target/riscv32imac-unknown-none-elf/debug/deps/esp32c3-0792fe58911f872d.31cobsrxn8v7n7js.rcgu.o:(.text._ZN4core3fmt5Write10write_char17h44255d0f07e2248eE)
420007d6      7d6       40     1                 core::fmt::Write::write_char::h44255d0f07e2248e
420007d6      7d6        0     1                 
420007d6      7d6        0     1                 
420007d6      7d6        0     1                 
420007d8      7d8        0     1                 
420007da      7da        0     1                 
420007e8      7e8        0     1                 
420007ee      7ee        0     1                 
420007fc      7fc        0     1                 
4200080e      80e        0     1                 
42000816      816        0     1                 
42000816      816        0     1                 
42000816      816        0     1                 
42000816      816       3e     2         /Users/mabez/Development/rust/embedded/experiments/esp32c3-experiments/target/riscv32imac-unknown-none-elf/debug/deps/esp32c3-0792fe58911f872d.31cobsrxn8v7n7js.rcgu.o:(.text._ZN4core3fmt5Write9write_fmt17hb39829715f9bf17dE)
42000816      816        0     1                 
42000816      816        0     1                 
42000816      816        0     1                 
42000816      816       3e     1                 core::fmt::Write::write_fmt::hb39829715f9bf17d
42000818      818        0     1                 
4200081a      81a        0     1                 
4200081c      81c        0     1                 
42000834      834        0     1                 
4200083c      83c        0     1                 
4200083c      83c        0     1                 
42000840      840        0     1                 
4200084c      84c        0     1                 
42000854      854        0     1                 
42000854      854        0     1                 
42000854      854        0     1                 
42000854      854       1e     2         /Users/mabez/Development/rust/embedded/experiments/esp32c3-experiments/target/riscv32imac-unknown-none-elf/debug/deps/esp32c3-0792fe58911f872d.31cobsrxn8v7n7js.rcgu.o:(.text._ZN50_$LT$$RF$mut$u20$W$u20$as$u20$core..fmt..Write$GT$10write_char17hbb3d0f4c7502fffaE)
42000854      854       1e     1                 _$LT$$RF$mut$u20$W$u20$as$u20$core..fmt..Write$GT$::write_char::hbb3d0f4c7502fffa
42000854      854        0     1                 
42000854      854        0     1                 
42000854      854        0     1                 
42000856      856        0     1                 
42000858      858        0     1                 
4200085c      85c        0     1                 
4200086a      86a        0     1                 
42000872      872        0     1                 
42000872      872        0     1                 
42000872      872        0     1                 
42000872      872       36     2         /Users/mabez/Development/rust/embedded/experiments/esp32c3-experiments/target/riscv32imac-unknown-none-elf/debug/deps/esp32c3-0792fe58911f872d.31cobsrxn8v7n7js.rcgu.o:(.text._ZN50_$LT$$RF$mut$u20$W$u20$as$u20$core..fmt..Write$GT$9write_fmt17h7e973b7aca049931E)
42000872      872       36     1                 _$LT$$RF$mut$u20$W$u20$as$u20$core..fmt..Write$GT$::write_fmt::h7e973b7aca049931
42000872      872        0     1                 
42000872      872        0     1                 
42000872      872        0     1                 
42000874      874        0     1                 
42000876      876        0     1                 
42000878      878        0     1                 
4200087a      87a        0     1                 
42000890      890        0     1                 
42000894      894        0     1                 
420008a0      8a0        0     1                 
420008a8      8a8        0     1                 
420008a8      8a8        0     1                 
420008a8      8a8        0     1                 
420008a8      8a8       20     2         /Users/mabez/Development/rust/embedded/experiments/esp32c3-experiments/target/riscv32imac-unknown-none-elf/debug/deps/esp32c3-0792fe58911f872d.31cobsrxn8v7n7js.rcgu.o:(.text._ZN50_$LT$$RF$mut$u20$W$u20$as$u20$core..fmt..Write$GT$9write_str17h007b0618d99ee4abE)
420008a8      8a8       20     1                 _$LT$$RF$mut$u20$W$u20$as$u20$core..fmt..Write$GT$::write_str::h007b0618d99ee4ab
420008a8      8a8        0     1                 
420008a8      8a8        0     1                 
420008a8      8a8        0     1                 
420008aa      8aa        0     1                 
420008ac      8ac        0     1                 
420008b2      8b2        0     1                 
420008c0      8c0        0     1                 
420008c8      8c8        0     1                 
420008c8      8c8        0     1                 
420008c8      8c8        0     1                 
420008c8      8c8       72     2         /Users/mabez/Development/rust/embedded/experiments/esp32c3-experiments/target/riscv32imac-unknown-none-elf/debug/deps/esp32c3-0792fe58911f872d.346chqw3v9dutnx9.rcgu.o:(.text.rust_begin_unwind)
420008c8      8c8        0     1                 
420008c8      8c8        0     1                 
420008c8      8c8        0     1                 
420008c8      8c8       72     1                 rust_begin_unwind
420008ca      8ca        0     1                 
420008cc      8cc        0     1                 
420008d0      8d0        0     1                 
420008d4      8d4        0     1                 
420008d4      8d4        0     1                 
420008f4      8f4        0     1                 
420008f4      8f4        0     1                 
4200091c      91c        0     1                 
42000920      920        0     1                 
42000938      938        0     1                 
4200093a      93a        0     1                 
4200093a      93a        0     1                 
4200093a      93a        0     1                 
4200093a      93a       74     2         /Users/mabez/Development/rust/embedded/experiments/esp32c3-experiments/target/riscv32imac-unknown-none-elf/debug/deps/esp32c3-0792fe58911f872d.346chqw3v9dutnx9.rcgu.o:(.text.ExceptionHandler)
4200093a      93a        0     1                 
4200093a      93a        0     1                 
4200093a      93a        0     1                 
4200093a      93a       74     1                 ExceptionHandler
4200093c      93c        0     1                 
4200093e      93e        0     1                 
42000940      940        0     1                 
4200094c      94c        0     1                 
4200094e      94e        0     1                 
42000952      952        0     1                 
42000952      952        0     1                 
42000972      972        0     1                 
42000972      972        0     1                 
420009ae      9ae        0     1                 
420009ae      9ae        0     1                 
420009ae      9ae        0     1                 
420009ae      9ae      62c     2         /Users/mabez/Development/rust/embedded/experiments/esp32c3-experiments/target/riscv32imac-unknown-none-elf/debug/deps/esp32c3-0792fe58911f872d.346chqw3v9dutnx9.rcgu.o:(.text.main)
420009ae      9ae        0     1                 
420009ae      9ae        0     1                 
420009ae      9ae        0     1                 
420009ae      9ae      62c     1                 main
420009b2      9b2        0     1                 
420009b2      9b2        0     1                 
420009b2      9b2        0     1                 
420009b6      9b6        0     1                 
420009be      9be        0     1                 
420009be      9be        0     1                 
420009c8      9c8        0     1                 
420009d4      9d4        0     1                 
420009ec      9ec        0     1                 
420009f8      9f8        0     1                 
42000a08      a08        0     1                 
42000a08      a08        0     1                 
42000a0c      a0c        0     1                 
42000a22      a22        0     1                 
42000a22      a22        0     1                 
42000a2a      a2a        0     1                 
42000a2a      a2a        0     1                 
42000a4e      a4e        0     1                 
42000a4e      a4e        0     1                 
42000a92      a92        0     1                 
42000a9c      a9c        0     1                 
42000aae      aae        0     1                 
42000aae      aae        0     1                 
42000ab8      ab8        0     1                 
42000aba      aba        0     1                 
42000ac6      ac6        0     1                 
42000ac6      ac6        0     1                 
42000ae6      ae6        0     1                 
42000aea      aea        0     1                 
42000b0a      b0a        0     1                 
42000b18      b18        0     1                 
42000b18      b18        0     1                 
42000b36      b36        0     1                 
42000b36      b36        0     1                 
42000b50      b50        0     1                 
42000b54      b54        0     1                 
42000b74      b74        0     1                 
42000b7c      b7c        0     1                 
42000b88      b88        0     1                 
42000b8a      b8a        0     1                 
42000b8a      b8a        0     1                 
42000b9a      b9a        0     1                 
42000b9c      b9c        0     1                 
42000b9c      b9c        0     1                 
42000ba2      ba2        0     1                 
42000baa      baa        0     1                 
42000bd2      bd2        0     1                 
42000bd4      bd4        0     1                 
42000bd4      bd4        0     1                 
42000bdc      bdc        0     1                 
42000bdc      bdc        0     1                 
42000bfe      bfe        0     1                 
42000bfe      bfe        0     1                 
42000c18      c18        0     1                 
42000c1c      c1c        0     1                 
42000c3c      c3c        0     1                 
42000c3e      c3e        0     1                 
42000c46      c46        0     1                 
42000c54      c54        0     1                 
42000c56      c56        0     1                 
42000c56      c56        0     1                 
42000c5e      c5e        0     1                 
42000c5e      c5e        0     1                 
42000c80      c80        0     1                 
42000c80      c80        0     1                 
42000c9a      c9a        0     1                 
42000c9e      c9e        0     1                 
42000cbe      cbe        0     1                 
42000cc0      cc0        0     1                 
42000cc8      cc8        0     1                 
42000cd6      cd6        0     1                 
42000cd8      cd8        0     1                 
42000cd8      cd8        0     1                 
42000ce0      ce0        0     1                 
42000ce0      ce0        0     1                 
42000d02      d02        0     1                 
42000d02      d02        0     1                 
42000d1c      d1c        0     1                 
42000d20      d20        0     1                 
42000d40      d40        0     1                 
42000d42      d42        0     1                 
42000d48      d48        0     1                 
42000d56      d56        0     1                 
42000d58      d58        0     1                 
42000d58      d58        0     1                 
42000d60      d60        0     1                 
42000d60      d60        0     1                 
42000d82      d82        0     1                 
42000d82      d82        0     1                 
42000d9c      d9c        0     1                 
42000da0      da0        0     1                 
42000dc0      dc0        0     1                 
42000dd6      dd6        0     1                 
42000dd8      dd8        0     1                 
42000ddc      ddc        0     1                 
42000ddc      ddc        0     1                 
42000dde      dde        0     1                 
42000dfe      dfe        0     1                 
42000e02      e02        0     1                 
42000e22      e22        0     1                 
42000e38      e38        0     1                 
42000e3a      e3a        0     1                 
42000e5a      e5a        0     1                 
42000e5c      e5c        0     1                 
42000e72      e72        0     1                 
42000e7a      e7a        0     1                 
42000e7c      e7c        0     1                 
42000e8e      e8e        0     1                 
42000e92      e92        0     1                 
42000e98      e98        0     1                 
42000eb8      eb8        0     1                 
42000ebc      ebc        0     1                 
42000edc      edc        0     1                 
42000ef2      ef2        0     1                 
42000ef4      ef4        0     1                 
42000f14      f14        0     1                 
42000f16      f16        0     1                 
42000f2c      f2c        0     1                 
42000f34      f34        0     1                 
42000f36      f36        0     1                 
42000f48      f48        0     1                 
42000f4c      f4c        0     1                 
42000f52      f52        0     1                 
42000f54      f54        0     1                 
42000f5c      f5c        0     1                 
42000f5c      f5c        0     1                 
42000f7e      f7e        0     1                 
42000f7e      f7e        0     1                 
42000f98      f98        0     1                 
42000f9c      f9c        0     1                 
42000fa6      fa6        0     1                 
42000fbc      fbc        0     1                 
42000fbe      fbe        0     1                 
42000fda      fda        0     1                 
42000fda      fda        0     1                 
42000fda      fda        0     1                 
42000fda      fda        0     1                 
42000fda      fda      232     2         /Users/mabez/Development/rust/embedded/experiments/esp32c3-experiments/target/riscv32imac-unknown-none-elf/debug/deps/esp32c3-0792fe58911f872d.3xtnx60qzz8qc3n4.rcgu.o:(.text._ZN4core4char7methods15encode_utf8_raw17h5da80e2f26e23142E)
42000fda      fda      232     1                 core::char::methods::encode_utf8_raw::h5da80e2f26e23142
42000fda      fda        0     1                 
42000fda      fda        0     1                 
42000fda      fda        0     1                 
42000fdc      fdc        0     1                 
42000fde      fde        0     1                 
42000fe8      fe8        0     1                 
42000ff4      ff4        0     1                 
42000ff4      ff4        0     1                 
42000ffa      ffa        0     1                 
42001012     1012        0     1                 
4200101e     101e        0     1                 
4200102a     102a        0     1                 
4200102e     102e        0     1                 
42001034     1034        0     1                 
42001038     1038        0     1                 
4200103e     103e        0     1                 
42001042     1042        0     1                 
42001048     1048        0     1                 
4200104e     104e        0     1                 
42001062     1062        0     1                 
42001062     1062        0     1                 
42001078     1078        0     1                 
42001078     1078        0     1                 
42001082     1082        0     1                 
4200108c     108c        0     1                 
42001096     1096        0     1                 
420010a0     10a0        0     1                 
420010a6     10a6        0     1                 
420010ac     10ac        0     1                 
420010b2     10b2        0     1                 
420010b8     10b8        0     1                 
420010b8     10b8        0     1                 
420010bc     10bc        0     1                 
420010be     10be        0     1                 
420010c6     10c6        0     1                 
420010ca     10ca        0     1                 
420010ce     10ce        0     1                 
420010d6     10d6        0     1                 
420010da     10da        0     1                 
420010de     10de        0     1                 
420010e6     10e6        0     1                 
420010ea     10ea        0     1                 
420010ee     10ee        0     1                 
420010f6     10f6        0     1                 
420010f6     10f6        0     1                 
420010f8     10f8        0     1                 
420010fe     10fe        0     1                 
42001100     1100        0     1                 
42001116     1116        0     1                 
4200111a     111a        0     1                 
42001120     1120        0     1                 
42001126     1126        0     1                 
42001126     1126        0     1                 
4200112a     112a        0     1                 
4200112c     112c        0     1                 
42001134     1134        0     1                 
42001138     1138        0     1                 
4200113c     113c        0     1                 
42001144     1144        0     1                 
42001148     1148        0     1                 
4200114c     114c        0     1                 
42001154     1154        0     1                 
42001154     1154        0     1                 
42001156     1156        0     1                 
4200115a     115a        0     1                 
42001160     1160        0     1                 
42001160     1160        0     1                 
42001164     1164        0     1                 
42001166     1166        0     1                 
4200116e     116e        0     1                 
42001172     1172        0     1                 
42001176     1176        0     1                 
4200117e     117e        0     1                 
4200117e     117e        0     1                 
42001180     1180        0     1                 
42001184     1184        0     1                 
42001184     1184        0     1                 
42001186     1186        0     1                 
4200118a     118a        0     1                 
4200118a     118a        0     1                 
4200118c     118c        0     1                 
4200118c     118c        0     1                 
42001196     1196        0     1                 
42001196     1196        0     1                 
420011de     11de        0     1                 
420011de     11de        0     1                 
4200120c     120c        0     1                 
4200120c     120c        0     1                 
4200120c     120c        0     1                 
4200120c     120c        0     1                 
4200120c     120c       34     2         /Users/mabez/Development/rust/embedded/experiments/esp32c3-experiments/target/riscv32imac-unknown-none-elf/debug/deps/esp32c3-0792fe58911f872d.3xtnx60qzz8qc3n4.rcgu.o:(.text._ZN4core4char7methods22_$LT$impl$u20$char$GT$11encode_utf817he0edade1bb21bdccE)
4200120c     120c        0     1                 
4200120c     120c        0     1                 
4200120c     120c        0     1                 
4200120c     120c       34     1                 core::char::methods::_$LT$impl$u20$char$GT$::encode_utf8::he0edade1bb21bdcc
4200120e     120e        0     1                 
42001210     1210        0     1                 
42001216     1216        0     1                 
42001224     1224        0     1                 
42001236     1236        0     1                 
42001240     1240        0     1                 
42001240     1240        0     1                 
42001240     1240        0     1                 
42001240     1240       4a     2         /Users/mabez/Development/rust/embedded/experiments/esp32c3-experiments/target/riscv32imac-unknown-none-elf/debug/deps/esp32c3-0792fe58911f872d.3xtnx60qzz8qc3n4.rcgu.o:(.text._ZN4core4char7methods8len_utf817h3f0b6692b9a9092aE)
42001240     1240       4a     1                 core::char::methods::len_utf8::h3f0b6692b9a9092a
42001240     1240        0     1                 
42001240     1240        0     1                 
42001240     1240        0     1                 
42001242     1242        0     1                 
4200124a     124a        0     1                 
42001250     1250        0     1                 
4200125c     125c        0     1                 
4200125e     125e        0     1                 
42001260     1260        0     1                 
42001262     1262        0     1                 
42001268     1268        0     1                 
42001274     1274        0     1                 
42001276     1276        0     1                 
42001278     1278        0     1                 
4200127a     127a        0     1                 
4200127c     127c        0     1                 
4200127e     127e        0     1                 
42001280     1280        0     1                 
42001282     1282        0     1                 
42001284     1284        0     1                 
42001286     1286        0     1                 
42001288     1288        0     1                 
4200128a     128a        0     1                 
4200128a     128a        0     1                 
4200128a     128a        0     1                 
4200128a     128a       24     2         /Users/mabez/Development/rust/embedded/experiments/esp32c3-experiments/target/riscv32imac-unknown-none-elf/debug/deps/esp32c3-0792fe58911f872d.4iv9b3d8r40y3mky.rcgu.o:(.text._ZN4core10intrinsics11write_bytes17hab28d79a49335502E)
4200128a     128a        0     1                 
4200128a     128a        0     1                 
4200128a     128a        0     1                 
4200128a     128a       24     1                 core::intrinsics::write_bytes::hab28d79a49335502
4200128c     128c        0     1                 
4200128e     128e        0     1                 
4200129a     129a        0     1                 
420012a8     12a8        0     1                 
420012ae     12ae        0     1                 
420012ae     12ae        0     1                 
420012ae     12ae        0     1                 
420012ae     12ae        8     2         /Users/mabez/Development/rust/embedded/experiments/esp32c3-experiments/target/riscv32imac-unknown-none-elf/debug/deps/esp32c3-0792fe58911f872d.4kaxk1bfd3ykn70p.rcgu.o:(.text._ZN4core3ptr26drop_in_place$LT$usize$GT$17h3e0dd6d9289a94c3E)
420012ae     12ae        0     1                 
420012ae     12ae        0     1                 
420012ae     12ae        0     1                 
420012ae     12ae        8     1                 core::ptr::drop_in_place$LT$usize$GT$::h3e0dd6d9289a94c3
420012b0     12b0        0     1                 
420012b2     12b2        0     1                 
420012b6     12b6        0     1                 
420012b6     12b6        0     1                 
420012b6     12b6        0     1                 
420012b6     12b6        8     2         /Users/mabez/Development/rust/embedded/experiments/esp32c3-experiments/target/riscv32imac-unknown-none-elf/debug/deps/esp32c3-0792fe58911f872d.4kaxk1bfd3ykn70p.rcgu.o:(.text._ZN4core3ptr29drop_in_place$LT$$LP$$RP$$GT$17h53906e8e81b3a26fE)
420012b6     12b6        0     1                 
420012b6     12b6        0     1                 
420012b6     12b6        0     1                 
420012b6     12b6        8     1                 core::ptr::drop_in_place$LT$$LP$$RP$$GT$::h53906e8e81b3a26f
420012b8     12b8        0     1                 
420012ba     12ba        0     1                 
420012be     12be        0     1                 
420012be     12be        0     1                 
420012be     12be        0     1                 
420012be     12be        8     2         /Users/mabez/Development/rust/embedded/experiments/esp32c3-experiments/target/riscv32imac-unknown-none-elf/debug/deps/esp32c3-0792fe58911f872d.4kaxk1bfd3ykn70p.rcgu.o:(.text._ZN4core3ptr31drop_in_place$LT$void..Void$GT$17h1148a90824e1be90E)
420012be     12be        0     1                 
420012be     12be        0     1                 
420012be     12be        0     1                 
420012be     12be        8     1                 core::ptr::drop_in_place$LT$void..Void$GT$::h1148a90824e1be90
420012c0     12c0        0     1                 
420012c2     12c2        0     1                 
420012c6     12c6        0     1                 
420012c6     12c6        0     1                 
420012c6     12c6        0     1                 
420012c6     12c6        8     2         /Users/mabez/Development/rust/embedded/experiments/esp32c3-experiments/target/riscv32imac-unknown-none-elf/debug/deps/esp32c3-0792fe58911f872d.4kaxk1bfd3ykn70p.rcgu.o:(.text._ZN4core3ptr37drop_in_place$LT$core..fmt..Error$GT$17h6babaf0163f06a86E)
420012c6     12c6        0     1                 
420012c6     12c6        0     1                 
420012c6     12c6        0     1                 
420012c6     12c6        8     1                 core::ptr::drop_in_place$LT$core..fmt..Error$GT$::h6babaf0163f06a86
420012c8     12c8        0     1                 
420012ca     12ca        0     1                 
420012ce     12ce        0     1                 
420012ce     12ce        0     1                 
420012ce     12ce        0     1                 
420012ce     12ce        8     2         /Users/mabez/Development/rust/embedded/experiments/esp32c3-experiments/target/riscv32imac-unknown-none-elf/debug/deps/esp32c3-0792fe58911f872d.4kaxk1bfd3ykn70p.rcgu.o:(.text._ZN4core3ptr50drop_in_place$LT$$RF$mut$u20$esp32c3_lib..Uart$GT$17h40093b4ce0dedbacE)
420012ce     12ce        0     1                 
420012ce     12ce        0     1                 
420012ce     12ce        0     1                 
420012ce     12ce        8     1                 core::ptr::drop_in_place$LT$$RF$mut$u20$esp32c3_lib..Uart$GT$::h40093b4ce0dedbac
420012d0     12d0        0     1                 
420012d2     12d2        0     1                 
420012d6     12d6        0     1                 
420012d6     12d6        0     1                 
420012d6     12d6        0     1                 
420012d6     12d6       48     2         /Users/mabez/Development/rust/embedded/experiments/esp32c3-experiments/target/riscv32imac-unknown-none-elf/debug/deps/esp32c3-0792fe58911f872d.4mcsimr84tlfxm5.rcgu.o:(.text._ZN4core4sync6atomic11AtomicUsize16compare_exchange17h9786935b160ba941E)
420012d6     12d6        0     1                 
420012d6     12d6        0     1                 
420012d6     12d6        0     1                 
420012d6     12d6       48     1                 core::sync::atomic::AtomicUsize::compare_exchange::h9786935b160ba941
420012d8     12d8        0     1                 
420012da     12da        0     1                 
420012f4     12f4        0     1                 
420012fc     12fc        0     1                 
42001314     1314        0     1                 
4200131e     131e        0     1                 
4200131e     131e        0     1                 
4200131e     131e        0     1                 
4200131e     131e       14     2         /Users/mabez/Development/rust/embedded/experiments/esp32c3-experiments/target/riscv32imac-unknown-none-elf/debug/deps/esp32c3-0792fe58911f872d.4mcsimr84tlfxm5.rcgu.o:(.text._ZN4core4sync6atomic11AtomicUsize3new17hebf1a389c8ac79f9E)
4200131e     131e        0     1                 
4200131e     131e        0     1                 
4200131e     131e        0     1                 
4200131e     131e       14     1                 core::sync::atomic::AtomicUsize::new::hebf1a389c8ac79f9
42001320     1320        0     1                 
42001324     1324        0     1                 
42001324     1324        0     1                 
42001326     1326        0     1                 
42001326     1326        0     1                 
4200132a     132a        0     1                 
4200132e     132e        0     1                 
42001332     1332        0     1                 
42001332     1332        0     1                 
42001332     1332        0     1                 
42001332     1332       2e     2         /Users/mabez/Development/rust/embedded/experiments/esp32c3-experiments/target/riscv32imac-unknown-none-elf/debug/deps/esp32c3-0792fe58911f872d.4mcsimr84tlfxm5.rcgu.o:(.text._ZN4core4sync6atomic11AtomicUsize4load17hec795f0b9f922f85E)
42001332     1332        0     1                 
42001332     1332        0     1                 
42001332     1332        0     1                 
42001332     1332       2e     1                 core::sync::atomic::AtomicUsize::load::hec795f0b9f922f85
42001334     1334        0     1                 
42001336     1336        0     1                 
42001340     1340        0     1                 
42001348     1348        0     1                 
42001358     1358        0     1                 
42001360     1360        0     1                 
42001360     1360        0     1                 
42001360     1360        0     1                 
42001360     1360       34     2         /Users/mabez/Development/rust/embedded/experiments/esp32c3-experiments/target/riscv32imac-unknown-none-elf/debug/deps/esp32c3-0792fe58911f872d.4mcsimr84tlfxm5.rcgu.o:(.text._ZN4core4sync6atomic11AtomicUsize9fetch_add17hceba989a4187c109E)
42001360     1360        0     1                 
42001360     1360        0     1                 
42001360     1360        0     1                 
42001360     1360       34     1                 core::sync::atomic::AtomicUsize::fetch_add::hceba989a4187c109
42001362     1362        0     1                 
42001364     1364        0     1                 
42001372     1372        0     1                 
4200137a     137a        0     1                 
4200138c     138c        0     1                 
42001394     1394        0     1                 
42001394     1394        0     1                 
42001394     1394        0     1                 
42001394     1394       86     2         /Users/mabez/Development/rust/embedded/experiments/esp32c3-experiments/target/riscv32imac-unknown-none-elf/debug/deps/esp32c3-0792fe58911f872d.4zdnir3iq20zjvph.rcgu.o:(.text._ZN4core3fmt3num52_$LT$impl$u20$core..fmt..Debug$u20$for$u20$usize$GT$3fmt17h5506760918695048E)
42001394     1394        0     1                 
42001394     1394        0     1                 
42001394     1394        0     1                 
42001394     1394       86     1                 core::fmt::num::_$LT$impl$u20$core..fmt..Debug$u20$for$u20$usize$GT$::fmt::h5506760918695048
42001396     1396        0     1                 
42001398     1398        0     1                 
420013a4     13a4        0     1                 
420013b0     13b0        0     1                 
420013b4     13b4        0     1                 
420013ba     13ba        0     1                 
420013c8     13c8        0     1                 
420013da     13da        0     1                 
420013dc     13dc        0     1                 
420013e6     13e6        0     1                 
420013ea     13ea        0     1                 
420013f0     13f0        0     1                 
42001402     1402        0     1                 
42001414     1414        0     1                 
42001416     1416        0     1                 
42001418     1418        0     1                 
4200141a     141a        0     1                 
4200141a     141a        0     1                 
4200141a     141a        0     1                 
4200141a     141a       24     2         /Users/mabez/Development/rust/embedded/experiments/esp32c3-experiments/target/riscv32imac-unknown-none-elf/debug/deps/esp32c3-0792fe58911f872d.52qxoexx5thxmllb.rcgu.o:(.text._ZN44_$LT$$RF$T$u20$as$u20$core..fmt..Display$GT$3fmt17hf6882428ffa82c75E)
4200141a     141a        0     1                 
4200141a     141a        0     1                 
4200141a     141a        0     1                 
4200141a     141a       24     1                 _$LT$$RF$T$u20$as$u20$core..fmt..Display$GT$::fmt::hf6882428ffa82c75
4200141c     141c        0     1                 
4200141e     141e        0     1                 
42001426     1426        0     1                 
4200142a     142a        0     1                 
42001436     1436        0     1                 
4200143e     143e        0     1                 
4200143e     143e        0     1                 
4200143e     143e        0     1                 
4200143e     143e       22     2         /Users/mabez/Development/rust/embedded/experiments/esp32c3-experiments/target/riscv32imac-unknown-none-elf/debug/deps/esp32c3-0792fe58911f872d.52qxoexx5thxmllb.rcgu.o:(.text._ZN4core3fmt10ArgumentV13new17h0852de1aefe33fc2E)
4200143e     143e        0     1                 
4200143e     143e        0     1                 
4200143e     143e        0     1                 
4200143e     143e       22     1                 core::fmt::ArgumentV1::new::h0852de1aefe33fc2
42001440     1440        0     1                 
42001446     1446        0     1                 
4200144c     144c        0     1                 
42001454     1454        0     1                 
4200145c     145c        0     1                 
42001460     1460        0     1                 
42001460     1460        0     1                 
42001460     1460        0     1                 
42001460     1460       22     2         /Users/mabez/Development/rust/embedded/experiments/esp32c3-experiments/target/riscv32imac-unknown-none-elf/debug/deps/esp32c3-0792fe58911f872d.52qxoexx5thxmllb.rcgu.o:(.text._ZN4core3fmt10ArgumentV13new17h167765044246e96fE)
42001460     1460        0     1                 
42001460     1460        0     1                 
42001460     1460        0     1                 
42001460     1460       22     1                 core::fmt::ArgumentV1::new::h167765044246e96f
42001462     1462        0     1                 
42001468     1468        0     1                 
4200146e     146e        0     1                 
42001476     1476        0     1                 
4200147e     147e        0     1                 
42001482     1482        0     1                 
42001482     1482        0     1                 
42001482     1482        0     1                 
42001482     1482       22     2         /Users/mabez/Development/rust/embedded/experiments/esp32c3-experiments/target/riscv32imac-unknown-none-elf/debug/deps/esp32c3-0792fe58911f872d.52qxoexx5thxmllb.rcgu.o:(.text._ZN4core3fmt10ArgumentV13new17hdc341d13aa674228E)
42001482     1482        0     1                 
42001482     1482        0     1                 
42001482     1482        0     1                 
42001482     1482       22     1                 core::fmt::ArgumentV1::new::hdc341d13aa674228
42001484     1484        0     1                 
4200148a     148a        0     1                 
42001490     1490        0     1                 
42001498     1498        0     1                 
420014a0     14a0        0     1                 
420014a4     14a4        0     1                 
420014a4     14a4        0     1                 
420014a4     14a4        0     1                 
420014a4     14a4       1e     2         /Users/mabez/Development/rust/embedded/experiments/esp32c3-experiments/target/riscv32imac-unknown-none-elf/debug/deps/esp32c3-0792fe58911f872d.rcp7xlzvmfzbh1y.rcgu.o:(.text._ZN42_$LT$$RF$T$u20$as$u20$core..fmt..Debug$GT$3fmt17h14acd21ec727fc9cE)
420014a4     14a4        0     1                 
420014a4     14a4        0     1                 
420014a4     14a4        0     1                 
420014a4     14a4       1e     1                 _$LT$$RF$T$u20$as$u20$core..fmt..Debug$GT$::fmt::h14acd21ec727fc9c
420014a6     14a6        0     1                 
420014a8     14a8        0     1                 
420014ac     14ac        0     1                 
420014ae     14ae        0     1                 
420014ba     14ba        0     1                 
420014c2     14c2        0     1                 
420014c2     14c2        0     1                 
420014c2     14c2        0     1                 
420014c2     14c2        a     2         /Users/mabez/Development/rust/embedded/experiments/esp32c3-experiments/target/riscv32imac-unknown-none-elf/debug/deps/esp32c3-0792fe58911f872d.zm6375jlykl6cny.rcgu.o:(.text._ZN4core3str8converts23from_utf8_unchecked_mut17habe44b782a420d20E)
420014c2     14c2        0     1                 
420014c2     14c2        0     1                 
420014c2     14c2        0     1                 
420014c2     14c2        a     1                 core::str::converts::from_utf8_unchecked_mut::habe44b782a420d20
420014c4     14c4        0     1                 
420014c8     14c8        0     1                 
420014cc     14cc        0     1                 
420014cc     14cc        0     1                 
420014cc     14cc        0     1                 
420014cc     14cc       20     2         /Users/mabez/Development/rust/embedded/experiments/esp32c3-experiments/target/riscv32imac-unknown-none-elf/debug/deps/librtt_target-c8a503ffaa8773f6.rlib(rtt_target-c8a503ffaa8773f6.rtt_target.49ad93cd-cgu.0.rcgu.o):(.text._ZN4core3cmp9PartialEq2ne17hec0e6c937277feb3E)
420014cc     14cc        0     1                 
420014cc     14cc        0     1                 
420014cc     14cc        0     1                 
420014cc     14cc       20     1                 core::cmp::PartialEq::ne::hec0e6c937277feb3
420014ce     14ce        0     1                 
420014d0     14d0        0     1                 
420014d4     14d4        0     1                 
420014e0     14e0        0     1                 
420014e6     14e6        0     1                 
420014ec     14ec        0     1                 
420014ec     14ec        0     1                 
420014ec     14ec        0     1                 
420014ec     14ec       9c     2         /Users/mabez/Development/rust/embedded/experiments/esp32c3-experiments/target/riscv32imac-unknown-none-elf/debug/deps/librtt_target-c8a503ffaa8773f6.rlib(rtt_target-c8a503ffaa8773f6.rtt_target.49ad93cd-cgu.0.rcgu.o):(.text._ZN10rtt_target3rtt9RttHeader4init17h4d693419b8658612E)
420014ec     14ec        0     1                 
420014ec     14ec        0     1                 
420014ec     14ec        0     1                 
420014ec     14ec       9c     1                 rtt_target::rtt::RttHeader::init::h4d693419b8658612
420014ee     14ee        0     1                 
420014f0     14f0        0     1                 
420014fa     14fa        0     1                 
420014fc     14fc        0     1                 
42001506     1506        0     1                 
4200150c     150c        0     1                 
42001516     1516        0     1                 
42001526     1526        0     1                 
4200153c     153c        0     1                 
4200153e     153e        0     1                 
42001542     1542        0     1                 
4200154c     154c        0     1                 
4200155c     155c        0     1                 
42001564     1564        0     1                 
42001564     1564        0     1                 
4200156a     156a        0     1                 
4200156a     156a        0     1                 
4200156c     156c        0     1                 
42001582     1582        0     1                 
42001588     1588        0     1                 
42001588     1588        0     1                 
42001588     1588        0     1                 
42001588     1588       54     2         /Users/mabez/Development/rust/embedded/experiments/esp32c3-experiments/target/riscv32imac-unknown-none-elf/debug/deps/librtt_target-c8a503ffaa8773f6.rlib(rtt_target-c8a503ffaa8773f6.rtt_target.49ad93cd-cgu.0.rcgu.o):(.text._ZN10rtt_target3rtt10RttChannel4init17hec7e9bf6b5def9baE)
42001588     1588        0     1                 
42001588     1588        0     1                 
42001588     1588        0     1                 
42001588     1588       54     1                 rtt_target::rtt::RttChannel::init::hec7e9bf6b5def9ba
4200158a     158a        0     1                 
4200158c     158c        0     1                 
4200159e     159e        0     1                 
420015a8     15a8        0     1                 
420015ae     15ae        0     1                 
420015b8     15b8        0     1                 
420015c6     15c6        0     1                 
420015cc     15cc        0     1                 
420015d6     15d6        0     1                 
420015dc     15dc        0     1                 
420015dc     15dc        0     1                 
420015dc     15dc        0     1                 
420015dc     15dc       3e     2         /Users/mabez/Development/rust/embedded/experiments/esp32c3-experiments/target/riscv32imac-unknown-none-elf/debug/deps/librtt_target-c8a503ffaa8773f6.rlib(rtt_target-c8a503ffaa8773f6.rtt_target.49ad93cd-cgu.0.rcgu.o):(.text._ZN10rtt_target3rtt10RttChannel4mode17ha83b053b6f41e2f2E)
420015dc     15dc        0     1                 
420015dc     15dc        0     1                 
420015dc     15dc        0     1                 
420015dc     15dc       3e     1                 rtt_target::rtt::RttChannel::mode::ha83b053b6f41e2f2
420015de     15de        0     1                 
420015e0     15e0        0     1                 
420015e2     15e2        0     1                 
420015e6     15e6        0     1                 
420015ea     15ea        0     1                 
42001600     1600        0     1                 
42001600     1600        0     1                 
42001606     1606        0     1                 
42001608     1608        0     1                 
4200160a     160a        0     1                 
4200160c     160c        0     1                 
42001612     1612        0     1                 
42001612     1612        0     1                 
4200161a     161a        0     1                 
4200161a     161a        0     1                 
4200161a     161a        0     1                 
4200161a     161a       40     2         /Users/mabez/Development/rust/embedded/experiments/esp32c3-experiments/target/riscv32imac-unknown-none-elf/debug/deps/librtt_target-c8a503ffaa8773f6.rlib(rtt_target-c8a503ffaa8773f6.rtt_target.49ad93cd-cgu.0.rcgu.o):(.text._ZN10rtt_target3rtt10RttChannel8set_mode17h4bac0e8984122c31E)
4200161a     161a        0     1                 
4200161a     161a        0     1                 
4200161a     161a        0     1                 
4200161a     161a       40     1                 rtt_target::rtt::RttChannel::set_mode::h4bac0e8984122c31
4200161c     161c        0     1                 
4200161e     161e        0     1                 
42001624     1624        0     1                 
4200162a     162a        0     1                 
4200162e     162e        0     1                 
4200163a     163a        0     1                 
42001646     1646        0     1                 
4200164a     164a        0     1                 
42001654     1654        0     1                 
4200165a     165a        0     1                 
4200165a     165a        0     1                 
4200165a     165a        0     1                 
4200165a     165a       32     2         /Users/mabez/Development/rust/embedded/experiments/esp32c3-experiments/target/riscv32imac-unknown-none-elf/debug/deps/librtt_target-c8a503ffaa8773f6.rlib(rtt_target-c8a503ffaa8773f6.rtt_target.49ad93cd-cgu.0.rcgu.o):(.text._ZN10rtt_target3rtt10RttChannel6writer17h2efe1aba21462929E)
4200165a     165a        0     1                 
4200165a     165a        0     1                 
4200165a     165a        0     1                 
4200165a     165a       32     1                 rtt_target::rtt::RttChannel::writer::h2efe1aba21462929
4200165c     165c        0     1                 
4200165e     165e        0     1                 
42001668     1668        0     1                 
42001674     1674        0     1                 
42001686     1686        0     1                 
4200168c     168c        0     1                 
4200168c     168c        0     1                 
4200168c     168c        0     1                 
4200168c     168c       b8     2         /Users/mabez/Development/rust/embedded/experiments/esp32c3-experiments/target/riscv32imac-unknown-none-elf/debug/deps/librtt_target-c8a503ffaa8773f6.rlib(rtt_target-c8a503ffaa8773f6.rtt_target.49ad93cd-cgu.0.rcgu.o):(.text._ZN10rtt_target3rtt10RttChannel13read_pointers17h5aded0d9f73bac04E)
4200168c     168c       b8     1                 rtt_target::rtt::RttChannel::read_pointers::h5aded0d9f73bac04
4200168c     168c        0     1                 
4200168c     168c        0     1                 
4200168c     168c        0     1                 
4200168e     168e        0     1                 
42001690     1690        0     1                 
42001694     1694        0     1                 
42001698     1698        0     1                 
4200169c     169c        0     1                 
420016ac     16ac        0     1                 
420016ac     16ac        0     1                 
420016b2     16b2        0     1                 
420016b6     16b6        0     1                 
420016c6     16c6        0     1                 
420016c6     16c6        0     1                 
420016cc     16cc        0     1                 
420016d2     16d2        0     1                 
420016d8     16d8        0     1                 
420016e0     16e0        0     1                 
420016e6     16e6        0     1                 
420016e8     16e8        0     1                 
420016fc     16fc        0     1                 
42001704     1704        0     1                 
42001704     1704        0     1                 
42001706     1706        0     1                 
42001706     1706        0     1                 
4200170c     170c        0     1                 
42001712     1712        0     1                 
4200171c     171c        0     1                 
42001722     1722        0     1                 
42001728     1728        0     1                 
42001732     1732        0     1                 
42001734     1734        0     1                 
42001738     1738        0     1                 
42001738     1738        0     1                 
42001744     1744        0     1                 
42001744     1744        0     1                 
42001744     1744        0     1                 
42001744     1744       36     2         /Users/mabez/Development/rust/embedded/experiments/esp32c3-experiments/target/riscv32imac-unknown-none-elf/debug/deps/librtt_target-c8a503ffaa8773f6.rlib(rtt_target-c8a503ffaa8773f6.rtt_target.49ad93cd-cgu.0.rcgu.o):(.text._ZN10rtt_target3rtt9RttWriter5write17hcb1853deafcd2789E)
42001744     1744        0     1                 
42001744     1744        0     1                 
42001744     1744        0     1                 
42001744     1744       36     1                 rtt_target::rtt::RttWriter::write::hcb1853deafcd2789
42001746     1746        0     1                 
42001748     1748        0     1                 
42001754     1754        0     1                 
42001762     1762        0     1                 
42001774     1774        0     1                 
4200177a     177a        0     1                 
4200177a     177a        0     1                 
4200177a     177a        0     1                 
4200177a     177a      1b6     2         /Users/mabez/Development/rust/embedded/experiments/esp32c3-experiments/target/riscv32imac-unknown-none-elf/debug/deps/librtt_target-c8a503ffaa8773f6.rlib(rtt_target-c8a503ffaa8773f6.rtt_target.49ad93cd-cgu.0.rcgu.o):(.text._ZN10rtt_target3rtt9RttWriter15write_with_mode17h24028f9197bf41b6E)
4200177a     177a        0     1                 
4200177a     177a        0     1                 
4200177a     177a        0     1                 
4200177a     177a      1b6     1                 rtt_target::rtt::RttWriter::write_with_mode::h24028f9197bf41b6
4200177c     177c        0     1                 
4200177e     177e        0     1                 
42001788     1788        0     1                 
4200178a     178a        0     1                 
420017a2     17a2        0     1                 
420017a6     17a6        0     1                 
420017ac     17ac        0     1                 
420017ae     17ae        0     1                 
420017b4     17b4        0     1                 
420017c4     17c4        0     1                 
420017ca     17ca        0     1                 
420017de     17de        0     1                 
420017e4     17e4        0     1                 
420017f2     17f2        0     1                 
420017f6     17f6        0     1                 
42001806     1806        0     1                 
4200180a     180a        0     1                 
4200180a     180a        0     1                 
42001810     1810        0     1                 
42001816     1816        0     1                 
4200181c     181c        0     1                 
42001820     1820        0     1                 
42001828     1828        0     1                 
42001838     1838        0     1                 
4200183a     183a        0     1                 
4200183e     183e        0     1                 
42001842     1842        0     1                 
42001846     1846        0     1                 
42001846     1846        0     1                 
42001848     1848        0     1                 
4200184c     184c        0     1                 
4200184c     184c        0     1                 
42001850     1850        0     1                 
42001854     1854        0     1                 
42001856     1856        0     1                 
4200185c     185c        0     1                 
42001860     1860        0     1                 
42001864     1864        0     1                 
4200186e     186e        0     1                 
42001874     1874        0     1                 
4200187a     187a        0     1                 
4200187a     187a        0     1                 
42001880     1880        0     1                 
42001880     1880        0     1                 
42001882     1882        0     1                 
42001892     1892        0     1                 
420018aa     18aa        0     1                 
420018b6     18b6        0     1                 
420018d2     18d2        0     1                 
420018d8     18d8        0     1                 
420018da     18da        0     1                 
420018de     18de        0     1                 
420018e4     18e4        0     1                 
42001900     1900        0     1                 
42001906     1906        0     1                 
42001908     1908        0     1                 
4200191e     191e        0     1                 
42001922     1922        0     1                 
42001924     1924        0     1                 
42001926     1926        0     1                 
4200192e     192e        0     1                 
4200192e     192e        0     1                 
42001930     1930        0     1                 
42001930     1930        0     1                 
42001930     1930        0     1                 
42001930     1930      134     2         /Users/mabez/Development/rust/embedded/experiments/esp32c3-experiments/target/riscv32imac-unknown-none-elf/debug/deps/librtt_target-c8a503ffaa8773f6.rlib(rtt_target-c8a503ffaa8773f6.rtt_target.49ad93cd-cgu.0.rcgu.o):(.text._ZN10rtt_target3rtt9RttWriter19writable_contiguous17h9e673bc3515c81ffE)
42001930     1930      134     1                 rtt_target::rtt::RttWriter::writable_contiguous::h9e673bc3515c81ff
42001930     1930        0     1                 
42001930     1930        0     1                 
42001930     1930        0     1                 
42001932     1932        0     1                 
42001934     1934        0     1                 
42001938     1938        0     1                 
4200194c     194c        0     1                 
4200194c     194c        0     1                 
4200194e     194e        0     1                 
42001954     1954        0     1                 
42001958     1958        0     1                 
4200195e     195e        0     1                 
42001964     1964        0     1                 
420019a0     19a0        0     1                 
420019a2     19a2        0     1                 
420019c0     19c0        0     1                 
420019c0     19c0        0     1                 
420019c8     19c8        0     1                 
420019c8     19c8        0     1                 
420019ce     19ce        0     1                 
420019d0     19d0        0     1                 
420019dc     19dc        0     1                 
420019e2     19e2        0     1                 
420019e4     19e4        0     1                 
420019f4     19f4        0     1                 
420019f6     19f6        0     1                 
42001a14     1a14        0     1                 
42001a44     1a44        0     1                 
42001a46     1a46        0     1                 
42001a64     1a64        0     1                 
42001a64     1a64        0     1                 
42001a64     1a64        0     1                 
42001a64     1a64        0     1                 
42001a64     1a64       24     2         /Users/mabez/Development/rust/embedded/experiments/esp32c3-experiments/target/riscv32imac-unknown-none-elf/debug/deps/librtt_target-c8a503ffaa8773f6.rlib(rtt_target-c8a503ffaa8773f6.rtt_target.49ad93cd-cgu.0.rcgu.o):(.text._ZN10rtt_target3rtt9RttWriter9is_failed17h069d5635b9054980E)
42001a64     1a64        0     1                 
42001a64     1a64        0     1                 
42001a64     1a64        0     1                 
42001a64     1a64       24     1                 rtt_target::rtt::RttWriter::is_failed::h069d5635b9054980
42001a66     1a66        0     1                 
42001a68     1a68        0     1                 
42001a6a     1a6a        0     1                 
42001a80     1a80        0     1                 
42001a88     1a88        0     1                 
42001a88     1a88        0     1                 
42001a88     1a88        0     1                 
42001a88     1a88       44     2         /Users/mabez/Development/rust/embedded/experiments/esp32c3-experiments/target/riscv32imac-unknown-none-elf/debug/deps/librtt_target-c8a503ffaa8773f6.rlib(rtt_target-c8a503ffaa8773f6.rtt_target.49ad93cd-cgu.0.rcgu.o):(.text._ZN10rtt_target3rtt9RttWriter11commit_impl17h8558264726f7d9d6E)
42001a88     1a88       44     1                 rtt_target::rtt::RttWriter::commit_impl::h8558264726f7d9d6
42001a88     1a88        0     1                 
42001a88     1a88        0     1                 
42001a88     1a88        0     1                 
42001a8a     1a8a        0     1                 
42001a8c     1a8c        0     1                 
42001a90     1a90        0     1                 
42001a96     1a96        0     1                 
42001a9e     1a9e        0     1                 
42001aa0     1aa0        0     1                 
42001aa6     1aa6        0     1                 
42001aaa     1aaa        0     1                 
42001aae     1aae        0     1                 
42001ab8     1ab8        0     1                 
42001abe     1abe        0     1                 
42001ac2     1ac2        0     1                 
42001ac6     1ac6        0     1                 
42001aca     1aca        0     1                 
42001acc     1acc        0     1                 
42001acc     1acc        0     1                 
42001acc     1acc        0     1                 
42001acc     1acc       16     2         /Users/mabez/Development/rust/embedded/experiments/esp32c3-experiments/target/riscv32imac-unknown-none-elf/debug/deps/librtt_target-c8a503ffaa8773f6.rlib(rtt_target-c8a503ffaa8773f6.rtt_target.49ad93cd-cgu.0.rcgu.o):(.text._ZN68_$LT$rtt_target..rtt..RttWriter$u20$as$u20$core..ops..drop..Drop$GT$4drop17h2e0cb3611b69e966E)
42001acc     1acc        0     1                 
42001acc     1acc        0     1                 
42001acc     1acc        0     1                 
42001acc     1acc       16     1                 _$LT$rtt_target..rtt..RttWriter$u20$as$u20$core..ops..drop..Drop$GT$::drop::h2e0cb3611b69e966
42001ace     1ace        0     1                 
42001ad0     1ad0        0     1                 
42001ad2     1ad2        0     1                 
42001adc     1adc        0     1                 
42001ae2     1ae2        0     1                 
42001ae2     1ae2        0     1                 
42001ae2     1ae2        0     1                 
42001ae2     1ae2       30     2         /Users/mabez/Development/rust/embedded/experiments/esp32c3-experiments/target/riscv32imac-unknown-none-elf/debug/deps/librtt_target-c8a503ffaa8773f6.rlib(rtt_target-c8a503ffaa8773f6.rtt_target.49ad93cd-cgu.0.rcgu.o):(.text._ZN68_$LT$rtt_target..rtt..WriteState$u20$as$u20$core..cmp..PartialEq$GT$2eq17hc1a3150090d04ad6E)
42001ae2     1ae2       30     1                 _$LT$rtt_target..rtt..WriteState$u20$as$u20$core..cmp..PartialEq$GT$::eq::hc1a3150090d04ad6
42001ae2     1ae2        0     1                 
42001ae2     1ae2        0     1                 
42001ae2     1ae2        0     1                 
42001ae4     1ae4        0     1                 
42001ae8     1ae8        0     1                 
42001aee     1aee        0     1                 
42001aee     1aee        0     1                 
42001af4     1af4        0     1                 
42001af4     1af4        0     1                 
42001afa     1afa        0     1                 
42001afc     1afc        0     1                 
42001b02     1b02        0     1                 
42001b04     1b04        0     1                 
42001b0a     1b0a        0     1                 
42001b0a     1b0a        0     1                 
42001b12     1b12        0     1                 
42001b12     1b12        0     1                 
42001b12     1b12        0     1                 
42001b12     1b12      232     2         /Users/mabez/Development/rust/embedded/experiments/esp32c3-experiments/target/riscv32imac-unknown-none-elf/debug/deps/librtt_target-c8a503ffaa8773f6.rlib(rtt_target-c8a503ffaa8773f6.rtt_target.49ad93cd-cgu.1.rcgu.o):(.text._ZN4core4char7methods15encode_utf8_raw17h105eba7d012ec7c6E)
42001b12     1b12      232     1                 core::char::methods::encode_utf8_raw::h105eba7d012ec7c6
42001b12     1b12        0     1                 
42001b12     1b12        0     1                 
42001b12     1b12        0     1                 
42001b14     1b14        0     1                 
42001b16     1b16        0     1                 
42001b20     1b20        0     1                 
42001b2c     1b2c        0     1                 
42001b2c     1b2c        0     1                 
42001b32     1b32        0     1                 
42001b4a     1b4a        0     1                 
42001b56     1b56        0     1                 
42001b62     1b62        0     1                 
42001b66     1b66        0     1                 
42001b6c     1b6c        0     1                 
42001b70     1b70        0     1                 
42001b76     1b76        0     1                 
42001b7a     1b7a        0     1                 
42001b80     1b80        0     1                 
42001b86     1b86        0     1                 
42001b9a     1b9a        0     1                 
42001b9a     1b9a        0     1                 
42001bb0     1bb0        0     1                 
42001bb0     1bb0        0     1                 
42001bba     1bba        0     1                 
42001bc4     1bc4        0     1                 
42001bce     1bce        0     1                 
42001bd8     1bd8        0     1                 
42001bde     1bde        0     1                 
42001be4     1be4        0     1                 
42001bea     1bea        0     1                 
42001bf0     1bf0        0     1                 
42001bf0     1bf0        0     1                 
42001bf4     1bf4        0     1                 
42001bf6     1bf6        0     1                 
42001bfe     1bfe        0     1                 
42001c02     1c02        0     1                 
42001c06     1c06        0     1                 
42001c0e     1c0e        0     1                 
42001c12     1c12        0     1                 
42001c16     1c16        0     1                 
42001c1e     1c1e        0     1                 
42001c22     1c22        0     1                 
42001c26     1c26        0     1                 
42001c2e     1c2e        0     1                 
42001c2e     1c2e        0     1                 
42001c30     1c30        0     1                 
42001c36     1c36        0     1                 
42001c38     1c38        0     1                 
42001c4e     1c4e        0     1                 
42001c52     1c52        0     1                 
42001c58     1c58        0     1                 
42001c5e     1c5e        0     1                 
42001c5e     1c5e        0     1                 
42001c62     1c62        0     1                 
42001c64     1c64        0     1                 
42001c6c     1c6c        0     1                 
42001c70     1c70        0     1                 
42001c74     1c74        0     1                 
42001c7c     1c7c        0     1                 
42001c80     1c80        0     1                 
42001c84     1c84        0     1                 
42001c8c     1c8c        0     1                 
42001c8c     1c8c        0     1                 
42001c8e     1c8e        0     1                 
42001c92     1c92        0     1                 
42001c98     1c98        0     1                 
42001c98     1c98        0     1                 
42001c9c     1c9c        0     1                 
42001c9e     1c9e        0     1                 
42001ca6     1ca6        0     1                 
42001caa     1caa        0     1                 
42001cae     1cae        0     1                 
42001cb6     1cb6        0     1                 
42001cb6     1cb6        0     1                 
42001cb8     1cb8        0     1                 
42001cbc     1cbc        0     1                 
42001cbc     1cbc        0     1                 
42001cbe     1cbe        0     1                 
42001cc2     1cc2        0     1                 
42001cc2     1cc2        0     1                 
42001cc4     1cc4        0     1                 
42001cc4     1cc4        0     1                 
42001cce     1cce        0     1                 
42001cce     1cce        0     1                 
42001d16     1d16        0     1                 
42001d16     1d16        0     1                 
42001d44     1d44        0     1                 
42001d44     1d44        0     1                 
42001d44     1d44        0     1                 
42001d44     1d44        0     1                 
42001d44     1d44       34     2         /Users/mabez/Development/rust/embedded/experiments/esp32c3-experiments/target/riscv32imac-unknown-none-elf/debug/deps/librtt_target-c8a503ffaa8773f6.rlib(rtt_target-c8a503ffaa8773f6.rtt_target.49ad93cd-cgu.1.rcgu.o):(.text._ZN4core4char7methods22_$LT$impl$u20$char$GT$11encode_utf817ha4dfdf723a1194fbE)
42001d44     1d44        0     1                 
42001d44     1d44        0     1                 
42001d44     1d44        0     1                 
42001d44     1d44       34     1                 core::char::methods::_$LT$impl$u20$char$GT$::encode_utf8::ha4dfdf723a1194fb
42001d46     1d46        0     1                 
42001d48     1d48        0     1                 
42001d4e     1d4e        0     1                 
42001d5c     1d5c        0     1                 
42001d6e     1d6e        0     1                 
42001d78     1d78        0     1                 
42001d78     1d78        0     1                 
42001d78     1d78        0     1                 
42001d78     1d78       4a     2         /Users/mabez/Development/rust/embedded/experiments/esp32c3-experiments/target/riscv32imac-unknown-none-elf/debug/deps/librtt_target-c8a503ffaa8773f6.rlib(rtt_target-c8a503ffaa8773f6.rtt_target.49ad93cd-cgu.1.rcgu.o):(.text._ZN4core4char7methods8len_utf817h8cec457acf071e25E)
42001d78     1d78       4a     1                 core::char::methods::len_utf8::h8cec457acf071e25
42001d78     1d78        0     1                 
42001d78     1d78        0     1                 
42001d78     1d78        0     1                 
42001d7a     1d7a        0     1                 
42001d82     1d82        0     1                 
42001d88     1d88        0     1                 
42001d94     1d94        0     1                 
42001d96     1d96        0     1                 
42001d98     1d98        0     1                 
42001d9a     1d9a        0     1                 
42001da0     1da0        0     1                 
42001dac     1dac        0     1                 
42001dae     1dae        0     1                 
42001db0     1db0        0     1                 
42001db2     1db2        0     1                 
42001db4     1db4        0     1                 
42001db6     1db6        0     1                 
42001db8     1db8        0     1                 
42001dba     1dba        0     1                 
42001dbc     1dbc        0     1                 
42001dbe     1dbe        0     1                 
42001dc0     1dc0        0     1                 
42001dc2     1dc2        0     1                 
42001dc2     1dc2        0     1                 
42001dc2     1dc2        0     1                 
42001dc2     1dc2       2a     2         /Users/mabez/Development/rust/embedded/experiments/esp32c3-experiments/target/riscv32imac-unknown-none-elf/debug/deps/librtt_target-c8a503ffaa8773f6.rlib(rtt_target-c8a503ffaa8773f6.rtt_target.49ad93cd-cgu.10.rcgu.o):(.text._ZN4core5slice5index74_$LT$impl$u20$core..ops..index..Index$LT$I$GT$$u20$for$u20$$u5b$T$u5d$$GT$5index17h4637b8a218dd53a1E)
42001dc2     1dc2        0     1                 
42001dc2     1dc2        0     1                 
42001dc2     1dc2        0     1                 
42001dc2     1dc2       2a     1                 core::slice::index::_$LT$impl$u20$core..ops..index..Index$LT$I$GT$$u20$for$u20$$u5b$T$u5d$$GT$::index::h4637b8a218dd53a1
42001dc4     1dc4        0     1                 
42001dc6     1dc6        0     1                 
42001dd4     1dd4        0     1                 
42001de2     1de2        0     1                 
42001dec     1dec        0     1                 
42001dec     1dec        0     1                 
42001dec     1dec        0     1                 
42001dec     1dec       2a     2         /Users/mabez/Development/rust/embedded/experiments/esp32c3-experiments/target/riscv32imac-unknown-none-elf/debug/deps/librtt_target-c8a503ffaa8773f6.rlib(rtt_target-c8a503ffaa8773f6.rtt_target.49ad93cd-cgu.10.rcgu.o):(.text._ZN4core5slice5index77_$LT$impl$u20$core..ops..index..IndexMut$LT$I$GT$$u20$for$u20$$u5b$T$u5d$$GT$9index_mut17h3d2a2987fd5b5503E)
42001dec     1dec        0     1                 
42001dec     1dec        0     1                 
42001dec     1dec        0     1                 
42001dec     1dec       2a     1                 core::slice::index::_$LT$impl$u20$core..ops..index..IndexMut$LT$I$GT$$u20$for$u20$$u5b$T$u5d$$GT$::index_mut::h3d2a2987fd5b5503
42001dee     1dee        0     1                 
42001df0     1df0        0     1                 
42001dfe     1dfe        0     1                 
42001e0c     1e0c        0     1                 
42001e16     1e16        0     1                 
42001e16     1e16        0     1                 
42001e16     1e16        0     1                 
42001e16     1e16       20     2         /Users/mabez/Development/rust/embedded/experiments/esp32c3-experiments/target/riscv32imac-unknown-none-elf/debug/deps/librtt_target-c8a503ffaa8773f6.rlib(rtt_target-c8a503ffaa8773f6.rtt_target.49ad93cd-cgu.10.rcgu.o):(.text._ZN4core5slice5index77_$LT$impl$u20$core..ops..index..IndexMut$LT$I$GT$$u20$for$u20$$u5b$T$u5d$$GT$9index_mut17he448e7e225a9dc47E)
42001e16     1e16        0     1                 
42001e16     1e16        0     1                 
42001e16     1e16        0     1                 
42001e16     1e16       20     1                 core::slice::index::_$LT$impl$u20$core..ops..index..IndexMut$LT$I$GT$$u20$for$u20$$u5b$T$u5d$$GT$::index_mut::he448e7e225a9dc47
42001e18     1e18        0     1                 
42001e1a     1e1a        0     1                 
42001e1e     1e1e        0     1                 
42001e2c     1e2c        0     1                 
42001e36     1e36        0     1                 
42001e36     1e36        0     1                 
42001e36     1e36        0     1                 
42001e36     1e36       78     2         /Users/mabez/Development/rust/embedded/experiments/esp32c3-experiments/target/riscv32imac-unknown-none-elf/debug/deps/librtt_target-c8a503ffaa8773f6.rlib(rtt_target-c8a503ffaa8773f6.rtt_target.49ad93cd-cgu.11.rcgu.o):(.text._ZN45_$LT$usize$u20$as$u20$bit_field..BitField$GT$7get_bit17h48d2eaa7cf333dd7E)
42001e36     1e36       78     1                 _$LT$usize$u20$as$u20$bit_field..BitField$GT$::get_bit::h48d2eaa7cf333dd7
42001e36     1e36        0     1                 
42001e36     1e36        0     1                 
42001e36     1e36        0     1                 
42001e38     1e38        0     1                 
42001e42     1e42        0     1                 
42001e48     1e48        0     1                 
42001e4e     1e4e        0     1                 
42001e64     1e64        0     1                 
42001e82     1e82        0     1                 
42001e8c     1e8c        0     1                 
42001e90     1e90        0     1                 
42001eae     1eae        0     1                 
42001eae     1eae        0     1                 
42001eae     1eae        0     1                 
42001eae     1eae       1e     2         /Users/mabez/Development/rust/embedded/experiments/esp32c3-experiments/target/riscv32imac-unknown-none-elf/debug/deps/librtt_target-c8a503ffaa8773f6.rlib(rtt_target-c8a503ffaa8773f6.rtt_target.49ad93cd-cgu.11.rcgu.o):(.text._ZN4core10intrinsics19copy_nonoverlapping17h7e5fc50c95d6b871E)
42001eae     1eae        0     1                 
42001eae     1eae        0     1                 
42001eae     1eae        0     1                 
42001eae     1eae       1e     1                 core::intrinsics::copy_nonoverlapping::h7e5fc50c95d6b871
42001eb0     1eb0        0     1                 
42001eb2     1eb2        0     1                 
42001ebe     1ebe        0     1                 
42001ec6     1ec6        0     1                 
42001ecc     1ecc        0     1                 
42001ecc     1ecc        0     1                 
42001ecc     1ecc        0     1                 
42001ecc     1ecc       16     2         /Users/mabez/Development/rust/embedded/experiments/esp32c3-experiments/target/riscv32imac-unknown-none-elf/debug/deps/librtt_target-c8a503ffaa8773f6.rlib(rtt_target-c8a503ffaa8773f6.rtt_target.49ad93cd-cgu.11.rcgu.o):(.text._ZN5riscv8register7mstatus4_set17h0a73d227bfa8a09bE)
42001ecc     1ecc       16     1                 riscv::register::mstatus::_set::h0a73d227bfa8a09b
42001ecc     1ecc        0     1                 
42001ecc     1ecc        0     1                 
42001ecc     1ecc        0     1                 
42001ece     1ece        0     1                 
42001ed0     1ed0        0     1                 
42001ed2     1ed2        0     1                 
42001edc     1edc        0     1                 
42001ee2     1ee2        0     1                 
42001ee2     1ee2        0     1                 
42001ee2     1ee2        0     1                 
42001ee2     1ee2       1a     2         /Users/mabez/Development/rust/embedded/experiments/esp32c3-experiments/target/riscv32imac-unknown-none-elf/debug/deps/librtt_target-c8a503ffaa8773f6.rlib(rtt_target-c8a503ffaa8773f6.rtt_target.49ad93cd-cgu.11.rcgu.o):(.text._ZN5riscv8register7mstatus4read17ha33f492b97d689c9E)
42001ee2     1ee2        0     1                 
42001ee2     1ee2        0     1                 
42001ee2     1ee2        0     1                 
42001ee2     1ee2       1a     1                 riscv::register::mstatus::read::ha33f492b97d689c9
42001ee4     1ee4        0     1                 
42001ee4     1ee4        0     1                 
42001ee6     1ee6        0     1                 
42001ef2     1ef2        0     1                 
42001ef6     1ef6        0     1                 
42001efc     1efc        0     1                 
42001efc     1efc        0     1                 
42001efc     1efc        0     1                 
42001efc     1efc       18     2         /Users/mabez/Development/rust/embedded/experiments/esp32c3-experiments/target/riscv32imac-unknown-none-elf/debug/deps/librtt_target-c8a503ffaa8773f6.rlib(rtt_target-c8a503ffaa8773f6.rtt_target.49ad93cd-cgu.11.rcgu.o):(.text._ZN5riscv8register7mstatus5_read17h126c0ba16171285dE)
42001efc     1efc       18     1                 riscv::register::mstatus::_read::h126c0ba16171285d
42001efc     1efc        0     1                 
42001efc     1efc        0     1                 
42001efc     1efc        0     1                 
42001efe     1efe        0     1                 
42001efe     1efe        0     1                 
42001f00     1f00        0     1                 
42001f0c     1f0c        0     1                 
42001f14     1f14        0     1                 
42001f14     1f14        0     1                 
42001f14     1f14        0     1                 
42001f14     1f14       16     2         /Users/mabez/Development/rust/embedded/experiments/esp32c3-experiments/target/riscv32imac-unknown-none-elf/debug/deps/librtt_target-c8a503ffaa8773f6.rlib(rtt_target-c8a503ffaa8773f6.rtt_target.49ad93cd-cgu.11.rcgu.o):(.text._ZN5riscv8register7mstatus6_clear17h6edc93ff3351f4b0E)
42001f14     1f14       16     1                 riscv::register::mstatus::_clear::h6edc93ff3351f4b0
42001f14     1f14        0     1                 
42001f14     1f14        0     1                 
42001f14     1f14        0     1                 
42001f16     1f16        0     1                 
42001f18     1f18        0     1                 
42001f1a     1f1a        0     1                 
42001f24     1f24        0     1                 
42001f2a     1f2a        0     1                 
42001f2a     1f2a        0     1                 
42001f2a     1f2a        0     1                 
42001f2a     1f2a       1c     2         /Users/mabez/Development/rust/embedded/experiments/esp32c3-experiments/target/riscv32imac-unknown-none-elf/debug/deps/librtt_target-c8a503ffaa8773f6.rlib(rtt_target-c8a503ffaa8773f6.rtt_target.49ad93cd-cgu.11.rcgu.o):(.text._ZN5riscv8register7mstatus7Mstatus3mie17hac25a0ce2cebe4c3E)
42001f2a     1f2a        0     1                 
42001f2a     1f2a        0     1                 
42001f2a     1f2a        0     1                 
42001f2a     1f2a       1c     1                 riscv::register::mstatus::Mstatus::mie::hac25a0ce2cebe4c3
42001f2c     1f2c        0     1                 
42001f2e     1f2e        0     1                 
42001f32     1f32        0     1                 
42001f3e     1f3e        0     1                 
42001f46     1f46        0     1                 
42001f46     1f46        0     1                 
42001f46     1f46        0     1                 
42001f46     1f46       16     2         /Users/mabez/Development/rust/embedded/experiments/esp32c3-experiments/target/riscv32imac-unknown-none-elf/debug/deps/librtt_target-c8a503ffaa8773f6.rlib(rtt_target-c8a503ffaa8773f6.rtt_target.49ad93cd-cgu.11.rcgu.o):(.text._ZN5riscv8register7mstatus7set_mie17hbce924cfcc705d35E)
42001f46     1f46        0     1                 
42001f46     1f46        0     1                 
42001f46     1f46        0     1                 
42001f46     1f46       16     1                 riscv::register::mstatus::set_mie::hbce924cfcc705d35
42001f48     1f48        0     1                 
42001f4a     1f4a        0     1                 
42001f4c     1f4c        0     1                 
42001f56     1f56        0     1                 
42001f5c     1f5c        0     1                 
42001f5c     1f5c        0     1                 
42001f5c     1f5c        0     1                 
42001f5c     1f5c       16     2         /Users/mabez/Development/rust/embedded/experiments/esp32c3-experiments/target/riscv32imac-unknown-none-elf/debug/deps/librtt_target-c8a503ffaa8773f6.rlib(rtt_target-c8a503ffaa8773f6.rtt_target.49ad93cd-cgu.11.rcgu.o):(.text._ZN5riscv8register7mstatus9clear_mie17h00c2c8e72db769f8E)
42001f5c     1f5c        0     1                 
42001f5c     1f5c        0     1                 
42001f5c     1f5c        0     1                 
42001f5c     1f5c       16     1                 riscv::register::mstatus::clear_mie::h00c2c8e72db769f8
42001f5e     1f5e        0     1                 
42001f60     1f60        0     1                 
42001f62     1f62        0     1                 
42001f6c     1f6c        0     1                 
42001f72     1f72        0     1                 
42001f72     1f72        0     1                 
42001f72     1f72        0     1                 
42001f72     1f72       38     2         /Users/mabez/Development/rust/embedded/experiments/esp32c3-experiments/target/riscv32imac-unknown-none-elf/debug/deps/librtt_target-c8a503ffaa8773f6.rlib(rtt_target-c8a503ffaa8773f6.rtt_target.49ad93cd-cgu.12.rcgu.o):(.text._ZN10rtt_target5print20set_print_channel_cs17h6066ecd91a9137a6E)
42001f72     1f72        0     1                 
42001f72     1f72        0     1                 
42001f72     1f72        0     1                 
42001f72     1f72       38     1                 rtt_target::print::set_print_channel_cs::h6066ecd91a9137a6
42001f74     1f74        0     1                 
42001f76     1f76        0     1                 
42001f7c     1f7c        0     1                 
42001f8a     1f8a        0     1                 
42001f8e     1f8e        0     1                 
42001f92     1f92        0     1                 
42001fa4     1fa4        0     1                 
42001faa     1faa        0     1                 
42001faa     1faa        0     1                 
42001faa     1faa        0     1                 
42001faa     1faa       44     2         /Users/mabez/Development/rust/embedded/experiments/esp32c3-experiments/target/riscv32imac-unknown-none-elf/debug/deps/librtt_target-c8a503ffaa8773f6.rlib(rtt_target-c8a503ffaa8773f6.rtt_target.49ad93cd-cgu.12.rcgu.o):(.text._ZN10rtt_target5print20set_print_channel_cs28_$u7b$$u7b$closure$u7d$$u7d$17h00719bc546f5a7f8E)
42001faa     1faa        0     1                 
42001faa     1faa        0     1                 
42001faa     1faa        0     1                 
42001faa     1faa       44     1                 rtt_target::print::set_print_channel_cs::_$u7b$$u7b$closure$u7d$$u7d$::h00719bc546f5a7f8
42001fac     1fac        0     1                 
42001fae     1fae        0     1                 
42001fbe     1fbe        0     1                 
42001fc0     1fc0        0     1                 
42001fc4     1fc4        0     1                 
42001fd2     1fd2        0     1                 
42001fe8     1fe8        0     1                 
42001fee     1fee        0     1                 
42001fee     1fee        0     1                 
42001fee     1fee        0     1                 
42001fee     1fee       1e     2         /Users/mabez/Development/rust/embedded/experiments/esp32c3-experiments/target/riscv32imac-unknown-none-elf/debug/deps/librtt_target-c8a503ffaa8773f6.rlib(rtt_target-c8a503ffaa8773f6.rtt_target.49ad93cd-cgu.12.rcgu.o):(.text._ZN10rtt_target5print17set_print_channel17hed35a89a406c5ad0E)
42001fee     1fee        0     1                 
42001fee     1fee        0     1                 
42001fee     1fee        0     1                 
42001fee     1fee       1e     1                 rtt_target::print::set_print_channel::hed35a89a406c5ad0
42001ff0     1ff0        0     1                 
42001ff2     1ff2        0     1                 
42001ff4     1ff4        0     1                 
42002006     2006        0     1                 
4200200c     200c        0     1                 
4200200c     200c        0     1                 
4200200c     200c        0     1                 
4200200c     200c       1e     2         /Users/mabez/Development/rust/embedded/experiments/esp32c3-experiments/target/riscv32imac-unknown-none-elf/debug/deps/librtt_target-c8a503ffaa8773f6.rlib(rtt_target-c8a503ffaa8773f6.rtt_target.49ad93cd-cgu.12.rcgu.o):(.text._ZN10rtt_target5print17set_print_channel28_$u7b$$u7b$closure$u7d$$u7d$28_$u7b$$u7b$closure$u7d$$u7d$17hf757a982ef6e3d13E)
4200200c     200c        0     1                 
4200200c     200c        0     1                 
4200200c     200c        0     1                 
4200200c     200c       1e     1                 rtt_target::print::set_print_channel::_$u7b$$u7b$closure$u7d$$u7d$::_$u7b$$u7b$closure$u7d$$u7d$::hf757a982ef6e3d13
4200200e     200e        0     1                 
42002010     2010        0     1                 
4200201c     201c        0     1                 
4200201e     201e        0     1                 
42002020     2020        0     1                 
42002024     2024        0     1                 
4200202a     202a        0     1                 
4200202a     202a        0     1                 
4200202a     202a        0     1                 
4200202a     202a       22     2         /Users/mabez/Development/rust/embedded/experiments/esp32c3-experiments/target/riscv32imac-unknown-none-elf/debug/deps/librtt_target-c8a503ffaa8773f6.rlib(rtt_target-c8a503ffaa8773f6.rtt_target.49ad93cd-cgu.12.rcgu.o):(.text._ZN10rtt_target5print17set_print_channel28_$u7b$$u7b$closure$u7d$$u7d$17h0287c8030316c2f1E)
4200202a     202a        0     1                 
4200202a     202a        0     1                 
4200202a     202a        0     1                 
4200202a     202a       22     1                 rtt_target::print::set_print_channel::_$u7b$$u7b$closure$u7d$$u7d$::h0287c8030316c2f1
4200202c     202c        0     1                 
4200202e     202e        0     1                 
42002036     2036        0     1                 
4200203c     203c        0     1                 
42002046     2046        0     1                 
4200204c     204c        0     1                 
4200204c     204c        0     1                 
4200204c     204c        0     1                 
4200204c     204c        a     2         /Users/mabez/Development/rust/embedded/experiments/esp32c3-experiments/target/riscv32imac-unknown-none-elf/debug/deps/librtt_target-c8a503ffaa8773f6.rlib(rtt_target-c8a503ffaa8773f6.rtt_target.49ad93cd-cgu.14.rcgu.o):(.text._ZN4core5slice29_$LT$impl$u20$$u5b$T$u5d$$GT$10as_mut_ptr17h8af782ce5cc1cef9E)
4200204c     204c        0     1                 
4200204c     204c        0     1                 
4200204c     204c        0     1                 
4200204c     204c        a     1                 core::slice::_$LT$impl$u20$$u5b$T$u5d$$GT$::as_mut_ptr::h8af782ce5cc1cef9
4200204e     204e        0     1                 
42002052     2052        0     1                 
42002056     2056        0     1                 
42002056     2056        0     1                 
42002056     2056        0     1                 
42002056     2056        a     2         /Users/mabez/Development/rust/embedded/experiments/esp32c3-experiments/target/riscv32imac-unknown-none-elf/debug/deps/librtt_target-c8a503ffaa8773f6.rlib(rtt_target-c8a503ffaa8773f6.rtt_target.49ad93cd-cgu.14.rcgu.o):(.text._ZN4core5slice29_$LT$impl$u20$$u5b$T$u5d$$GT$6as_ptr17h29448e4debb02ffdE)
42002056     2056        0     1                 
42002056     2056        0     1                 
42002056     2056        0     1                 
42002056     2056        a     1                 core::slice::_$LT$impl$u20$$u5b$T$u5d$$GT$::as_ptr::h29448e4debb02ffd
42002058     2058        0     1                 
4200205c     205c        0     1                 
42002060     2060        0     1                 
42002060     2060        0     1                 
42002060     2060        0     1                 
42002060     2060        e     2         /Users/mabez/Development/rust/embedded/experiments/esp32c3-experiments/target/riscv32imac-unknown-none-elf/debug/deps/librtt_target-c8a503ffaa8773f6.rlib(rtt_target-c8a503ffaa8773f6.rtt_target.49ad93cd-cgu.14.rcgu.o):(.text._ZN4core5slice29_$LT$impl$u20$$u5b$T$u5d$$GT$8is_empty17h86c7e2c8072281deE)
42002060     2060        0     1                 
42002060     2060        0     1                 
42002060     2060        0     1                 
42002060     2060        e     1                 core::slice::_$LT$impl$u20$$u5b$T$u5d$$GT$::is_empty::h86c7e2c8072281de
42002062     2062        0     1                 
42002066     2066        0     1                 
4200206a     206a        0     1                 
4200206e     206e        0     1                 
4200206e     206e        0     1                 
4200206e     206e        0     1                 
4200206e     206e       3a     2         /Users/mabez/Development/rust/embedded/experiments/esp32c3-experiments/target/riscv32imac-unknown-none-elf/debug/deps/librtt_target-c8a503ffaa8773f6.rlib(rtt_target-c8a503ffaa8773f6.rtt_target.49ad93cd-cgu.14.rcgu.o):(.text._ZN4core6result19Result$LT$T$C$E$GT$2ok17h78fb0716872fd402E)
4200206e     206e        0     1                 
4200206e     206e        0     1                 
4200206e     206e        0     1                 
4200206e     206e       3a     1                 core::result::Result$LT$T$C$E$GT$::ok::h78fb0716872fd402
42002070     2070        0     1                 
42002076     2076        0     1                 
4200207e     207e        0     1                 
42002080     2080        0     1                 
42002082     2082        0     1                 
42002082     2082        0     1                 
42002086     2086        0     1                 
42002086     2086        0     1                 
42002088     2088        0     1                 
4200208a     208a        0     1                 
42002090     2090        0     1                 
4200209e     209e        0     1                 
420020a6     20a6        0     1                 
420020a8     20a8        0     1                 
420020a8     20a8        0     1                 
420020a8     20a8        0     1                 
420020a8     20a8       1a     2         /Users/mabez/Development/rust/embedded/experiments/esp32c3-experiments/target/riscv32imac-unknown-none-elf/debug/deps/librtt_target-c8a503ffaa8773f6.rlib(rtt_target-c8a503ffaa8773f6.rtt_target.49ad93cd-cgu.15.rcgu.o):(.text._ZN4core3ptr7mut_ptr31_$LT$impl$u20$$BP$mut$u20$T$GT$13guaranteed_eq17hec2e4b377e431f4bE)
420020a8     20a8        0     1                 
420020a8     20a8        0     1                 
420020a8     20a8        0     1                 
420020a8     20a8       1a     1                 core::ptr::mut_ptr::_$LT$impl$u20$$BP$mut$u20$T$GT$::guaranteed_eq::hec2e4b377e431f4b
420020aa     20aa        0     1                 
420020ae     20ae        0     1                 
420020bc     20bc        0     1                 
420020c2     20c2        0     1                 
420020c2     20c2        0     1                 
420020c2     20c2        0     1                 
420020c2     20c2       22     2         /Users/mabez/Development/rust/embedded/experiments/esp32c3-experiments/target/riscv32imac-unknown-none-elf/debug/deps/librtt_target-c8a503ffaa8773f6.rlib(rtt_target-c8a503ffaa8773f6.rtt_target.49ad93cd-cgu.15.rcgu.o):(.text._ZN4core3ptr7mut_ptr31_$LT$impl$u20$$BP$mut$u20$T$GT$7is_null17he6d88094ffd46b8aE)
420020c2     20c2        0     1                 
420020c2     20c2        0     1                 
420020c2     20c2        0     1                 
420020c2     20c2       22     1                 core::ptr::mut_ptr::_$LT$impl$u20$$BP$mut$u20$T$GT$::is_null::he6d88094ffd46b8a
420020c4     20c4        0     1                 
420020c6     20c6        0     1                 
420020c8     20c8        0     1                 
420020cc     20cc        0     1                 
420020dc     20dc        0     1                 
420020e4     20e4        0     1                 
420020e4     20e4        0     1                 
420020e4     20e4        0     1                 
420020e4     20e4        a     2         /Users/mabez/Development/rust/embedded/experiments/esp32c3-experiments/target/riscv32imac-unknown-none-elf/debug/deps/librtt_target-c8a503ffaa8773f6.rlib(rtt_target-c8a503ffaa8773f6.rtt_target.49ad93cd-cgu.15.rcgu.o):(.text._ZN4core3str8converts23from_utf8_unchecked_mut17habbe9541bbd1ca31E)
420020e4     20e4        0     1                 
420020e4     20e4        0     1                 
420020e4     20e4        0     1                 
420020e4     20e4        a     1                 core::str::converts::from_utf8_unchecked_mut::habbe9541bbd1ca31
420020e6     20e6        0     1                 
420020ea     20ea        0     1                 
420020ee     20ee        0     1                 
420020ee     20ee        0     1                 
420020ee     20ee        0     1                 
420020ee     20ee       66     2         /Users/mabez/Development/rust/embedded/experiments/esp32c3-experiments/target/riscv32imac-unknown-none-elf/debug/deps/librtt_target-c8a503ffaa8773f6.rlib(rtt_target-c8a503ffaa8773f6.rtt_target.49ad93cd-cgu.15.rcgu.o):(.text._ZN5riscv9interrupt4free17h04c381f82028becbE)
420020ee     20ee        0     1                 
420020ee     20ee        0     1                 
420020ee     20ee        0     1                 
420020ee     20ee       66     1                 riscv::interrupt::free::h04c381f82028becb
420020f0     20f0        0     1                 
420020f2     20f2        0     1                 
420020fa     20fa        0     1                 
42002106     2106        0     1                 
42002106     2106        0     1                 
42002110     2110        0     1                 
4200211a     211a        0     1                 
42002120     2120        0     1                 
4200212c     212c        0     1                 
4200212e     212e        0     1                 
4200212e     212e        0     1                 
4200213a     213a        0     1                 
4200213e     213e        0     1                 
42002144     2144        0     1                 
42002144     2144        0     1                 
4200214a     214a        0     1                 
4200214a     214a        0     1                 
42002154     2154        0     1                 
42002154     2154        0     1                 
42002154     2154        0     1                 
42002154     2154        0     1                 
42002154     2154       14     2         /Users/mabez/Development/rust/embedded/experiments/esp32c3-experiments/target/riscv32imac-unknown-none-elf/debug/deps/librtt_target-c8a503ffaa8773f6.rlib(rtt_target-c8a503ffaa8773f6.rtt_target.49ad93cd-cgu.15.rcgu.o):(.text._ZN5riscv9interrupt6enable17hd37f85f829d40399E)
42002154     2154       14     1                 riscv::interrupt::enable::hd37f85f829d40399
42002154     2154        0     1                 
42002154     2154        0     1                 
42002154     2154        0     1                 
42002156     2156        0     1                 
42002156     2156        0     1                 
42002158     2158        0     1                 
42002162     2162        0     1                 
42002168     2168        0     1                 
42002168     2168        0     1                 
42002168     2168        0     1                 
42002168     2168       14     2         /Users/mabez/Development/rust/embedded/experiments/esp32c3-experiments/target/riscv32imac-unknown-none-elf/debug/deps/librtt_target-c8a503ffaa8773f6.rlib(rtt_target-c8a503ffaa8773f6.rtt_target.49ad93cd-cgu.15.rcgu.o):(.text._ZN5riscv9interrupt7disable17h9cad525f76d04549E)
42002168     2168       14     1                 riscv::interrupt::disable::h9cad525f76d04549
42002168     2168        0     1                 
42002168     2168        0     1                 
42002168     2168        0     1                 
4200216a     216a        0     1                 
4200216a     216a        0     1                 
4200216c     216c        0     1                 
42002176     2176        0     1                 
4200217c     217c        0     1                 
4200217c     217c        0     1                 
4200217c     217c        0     1                 
4200217c     217c       40     2         /Users/mabez/Development/rust/embedded/experiments/esp32c3-experiments/target/riscv32imac-unknown-none-elf/debug/deps/librtt_target-c8a503ffaa8773f6.rlib(rtt_target-c8a503ffaa8773f6.rtt_target.49ad93cd-cgu.2.rcgu.o):(.text._ZN4core3fmt5Write10write_char17h3df1462aded2df01E)
4200217c     217c        0     1                 
4200217c     217c        0     1                 
4200217c     217c        0     1                 
4200217c     217c       40     1                 core::fmt::Write::write_char::h3df1462aded2df01
4200217e     217e        0     1                 
42002180     2180        0     1                 
4200218e     218e        0     1                 
42002194     2194        0     1                 
420021a2     21a2        0     1                 
420021b4     21b4        0     1                 
420021bc     21bc        0     1                 
420021bc     21bc        0     1                 
420021bc     21bc        0     1                 
420021bc     21bc       3e     2         /Users/mabez/Development/rust/embedded/experiments/esp32c3-experiments/target/riscv32imac-unknown-none-elf/debug/deps/librtt_target-c8a503ffaa8773f6.rlib(rtt_target-c8a503ffaa8773f6.rtt_target.49ad93cd-cgu.2.rcgu.o):(.text._ZN4core3fmt5Write9write_fmt17h00b2f70fd0e83e7bE)
420021bc     21bc        0     1                 
420021bc     21bc        0     1                 
420021bc     21bc        0     1                 
420021bc     21bc       3e     1                 core::fmt::Write::write_fmt::h00b2f70fd0e83e7b
420021be     21be        0     1                 
420021c0     21c0        0     1                 
420021c2     21c2        0     1                 
420021da     21da        0     1                 
420021e2     21e2        0     1                 
420021e2     21e2        0     1                 
420021e6     21e6        0     1                 
420021f2     21f2        0     1                 
420021fa     21fa        0     1                 
420021fa     21fa        0     1                 
420021fa     21fa        0     1                 
420021fa     21fa       1e     2         /Users/mabez/Development/rust/embedded/experiments/esp32c3-experiments/target/riscv32imac-unknown-none-elf/debug/deps/librtt_target-c8a503ffaa8773f6.rlib(rtt_target-c8a503ffaa8773f6.rtt_target.49ad93cd-cgu.2.rcgu.o):(.text._ZN50_$LT$$RF$mut$u20$W$u20$as$u20$core..fmt..Write$GT$10write_char17h2e54b6a1e1239908E)
420021fa     21fa        0     1                 
420021fa     21fa        0     1                 
420021fa     21fa        0     1                 
420021fa     21fa       1e     1                 _$LT$$RF$mut$u20$W$u20$as$u20$core..fmt..Write$GT$::write_char::h2e54b6a1e1239908
420021fc     21fc        0     1                 
420021fe     21fe        0     1                 
42002202     2202        0     1                 
42002210     2210        0     1                 
42002218     2218        0     1                 
42002218     2218        0     1                 
42002218     2218        0     1                 
42002218     2218       36     2         /Users/mabez/Development/rust/embedded/experiments/esp32c3-experiments/target/riscv32imac-unknown-none-elf/debug/deps/librtt_target-c8a503ffaa8773f6.rlib(rtt_target-c8a503ffaa8773f6.rtt_target.49ad93cd-cgu.2.rcgu.o):(.text._ZN50_$LT$$RF$mut$u20$W$u20$as$u20$core..fmt..Write$GT$9write_fmt17hb1d40f01be25de09E)
42002218     2218        0     1                 
42002218     2218        0     1                 
42002218     2218        0     1                 
42002218     2218       36     1                 _$LT$$RF$mut$u20$W$u20$as$u20$core..fmt..Write$GT$::write_fmt::hb1d40f01be25de09
4200221a     221a        0     1                 
4200221c     221c        0     1                 
4200221e     221e        0     1                 
42002220     2220        0     1                 
42002236     2236        0     1                 
4200223a     223a        0     1                 
42002246     2246        0     1                 
4200224e     224e        0     1                 
4200224e     224e        0     1                 
4200224e     224e        0     1                 
4200224e     224e       20     2         /Users/mabez/Development/rust/embedded/experiments/esp32c3-experiments/target/riscv32imac-unknown-none-elf/debug/deps/librtt_target-c8a503ffaa8773f6.rlib(rtt_target-c8a503ffaa8773f6.rtt_target.49ad93cd-cgu.2.rcgu.o):(.text._ZN50_$LT$$RF$mut$u20$W$u20$as$u20$core..fmt..Write$GT$9write_str17h07b4bf60d5951f61E)
4200224e     224e        0     1                 
4200224e     224e        0     1                 
4200224e     224e        0     1                 
4200224e     224e       20     1                 _$LT$$RF$mut$u20$W$u20$as$u20$core..fmt..Write$GT$::write_str::h07b4bf60d5951f61
42002250     2250        0     1                 
42002252     2252        0     1                 
42002258     2258        0     1                 
42002266     2266        0     1                 
4200226e     226e        0     1                 
4200226e     226e        0     1                 
4200226e     226e        0     1                 
4200226e     226e        a     2         /Users/mabez/Development/rust/embedded/experiments/esp32c3-experiments/target/riscv32imac-unknown-none-elf/debug/deps/librtt_target-c8a503ffaa8773f6.rlib(rtt_target-c8a503ffaa8773f6.rtt_target.49ad93cd-cgu.2.rcgu.o):(.text._ZN10rtt_target9UpChannel3new17hf925cdf4c6993d45E)
4200226e     226e        0     1                 
4200226e     226e        0     1                 
4200226e     226e        0     1                 
4200226e     226e        a     1                 rtt_target::UpChannel::new::hf925cdf4c6993d45
42002270     2270        0     1                 
42002272     2272        0     1                 
42002274     2274        0     1                 
42002278     2278        0     1                 
42002278     2278        0     1                 
42002278     2278        0     1                 
42002278     2278        a     2         /Users/mabez/Development/rust/embedded/experiments/esp32c3-experiments/target/riscv32imac-unknown-none-elf/debug/deps/librtt_target-c8a503ffaa8773f6.rlib(rtt_target-c8a503ffaa8773f6.rtt_target.49ad93cd-cgu.2.rcgu.o):(.text._ZN10rtt_target9UpChannel7channel17hb1fd0ca9f4faca7dE)
42002278     2278        a     1                 rtt_target::UpChannel::channel::hb1fd0ca9f4faca7d
42002278     2278        0     1                 
42002278     2278        0     1                 
42002278     2278        0     1                 
4200227a     227a        0     1                 
4200227c     227c        0     1                 
4200227e     227e        0     1                 
42002282     2282        0     1                 
42002282     2282        0     1                 
42002282     2282        0     1                 
42002282     2282       28     2         /Users/mabez/Development/rust/embedded/experiments/esp32c3-experiments/target/riscv32imac-unknown-none-elf/debug/deps/librtt_target-c8a503ffaa8773f6.rlib(rtt_target-c8a503ffaa8773f6.rtt_target.49ad93cd-cgu.2.rcgu.o):(.text._ZN10rtt_target9UpChannel4mode17hc3c7398d5b3fca32E)
42002282     2282        0     1                 
42002282     2282        0     1                 
42002282     2282        0     1                 
42002282     2282       28     1                 rtt_target::UpChannel::mode::hc3c7398d5b3fca32
42002284     2284        0     1                 
42002286     2286        0     1                 
42002288     2288        0     1                 
420022a2     22a2        0     1                 
420022aa     22aa        0     1                 
420022aa     22aa        0     1                 
420022aa     22aa        0     1                 
420022aa     22aa       10     2         /Users/mabez/Development/rust/embedded/experiments/esp32c3-experiments/target/riscv32imac-unknown-none-elf/debug/deps/librtt_target-c8a503ffaa8773f6.rlib(rtt_target-c8a503ffaa8773f6.rtt_target.49ad93cd-cgu.2.rcgu.o):(.text._ZN10rtt_target15TerminalChannel3new17h17d61eafb948467bE)
420022aa     22aa        0     1                 
420022aa     22aa        0     1                 
420022aa     22aa        0     1                 
420022aa     22aa       10     1                 rtt_target::TerminalChannel::new::h17d61eafb948467b
420022ac     22ac        0     1                 
420022ae     22ae        0     1                 
420022b6     22b6        0     1                 
420022ba     22ba        0     1                 
420022ba     22ba        0     1                 
420022ba     22ba        0     1                 
420022ba     22ba      18a     2         /Users/mabez/Development/rust/embedded/experiments/esp32c3-experiments/target/riscv32imac-unknown-none-elf/debug/deps/librtt_target-c8a503ffaa8773f6.rlib(rtt_target-c8a503ffaa8773f6.rtt_target.49ad93cd-cgu.2.rcgu.o):(.text._ZN10rtt_target15TerminalChannel5write17h86a1b83553c1eae7E)
420022ba     22ba        0     1                 
420022ba     22ba        0     1                 
420022ba     22ba        0     1                 
420022ba     22ba      18a     1                 rtt_target::TerminalChannel::write::h86a1b83553c1eae7
420022bc     22bc        0     1                 
420022be     22be        0     1                 
420022d0     22d0        0     1                 
420022ea     22ea        0     1                 
420022ea     22ea        0     1                 
420022f2     22f2        0     1                 
420022fc     22fc        0     1                 
42002312     2312        0     1                 
42002314     2314        0     1                 
42002324     2324        0     1                 
42002324     2324        0     1                 
4200232a     232a        0     1                 
4200232a     232a        0     1                 
42002338     2338        0     1                 
42002338     2338        0     1                 
4200234e     234e        0     1                 
42002352     2352        0     1                 
42002358     2358        0     1                 
4200235c     235c        0     1                 
4200235e     235e        0     1                 
42002360     2360        0     1                 
42002362     2362        0     1                 
42002364     2364        0     1                 
42002364     2364        0     1                 
4200236e     236e        0     1                 
420023ec     23ec        0     1                 
420023f4     23f4        0     1                 
420023fa     23fa        0     1                 
42002400     2400        0     1                 
4200240a     240a        0     1                 
4200241a     241a        0     1                 
42002424     2424        0     1                 
4200243a     243a        0     1                 
42002442     2442        0     1                 
42002442     2442        0     1                 
42002444     2444        0     1                 
42002444     2444        0     1                 
42002444     2444        0     1                 
42002444     2444        0     1                 
42002444     2444       36     2         /Users/mabez/Development/rust/embedded/experiments/esp32c3-experiments/target/riscv32imac-unknown-none-elf/debug/deps/librtt_target-c8a503ffaa8773f6.rlib(rtt_target-c8a503ffaa8773f6.rtt_target.49ad93cd-cgu.2.rcgu.o):(.text._ZN63_$LT$rtt_target..TerminalWriter$u20$as$u20$core..fmt..Write$GT$9write_str17ha24d2d07bf22703eE)
42002444     2444        0     1                 
42002444     2444        0     1                 
42002444     2444        0     1                 
42002444     2444       36     1                 _$LT$rtt_target..TerminalWriter$u20$as$u20$core..fmt..Write$GT$::write_str::ha24d2d07bf22703e
42002446     2446        0     1                 
42002448     2448        0     1                 
42002454     2454        0     1                 
42002454     2454        0     1                 
42002458     2458        0     1                 
42002458     2458        0     1                 
4200245e     245e        0     1                 
4200246e     246e        0     1                 
42002470     2470        0     1                 
42002474     2474        0     1                 
4200247a     247a        0     1                 
4200247a     247a        0     1                 
4200247a     247a        0     1                 
4200247a     247a       32     2         /Users/mabez/Development/rust/embedded/experiments/esp32c3-experiments/target/riscv32imac-unknown-none-elf/debug/deps/librtt_target-c8a503ffaa8773f6.rlib(rtt_target-c8a503ffaa8773f6.rtt_target.49ad93cd-cgu.2.rcgu.o):(.text._ZN68_$LT$rtt_target..TerminalWriter$u20$as$u20$core..ops..drop..Drop$GT$4drop17h5aebe9451e5ad5d5E)
4200247a     247a        0     1                 
4200247a     247a        0     1                 
4200247a     247a        0     1                 
4200247a     247a       32     1                 _$LT$rtt_target..TerminalWriter$u20$as$u20$core..ops..drop..Drop$GT$::drop::h5aebe9451e5ad5d5
4200247c     247c        0     1                 
4200247e     247e        0     1                 
42002482     2482        0     1                 
4200248e     248e        0     1                 
42002492     2492        0     1                 
42002498     2498        0     1                 
4200249e     249e        0     1                 
420024a4     24a4        0     1                 
420024aa     24aa        0     1                 
420024ac     24ac        0     1                 
420024ac     24ac        0     1                 
420024ac     24ac        0     1                 
420024ac     24ac       2c     2         /Users/mabez/Development/rust/embedded/experiments/esp32c3-experiments/target/riscv32imac-unknown-none-elf/debug/deps/librtt_target-c8a503ffaa8773f6.rlib(rtt_target-c8a503ffaa8773f6.rtt_target.49ad93cd-cgu.2.rcgu.o):(.text._ZN64_$LT$rtt_target..ChannelMode$u20$as$u20$core..cmp..PartialEq$GT$2eq17hc021bdbd2a579850E)
420024ac     24ac       2c     1                 _$LT$rtt_target..ChannelMode$u20$as$u20$core..cmp..PartialEq$GT$::eq::hc021bdbd2a579850
420024ac     24ac        0     1                 
420024ac     24ac        0     1                 
420024ac     24ac        0     1                 
420024ae     24ae        0     1                 
420024b2     24b2        0     1                 
420024b6     24b6        0     1                 
420024b6     24b6        0     1                 
420024ba     24ba        0     1                 
420024ba     24ba        0     1                 
420024c0     24c0        0     1                 
420024c2     24c2        0     1                 
420024c8     24c8        0     1                 
420024ca     24ca        0     1                 
420024d0     24d0        0     1                 
420024d0     24d0        0     1                 
420024d8     24d8        0     1                 
420024d8     24d8        0     1                 
420024d8     24d8        0     1                 
420024d8     24d8       5c     2         /Users/mabez/Development/rust/embedded/experiments/esp32c3-experiments/target/riscv32imac-unknown-none-elf/debug/deps/librtt_target-c8a503ffaa8773f6.rlib(rtt_target-c8a503ffaa8773f6.rtt_target.49ad93cd-cgu.3.rcgu.o):(.text._ZN106_$LT$core..ops..range..Range$LT$usize$GT$$u20$as$u20$core..slice..index..SliceIndex$LT$$u5b$T$u5d$$GT$$GT$13get_unchecked17h33ea94cb94180e3cE)
420024d8     24d8        0     1                 
420024d8     24d8        0     1                 
420024d8     24d8        0     1                 
420024d8     24d8       5c     1                 _$LT$core..ops..range..Range$LT$usize$GT$$u20$as$u20$core..slice..index..SliceIndex$LT$$u5b$T$u5d$$GT$$GT$::get_unchecked::h33ea94cb94180e3c
420024da     24da        0     1                 
420024dc     24dc        0     1                 
420024f4     24f4        0     1                 
42002500     2500        0     1                 
4200250c     250c        0     1                 
4200250c     250c        0     1                 
42002512     2512        0     1                 
42002512     2512        0     1                 
42002514     2514        0     1                 
4200251c     251c        0     1                 
4200252a     252a        0     1                 
42002534     2534        0     1                 
42002534     2534        0     1                 
42002534     2534        0     1                 
42002534     2534       4c     2         /Users/mabez/Development/rust/embedded/experiments/esp32c3-experiments/target/riscv32imac-unknown-none-elf/debug/deps/librtt_target-c8a503ffaa8773f6.rlib(rtt_target-c8a503ffaa8773f6.rtt_target.49ad93cd-cgu.3.rcgu.o):(.text._ZN106_$LT$core..ops..range..Range$LT$usize$GT$$u20$as$u20$core..slice..index..SliceIndex$LT$$u5b$T$u5d$$GT$$GT$17get_unchecked_mut17h66fc006bbf3fde4dE)
42002534     2534        0     1                 
42002534     2534        0     1                 
42002534     2534        0     1                 
42002534     2534       4c     1                 _$LT$core..ops..range..Range$LT$usize$GT$$u20$as$u20$core..slice..index..SliceIndex$LT$$u5b$T$u5d$$GT$$GT$::get_unchecked_mut::h66fc006bbf3fde4d
42002536     2536        0     1                 
42002538     2538        0     1                 
42002548     2548        0     1                 
4200254c     254c        0     1                 
42002558     2558        0     1                 
42002558     2558        0     1                 
4200255e     255e        0     1                 
4200255e     255e        0     1                 
42002560     2560        0     1                 
42002568     2568        0     1                 
42002576     2576        0     1                 
42002580     2580        0     1                 
42002580     2580        0     1                 
42002580     2580        0     1                 
42002580     2580       66     2         /Users/mabez/Development/rust/embedded/experiments/esp32c3-experiments/target/riscv32imac-unknown-none-elf/debug/deps/librtt_target-c8a503ffaa8773f6.rlib(rtt_target-c8a503ffaa8773f6.rtt_target.49ad93cd-cgu.3.rcgu.o):(.text._ZN106_$LT$core..ops..range..Range$LT$usize$GT$$u20$as$u20$core..slice..index..SliceIndex$LT$$u5b$T$u5d$$GT$$GT$9index_mut17hbf69a7fa53c538eeE)
42002580     2580        0     1                 
42002580     2580        0     1                 
42002580     2580        0     1                 
42002580     2580       66     1                 _$LT$core..ops..range..Range$LT$usize$GT$$u20$as$u20$core..slice..index..SliceIndex$LT$$u5b$T$u5d$$GT$$GT$::index_mut::hbf69a7fa53c538ee
42002582     2582        0     1                 
42002584     2584        0     1                 
42002596     2596        0     1                 
4200259c     259c        0     1                 
420025a6     25a6        0     1                 
420025b6     25b6        0     1                 
420025cc     25cc        0     1                 
420025dc     25dc        0     1                 
420025e6     25e6        0     1                 
420025e6     25e6        0     1                 
420025e6     25e6        0     1                 
420025e6     25e6       30     2         /Users/mabez/Development/rust/embedded/experiments/esp32c3-experiments/target/riscv32imac-unknown-none-elf/debug/deps/librtt_target-c8a503ffaa8773f6.rlib(rtt_target-c8a503ffaa8773f6.rtt_target.49ad93cd-cgu.3.rcgu.o):(.text._ZN108_$LT$core..ops..range..RangeTo$LT$usize$GT$$u20$as$u20$core..slice..index..SliceIndex$LT$$u5b$T$u5d$$GT$$GT$9index_mut17h0fbf1e348a935256E)
420025e6     25e6        0     1                 
420025e6     25e6        0     1                 
420025e6     25e6        0     1                 
420025e6     25e6       30     1                 _$LT$core..ops..range..RangeTo$LT$usize$GT$$u20$as$u20$core..slice..index..SliceIndex$LT$$u5b$T$u5d$$GT$$GT$::index_mut::h0fbf1e348a935256
420025e8     25e8        0     1                 
420025ea     25ea        0     1                 
420025fa     25fa        0     1                 
4200260c     260c        0     1                 
42002616     2616        0     1                 
42002616     2616        0     1                 
42002616     2616        0     1                 
42002616     2616       48     2         /Users/mabez/Development/rust/embedded/experiments/esp32c3-experiments/target/riscv32imac-unknown-none-elf/debug/deps/librtt_target-c8a503ffaa8773f6.rlib(rtt_target-c8a503ffaa8773f6.rtt_target.49ad93cd-cgu.3.rcgu.o):(.text._ZN110_$LT$core..ops..range..RangeFrom$LT$usize$GT$$u20$as$u20$core..slice..index..SliceIndex$LT$$u5b$T$u5d$$GT$$GT$13get_unchecked17hea93d8e8e78e08f5E)
42002616     2616        0     1                 
42002616     2616        0     1                 
42002616     2616        0     1                 
42002616     2616       48     1                 _$LT$core..ops..range..RangeFrom$LT$usize$GT$$u20$as$u20$core..slice..index..SliceIndex$LT$$u5b$T$u5d$$GT$$GT$::get_unchecked::hea93d8e8e78e08f5
42002618     2618        0     1                 
4200261a     261a        0     1                 
4200262e     262e        0     1                 
4200263a     263a        0     1                 
42002654     2654        0     1                 
4200265e     265e        0     1                 
4200265e     265e        0     1                 
4200265e     265e        0     1                 
4200265e     265e       46     2         /Users/mabez/Development/rust/embedded/experiments/esp32c3-experiments/target/riscv32imac-unknown-none-elf/debug/deps/librtt_target-c8a503ffaa8773f6.rlib(rtt_target-c8a503ffaa8773f6.rtt_target.49ad93cd-cgu.3.rcgu.o):(.text._ZN110_$LT$core..ops..range..RangeFrom$LT$usize$GT$$u20$as$u20$core..slice..index..SliceIndex$LT$$u5b$T$u5d$$GT$$GT$5index17hc9fbb19a77e045f9E)
4200265e     265e        0     1                 
4200265e     265e        0     1                 
4200265e     265e        0     1                 
4200265e     265e       46     1                 _$LT$core..ops..range..RangeFrom$LT$usize$GT$$u20$as$u20$core..slice..index..SliceIndex$LT$$u5b$T$u5d$$GT$$GT$::index::hc9fbb19a77e045f9
42002660     2660        0     1                 
42002662     2662        0     1                 
42002670     2670        0     1                 
42002676     2676        0     1                 
4200268a     268a        0     1                 
4200269a     269a        0     1                 
420026a4     26a4        0     1                 
420026a4     26a4        0     1                 
420026a4     26a4        0     1                 
420026a4     26a4        a     2         /Users/mabez/Development/rust/embedded/experiments/esp32c3-experiments/target/riscv32imac-unknown-none-elf/debug/deps/librtt_target-c8a503ffaa8773f6.rlib(rtt_target-c8a503ffaa8773f6.rtt_target.49ad93cd-cgu.3.rcgu.o):(.text._ZN97_$LT$core..ops..range..RangeFull$u20$as$u20$core..slice..index..SliceIndex$LT$$u5b$T$u5d$$GT$$GT$9index_mut17h116b78c7df147307E)
420026a4     26a4        0     1                 
420026a4     26a4        0     1                 
420026a4     26a4        0     1                 
420026a4     26a4        a     1                 _$LT$core..ops..range..RangeFull$u20$as$u20$core..slice..index..SliceIndex$LT$$u5b$T$u5d$$GT$$GT$::index_mut::h116b78c7df147307
420026a6     26a6        0     1                 
420026aa     26aa        0     1                 
420026ae     26ae        0     1                 
420026ae     26ae        0     1                 
420026ae     26ae        0     1                 
420026ae     26ae       12     2         /Users/mabez/Development/rust/embedded/experiments/esp32c3-experiments/target/riscv32imac-unknown-none-elf/debug/deps/librtt_target-c8a503ffaa8773f6.rlib(rtt_target-c8a503ffaa8773f6.rtt_target.49ad93cd-cgu.13.rcgu.o):(.text._ZN4core3ptr8metadata14from_raw_parts17hf887f4f5d5fdfcd3E)
420026ae     26ae        0     1                 
420026ae     26ae        0     1                 
420026ae     26ae        0     1                 
420026ae     26ae       12     1                 core::ptr::metadata::from_raw_parts::hf887f4f5d5fdfcd3
420026b0     26b0        0     1                 
420026b4     26b4        0     1                 
420026b8     26b8        0     1                 
420026bc     26bc        0     1                 
420026c0     26c0        0     1                 
420026c0     26c0        0     1                 
420026c0     26c0        0     1                 
420026c0     26c0       12     2         /Users/mabez/Development/rust/embedded/experiments/esp32c3-experiments/target/riscv32imac-unknown-none-elf/debug/deps/librtt_target-c8a503ffaa8773f6.rlib(rtt_target-c8a503ffaa8773f6.rtt_target.49ad93cd-cgu.13.rcgu.o):(.text._ZN4core3ptr8metadata18from_raw_parts_mut17hd68e77b79efc8956E)
420026c0     26c0        0     1                 
420026c0     26c0        0     1                 
420026c0     26c0        0     1                 
420026c0     26c0       12     1                 core::ptr::metadata::from_raw_parts_mut::hd68e77b79efc8956
420026c2     26c2        0     1                 
420026c6     26c6        0     1                 
420026ca     26ca        0     1                 
420026ce     26ce        0     1                 
420026d2     26d2        0     1                 
420026d2     26d2        0     1                 
420026d2     26d2        0     1                 
420026d2     26d2       14     2         /Users/mabez/Development/rust/embedded/experiments/esp32c3-experiments/target/riscv32imac-unknown-none-elf/debug/deps/librtt_target-c8a503ffaa8773f6.rlib(rtt_target-c8a503ffaa8773f6.rtt_target.49ad93cd-cgu.13.rcgu.o):(.text._ZN4core3ptr8metadata8metadata17h68a4b08078f7e918E)
420026d2     26d2        0     1                 
420026d2     26d2        0     1                 
420026d2     26d2        0     1                 
420026d2     26d2       14     1                 core::ptr::metadata::metadata::h68a4b08078f7e918
420026d4     26d4        0     1                 
420026de     26de        0     1                 
420026e2     26e2        0     1                 
420026e6     26e6        0     1                 
420026e6     26e6        0     1                 
420026e6     26e6        0     1                 
420026e6     26e6       2e     2         /Users/mabez/Development/rust/embedded/experiments/esp32c3-experiments/target/riscv32imac-unknown-none-elf/debug/deps/librtt_target-c8a503ffaa8773f6.rlib(rtt_target-c8a503ffaa8773f6.rtt_target.49ad93cd-cgu.4.rcgu.o):(.text._ZN4core4sync6atomic11AtomicUsize4load17h1e13e065478943fdE)
420026e6     26e6        0     1                 
420026e6     26e6        0     1                 
420026e6     26e6        0     1                 
420026e6     26e6       2e     1                 core::sync::atomic::AtomicUsize::load::h1e13e065478943fd
420026e8     26e8        0     1                 
420026ea     26ea        0     1                 
420026f4     26f4        0     1                 
420026fc     26fc        0     1                 
4200270c     270c        0     1                 
42002714     2714        0     1                 
42002714     2714        0     1                 
42002714     2714        0     1                 
42002714     2714       30     2         /Users/mabez/Development/rust/embedded/experiments/esp32c3-experiments/target/riscv32imac-unknown-none-elf/debug/deps/librtt_target-c8a503ffaa8773f6.rlib(rtt_target-c8a503ffaa8773f6.rtt_target.49ad93cd-cgu.4.rcgu.o):(.text._ZN4core4sync6atomic11AtomicUsize5store17hbe7f22278f6e8dc1E)
42002714     2714        0     1                 
42002714     2714        0     1                 
42002714     2714        0     1                 
42002714     2714       30     1                 core::sync::atomic::AtomicUsize::store::hbe7f22278f6e8dc1
42002716     2716        0     1                 
42002718     2718        0     1                 
42002726     2726        0     1                 
4200272e     272e        0     1                 
4200273e     273e        0     1                 
42002744     2744        0     1                 
42002744     2744        0     1                 
42002744     2744        0     1                 
42002744     2744       90     2         /Users/mabez/Development/rust/embedded/experiments/esp32c3-experiments/target/riscv32imac-unknown-none-elf/debug/deps/librtt_target-c8a503ffaa8773f6.rlib(rtt_target-c8a503ffaa8773f6.rtt_target.49ad93cd-cgu.4.rcgu.o):(.text._ZN4core4sync6atomic11atomic_load17h15e13fea84126722E)
42002744     2744        0     1                 
42002744     2744        0     1                 
42002744     2744        0     1                 
42002744     2744       90     1                 core::sync::atomic::atomic_load::h15e13fea84126722
42002746     2746        0     1                 
4200274e     274e        0     1                 
42002754     2754        0     1                 
42002766     2766        0     1                 
42002768     2768        0     1                 .LBB2_3
42002768     2768        0     1                 
42002770     2770        0     1                 .LBB2_4
42002770     2770        0     1                 
4200278e     278e        0     1                 .LBB2_5
4200278e     278e        0     1                 
4200279a     279a        0     1                 .LBB2_6
4200279a     279a        0     1                 
420027b8     27b8        0     1                 .LBB2_7
420027b8     27b8        0     1                 
420027c8     27c8        0     1                 
420027ca     27ca        0     1                 
420027d0     27d0        0     1                 
420027d2     27d2        0     1                 
420027d4     27d4        0     1                 
420027d4     27d4        0     1                 
420027d4     27d4        0     1                 
420027d4     27d4       90     2         /Users/mabez/Development/rust/embedded/experiments/esp32c3-experiments/target/riscv32imac-unknown-none-elf/debug/deps/librtt_target-c8a503ffaa8773f6.rlib(rtt_target-c8a503ffaa8773f6.rtt_target.49ad93cd-cgu.4.rcgu.o):(.text._ZN4core4sync6atomic11atomic_load17h744fbfbcb2d200afE)
420027d4     27d4        0     1                 
420027d4     27d4        0     1                 
420027d4     27d4        0     1                 
420027d4     27d4       90     1                 core::sync::atomic::atomic_load::h744fbfbcb2d200af
420027d6     27d6        0     1                 
420027de     27de        0     1                 
420027e4     27e4        0     1                 
420027f6     27f6        0     1                 
420027f8     27f8        0     1                 .LBB3_3
420027f8     27f8        0     1                 
42002800     2800        0     1                 .LBB3_4
42002800     2800        0     1                 
4200281e     281e        0     1                 .LBB3_5
4200281e     281e        0     1                 
4200282a     282a        0     1                 .LBB3_6
4200282a     282a        0     1                 
42002848     2848        0     1                 .LBB3_7
42002848     2848        0     1                 
42002858     2858        0     1                 
4200285a     285a        0     1                 
42002860     2860        0     1                 
42002862     2862        0     1                 
42002864     2864        0     1                 
42002864     2864        0     1                 
42002864     2864        0     1                 
42002864     2864       8e     2         /Users/mabez/Development/rust/embedded/experiments/esp32c3-experiments/target/riscv32imac-unknown-none-elf/debug/deps/librtt_target-c8a503ffaa8773f6.rlib(rtt_target-c8a503ffaa8773f6.rtt_target.49ad93cd-cgu.4.rcgu.o):(.text._ZN4core4sync6atomic12atomic_store17h10bf4cd654dacc0bE)
42002864     2864        0     1                 
42002864     2864        0     1                 
42002864     2864        0     1                 
42002864     2864       8e     1                 core::sync::atomic::atomic_store::h10bf4cd654dacc0b
42002866     2866        0     1                 
42002872     2872        0     1                 
42002878     2878        0     1                 
4200288a     288a        0     1                 
4200288c     288c        0     1                 .LBB4_3
4200288c     288c        0     1                 
42002894     2894        0     1                 .LBB4_4
42002894     2894        0     1                 
420028a0     28a0        0     1                 .LBB4_5
420028a0     28a0        0     1                 
420028be     28be        0     1                 .LBB4_6
420028be     28be        0     1                 
420028dc     28dc        0     1                 .LBB4_7
420028dc     28dc        0     1                 
420028e8     28e8        0     1                 
420028ea     28ea        0     1                 
420028ee     28ee        0     1                 
420028f0     28f0        0     1                 
420028f2     28f2        0     1                 
420028f2     28f2        0     1                 
420028f2     28f2        0     1                 
420028f2     28f2       8e     2         /Users/mabez/Development/rust/embedded/experiments/esp32c3-experiments/target/riscv32imac-unknown-none-elf/debug/deps/librtt_target-c8a503ffaa8773f6.rlib(rtt_target-c8a503ffaa8773f6.rtt_target.49ad93cd-cgu.4.rcgu.o):(.text._ZN4core4sync6atomic12atomic_store17hcfab5a99b92ee0c1E)
420028f2     28f2        0     1                 
420028f2     28f2        0     1                 
420028f2     28f2        0     1                 
420028f2     28f2       8e     1                 core::sync::atomic::atomic_store::hcfab5a99b92ee0c1
420028f4     28f4        0     1                 
42002900     2900        0     1                 
42002906     2906        0     1                 
42002918     2918        0     1                 
4200291a     291a        0     1                 .LBB5_3
4200291a     291a        0     1                 
42002922     2922        0     1                 .LBB5_4
42002922     2922        0     1                 
4200292e     292e        0     1                 .LBB5_5
4200292e     292e        0     1                 
4200294c     294c        0     1                 .LBB5_6
4200294c     294c        0     1                 
4200296a     296a        0     1                 .LBB5_7
4200296a     296a        0     1                 
42002976     2976        0     1                 
42002978     2978        0     1                 
4200297c     297c        0     1                 
4200297e     297e        0     1                 
42002980     2980        0     1                 
42002980     2980        0     1                 
42002980     2980        0     1                 
42002980     2980       2c     2         /Users/mabez/Development/rust/embedded/experiments/esp32c3-experiments/target/riscv32imac-unknown-none-elf/debug/deps/librtt_target-c8a503ffaa8773f6.rlib(rtt_target-c8a503ffaa8773f6.rtt_target.49ad93cd-cgu.4.rcgu.o):(.text._ZN4core4sync6atomic18AtomicPtr$LT$T$GT$4load17h7e355d845d87e31eE)
42002980     2980        0     1                 
42002980     2980        0     1                 
42002980     2980        0     1                 
42002980     2980       2c     1                 core::sync::atomic::AtomicPtr$LT$T$GT$::load::h7e355d845d87e31e
42002982     2982        0     1                 
42002984     2984        0     1                 
42002990     2990        0     1                 
42002994     2994        0     1                 
420029a4     29a4        0     1                 
420029ac     29ac        0     1                 
420029ac     29ac        0     1                 
420029ac     29ac        0     1                 
420029ac     29ac       2e     2         /Users/mabez/Development/rust/embedded/experiments/esp32c3-experiments/target/riscv32imac-unknown-none-elf/debug/deps/librtt_target-c8a503ffaa8773f6.rlib(rtt_target-c8a503ffaa8773f6.rtt_target.49ad93cd-cgu.4.rcgu.o):(.text._ZN4core4sync6atomic18AtomicPtr$LT$T$GT$5store17h1a42b5d97a75957aE)
420029ac     29ac        0     1                 
420029ac     29ac        0     1                 
420029ac     29ac        0     1                 
420029ac     29ac       2e     1                 core::sync::atomic::AtomicPtr$LT$T$GT$::store::h1a42b5d97a75957a
420029ae     29ae        0     1                 
420029b0     29b0        0     1                 
420029c0     29c0        0     1                 
420029c4     29c4        0     1                 
420029d4     29d4        0     1                 
420029da     29da        0     1                 
420029da     29da        0     1                 
420029da     29da        0     1                 
420029da     29da       5a     2         /Users/mabez/Development/rust/embedded/experiments/esp32c3-experiments/target/riscv32imac-unknown-none-elf/debug/deps/librtt_target-c8a503ffaa8773f6.rlib(rtt_target-c8a503ffaa8773f6.rtt_target.49ad93cd-cgu.4.rcgu.o):(.text._ZN4core4sync6atomic5fence17h3a9aa7dc25896a62E)
420029da     29da        0     1                 
420029da     29da        0     1                 
420029da     29da        0     1                 
420029da     29da       5a     1                 core::sync::atomic::fence::h3a9aa7dc25896a62
420029dc     29dc        0     1                 
420029e0     29e0        0     1                 
420029e6     29e6        0     1                 
420029f8     29f8        0     1                 
420029fa     29fa        0     1                 .LBB8_3
420029fa     29fa        0     1                 
42002a18     2a18        0     1                 .LBB8_4
42002a18     2a18        0     1                 
42002a1e     2a1e        0     1                 .LBB8_5
42002a1e     2a1e        0     1                 
42002a24     2a24        0     1                 .LBB8_6
42002a24     2a24        0     1                 
42002a2a     2a2a        0     1                 .LBB8_7
42002a2a     2a2a        0     1                 
42002a30     2a30        0     1                 
42002a34     2a34        0     1                 
42002a34     2a34        0     1                 
42002a34     2a34        0     1                 
42002a34     2a34       86     2         /Users/mabez/Development/rust/embedded/experiments/esp32c3-experiments/target/riscv32imac-unknown-none-elf/debug/deps/librtt_target-c8a503ffaa8773f6.rlib(rtt_target-c8a503ffaa8773f6.rtt_target.49ad93cd-cgu.5.rcgu.o):(.text._ZN10rtt_target5print10print_impl11with_writer17hdf045dc73caec4c3E)
42002a34     2a34       86     1                 rtt_target::print::print_impl::with_writer::hdf045dc73caec4c3
42002a34     2a34        0     1                 
42002a34     2a34        0     1                 
42002a34     2a34        0     1                 
42002a36     2a36        0     1                 
42002a38     2a38        0     1                 
42002a46     2a46        0     1                 
42002a4c     2a4c        0     1                 
42002a50     2a50        0     1                 
42002a68     2a68        0     1                 
42002a68     2a68        0     1                 
42002a76     2a76        0     1                 
42002a7a     2a7a        0     1                 
42002a80     2a80        0     1                 
42002a80     2a80        0     1                 
42002a8e     2a8e        0     1                 
42002a96     2a96        0     1                 
42002a96     2a96        0     1                 
42002a9a     2a9a        0     1                 
42002aa0     2aa0        0     1                 
42002aa0     2aa0        0     1                 
42002ab0     2ab0        0     1                 
42002ab0     2ab0        0     1                 
42002ab2     2ab2        0     1                 
42002ab2     2ab2        0     1                 
42002ab8     2ab8        0     1                 
42002aba     2aba        0     1                 
42002aba     2aba        0     1                 
42002aba     2aba        0     1                 
42002aba     2aba       86     2         /Users/mabez/Development/rust/embedded/experiments/esp32c3-experiments/target/riscv32imac-unknown-none-elf/debug/deps/librtt_target-c8a503ffaa8773f6.rlib(rtt_target-c8a503ffaa8773f6.rtt_target.49ad93cd-cgu.5.rcgu.o):(.text._ZN10rtt_target5print10print_impl11with_writer17hef91ec7bd4105961E)
42002aba     2aba       86     1                 rtt_target::print::print_impl::with_writer::hef91ec7bd4105961
42002aba     2aba        0     1                 
42002aba     2aba        0     1                 
42002aba     2aba        0     1                 
42002abc     2abc        0     1                 
42002abe     2abe        0     1                 
42002acc     2acc        0     1                 
42002ad2     2ad2        0     1                 
42002ad6     2ad6        0     1                 
42002aee     2aee        0     1                 
42002aee     2aee        0     1                 
42002afc     2afc        0     1                 
42002b00     2b00        0     1                 
42002b06     2b06        0     1                 
42002b06     2b06        0     1                 
42002b14     2b14        0     1                 
42002b1c     2b1c        0     1                 
42002b1c     2b1c        0     1                 
42002b20     2b20        0     1                 
42002b26     2b26        0     1                 
42002b26     2b26        0     1                 
42002b36     2b36        0     1                 
42002b36     2b36        0     1                 
42002b38     2b38        0     1                 
42002b38     2b38        0     1                 
42002b3e     2b3e        0     1                 
42002b40     2b40        0     1                 
42002b40     2b40        0     1                 
42002b40     2b40        0     1                 
42002b40     2b40       68     2         /Users/mabez/Development/rust/embedded/experiments/esp32c3-experiments/target/riscv32imac-unknown-none-elf/debug/deps/librtt_target-c8a503ffaa8773f6.rlib(rtt_target-c8a503ffaa8773f6.rtt_target.49ad93cd-cgu.5.rcgu.o):(.text._ZN10rtt_target5print10print_impl11with_writer28_$u7b$$u7b$closure$u7d$$u7d$17h324084f45b0d5455E)
42002b40     2b40        0     1                 
42002b40     2b40        0     1                 
42002b40     2b40        0     1                 
42002b40     2b40       68     1                 rtt_target::print::print_impl::with_writer::_$u7b$$u7b$closure$u7d$$u7d$::h324084f45b0d5455
42002b42     2b42        0     1                 
42002b44     2b44        0     1                 
42002b48     2b48        0     1                 
42002b4a     2b4a        0     1                 
42002b58     2b58        0     1                 
42002b58     2b58        0     1                 
42002b5a     2b5a        0     1                 
42002b66     2b66        0     1                 
42002b66     2b66        0     1                 
42002b6a     2b6a        0     1                 
42002b7c     2b7c        0     1                 
42002ba2     2ba2        0     1                 
42002ba2     2ba2        0     1                 
42002ba8     2ba8        0     1                 
42002ba8     2ba8        0     1                 
42002ba8     2ba8        0     1                 
42002ba8     2ba8       68     2         /Users/mabez/Development/rust/embedded/experiments/esp32c3-experiments/target/riscv32imac-unknown-none-elf/debug/deps/librtt_target-c8a503ffaa8773f6.rlib(rtt_target-c8a503ffaa8773f6.rtt_target.49ad93cd-cgu.5.rcgu.o):(.text._ZN10rtt_target5print10print_impl11with_writer28_$u7b$$u7b$closure$u7d$$u7d$17h5f56ba556043f6afE)
42002ba8     2ba8        0     1                 
42002ba8     2ba8        0     1                 
42002ba8     2ba8        0     1                 
42002ba8     2ba8       68     1                 rtt_target::print::print_impl::with_writer::_$u7b$$u7b$closure$u7d$$u7d$::h5f56ba556043f6af
42002baa     2baa        0     1                 
42002bac     2bac        0     1                 
42002bb0     2bb0        0     1                 
42002bb2     2bb2        0     1                 
42002bc0     2bc0        0     1                 
42002bc0     2bc0        0     1                 
42002bc2     2bc2        0     1                 
42002bce     2bce        0     1                 
42002bce     2bce        0     1                 
42002bd2     2bd2        0     1                 
42002be4     2be4        0     1                 
42002c0a     2c0a        0     1                 
42002c0a     2c0a        0     1                 
42002c10     2c10        0     1                 
42002c10     2c10        0     1                 
42002c10     2c10        0     1                 
42002c10     2c10       20     2         /Users/mabez/Development/rust/embedded/experiments/esp32c3-experiments/target/riscv32imac-unknown-none-elf/debug/deps/librtt_target-c8a503ffaa8773f6.rlib(rtt_target-c8a503ffaa8773f6.rtt_target.49ad93cd-cgu.5.rcgu.o):(.text._ZN10rtt_target5print10print_impl9write_str17hbecf8e41380ee023E)
42002c10     2c10        0     1                 
42002c10     2c10        0     1                 
42002c10     2c10        0     1                 
42002c10     2c10       20     1                 rtt_target::print::print_impl::write_str::hbecf8e41380ee023
42002c12     2c12        0     1                 
42002c14     2c14        0     1                 
42002c1e     2c1e        0     1                 
42002c20     2c20        0     1                 
42002c2a     2c2a        0     1                 
42002c30     2c30        0     1                 
42002c30     2c30        0     1                 
42002c30     2c30        0     1                 
42002c30     2c30       3c     2         /Users/mabez/Development/rust/embedded/experiments/esp32c3-experiments/target/riscv32imac-unknown-none-elf/debug/deps/librtt_target-c8a503ffaa8773f6.rlib(rtt_target-c8a503ffaa8773f6.rtt_target.49ad93cd-cgu.5.rcgu.o):(.text._ZN10rtt_target5print10print_impl9write_str28_$u7b$$u7b$closure$u7d$$u7d$17h34d055dd09558bb0E)
42002c30     2c30       3c     1                 rtt_target::print::print_impl::write_str::_$u7b$$u7b$closure$u7d$$u7d$::h34d055dd09558bb0
42002c30     2c30        0     1                 
42002c30     2c30        0     1                 
42002c30     2c30        0     1                 
42002c32     2c32        0     1                 
42002c32     2c32        0     1                 
42002c34     2c34        0     1                 
42002c36     2c36        0     1                 
42002c36     2c36        0     1                 
42002c3c     2c3c        0     1                 
42002c42     2c42        0     1                 
42002c5a     2c5a        0     1                 
42002c66     2c66        0     1                 
42002c6c     2c6c        0     1                 
42002c6c     2c6c        0     1                 
42002c6c     2c6c        0     1                 
42002c6c     2c6c       1a     2         /Users/mabez/Development/rust/embedded/experiments/esp32c3-experiments/target/riscv32imac-unknown-none-elf/debug/deps/librtt_target-c8a503ffaa8773f6.rlib(rtt_target-c8a503ffaa8773f6.rtt_target.49ad93cd-cgu.5.rcgu.o):(.text._ZN10rtt_target5print10print_impl9write_fmt17h520eb60d51e8325aE)
42002c6c     2c6c        0     1                 
42002c6c     2c6c        0     1                 
42002c6c     2c6c        0     1                 
42002c6c     2c6c       1a     1                 rtt_target::print::print_impl::write_fmt::h520eb60d51e8325a
42002c6e     2c6e        0     1                 
42002c70     2c70        0     1                 
42002c74     2c74        0     1                 
42002c76     2c76        0     1                 
42002c7e     2c7e        0     1                 
42002c80     2c80        0     1                 
42002c86     2c86        0     1                 
42002c86     2c86        0     1                 
42002c86     2c86        0     1                 
42002c86     2c86       52     2         /Users/mabez/Development/rust/embedded/experiments/esp32c3-experiments/target/riscv32imac-unknown-none-elf/debug/deps/librtt_target-c8a503ffaa8773f6.rlib(rtt_target-c8a503ffaa8773f6.rtt_target.49ad93cd-cgu.5.rcgu.o):(.text._ZN10rtt_target5print10print_impl9write_fmt28_$u7b$$u7b$closure$u7d$$u7d$17h5ce42f7c22a4a58cE)
42002c86     2c86       52     1                 rtt_target::print::print_impl::write_fmt::_$u7b$$u7b$closure$u7d$$u7d$::h5ce42f7c22a4a58c
42002c86     2c86        0     1                 
42002c86     2c86        0     1                 
42002c86     2c86        0     1                 
42002c88     2c88        0     1                 
42002c88     2c88        0     1                 
42002c8a     2c8a        0     1                 
42002c8c     2c8c        0     1                 
42002c8c     2c8c        0     1                 
42002c92     2c92        0     1                 
42002cae     2cae        0     1                 
42002cc6     2cc6        0     1                 
42002cd2     2cd2        0     1                 
42002cd8     2cd8        0     1                 
42002cd8     2cd8        0     1                 
42002cd8     2cd8        0     1                 
42002cd8     2cd8       22     2         /Users/mabez/Development/rust/embedded/experiments/esp32c3-experiments/target/riscv32imac-unknown-none-elf/debug/deps/librtt_target-c8a503ffaa8773f6.rlib(rtt_target-c8a503ffaa8773f6.rtt_target.49ad93cd-cgu.6.rcgu.o):(.text._ZN4core3fmt10ArgumentV13new17h9f6fcccbcf45ee41E)
42002cd8     2cd8        0     1                 
42002cd8     2cd8        0     1                 
42002cd8     2cd8        0     1                 
42002cd8     2cd8       22     1                 core::fmt::ArgumentV1::new::h9f6fcccbcf45ee41
42002cda     2cda        0     1                 
42002ce0     2ce0        0     1                 
42002ce6     2ce6        0     1                 
42002cee     2cee        0     1                 
42002cf6     2cf6        0     1                 
42002cfa     2cfa        0     1                 
42002cfa     2cfa        0     1                 
42002cfa     2cfa        0     1                 
42002cfa     2cfa       22     2         /Users/mabez/Development/rust/embedded/experiments/esp32c3-experiments/target/riscv32imac-unknown-none-elf/debug/deps/librtt_target-c8a503ffaa8773f6.rlib(rtt_target-c8a503ffaa8773f6.rtt_target.49ad93cd-cgu.6.rcgu.o):(.text._ZN4core3fmt10ArgumentV13new17hfa65ac173edad74bE)
42002cfa     2cfa        0     1                 
42002cfa     2cfa        0     1                 
42002cfa     2cfa        0     1                 
42002cfa     2cfa       22     1                 core::fmt::ArgumentV1::new::hfa65ac173edad74b
42002cfc     2cfc        0     1                 
42002d02     2d02        0     1                 
42002d08     2d08        0     1                 
42002d10     2d10        0     1                 
42002d18     2d18        0     1                 
42002d1c     2d1c        0     1                 
42002d1c     2d1c        0     1                 
42002d1c     2d1c        0     1                 
42002d1c     2d1c       7e     2         /Users/mabez/Development/rust/embedded/experiments/esp32c3-experiments/target/riscv32imac-unknown-none-elf/debug/deps/librtt_target-c8a503ffaa8773f6.rlib(rtt_target-c8a503ffaa8773f6.rtt_target.49ad93cd-cgu.6.rcgu.o):(.text._ZN4core3fmt9Arguments6new_v117h2dec65903aab6ea1E)
42002d1c     2d1c        0     1                 
42002d1c     2d1c        0     1                 
42002d1c     2d1c        0     1                 
42002d1c     2d1c       7e     1                 core::fmt::Arguments::new_v1::h2dec65903aab6ea1
42002d1e     2d1e        0     1                 
42002d30     2d30        0     1                 
42002d36     2d36        0     1                 
42002d3c     2d3c        0     1                 
42002d40     2d40        0     1                 
42002d46     2d46        0     1                 
42002d48     2d48        0     1                 
42002d5c     2d5c        0     1                 
42002d68     2d68        0     1                 
42002d6a     2d6a        0     1                 
42002d7a     2d7a        0     1                 
42002d7e     2d7e        0     1                 
42002d9a     2d9a        0     1                 
42002d9a     2d9a        0     1                 
42002d9a     2d9a        0     1                 
42002d9a     2d9a        e     2         /Users/mabez/Development/rust/embedded/experiments/esp32c3-experiments/target/riscv32imac-unknown-none-elf/debug/deps/librtt_target-c8a503ffaa8773f6.rlib(rtt_target-c8a503ffaa8773f6.rtt_target.49ad93cd-cgu.7.rcgu.o):(.text._ZN4core3ptr14write_volatile17h0db708f25bc89d0aE)
42002d9a     2d9a        0     1                 
42002d9a     2d9a        0     1                 
42002d9a     2d9a        0     1                 
42002d9a     2d9a        e     1                 core::ptr::write_volatile::h0db708f25bc89d0a
42002d9c     2d9c        0     1                 
42002da0     2da0        0     1                 
42002da4     2da4        0     1                 
42002da8     2da8        0     1                 
42002da8     2da8        0     1                 
42002da8     2da8        0     1                 
42002da8     2da8        e     2         /Users/mabez/Development/rust/embedded/experiments/esp32c3-experiments/target/riscv32imac-unknown-none-elf/debug/deps/librtt_target-c8a503ffaa8773f6.rlib(rtt_target-c8a503ffaa8773f6.rtt_target.49ad93cd-cgu.7.rcgu.o):(.text._ZN4core3ptr14write_volatile17h78da2fc4ee1ade53E)
42002da8     2da8        0     1                 
42002da8     2da8        0     1                 
42002da8     2da8        0     1                 
42002da8     2da8        e     1                 core::ptr::write_volatile::h78da2fc4ee1ade53
42002daa     2daa        0     1                 
42002dae     2dae        0     1                 
42002db2     2db2        0     1                 
42002db6     2db6        0     1                 
42002db6     2db6        0     1                 
42002db6     2db6        0     1                 
42002db6     2db6        e     2         /Users/mabez/Development/rust/embedded/experiments/esp32c3-experiments/target/riscv32imac-unknown-none-elf/debug/deps/librtt_target-c8a503ffaa8773f6.rlib(rtt_target-c8a503ffaa8773f6.rtt_target.49ad93cd-cgu.7.rcgu.o):(.text._ZN4core3ptr14write_volatile17hd373b93d2017379dE)
42002db6     2db6        0     1                 
42002db6     2db6        0     1                 
42002db6     2db6        0     1                 
42002db6     2db6        e     1                 core::ptr::write_volatile::hd373b93d2017379d
42002db8     2db8        0     1                 
42002dbc     2dbc        0     1                 
42002dc0     2dc0        0     1                 
42002dc4     2dc4        0     1                 
42002dc4     2dc4        0     1                 
42002dc4     2dc4        0     1                 
42002dc4     2dc4       32     2         /Users/mabez/Development/rust/embedded/experiments/esp32c3-experiments/target/riscv32imac-unknown-none-elf/debug/deps/librtt_target-c8a503ffaa8773f6.rlib(rtt_target-c8a503ffaa8773f6.rtt_target.49ad93cd-cgu.7.rcgu.o):(.text._ZN4core3ptr20slice_from_raw_parts17h997b98da260f8610E)
42002dc4     2dc4        0     1                 
42002dc4     2dc4        0     1                 
42002dc4     2dc4        0     1                 
42002dc4     2dc4       32     1                 core::ptr::slice_from_raw_parts::h997b98da260f8610
42002dc6     2dc6        0     1                 
42002dc8     2dc8        0     1                 
42002dce     2dce        0     1                 
42002dda     2dda        0     1                 
42002dec     2dec        0     1                 
42002df6     2df6        0     1                 
42002df6     2df6        0     1                 
42002df6     2df6        0     1                 
42002df6     2df6       2c     2         /Users/mabez/Development/rust/embedded/experiments/esp32c3-experiments/target/riscv32imac-unknown-none-elf/debug/deps/librtt_target-c8a503ffaa8773f6.rlib(rtt_target-c8a503ffaa8773f6.rtt_target.49ad93cd-cgu.7.rcgu.o):(.text._ZN4core3ptr24slice_from_raw_parts_mut17hbdd829d0575cdd4bE)
42002df6     2df6        0     1                 
42002df6     2df6        0     1                 
42002df6     2df6        0     1                 
42002df6     2df6       2c     1                 core::ptr::slice_from_raw_parts_mut::hbdd829d0575cdd4b
42002df8     2df8        0     1                 
42002dfa     2dfa        0     1                 
42002e02     2e02        0     1                 
42002e06     2e06        0     1                 
42002e18     2e18        0     1                 
42002e22     2e22        0     1                 
42002e22     2e22        0     1                 
42002e22     2e22        0     1                 
42002e22     2e22       1a     2         /Users/mabez/Development/rust/embedded/experiments/esp32c3-experiments/target/riscv32imac-unknown-none-elf/debug/deps/librtt_target-c8a503ffaa8773f6.rlib(rtt_target-c8a503ffaa8773f6.rtt_target.49ad93cd-cgu.7.rcgu.o):(.text._ZN4core3ptr5write17h045b1a12345c2cd2E)
42002e22     2e22        0     1                 
42002e22     2e22        0     1                 
42002e22     2e22        0     1                 
42002e22     2e22       1a     1                 core::ptr::write::h045b1a12345c2cd2
42002e24     2e24        0     1                 
42002e32     2e32        0     1                 
42002e38     2e38        0     1                 
42002e3c     2e3c        0     1                 
42002e3c     2e3c        0     1                 
42002e3c     2e3c        0     1                 
42002e3c     2e3c       46     2         /Users/mabez/Development/rust/embedded/experiments/esp32c3-experiments/target/riscv32imac-unknown-none-elf/debug/deps/librtt_target-c8a503ffaa8773f6.rlib(rtt_target-c8a503ffaa8773f6.rtt_target.49ad93cd-cgu.8.rcgu.o):(.text._ZN4core3cmp5impls50_$LT$impl$u20$core..cmp..Ord$u20$for$u20$usize$GT$3cmp17hc40970d0d2276629E)
42002e3c     2e3c       46     1                 core::cmp::impls::_$LT$impl$u20$core..cmp..Ord$u20$for$u20$usize$GT$::cmp::hc40970d0d2276629
42002e3c     2e3c        0     1                 
42002e3c     2e3c        0     1                 
42002e3c     2e3c        0     1                 
42002e3e     2e3e        0     1                 
42002e46     2e46        0     1                 
42002e48     2e48        0     1                 
42002e4a     2e4a        0     1                 
42002e50     2e50        0     1                 
42002e56     2e56        0     1                 
42002e58     2e58        0     1                 
42002e5e     2e5e        0     1                 
42002e62     2e62        0     1                 
42002e66     2e66        0     1                 
42002e68     2e68        0     1                 
42002e70     2e70        0     1                 
42002e72     2e72        0     1                 
42002e76     2e76        0     1                 
42002e78     2e78        0     1                 
42002e7a     2e7a        0     1                 
42002e7e     2e7e        0     1                 
42002e80     2e80        0     1                 
42002e82     2e82        0     1                 
42002e82     2e82        0     1                 
42002e82     2e82        0     1                 
42002e82     2e82       1c     2         /Users/mabez/Development/rust/embedded/experiments/esp32c3-experiments/target/riscv32imac-unknown-none-elf/debug/deps/librtt_target-c8a503ffaa8773f6.rlib(rtt_target-c8a503ffaa8773f6.rtt_target.49ad93cd-cgu.8.rcgu.o):(.text._ZN4core3ops8function6FnOnce9call_once17ha5652d584b70998bE)
42002e82     2e82        0     1                 
42002e82     2e82        0     1                 
42002e82     2e82        0     1                 
42002e82     2e82       1c     1                 core::ops::function::FnOnce::call_once::ha5652d584b70998b
42002e84     2e84        0     1                 
42002e86     2e86        0     1                 
42002e8c     2e8c        0     1                 
42002e9e     2e9e        0     1                 
42002e9e     2e9e        0     1                 
42002e9e     2e9e        0     1                 
42002e9e     2e9e       1c     2         /Users/mabez/Development/rust/embedded/experiments/esp32c3-experiments/target/riscv32imac-unknown-none-elf/debug/deps/librtt_target-c8a503ffaa8773f6.rlib(rtt_target-c8a503ffaa8773f6.rtt_target.49ad93cd-cgu.8.rcgu.o):(.text._ZN4core3ops8function6FnOnce9call_once17hb50f6ab8dab90edcE)
42002e9e     2e9e        0     1                 
42002e9e     2e9e        0     1                 
42002e9e     2e9e        0     1                 
42002e9e     2e9e       1c     1                 core::ops::function::FnOnce::call_once::hb50f6ab8dab90edc
42002ea0     2ea0        0     1                 
42002ea2     2ea2        0     1                 
42002ea8     2ea8        0     1                 
42002eba     2eba        0     1                 
42002eba     2eba        0     1                 
42002eba     2eba        0     1                 
42002eba     2eba       1c     2         /Users/mabez/Development/rust/embedded/experiments/esp32c3-experiments/target/riscv32imac-unknown-none-elf/debug/deps/librtt_target-c8a503ffaa8773f6.rlib(rtt_target-c8a503ffaa8773f6.rtt_target.49ad93cd-cgu.8.rcgu.o):(.text._ZN4core3ops8function6FnOnce9call_once17hc075c08353f449f6E)
42002eba     2eba        0     1                 
42002eba     2eba        0     1                 
42002eba     2eba        0     1                 
42002eba     2eba       1c     1                 core::ops::function::FnOnce::call_once::hc075c08353f449f6
42002ebc     2ebc        0     1                 
42002ebe     2ebe        0     1                 
42002ec4     2ec4        0     1                 
42002ed6     2ed6        0     1                 
42002ed6     2ed6        0     1                 
42002ed6     2ed6        0     1                 
42002ed6     2ed6       20     2         /Users/mabez/Development/rust/embedded/experiments/esp32c3-experiments/target/riscv32imac-unknown-none-elf/debug/deps/librtt_target-c8a503ffaa8773f6.rlib(rtt_target-c8a503ffaa8773f6.rtt_target.49ad93cd-cgu.8.rcgu.o):(.text._ZN4core3ops8function6FnOnce9call_once17hdd27ea3833cf0e7dE)
42002ed6     2ed6        0     1                 
42002ed6     2ed6        0     1                 
42002ed6     2ed6        0     1                 
42002ed6     2ed6       20     1                 core::ops::function::FnOnce::call_once::hdd27ea3833cf0e7d
42002ed8     2ed8        0     1                 
42002eda     2eda        0     1                 
42002ee4     2ee4        0     1                 
42002ef6     2ef6        0     1                 
42002ef6     2ef6        0     1                 
42002ef6     2ef6        0     1                 
42002ef6     2ef6       1c     2         /Users/mabez/Development/rust/embedded/experiments/esp32c3-experiments/target/riscv32imac-unknown-none-elf/debug/deps/librtt_target-c8a503ffaa8773f6.rlib(rtt_target-c8a503ffaa8773f6.rtt_target.49ad93cd-cgu.8.rcgu.o):(.text._ZN4core3ops8function6FnOnce9call_once17he72b085121f7b771E)
42002ef6     2ef6        0     1                 
42002ef6     2ef6        0     1                 
42002ef6     2ef6        0     1                 
42002ef6     2ef6       1c     1                 core::ops::function::FnOnce::call_once::he72b085121f7b771
42002ef8     2ef8        0     1                 
42002efa     2efa        0     1                 
42002efe     2efe        0     1                 
42002f12     2f12        0     1                 
42002f12     2f12        0     1                 
42002f12     2f12        0     1                 
42002f12     2f12       24     2         /Users/mabez/Development/rust/embedded/experiments/esp32c3-experiments/target/riscv32imac-unknown-none-elf/debug/deps/librtt_target-c8a503ffaa8773f6.rlib(rtt_target-c8a503ffaa8773f6.rtt_target.49ad93cd-cgu.8.rcgu.o):(.text._ZN4core3ptr47drop_in_place$LT$rtt_target..TerminalWriter$GT$17h042049e231865965E)
42002f12     2f12        0     1                 
42002f12     2f12        0     1                 
42002f12     2f12        0     1                 
42002f12     2f12       24     1                 core::ptr::drop_in_place$LT$rtt_target..TerminalWriter$GT$::h042049e231865965
42002f14     2f14        0     1                 
42002f16     2f16        0     1                 
42002f1a     2f1a        0     1                 
42002f36     2f36        0     1                 
42002f36     2f36        0     1                 
42002f36     2f36        0     1                 
42002f36     2f36       16     2         /Users/mabez/Development/rust/embedded/experiments/esp32c3-experiments/target/riscv32imac-unknown-none-elf/debug/deps/librtt_target-c8a503ffaa8773f6.rlib(rtt_target-c8a503ffaa8773f6.rtt_target.49ad93cd-cgu.8.rcgu.o):(.text._ZN4core3ptr47drop_in_place$LT$rtt_target..rtt..RttWriter$GT$17h0234b10e10fcaeffE)
42002f36     2f36        0     1                 
42002f36     2f36        0     1                 
42002f36     2f36        0     1                 
42002f36     2f36       16     1                 core::ptr::drop_in_place$LT$rtt_target..rtt..RttWriter$GT$::h0234b10e10fcaeff
42002f38     2f38        0     1                 
42002f3a     2f3a        0     1                 
42002f3c     2f3c        0     1                 
42002f4c     2f4c        0     1                 
42002f4c     2f4c        0     1                 
42002f4c     2f4c        0     1                 
42002f4c     2f4c        8     2         /Users/mabez/Development/rust/embedded/experiments/esp32c3-experiments/target/riscv32imac-unknown-none-elf/debug/deps/librtt_target-c8a503ffaa8773f6.rlib(rtt_target-c8a503ffaa8773f6.rtt_target.49ad93cd-cgu.8.rcgu.o):(.text._ZN4core3ptr59drop_in_place$LT$$RF$mut$u20$rtt_target..TerminalWriter$GT$17hc56d6be8c61ed4f9E)
42002f4c     2f4c        0     1                 
42002f4c     2f4c        0     1                 
42002f4c     2f4c        0     1                 
42002f4c     2f4c        8     1                 core::ptr::drop_in_place$LT$$RF$mut$u20$rtt_target..TerminalWriter$GT$::hc56d6be8c61ed4f9
42002f4e     2f4e        0     1                 
42002f50     2f50        0     1                 
42002f54     2f54        0     1                 
42002f54     2f54        0     1                 
42002f54     2f54        0     1                 
42002f54     2f54        8     2         /Users/mabez/Development/rust/embedded/experiments/esp32c3-experiments/target/riscv32imac-unknown-none-elf/debug/deps/librtt_target-c8a503ffaa8773f6.rlib(rtt_target-c8a503ffaa8773f6.rtt_target.49ad93cd-cgu.8.rcgu.o):(.text._ZN4core3ptr9const_ptr33_$LT$impl$u20$$BP$const$u20$T$GT$4cast17hcd47d756eeeb0356E)
42002f54     2f54        0     1                 
42002f54     2f54        0     1                 
42002f54     2f54        0     1                 
42002f54     2f54        8     1                 core::ptr::const_ptr::_$LT$impl$u20$$BP$const$u20$T$GT$::cast::hcd47d756eeeb0356
42002f56     2f56        0     1                 
42002f58     2f58        0     1                 
42002f5c     2f5c        0     1                 
42002f5c     2f5c        0     1                 
42002f5c     2f5c        0     1                 
42002f5c     2f5c       1c     2         /Users/mabez/Development/rust/embedded/experiments/esp32c3-experiments/target/riscv32imac-unknown-none-elf/debug/deps/librtt_target-c8a503ffaa8773f6.rlib(rtt_target-c8a503ffaa8773f6.rtt_target.49ad93cd-cgu.8.rcgu.o):(.text._ZN4core3ptr9const_ptr43_$LT$impl$u20$$BP$const$u20$$u5b$T$u5d$$GT$3len17ha529f2d4d3dda55cE)
42002f5c     2f5c        0     1                 
42002f5c     2f5c        0     1                 
42002f5c     2f5c        0     1                 
42002f5c     2f5c       1c     1                 core::ptr::const_ptr::_$LT$impl$u20$$BP$const$u20$$u5b$T$u5d$$GT$::len::ha529f2d4d3dda55c
42002f5e     2f5e        0     1                 
42002f60     2f60        0     1                 
42002f64     2f64        0     1                 
42002f70     2f70        0     1                 
42002f78     2f78        0     1                 
42002f78     2f78        0     1                 
42002f78     2f78        0     1                 
42002f78     2f78        a     2         /Users/mabez/Development/rust/embedded/experiments/esp32c3-experiments/target/riscv32imac-unknown-none-elf/debug/deps/librtt_target-c8a503ffaa8773f6.rlib(rtt_target-c8a503ffaa8773f6.rtt_target.49ad93cd-cgu.8.rcgu.o):(.text._ZN4core3ptr9const_ptr43_$LT$impl$u20$$BP$const$u20$$u5b$T$u5d$$GT$6as_ptr17hcb0dd603a879dfefE)
42002f78     2f78        0     1                 
42002f78     2f78        0     1                 
42002f78     2f78        0     1                 
42002f78     2f78        a     1                 core::ptr::const_ptr::_$LT$impl$u20$$BP$const$u20$$u5b$T$u5d$$GT$::as_ptr::hcb0dd603a879dfef
42002f7a     2f7a        0     1                 
42002f7e     2f7e        0     1                 
42002f82     2f82        0     1                 
42002f82     2f82        0     1                 
42002f82     2f82        0     1                 
42002f82     2f82       1c     2         /Users/mabez/Development/rust/embedded/experiments/esp32c3-experiments/target/riscv32imac-unknown-none-elf/debug/deps/librtt_target-c8a503ffaa8773f6.rlib(rtt_target-c8a503ffaa8773f6.rtt_target.49ad93cd-cgu.9.rcgu.o):(.text._ZN4core3cmp3Ord3min17hca0a08be01729b5dE)
42002f82     2f82        0     1                 
42002f82     2f82        0     1                 
42002f82     2f82        0     1                 
42002f82     2f82       1c     1                 core::cmp::Ord::min::hca0a08be01729b5d
42002f84     2f84        0     1                 
42002f86     2f86        0     1                 
42002f8a     2f8a        0     1                 
42002f96     2f96        0     1                 
42002f9e     2f9e        0     1                 
42002f9e     2f9e        0     1                 
42002f9e     2f9e        0     1                 
42002f9e     2f9e       1c     2         /Users/mabez/Development/rust/embedded/experiments/esp32c3-experiments/target/riscv32imac-unknown-none-elf/debug/deps/librtt_target-c8a503ffaa8773f6.rlib(rtt_target-c8a503ffaa8773f6.rtt_target.49ad93cd-cgu.9.rcgu.o):(.text._ZN4core3cmp3min17h516493f425f1b6f8E)
42002f9e     2f9e        0     1                 
42002f9e     2f9e        0     1                 
42002f9e     2f9e        0     1                 
42002f9e     2f9e       1c     1                 core::cmp::min::h516493f425f1b6f8
42002fa0     2fa0        0     1                 
42002fa2     2fa2        0     1                 
42002fa6     2fa6        0     1                 
42002fb2     2fb2        0     1                 
42002fba     2fba        0     1                 
42002fba     2fba        0     1                 
42002fba     2fba        0     1                 
42002fba     2fba       7e     2         /Users/mabez/Development/rust/embedded/experiments/esp32c3-experiments/target/riscv32imac-unknown-none-elf/debug/deps/librtt_target-c8a503ffaa8773f6.rlib(rtt_target-c8a503ffaa8773f6.rtt_target.49ad93cd-cgu.9.rcgu.o):(.text._ZN4core3cmp6min_by17ha51e28b330f8fd06E)
42002fba     2fba        0     1                 
42002fba     2fba        0     1                 
42002fba     2fba        0     1                 
42002fba     2fba       7e     1                 core::cmp::min_by::ha51e28b330f8fd06
42002fbc     2fbc        0     1                 
42002fbe     2fbe        0     1                 
42002fc4     2fc4        0     1                 
42002fe6     2fe6        0     1                 
42002ff6     2ff6        0     1                 
42002ff8     2ff8        0     1                 
42002ffa     2ffa        0     1                 
42003004     3004        0     1                 
42003006     3006        0     1                 
42003010     3010        0     1                 
4200302e     302e        0     1                 
42003036     3036        0     1                 
42003038     3038        0     1                 
42003038     3038        0     1                 
42003038     3038        0     1                 
42003038     3038       d2     2         /Users/mabez/Development/rust/embedded/experiments/esp32c3-experiments/target/riscv32imac-unknown-none-elf/debug/deps/libesp32c3_lib-9b353d7564fdb320.rlib(esp32c3_lib-9b353d7564fdb320.4sht8tb4vhhjrf1k.rcgu.o):(.text._ZN11esp32c3_lib10GpioOutput3new17hfb3acb668425de35E)
42003038     3038        0     1                 
42003038     3038        0     1                 
42003038     3038        0     1                 
42003038     3038       d2     1                 esp32c3_lib::GpioOutput::new::hfb3acb668425de35
4200303a     303a        0     1                 
4200303c     303c        0     1                 
42003048     3048        0     1                 
42003056     3056        0     1                 
42003060     3060        0     1                 
4200306a     306a        0     1                 
42003088     3088        0     1                 
4200308e     308e        0     1                 
4200308e     308e        0     1                 
420030a2     30a2        0     1                 
420030a2     30a2        0     1                 
420030be     30be        0     1                 
420030be     30be        0     1                 
420030d2     30d2        0     1                 
420030f0     30f0        0     1                 
42003100     3100        0     1                 
42003104     3104        0     1                 
42003104     3104        0     1                 
4200310a     310a        0     1                 
4200310a     310a        0     1                 
4200310a     310a        0     1                 
4200310a     310a       58     2         /Users/mabez/Development/rust/embedded/experiments/esp32c3-experiments/target/riscv32imac-unknown-none-elf/debug/deps/libesp32c3_lib-9b353d7564fdb320.rlib(esp32c3_lib-9b353d7564fdb320.4sht8tb4vhhjrf1k.rcgu.o):(.text._ZN80_$LT$esp32c3_lib..GpioOutput$u20$as$u20$embedded_hal..digital..v2..OutputPin$GT$7set_low17h2038dfb765efaf7aE)
4200310a     310a        0     1                 
4200310a     310a        0     1                 
4200310a     310a        0     1                 
4200310a     310a       58     1                 _$LT$esp32c3_lib..GpioOutput$u20$as$u20$embedded_hal..digital..v2..OutputPin$GT$::set_low::h2038dfb765efaf7a
4200310c     310c        0     1                 
4200310e     310e        0     1                 
42003110     3110        0     1                 
42003112     3112        0     1                 
42003126     3126        0     1                 
42003138     3138        0     1                 
42003156     3156        0     1                 
42003158     3158        0     1                 
4200315c     315c        0     1                 
42003162     3162        0     1                 
42003162     3162        0     1                 
42003162     3162        0     1                 
42003162     3162       58     2         /Users/mabez/Development/rust/embedded/experiments/esp32c3-experiments/target/riscv32imac-unknown-none-elf/debug/deps/libesp32c3_lib-9b353d7564fdb320.rlib(esp32c3_lib-9b353d7564fdb320.4sht8tb4vhhjrf1k.rcgu.o):(.text._ZN80_$LT$esp32c3_lib..GpioOutput$u20$as$u20$embedded_hal..digital..v2..OutputPin$GT$8set_high17hc9d004fe89d8dcc0E)
42003162     3162        0     1                 
42003162     3162        0     1                 
42003162     3162        0     1                 
42003162     3162       58     1                 _$LT$esp32c3_lib..GpioOutput$u20$as$u20$embedded_hal..digital..v2..OutputPin$GT$::set_high::hc9d004fe89d8dcc0
42003164     3164        0     1                 
42003166     3166        0     1                 
42003168     3168        0     1                 
4200316a     316a        0     1                 
4200317e     317e        0     1                 
42003190     3190        0     1                 
420031ae     31ae        0     1                 
420031b0     31b0        0     1                 
420031b4     31b4        0     1                 
420031ba     31ba        0     1                 
420031ba     31ba        0     1                 
420031ba     31ba        0     1                 
420031ba     31ba        a     2         /Users/mabez/Development/rust/embedded/experiments/esp32c3-experiments/target/riscv32imac-unknown-none-elf/debug/deps/libesp32c3_lib-9b353d7564fdb320.rlib(esp32c3_lib-9b353d7564fdb320.4sht8tb4vhhjrf1k.rcgu.o):(.text._ZN11esp32c3_lib8EtsTimer3new17hfe2bbd562c5e2d3eE)
420031ba     31ba        0     1                 
420031ba     31ba        0     1                 
420031ba     31ba        0     1                 
420031ba     31ba        a     1                 esp32c3_lib::EtsTimer::new::hfe2bbd562c5e2d3e
420031bc     31bc        0     1                 
420031be     31be        0     1                 
420031c0     31c0        0     1                 
420031c4     31c4        0     1                 
420031c4     31c4        0     1                 
420031c4     31c4        0     1                 
420031c4     31c4       1e     2         /Users/mabez/Development/rust/embedded/experiments/esp32c3-experiments/target/riscv32imac-unknown-none-elf/debug/deps/libesp32c3_lib-9b353d7564fdb320.rlib(esp32c3_lib-9b353d7564fdb320.4sht8tb4vhhjrf1k.rcgu.o):(.text._ZN72_$LT$esp32c3_lib..EtsTimer$u20$as$u20$embedded_hal..timer..CountDown$GT$4wait17h2f7c6bd910c0b24fE)
420031c4     31c4        0     1                 
420031c4     31c4        0     1                 
420031c4     31c4        0     1                 
420031c4     31c4       1e     1                 _$LT$esp32c3_lib..EtsTimer$u20$as$u20$embedded_hal..timer..CountDown$GT$::wait::h2f7c6bd910c0b24f
420031c6     31c6        0     1                 
420031c8     31c8        0     1                 
420031ca     31ca        0     1                 
420031cc     31cc        0     1                 
420031d6     31d6        0     1                 
420031d8     31d8        0     1                 
420031dc     31dc        0     1                 
420031e2     31e2        0     1                 
420031e2     31e2        0     1                 
420031e2     31e2        0     1                 
420031e2     31e2       78     2         /Users/mabez/Development/rust/embedded/experiments/esp32c3-experiments/target/riscv32imac-unknown-none-elf/debug/deps/libesp32c3_lib-9b353d7564fdb320.rlib(esp32c3_lib-9b353d7564fdb320.4sht8tb4vhhjrf1k.rcgu.o):(.text._ZN54_$LT$esp32c3_lib..Uart$u20$as$u20$core..fmt..Write$GT$9write_str17h7e63b887f5c13509E)
420031e2     31e2        0     1                 
420031e2     31e2        0     1                 
420031e2     31e2        0     1                 
420031e2     31e2       78     1                 _$LT$esp32c3_lib..Uart$u20$as$u20$core..fmt..Write$GT$::write_str::h7e63b887f5c13509
420031e4     31e4        0     1                 
420031e6     31e6        0     1                 
420031f0     31f0        0     1                 
420031f0     31f0        0     1                 
420031f4     31f4        0     1                 
420031f4     31f4        0     1                 
42003214     3214        0     1                 
42003214     3214        0     1                 
42003216     3216        0     1                 
42003218     3218        0     1                 
42003218     3218        0     1                 
42003236     3236        0     1                 
42003236     3236        0     1                 
42003238     3238        0     1                 
4200323c     323c        0     1                 
42003242     3242        0     1                 
42003242     3242        0     1                 
42003246     3246        0     1                 
42003246     3246        0     1                 
42003248     3248        0     1                 
42003248     3248        0     1                 
42003250     3250        0     1                 
42003250     3250        0     1                 
4200325a     325a        0     1                 
4200325a     325a        0     1                 
4200325a     325a        0     1                 
4200325a     325a        0     1                 
4200325a     325a      12c     2         /Users/mabez/Development/rust/embedded/experiments/esp32c3-experiments/target/riscv32imac-unknown-none-elf/debug/deps/libesp32c3_lib-9b353d7564fdb320.rlib(esp32c3_lib-9b353d7564fdb320.4sht8tb4vhhjrf1k.rcgu.o):(.text._ZN11esp32c3_lib12disable_wdts17h8b0d272cff1a92a2E)
4200325a     325a        0     1                 
4200325a     325a        0     1                 
4200325a     325a        0     1                 
4200325a     325a      12c     1                 esp32c3_lib::disable_wdts::h8b0d272cff1a92a2
4200325c     325c        0     1                 
4200325e     325e        0     1                 
4200326e     326e        0     1                 
42003278     3278        0     1                 
42003280     3280        0     1                 
4200328c     328c        0     1                 
42003292     3292        0     1                 
4200329c     329c        0     1                 
420032a6     32a6        0     1                 
420032b0     32b0        0     1                 
420032ba     32ba        0     1                 
420032ca     32ca        0     1                 
420032d4     32d4        0     1                 
420032de     32de        0     1                 
420032e8     32e8        0     1                 
420032f2     32f2        0     1                 
420032fc     32fc        0     1                 
4200330c     330c        0     1                 
42003316     3316        0     1                 
42003320     3320        0     1                 
4200332a     332a        0     1                 
42003334     3334        0     1                 
4200333e     333e        0     1                 
4200334e     334e        0     1                 
42003358     3358        0     1                 
42003362     3362        0     1                 
4200336c     336c        0     1                 
42003376     3376        0     1                 
42003380     3380        0     1                 
42003386     3386        0     1                 
42003386     3386        0     1                 
42003386     3386        0     1                 
42003386     3386       12     2         /Users/mabez/Development/rust/embedded/experiments/esp32c3-experiments/target/riscv32imac-unknown-none-elf/debug/deps/libesp32c3_lib-9b353d7564fdb320.rlib(esp32c3_lib-9b353d7564fdb320.5etuwwf3di4agecu.rcgu.o):(.text._ZN4core3ptr13read_volatile17hf945a439e2e0fc40E)
42003386     3386        0     1                 
42003386     3386        0     1                 
42003386     3386        0     1                 
42003386     3386       12     1                 core::ptr::read_volatile::hf945a439e2e0fc40
42003388     3388        0     1                 
4200338a     338a        0     1                 
42003392     3392        0     1                 
42003398     3398        0     1                 
42003398     3398        0     1                 
42003398     3398        0     1                 
42003398     3398        e     2         /Users/mabez/Development/rust/embedded/experiments/esp32c3-experiments/target/riscv32imac-unknown-none-elf/debug/deps/libesp32c3_lib-9b353d7564fdb320.rlib(esp32c3_lib-9b353d7564fdb320.5etuwwf3di4agecu.rcgu.o):(.text._ZN4core3ptr14write_volatile17hac9ee647cc04f4afE)
42003398     3398        0     1                 
42003398     3398        0     1                 
42003398     3398        0     1                 
42003398     3398        e     1                 core::ptr::write_volatile::hac9ee647cc04f4af
4200339a     339a        0     1                 
4200339e     339e        0     1                 
420033a2     33a2        0     1                 
420033a6     33a6        0     1                 
420033a6     33a6        0     1                 
420033a6     33a6        0     1                 
420033a6     33a6        e     2         /Users/mabez/Development/rust/embedded/experiments/esp32c3-experiments/target/riscv32imac-unknown-none-elf/debug/deps/libesp32c3_lib-9b353d7564fdb320.rlib(esp32c3_lib-9b353d7564fdb320.5etuwwf3di4agecu.rcgu.o):(.text._ZN4core3ptr14write_volatile17hbfccbaf91e2967c8E)
420033a6     33a6        0     1                 
420033a6     33a6        0     1                 
420033a6     33a6        0     1                 
420033a6     33a6        e     1                 core::ptr::write_volatile::hbfccbaf91e2967c8
420033a8     33a8        0     1                 
420033ac     33ac        0     1                 
420033b0     33b0        0     1                 
420033b4     33b4        0     1                 
420033b4     33b4        0     1                 
420033b4     33b4        0     1                 
420033b4     33b4       80     2         /Users/mabez/Development/rust/embedded/experiments/esp32c3-experiments/target/riscv32imac-unknown-none-elf/debug/deps/libesp32c3_lib-9b353d7564fdb320.rlib(esp32c3_lib-9b353d7564fdb320.l5295fvly9urzze.rcgu.o):(.text._ZN4core5slice4iter13Iter$LT$T$GT$3new17h1d52029f5718833dE)
420033b4     33b4        0     1                 
420033b4     33b4        0     1                 
420033b4     33b4        0     1                 
420033b4     33b4       80     1                 core::slice::iter::Iter$LT$T$GT$::new::h1d52029f5718833d
420033b6     33b6        0     1                 
420033b8     33b8        0     1                 
420033be     33be        0     1                 
420033ce     33ce        0     1                 
420033ce     33ce        0     1                 
420033da     33da        0     1                 
420033dc     33dc        0     1                 
420033de     33de        0     1                 
420033e2     33e2        0     1                 
420033e8     33e8        0     1                 
420033f4     33f4        0     1                 
420033f4     33f4        0     1                 
420033fa     33fa        0     1                 
420033fa     33fa        0     1                 
420033fc     33fc        0     1                 
42003408     3408        0     1                 
42003408     3408        0     1                 
4200340c     340c        0     1                 
4200340c     340c        0     1                 
42003410     3410        0     1                 
42003412     3412        0     1                 
42003412     3412        0     1                 
42003420     3420        0     1                 
42003420     3420        0     1                 
42003424     3424        0     1                 
42003426     3426        0     1                 
42003426     3426        0     1                 
4200342a     342a        0     1                 
4200342e     342e        0     1                 
4200342e     342e        0     1                 
42003434     3434        0     1                 
42003434     3434        0     1                 
42003434     3434        0     1                 
42003434     3434       20     2         /Users/mabez/Development/rust/embedded/experiments/esp32c3-experiments/target/riscv32imac-unknown-none-elf/debug/deps/libesp32c3_lib-9b353d7564fdb320.rlib(esp32c3_lib-9b353d7564fdb320.l5295fvly9urzze.rcgu.o):(.text._ZN4core5slice4iter87_$LT$impl$u20$core..iter..traits..collect..IntoIterator$u20$for$u20$$RF$$u5b$T$u5d$$GT$9into_iter17hba7336e61685f9efE)
42003434     3434        0     1                 
42003434     3434        0     1                 
42003434     3434        0     1                 
42003434     3434       20     1                 core::slice::iter::_$LT$impl$u20$core..iter..traits..collect..IntoIterator$u20$for$u20$$RF$$u5b$T$u5d$$GT$::into_iter::hba7336e61685f9ef
42003436     3436        0     1                 
42003438     3438        0     1                 
4200343c     343c        0     1                 
4200344a     344a        0     1                 
42003454     3454        0     1                 
42003454     3454        0     1                 
42003454     3454        0     1                 
42003454     3454       ba     2         /Users/mabez/Development/rust/embedded/experiments/esp32c3-experiments/target/riscv32imac-unknown-none-elf/debug/deps/libesp32c3_lib-9b353d7564fdb320.rlib(esp32c3_lib-9b353d7564fdb320.l5295fvly9urzze.rcgu.o):(.text._ZN91_$LT$core..slice..iter..Iter$LT$T$GT$$u20$as$u20$core..iter..traits..iterator..Iterator$GT$4next17h029e0cac89b1ef61E)
42003454     3454        0     1                 
42003454     3454        0     1                 
42003454     3454        0     1                 
42003454     3454       ba     1                 _$LT$core..slice..iter..Iter$LT$T$GT$$u20$as$u20$core..iter..traits..iterator..Iterator$GT$::next::h029e0cac89b1ef61
42003456     3456        0     1                 
42003458     3458        0     1                 
4200345c     345c        0     1                 
42003476     3476        0     1                 
42003478     3478        0     1                 
4200347a     347a        0     1                 
4200347e     347e        0     1                 
42003484     3484        0     1                 
42003486     3486        0     1                 
42003494     3494        0     1                 
42003496     3496        0     1                 
42003498     3498        0     1                 
420034b4     34b4        0     1                 
420034be     34be        0     1                 
420034be     34be        0     1                 
420034d0     34d0        0     1                 
420034d0     34d0        0     1                 
420034e0     34e0        0     1                 
420034e0     34e0        0     1                 
420034e4     34e4        0     1                 
420034e4     34e4        0     1                 
420034f0     34f0        0     1                 
420034f4     34f4        0     1                 
420034f6     34f6        0     1                 
420034f6     34f6        0     1                 
420034fa     34fa        0     1                 
420034fc     34fc        0     1                 
420034fe     34fe        0     1                 
42003500     3500        0     1                 
42003508     3508        0     1                 
4200350c     350c        0     1                 
4200350e     350e        0     1                 
4200350e     350e        0     1                 
4200350e     350e        0     1                 
4200350e     350e       20     2         /Users/mabez/Development/rust/embedded/experiments/esp32c3-experiments/target/riscv32imac-unknown-none-elf/debug/deps/libesp32c3_lib-9b353d7564fdb320.rlib(esp32c3_lib-9b353d7564fdb320.1021wqjltvlv5j9j.rcgu.o):(.text._ZN4core5slice29_$LT$impl$u20$$u5b$T$u5d$$GT$4iter17h27fd50023efeb8e2E)
4200350e     350e        0     1                 
4200350e     350e        0     1                 
4200350e     350e        0     1                 
4200350e     350e       20     1                 core::slice::_$LT$impl$u20$$u5b$T$u5d$$GT$::iter::h27fd50023efeb8e2
42003510     3510        0     1                 
42003512     3512        0     1                 
42003516     3516        0     1                 
42003524     3524        0     1                 
4200352e     352e        0     1                 
4200352e     352e        0     1                 
4200352e     352e        0     1                 
4200352e     352e        a     2         /Users/mabez/Development/rust/embedded/experiments/esp32c3-experiments/target/riscv32imac-unknown-none-elf/debug/deps/libesp32c3_lib-9b353d7564fdb320.rlib(esp32c3_lib-9b353d7564fdb320.1021wqjltvlv5j9j.rcgu.o):(.text._ZN4core5slice29_$LT$impl$u20$$u5b$T$u5d$$GT$6as_ptr17hdfbbc2cfbea9bf5fE)
4200352e     352e        0     1                 
4200352e     352e        0     1                 
4200352e     352e        0     1                 
4200352e     352e        a     1                 core::slice::_$LT$impl$u20$$u5b$T$u5d$$GT$::as_ptr::hdfbbc2cfbea9bf5f
42003530     3530        0     1                 
42003534     3534        0     1                 
42003538     3538        0     1                 
42003538     3538        0     1                 
42003538     3538        0     1                 
42003538     3538       1a     2         /Users/mabez/Development/rust/embedded/experiments/esp32c3-experiments/target/riscv32imac-unknown-none-elf/debug/deps/libesp32c3_lib-9b353d7564fdb320.rlib(esp32c3_lib-9b353d7564fdb320.4egfjjip1nd9anee.rcgu.o):(.text._ZN4core3ptr9const_ptr33_$LT$impl$u20$$BP$const$u20$T$GT$13guaranteed_eq17h07fa4d226d6c6184E)
42003538     3538        0     1                 
42003538     3538        0     1                 
42003538     3538        0     1                 
42003538     3538       1a     1                 core::ptr::const_ptr::_$LT$impl$u20$$BP$const$u20$T$GT$::guaranteed_eq::h07fa4d226d6c6184
4200353a     353a        0     1                 
4200353e     353e        0     1                 
4200354c     354c        0     1                 
42003552     3552        0     1                 
42003552     3552        0     1                 
42003552     3552        0     1                 
42003552     3552       22     2         /Users/mabez/Development/rust/embedded/experiments/esp32c3-experiments/target/riscv32imac-unknown-none-elf/debug/deps/libesp32c3_lib-9b353d7564fdb320.rlib(esp32c3_lib-9b353d7564fdb320.4egfjjip1nd9anee.rcgu.o):(.text._ZN4core3ptr9const_ptr33_$LT$impl$u20$$BP$const$u20$T$GT$7is_null17h07fcce38aa0cc43bE)
42003552     3552        0     1                 
42003552     3552        0     1                 
42003552     3552        0     1                 
42003552     3552       22     1                 core::ptr::const_ptr::_$LT$impl$u20$$BP$const$u20$T$GT$::is_null::h07fcce38aa0cc43b
42003554     3554        0     1                 
42003556     3556        0     1                 
4200355a     355a        0     1                 
4200355c     355c        0     1                 
4200356c     356c        0     1                 
42003574     3574        0     1                 
42003574     3574        0     1                 
42003574     3574        0     1                 
42003574     3574        a     2         /Users/mabez/Development/rust/embedded/experiments/esp32c3-experiments/target/riscv32imac-unknown-none-elf/debug/deps/libesp32c3_lib-9b353d7564fdb320.rlib(esp32c3_lib-9b353d7564fdb320.32gpmocjzndmv0ky.rcgu.o):(.text._ZN4core3ptr8non_null16NonNull$LT$T$GT$13new_unchecked17h992bee0c21dbe48dE)
42003574     3574        0     1                 
42003574     3574        0     1                 
42003574     3574        0     1                 
42003574     3574        a     1                 core::ptr::non_null::NonNull$LT$T$GT$::new_unchecked::h992bee0c21dbe48d
42003576     3576        0     1                 
42003578     3578        0     1                 
4200357a     357a        0     1                 
4200357e     357e        0     1                 
4200357e     357e        0     1                 
4200357e     357e        0     1                 
4200357e     357e        8     2         /Users/mabez/Development/rust/embedded/experiments/esp32c3-experiments/target/riscv32imac-unknown-none-elf/debug/deps/libesp32c3_lib-9b353d7564fdb320.rlib(esp32c3_lib-9b353d7564fdb320.32gpmocjzndmv0ky.rcgu.o):(.text._ZN4core3ptr8non_null16NonNull$LT$T$GT$6as_ptr17h25d7745bc32f27b8E)
4200357e     357e        0     1                 
4200357e     357e        0     1                 
4200357e     357e        0     1                 
4200357e     357e        8     1                 core::ptr::non_null::NonNull$LT$T$GT$::as_ptr::h25d7745bc32f27b8
42003580     3580        0     1                 
42003582     3582        0     1                 
42003586     3586        0     1                 
42003586     3586        0     1                 
42003586     3586        0     1                 
42003586     3586       1a     2         /Users/mabez/Development/rust/embedded/experiments/esp32c3-experiments/target/riscv32imac-unknown-none-elf/debug/deps/libesp32c3_lib-9b353d7564fdb320.rlib(esp32c3_lib-9b353d7564fdb320.47yjv4rnqkji4yx9.rcgu.o):(.text._ZN4core3ptr7mut_ptr31_$LT$impl$u20$$BP$mut$u20$T$GT$13guaranteed_eq17h567d7283c7c8d3bfE)
42003586     3586        0     1                 
42003586     3586        0     1                 
42003586     3586        0     1                 
42003586     3586       1a     1                 core::ptr::mut_ptr::_$LT$impl$u20$$BP$mut$u20$T$GT$::guaranteed_eq::h567d7283c7c8d3bf
42003588     3588        0     1                 
4200358c     358c        0     1                 
4200359a     359a        0     1                 
420035a0     35a0        0     1                 
420035a0     35a0        0     1                 
420035a0     35a0        0     1                 
420035a0     35a0       22     2         /Users/mabez/Development/rust/embedded/experiments/esp32c3-experiments/target/riscv32imac-unknown-none-elf/debug/deps/libesp32c3_lib-9b353d7564fdb320.rlib(esp32c3_lib-9b353d7564fdb320.47yjv4rnqkji4yx9.rcgu.o):(.text._ZN4core3ptr7mut_ptr31_$LT$impl$u20$$BP$mut$u20$T$GT$7is_null17ha361c957a0f0159bE)
420035a0     35a0        0     1                 
420035a0     35a0        0     1                 
420035a0     35a0        0     1                 
420035a0     35a0       22     1                 core::ptr::mut_ptr::_$LT$impl$u20$$BP$mut$u20$T$GT$::is_null::ha361c957a0f0159b
420035a2     35a2        0     1                 
420035a4     35a4        0     1                 
420035a8     35a8        0     1                 
420035aa     35aa        0     1                 
420035ba     35ba        0     1                 
420035c2     35c2        0     1                 
420035c2     35c2        0     1                 
420035c2     35c2        0     1                 
420035c2     35c2        6     1         /Users/mabez/Development/rust/embedded/experiments/esp32c3-experiments/target/riscv32imac-unknown-none-elf/debug/deps/libriscv-58bee4c49f9f92ec.rlib(riscv.o):(.text.__wfi)
420035c2     35c2        0     1                 __wfi
420035c8     35c8        6     1         /Users/mabez/Development/rust/embedded/experiments/esp32c3-experiments/target/riscv32imac-unknown-none-elf/debug/deps/libriscv-58bee4c49f9f92ec.rlib(riscv.o):(.text.__read_mhartid)
420035c8     35c8        0     1                 __read_mhartid
420035ce     35ce        6     1         /Users/mabez/Development/rust/embedded/experiments/esp32c3-experiments/target/riscv32imac-unknown-none-elf/debug/deps/libriscv-58bee4c49f9f92ec.rlib(riscv.o):(.text.__read_mstatus)
420035ce     35ce        0     1                 __read_mstatus
420035d4     35d4        6     1         /Users/mabez/Development/rust/embedded/experiments/esp32c3-experiments/target/riscv32imac-unknown-none-elf/debug/deps/libriscv-58bee4c49f9f92ec.rlib(riscv.o):(.text.__set_mstatus)
420035d4     35d4        0     1                 __set_mstatus
420035da     35da        6     1         /Users/mabez/Development/rust/embedded/experiments/esp32c3-experiments/target/riscv32imac-unknown-none-elf/debug/deps/libriscv-58bee4c49f9f92ec.rlib(riscv.o):(.text.__clear_mstatus)
420035da     35da        0     1                 __clear_mstatus
420035e0     35e0        6     1         /Users/mabez/Development/rust/embedded/experiments/esp32c3-experiments/target/riscv32imac-unknown-none-elf/debug/deps/libriscv-58bee4c49f9f92ec.rlib(riscv.o):(.text.__read_mepc)
420035e0     35e0        0     1                 __read_mepc
420035e6     35e6        6     1         /Users/mabez/Development/rust/embedded/experiments/esp32c3-experiments/target/riscv32imac-unknown-none-elf/debug/deps/libriscv-58bee4c49f9f92ec.rlib(riscv.o):(.text.__read_mcause)
420035e6     35e6        0     1                 __read_mcause
420035ec     35ec        2     2         /Users/mabez/Development/rust/embedded/experiments/esp32c3-experiments/target/riscv32imac-unknown-none-elf/debug/deps/libbare_metal-82dbc08a019da008.rlib(bare_metal-82dbc08a019da008.bare_metal.233bcc8d-cgu.0.rcgu.o):(.text._ZN10bare_metal15CriticalSection3new17h61dfb9e8bdeac4baE)
420035ec     35ec        0     1                 
420035ec     35ec        0     1                 
420035ec     35ec        0     1                 
420035ec     35ec        0     1                 
420035ec     35ec        2     1                 bare_metal::CriticalSection::new::h61dfb9e8bdeac4ba
420035ee     35ee        0     1                 
420035ee     35ee        0     1                 
420035ee     35ee        0     1                 
420035ee     35ee        8     2         /Users/mabez/Development/rust/embedded/experiments/esp32c3-experiments/target/riscv32imac-unknown-none-elf/debug/deps/libvoid-d8bfa8eb72c6fce6.rlib(void-d8bfa8eb72c6fce6.void.0c48974b-cgu.0.rcgu.o):(.text._ZN47_$LT$void..Void$u20$as$u20$core..fmt..Debug$GT$3fmt17h9fae81d628975b7dE)
420035ee     35ee        0     1                 
420035ee     35ee        0     1                 
420035ee     35ee        0     1                 
420035ee     35ee        8     1                 _$LT$void..Void$u20$as$u20$core..fmt..Debug$GT$::fmt::h9fae81d628975b7d
420035f0     35f0        0     1                 
420035f4     35f4        0     1                 
420035f4     35f4        0     1                 
420035f6     35f6        0     1                 
420035f6     35f6        0     1                 
420035f6     35f6        0     1                 
420035f6     35f6        0     1                 
420035f6     35f6        4     2         /Users/mabez/.rustup/toolchains/nightly-aarch64-apple-darwin/lib/rustlib/riscv32imac-unknown-none-elf/lib/libcore-081fd8405fc18f2e.rlib(core-081fd8405fc18f2e.core.756fe54c-cgu.0.rcgu.o):(.text._ZN4core3ops8function6FnOnce9call_once17h134f8114ebdb7d96E)
420035f6     35f6        4     1                 core::ops::function::FnOnce::call_once::h134f8114ebdb7d96
420035f6     35f6        0     1                 
420035f6     35f6        0     1                 
420035f6     35f6        0     1                 
420035f6     35f6        0     1                 
420035f8     35f8        0     1                 
420035f8     35f8        0     1                 
420035fa     35fa        0     1                 
420035fa     35fa        0     1                 
420035fa     35fa        0     1                 
420035fa     35fa        0     1                 
420035fa     35fa        2     2         /Users/mabez/.rustup/toolchains/nightly-aarch64-apple-darwin/lib/rustlib/riscv32imac-unknown-none-elf/lib/libcore-081fd8405fc18f2e.rlib(core-081fd8405fc18f2e.core.756fe54c-cgu.0.rcgu.o):(.text._ZN4core3ptr102drop_in_place$LT$$RF$core..iter..adapters..copied..Copied$LT$core..slice..iter..Iter$LT$u8$GT$$GT$$GT$17h5e7623cd2e882fb5E)
420035fa     35fa        2     1                 core::ptr::drop_in_place$LT$$RF$core..iter..adapters..copied..Copied$LT$core..slice..iter..Iter$LT$u8$GT$$GT$$GT$::h5e7623cd2e882fb5
420035fa     35fa        0     1                 
420035fa     35fa        0     1                 
420035fa     35fa        0     1                 
420035fa     35fa        0     1                 
420035fc     35fc        0     1                 
420035fc     35fc        0     1                 
420035fc     35fc        0     1                 
420035fc     35fc       64     2         /Users/mabez/.rustup/toolchains/nightly-aarch64-apple-darwin/lib/rustlib/riscv32imac-unknown-none-elf/lib/libcore-081fd8405fc18f2e.rlib(core-081fd8405fc18f2e.core.756fe54c-cgu.0.rcgu.o):(.text._ZN71_$LT$core..ops..range..Range$LT$Idx$GT$$u20$as$u20$core..fmt..Debug$GT$3fmt17h26c162ed4bde5472E)
420035fc     35fc       64     1                 _$LT$core..ops..range..Range$LT$Idx$GT$$u20$as$u20$core..fmt..Debug$GT$::fmt::h26c162ed4bde5472
420035fc     35fc        0     1                 
420035fc     35fc        0     1                 
420035fc     35fc        0     1                 
420035fe     35fe        0     1                 
42003604     3604        0     1                 
42003608     3608        0     1                 
42003612     3612        0     1                 
42003612     3612        0     1                 
42003616     3616        0     1                 
42003632     3632        0     1                 
4200363c     363c        0     1                 
4200363c     363c        0     1                 
4200363e     363e        0     1                 
4200364a     364a        0     1                 
42003660     3660        0     1                 
42003660     3660        0     1                 
42003660     3660        0     1                 
42003660     3660       12     2         /Users/mabez/.rustup/toolchains/nightly-aarch64-apple-darwin/lib/rustlib/riscv32imac-unknown-none-elf/lib/libcore-081fd8405fc18f2e.rlib(core-081fd8405fc18f2e.core.756fe54c-cgu.0.rcgu.o):(.text._ZN36_$LT$T$u20$as$u20$core..any..Any$GT$7type_id17h3adf7d937aeeb85aE)
42003660     3660       12     1                 _$LT$T$u20$as$u20$core..any..Any$GT$::type_id::h3adf7d937aeeb85a
42003660     3660        0     1                 
42003660     3660        0     1                 
42003660     3660        0     1                 
42003670     3670        0     1                 
42003672     3672        0     1                 
42003672     3672        0     1                 
42003672     3672        0     1                 
42003672     3672       2c     2         /Users/mabez/.rustup/toolchains/nightly-aarch64-apple-darwin/lib/rustlib/riscv32imac-unknown-none-elf/lib/libcore-081fd8405fc18f2e.rlib(core-081fd8405fc18f2e.core.756fe54c-cgu.0.rcgu.o):(.text.unlikely._ZN4core9panicking5panic17hcb88193675467c27E)
42003672     3672        0     1                 
42003672     3672        0     1                 
42003672     3672        0     1                 
42003672     3672       2c     1                 core::panicking::panic::hcb88193675467c27
42003674     3674        0     1                 
42003674     3674        0     1                 
42003676     3676        0     1                 
4200367c     367c        0     1                 
4200367c     367c        0     1                 
42003690     3690        0     1                 
42003690     3690        0     1                 
4200369e     369e        0     1                 
4200369e     369e        0     1                 
4200369e     369e        0     1                 
4200369e     369e       40     2         /Users/mabez/.rustup/toolchains/nightly-aarch64-apple-darwin/lib/rustlib/riscv32imac-unknown-none-elf/lib/libcore-081fd8405fc18f2e.rlib(core-081fd8405fc18f2e.core.756fe54c-cgu.0.rcgu.o):(.text.unlikely._ZN4core9panicking18panic_bounds_check17ha0dd018763fcb9b8E)
4200369e     369e        0     1                 
4200369e     369e        0     1                 
4200369e     369e        0     1                 
4200369e     369e       40     1                 core::panicking::panic_bounds_check::ha0dd018763fcb9b8
420036a0     36a0        0     1                 
420036a2     36a2        0     1                 
420036a8     36a8        0     1                 
420036ba     36ba        0     1                 
420036ba     36ba        0     1                 
420036d0     36d0        0     1                 
420036d0     36d0        0     1                 
420036de     36de        0     1                 
420036de     36de        0     1                 
420036de     36de        0     1                 
420036de     36de       28     2         /Users/mabez/.rustup/toolchains/nightly-aarch64-apple-darwin/lib/rustlib/riscv32imac-unknown-none-elf/lib/libcore-081fd8405fc18f2e.rlib(core-081fd8405fc18f2e.core.756fe54c-cgu.0.rcgu.o):(.text.unlikely._ZN4core9panicking9panic_fmt17he3fbc1a886e3eee3E)
420036de     36de        0     1                 
420036de     36de        0     1                 
420036de     36de        0     1                 
420036de     36de       28     1                 core::panicking::panic_fmt::he3fbc1a886e3eee3
420036e0     36e0        0     1                 
420036e0     36e0        0     1                 
420036e0     36e0        0     1                 
420036e2     36e2        0     1                 
420036fa     36fa        0     1                 
420036fa     36fa        0     1                 
42003706     3706        0     1                 
42003706     3706        0     1                 
42003706     3706        0     1                 
42003706     3706       4c     2         /Users/mabez/.rustup/toolchains/nightly-aarch64-apple-darwin/lib/rustlib/riscv32imac-unknown-none-elf/lib/libcore-081fd8405fc18f2e.rlib(core-081fd8405fc18f2e.core.756fe54c-cgu.0.rcgu.o):(.text.unlikely._ZN4core6result13unwrap_failed17h9101565386862f4bE)
42003706     3706        0     1                 
42003706     3706        0     1                 
42003706     3706        0     1                 
42003706     3706       4c     1                 core::result::unwrap_failed::h9101565386862f4b
42003708     3708        0     1                 
4200370a     370a        0     1                 
42003714     3714        0     1                 
4200372e     372e        0     1                 
4200372e     372e        0     1                 
42003744     3744        0     1                 
42003744     3744        0     1                 
42003752     3752        0     1                 
42003752     3752        0     1                 
42003752     3752        0     1                 
42003752     3752      218     2         /Users/mabez/.rustup/toolchains/nightly-aarch64-apple-darwin/lib/rustlib/riscv32imac-unknown-none-elf/lib/libcore-081fd8405fc18f2e.rlib(core-081fd8405fc18f2e.core.756fe54c-cgu.0.rcgu.o):(.text._ZN68_$LT$core..fmt..builders..PadAdapter$u20$as$u20$core..fmt..Write$GT$9write_str17hd9b440f5a6012591E)
42003752     3752        0     1                 
42003752     3752        0     1                 
42003752     3752        0     1                 
42003752     3752      218     1                 _$LT$core..fmt..builders..PadAdapter$u20$as$u20$core..fmt..Write$GT$::write_str::hd9b440f5a6012591
42003754     3754        0     1                 
42003754     3754        0     1                 
4200376e     376e        0     1                 
42003772     3772        0     1                 
420037a8     37a8        0     1                 
420037a8     37a8        0     1                 
420037ae     37ae        0     1                 
420037ae     37ae        0     1                 
420037b2     37b2        0     1                 
420037b8     37b8        0     1                 
420037c6     37c6        0     1                 
420037cc     37cc        0     1                 
420037cc     37cc        0     1                 
420037d0     37d0        0     1                 
420037d0     37d0        0     1                 
420037d2     37d2        0     1                 
420037d2     37d2        0     1                 
420037d6     37d6        0     1                 
420037d6     37d6        0     1                 
420037da     37da        0     1                 
420037da     37da        0     1                 
420037dc     37dc        0     1                 
420037de     37de        0     1                 
420037de     37de        0     1                 
420037e2     37e2        0     1                 
420037e2     37e2        0     1                 
420037ea     37ea        0     1                 
420037f2     37f2        0     1                 
420037f2     37f2        0     1                 
420037f8     37f8        0     1                 
420037fc     37fc        0     1                 
420037fc     37fc        0     1                 
420037fe     37fe        0     1                 
42003800     3800        0     1                 
42003804     3804        0     1                 
42003808     3808        0     1                 
42003808     3808        0     1                 
4200380c     380c        0     1                 
4200380c     380c        0     1                 
42003814     3814        0     1                 
42003816     3816        0     1                 
42003816     3816        0     1                 
4200381a     381a        0     1                 
4200381a     381a        0     1                 
4200381e     381e        0     1                 
42003822     3822        0     1                 
42003830     3830        0     1                 
42003836     3836        0     1                 
42003838     3838        0     1                 
4200383c     383c        0     1                 
42003840     3840        0     1                 
42003844     3844        0     1                 
42003844     3844        0     1                 
42003846     3846        0     1                 
42003846     3846        0     1                 
4200384c     384c        0     1                 
4200384c     384c        0     1                 
42003850     3850        0     1                 
42003850     3850        0     1                 
42003852     3852        0     1                 
42003852     3852        0     1                 
42003858     3858        0     1                 
42003858     3858        0     1                 
4200385c     385c        0     1                 
4200385c     385c        0     1                 
42003862     3862        0     1                 
42003870     3870        0     1                 
42003870     3870        0     1                 
42003878     3878        0     1                 
42003878     3878        0     1                 
4200387c     387c        0     1                 
4200387c     387c        0     1                 
42003884     3884        0     1                 
4200388c     388c        0     1                 
4200388c     388c        0     1                 
42003890     3890        0     1                 
42003890     3890        0     1                 
42003894     3894        0     1                 
420038a0     38a0        0     1                 
420038a4     38a4        0     1                 
420038a4     38a4        0     1                 
420038a6     38a6        0     1                 
420038a6     38a6        0     1                 
420038aa     38aa        0     1                 
420038aa     38aa        0     1                 
420038ae     38ae        0     1                 
420038ae     38ae        0     1                 
420038bc     38bc        0     1                 
420038cc     38cc        0     1                 
420038dc     38dc        0     1                 
420038dc     38dc        0     1                 
420038e0     38e0        0     1                 
420038e0     38e0        0     1                 
420038e8     38e8        0     1                 
420038e8     38e8        0     1                 
420038f4     38f4        0     1                 
420038f4     38f4        0     1                 
420038f8     38f8        0     1                 
420038f8     38f8        0     1                 
42003900     3900        0     1                 
42003900     3900        0     1                 
4200391a     391a        0     1                 
4200391a     391a        0     1                 
42003920     3920        0     1                 
4200393e     393e        0     1                 
4200393e     393e        0     1                 
42003958     3958        0     1                 
42003958     3958        0     1                 
4200396a     396a        0     1                 
4200396a     396a        0     1                 
4200396a     396a        0     1                 
4200396a     396a        0     1                 
4200396a     396a      17a     2         /Users/mabez/.rustup/toolchains/nightly-aarch64-apple-darwin/lib/rustlib/riscv32imac-unknown-none-elf/lib/libcore-081fd8405fc18f2e.rlib(core-081fd8405fc18f2e.core.756fe54c-cgu.0.rcgu.o):(.text._ZN4core3fmt8builders11DebugStruct5field17h36045ddc8dfacda6E)
4200396a     396a        0     1                 
4200396a     396a        0     1                 
4200396a     396a        0     1                 
4200396a     396a      17a     1                 core::fmt::builders::DebugStruct::field::h36045ddc8dfacda6
4200396c     396c        0     1                 
4200397e     397e        0     1                 
42003980     3980        0     1                 
42003988     3988        0     1                 
42003988     3988        0     1                 
4200398a     398a        0     1                 
4200398a     398a        0     1                 
4200398e     398e        0     1                 
42003992     3992        0     1                 
420039aa     39aa        0     1                 
420039b2     39b2        0     1                 
420039b2     39b2        0     1                 
420039b6     39b6        0     1                 
420039b6     39b6        0     1                 
420039ba     39ba        0     1                 
420039ba     39ba        0     1                 
420039be     39be        0     1                 
420039be     39be        0     1                 
420039c0     39c0        0     1                 
420039c0     39c0        0     1                 
420039c4     39c4        0     1                 
420039c6     39c6        0     1                 
420039c8     39c8        0     1                 
420039d2     39d2        0     1                 
420039d4     39d4        0     1                 
420039d4     39d4        0     1                 
420039ec     39ec        0     1                 
420039ec     39ec        0     1                 
420039ee     39ee        0     1                 
420039f0     39f0        0     1                 
420039f4     39f4        0     1                 
420039f4     39f4        0     1                 
420039fc     39fc        0     1                 
420039fc     39fc        0     1                 
42003a06     3a06        0     1                 
42003a06     3a06        0     1                 
42003a0a     3a0a        0     1                 
42003a0e     3a0e        0     1                 
42003a12     3a12        0     1                 
42003a1a     3a1a        0     1                 
42003a22     3a22        0     1                 
42003a40     3a40        0     1                 
42003a40     3a40        0     1                 
42003a4e     3a4e        0     1                 
42003a4e     3a4e        0     1                 
42003a50     3a50        0     1                 
42003a50     3a50        0     1                 
42003a64     3a64        0     1                 
42003a64     3a64        0     1                 
42003a66     3a66        0     1                 
42003a72     3a72        0     1                 
42003a72     3a72        0     1                 
42003a86     3a86        0     1                 
42003a86     3a86        0     1                 
42003a8e     3a8e        0     1                 
42003a8e     3a8e        0     1                 
42003a98     3a98        0     1                 
42003a98     3a98        0     1                 
42003a9c     3a9c        0     1                 
42003a9c     3a9c        0     1                 
42003aa0     3aa0        0     1                 
42003aa0     3aa0        0     1                 
42003aa4     3aa4        0     1                 
42003aa4     3aa4        0     1                 
42003aba     3aba        0     1                 
42003aba     3aba        0     1                 
42003ad6     3ad6        0     1                 
42003ad6     3ad6        0     1                 
42003ae0     3ae0        0     1                 
42003ae4     3ae4        0     1                 
42003ae4     3ae4        0     1                 
42003ae4     3ae4        0     1                 
42003ae4     3ae4        0     1                 
42003ae4     3ae4      104     2         /Users/mabez/.rustup/toolchains/nightly-aarch64-apple-darwin/lib/rustlib/riscv32imac-unknown-none-elf/lib/libcore-081fd8405fc18f2e.rlib(core-081fd8405fc18f2e.core.756fe54c-cgu.0.rcgu.o):(.text._ZN4core3fmt8builders10DebugTuple5field17h49da9f1f0416493bE)
42003ae4     3ae4        0     1                 
42003ae4     3ae4        0     1                 
42003ae4     3ae4        0     1                 
42003ae4     3ae4      104     1                 core::fmt::builders::DebugTuple::field::h49da9f1f0416493b
42003ae6     3ae6        0     1                 
42003af4     3af4        0     1                 
42003af6     3af6        0     1                 
42003afa     3afa        0     1                 
42003afa     3afa        0     1                 
42003afc     3afc        0     1                 
42003afc     3afc        0     1                 
42003b04     3b04        0     1                 
42003b08     3b08        0     1                 
42003b08     3b08        0     1                 
42003b0a     3b0a        0     1                 
42003b0a     3b0a        0     1                 
42003b0e     3b0e        0     1                 
42003b0e     3b0e        0     1                 
42003b12     3b12        0     1                 
42003b12     3b12        0     1                 
42003b14     3b14        0     1                 
42003b14     3b14        0     1                 
42003b18     3b18        0     1                 
42003b1a     3b1a        0     1                 
42003b1c     3b1c        0     1                 
42003b26     3b26        0     1                 
42003b28     3b28        0     1                 
42003b28     3b28        0     1                 
42003b3a     3b3a        0     1                 
42003b3a     3b3a        0     1                 
42003b3c     3b3c        0     1                 
42003b44     3b44        0     1                 
42003b48     3b48        0     1                 
42003b48     3b48        0     1                 
42003b4c     3b4c        0     1                 
42003b4c     3b4c        0     1                 
42003b56     3b56        0     1                 
42003b56     3b56        0     1                 
42003b58     3b58        0     1                 
42003b5a     3b5a        0     1                 
42003b5e     3b5e        0     1                 
42003b62     3b62        0     1                 
42003b66     3b66        0     1                 
42003b7a     3b7a        0     1                 
42003b7a     3b7a        0     1                 
42003b7e     3b7e        0     1                 
42003b7e     3b7e        0     1                 
42003b88     3b88        0     1                 
42003b88     3b88        0     1                 
42003b90     3b90        0     1                 
42003b90     3b90        0     1                 
42003ba4     3ba4        0     1                 
42003ba4     3ba4        0     1                 
42003bac     3bac        0     1                 
42003bac     3bac        0     1                 
42003bb4     3bb4        0     1                 
42003bb4     3bb4        0     1                 
42003bb8     3bb8        0     1                 
42003bb8     3bb8        0     1                 
42003bbc     3bbc        0     1                 
42003bbc     3bbc        0     1                 
42003bbe     3bbe        0     1                 
42003bc8     3bc8        0     1                 
42003bca     3bca        0     1                 
42003bca     3bca        0     1                 
42003bce     3bce        0     1                 
42003bd4     3bd4        0     1                 
42003be8     3be8        0     1                 
42003be8     3be8        0     1                 
42003be8     3be8        0     1                 
42003be8     3be8       b4     2         /Users/mabez/.rustup/toolchains/nightly-aarch64-apple-darwin/lib/rustlib/riscv32imac-unknown-none-elf/lib/libcore-081fd8405fc18f2e.rlib(core-081fd8405fc18f2e.core.756fe54c-cgu.0.rcgu.o):(.text._ZN4core3fmt5Write10write_char17h8a73e8231019fcd3E)
42003be8     3be8       b4     1                 core::fmt::Write::write_char::h8a73e8231019fcd3
42003be8     3be8        0     1                 
42003be8     3be8        0     1                 
42003be8     3be8        0     1                 
42003bea     3bea        0     1                 
42003bec     3bec        0     1                 
42003bf0     3bf0        0     1                 
42003bf2     3bf2        0     1                 
42003bf2     3bf2        0     1                 
42003bf6     3bf6        0     1                 
42003bf6     3bf6        0     1                 
42003bfe     3bfe        0     1                 
42003bfe     3bfe        0     1                 
42003c04     3c04        0     1                 
42003c04     3c04        0     1                 
42003c08     3c08        0     1                 
42003c10     3c10        0     1                 
42003c14     3c14        0     1                 
42003c20     3c20        0     1                 
42003c20     3c20        0     1                 
42003c24     3c24        0     1                 
42003c26     3c26        0     1                 
42003c26     3c26        0     1                 
42003c2a     3c2a        0     1                 
42003c32     3c32        0     1                 
42003c36     3c36        0     1                 
42003c3a     3c3a        0     1                 
42003c42     3c42        0     1                 
42003c46     3c46        0     1                 
42003c52     3c52        0     1                 
42003c56     3c56        0     1                 
42003c5e     3c5e        0     1                 
42003c62     3c62        0     1                 
42003c66     3c66        0     1                 
42003c6e     3c6e        0     1                 
42003c72     3c72        0     1                 
42003c76     3c76        0     1                 
42003c7e     3c7e        0     1                 
42003c82     3c82        0     1                 
42003c8c     3c8c        0     1                 
42003c8c     3c8c        0     1                 
42003c96     3c96        0     1                 
42003c9c     3c9c        0     1                 
42003c9c     3c9c        0     1                 
42003c9c     3c9c        0     1                 
42003c9c     3c9c       38     2         /Users/mabez/.rustup/toolchains/nightly-aarch64-apple-darwin/lib/rustlib/riscv32imac-unknown-none-elf/lib/libcore-081fd8405fc18f2e.rlib(core-081fd8405fc18f2e.core.756fe54c-cgu.0.rcgu.o):(.text._ZN4core3fmt5Write9write_fmt17he9b025ca87bb8aa5E)
42003c9c     3c9c       38     1                 core::fmt::Write::write_fmt::he9b025ca87bb8aa5
42003c9c     3c9c        0     1                 
42003c9c     3c9c        0     1                 
42003c9c     3c9c        0     1                 
42003c9e     3c9e        0     1                 
42003c9e     3c9e        0     1                 
42003ca0     3ca0        0     1                 
42003cba     3cba        0     1                 
42003cce     3cce        0     1                 
42003cd4     3cd4        0     1                 
42003cd4     3cd4        0     1                 
42003cd4     3cd4        0     1                 
42003cd4     3cd4        a     2         /Users/mabez/.rustup/toolchains/nightly-aarch64-apple-darwin/lib/rustlib/riscv32imac-unknown-none-elf/lib/libcore-081fd8405fc18f2e.rlib(core-081fd8405fc18f2e.core.756fe54c-cgu.0.rcgu.o):(.text._ZN50_$LT$$RF$mut$u20$W$u20$as$u20$core..fmt..Write$GT$9write_str17h813eddac1770bcddE)
42003cd4     3cd4        a     1                 _$LT$$RF$mut$u20$W$u20$as$u20$core..fmt..Write$GT$::write_str::h813eddac1770bcdd
42003cd4     3cd4        0     1                 
42003cd4     3cd4        0     1                 
42003cd4     3cd4        0     1                 
42003cd4     3cd4        0     1                 
42003cde     3cde        0     1                 
42003cde     3cde        0     1                 
42003cde     3cde        0     1                 
42003cde     3cde       b6     2         /Users/mabez/.rustup/toolchains/nightly-aarch64-apple-darwin/lib/rustlib/riscv32imac-unknown-none-elf/lib/libcore-081fd8405fc18f2e.rlib(core-081fd8405fc18f2e.core.756fe54c-cgu.0.rcgu.o):(.text._ZN50_$LT$$RF$mut$u20$W$u20$as$u20$core..fmt..Write$GT$10write_char17h6bf017e662467e3aE)
42003cde     3cde       b6     1                 _$LT$$RF$mut$u20$W$u20$as$u20$core..fmt..Write$GT$::write_char::h6bf017e662467e3a
42003cde     3cde        0     1                 
42003cde     3cde        0     1                 
42003cde     3cde        0     1                 
42003ce0     3ce0        0     1                 
42003ce0     3ce0        0     1                 
42003ce2     3ce2        0     1                 
42003ce8     3ce8        0     1                 
42003ce8     3ce8        0     1                 
42003cea     3cea        0     1                 
42003cea     3cea        0     1                 
42003cee     3cee        0     1                 
42003cee     3cee        0     1                 
42003cf6     3cf6        0     1                 
42003cf6     3cf6        0     1                 
42003cfc     3cfc        0     1                 
42003cfc     3cfc        0     1                 
42003d00     3d00        0     1                 
42003d08     3d08        0     1                 
42003d0c     3d0c        0     1                 
42003d18     3d18        0     1                 
42003d18     3d18        0     1                 
42003d1c     3d1c        0     1                 
42003d1e     3d1e        0     1                 
42003d1e     3d1e        0     1                 
42003d22     3d22        0     1                 
42003d2a     3d2a        0     1                 
42003d2e     3d2e        0     1                 
42003d32     3d32        0     1                 
42003d3a     3d3a        0     1                 
42003d3e     3d3e        0     1                 
42003d4a     3d4a        0     1                 
42003d4e     3d4e        0     1                 
42003d56     3d56        0     1                 
42003d5a     3d5a        0     1                 
42003d5e     3d5e        0     1                 
42003d66     3d66        0     1                 
42003d6a     3d6a        0     1                 
42003d6e     3d6e        0     1                 
42003d76     3d76        0     1                 
42003d7a     3d7a        0     1                 
42003d84     3d84        0     1                 
42003d84     3d84        0     1                 
42003d8e     3d8e        0     1                 
42003d8e     3d8e        0     1                 
42003d94     3d94        0     1                 
42003d94     3d94        0     1                 
42003d94     3d94        0     1                 
42003d94     3d94       3a     2         /Users/mabez/.rustup/toolchains/nightly-aarch64-apple-darwin/lib/rustlib/riscv32imac-unknown-none-elf/lib/libcore-081fd8405fc18f2e.rlib(core-081fd8405fc18f2e.core.756fe54c-cgu.0.rcgu.o):(.text._ZN50_$LT$$RF$mut$u20$W$u20$as$u20$core..fmt..Write$GT$9write_fmt17h561c6f3de79c90bdE)
42003d94     3d94       3a     1                 _$LT$$RF$mut$u20$W$u20$as$u20$core..fmt..Write$GT$::write_fmt::h561c6f3de79c90bd
42003d94     3d94        0     1                 
42003d94     3d94        0     1                 
42003d94     3d94        0     1                 
42003d96     3d96        0     1                 
42003d96     3d96        0     1                 
42003d98     3d98        0     1                 
42003d9a     3d9a        0     1                 
42003d9a     3d9a        0     1                 
42003db4     3db4        0     1                 
42003dc8     3dc8        0     1                 
42003dc8     3dc8        0     1                 
42003dce     3dce        0     1                 
42003dce     3dce        0     1                 
42003dce     3dce        0     1                 
42003dce     3dce      190     2         /Users/mabez/.rustup/toolchains/nightly-aarch64-apple-darwin/lib/rustlib/riscv32imac-unknown-none-elf/lib/libcore-081fd8405fc18f2e.rlib(core-081fd8405fc18f2e.core.756fe54c-cgu.0.rcgu.o):(.text._ZN4core3fmt5write17h569b08c890cb589cE)
42003dce     3dce        0     1                 
42003dce     3dce        0     1                 
42003dce     3dce        0     1                 
42003dce     3dce      190     1                 core::fmt::write::h569b08c890cb589c
42003dd0     3dd0        0     1                 
42003de0     3de0        0     1                 
42003de2     3de2        0     1                 
42003de2     3de2        0     1                 
42003df0     3df0        0     1                 
42003df0     3df0        0     1                 
42003df4     3df4        0     1                 
42003df4     3df4        0     1                 
42003dfc     3dfc        0     1                 
42003dfc     3dfc        0     1                 
42003dfe     3dfe        0     1                 
42003e02     3e02        0     1                 
42003e02     3e02        0     1                 
42003e06     3e06        0     1                 
42003e0a     3e0a        0     1                 
42003e2a     3e2a        0     1                 
42003e2a     3e2a        0     1                 
42003e2c     3e2c        0     1                 
42003e2e     3e2e        0     1                 
42003e32     3e32        0     1                 
42003e36     3e36        0     1                 
42003e3e     3e3e        0     1                 
42003e3e     3e3e        0     1                 
42003e42     3e42        0     1                 
42003e44     3e44        0     1                 
42003e48     3e48        0     1                 
42003e4c     3e4c        0     1                 
42003e50     3e50        0     1                 
42003e50     3e50        0     1                 
42003e54     3e54        0     1                 
42003e54     3e54        0     1                 
42003e56     3e56        0     1                 
42003e5a     3e5a        0     1                 
42003e5a     3e5a        0     1                 
42003e5c     3e5c        0     1                 
42003e5e     3e5e        0     1                 
42003e62     3e62        0     1                 
42003e62     3e62        0     1                 
42003e6c     3e6c        0     1                 
42003e70     3e70        0     1                 
42003e72     3e72        0     1                 
42003e74     3e74        0     1                 
42003e74     3e74        0     1                 
42003e76     3e76        0     1                 
42003e7a     3e7a        0     1                 
42003e80     3e80        0     1                 
42003e80     3e80        0     1                 
42003e82     3e82        0     1                 
42003e84     3e84        0     1                 
42003e88     3e88        0     1                 
42003e88     3e88        0     1                 
42003e92     3e92        0     1                 
42003e96     3e96        0     1                 
42003e98     3e98        0     1                 
42003e9a     3e9a        0     1                 
42003e9a     3e9a        0     1                 
42003e9c     3e9c        0     1                 
42003ea0     3ea0        0     1                 
42003ea4     3ea4        0     1                 
42003ea4     3ea4        0     1                 
42003ea8     3ea8        0     1                 
42003ea8     3ea8        0     1                 
42003eaa     3eaa        0     1                 
42003eac     3eac        0     1                 
42003eb0     3eb0        0     1                 
42003eb0     3eb0        0     1                 
42003eb2     3eb2        0     1                 
42003eb2     3eb2        0     1                 
42003ec0     3ec0        0     1                 
42003ec0     3ec0        0     1                 
42003ec4     3ec4        0     1                 
42003ec4     3ec4        0     1                 
42003ec6     3ec6        0     1                 
42003ec6     3ec6        0     1                 
42003ece     3ece        0     1                 
42003ece     3ece        0     1                 
42003ee2     3ee2        0     1                 
42003ee2     3ee2        0     1                 
42003ee4     3ee4        0     1                 
42003ee6     3ee6        0     1                 
42003eea     3eea        0     1                 
42003eee     3eee        0     1                 
42003ef4     3ef4        0     1                 
42003ef6     3ef6        0     1                 
42003efa     3efa        0     1                 
42003f00     3f00        0     1                 
42003f00     3f00        0     1                 
42003f0c     3f0c        0     1                 
42003f0c     3f0c        0     1                 
42003f0e     3f0e        0     1                 
42003f12     3f12        0     1                 
42003f12     3f12        0     1                 
42003f16     3f16        0     1                 
42003f16     3f16        0     1                 
42003f18     3f18        0     1                 
42003f1e     3f1e        0     1                 
42003f20     3f20        0     1                 
42003f24     3f24        0     1                 
42003f24     3f24        0     1                 
42003f28     3f28        0     1                 
42003f28     3f28        0     1                 
42003f32     3f32        0     1                 
42003f36     3f36        0     1                 
42003f3a     3f3a        0     1                 
42003f3e     3f3e        0     1                 
42003f44     3f44        0     1                 
42003f4a     3f4a        0     1                 
42003f5e     3f5e        0     1                 
42003f5e     3f5e        0     1                 
42003f5e     3f5e        0     1                 
42003f5e     3f5e      25c     2         /Users/mabez/.rustup/toolchains/nightly-aarch64-apple-darwin/lib/rustlib/riscv32imac-unknown-none-elf/lib/libcore-081fd8405fc18f2e.rlib(core-081fd8405fc18f2e.core.756fe54c-cgu.0.rcgu.o):(.text._ZN4core3fmt9Formatter12pad_integral17hc68348d30279f37dE)
42003f5e     3f5e        0     1                 
42003f5e     3f5e        0     1                 
42003f5e     3f5e        0     1                 
42003f5e     3f5e      25c     1                 core::fmt::Formatter::pad_integral::hc68348d30279f37d
42003f60     3f60        0     1                 
42003f78     3f78        0     1                 
42003f80     3f80        0     1                 
42003f82     3f82        0     1                 
42003f82     3f82        0     1                 
42003f8e     3f8e        0     1                 
42003f8e     3f8e        0     1                 
42003f90     3f90        0     1                 
42003f94     3f94        0     1                 
42003f98     3f98        0     1                 
42003f98     3f98        0     1                 
42003f9c     3f9c        0     1                 
42003f9c     3f9c        0     1                 
42003f9e     3f9e        0     1                 
42003fa0     3fa0        0     1                 
42003fa0     3fa0        0     1                 
42003fa4     3fa4        0     1                 
42003fa4     3fa4        0     1                 
42003fac     3fac        0     1                 
42003fb0     3fb0        0     1                 
42003fb0     3fb0        0     1                 
42003fb2     3fb2        0     1                 
42003fb2     3fb2        0     1                 
42003fb6     3fb6        0     1                 
42003fb6     3fb6        0     1                 
42003fb8     3fb8        0     1                 
42003fb8     3fb8        0     1                 
42003fba     3fba        0     1                 
42003fba     3fba        0     1                 
42003fbc     3fbc        0     1                 
42003fbc     3fbc        0     1                 
42003fc0     3fc0        0     1                 
42003fc4     3fc4        0     1                 
42003fc8     3fc8        0     1                 
42003fc8     3fc8        0     1                 
42003fcc     3fcc        0     1                 
42003fcc     3fcc        0     1                 
42003fd4     3fd4        0     1                 
42003fd4     3fd4        0     1                 
42003fd8     3fd8        0     1                 
42003fd8     3fd8        0     1                 
42003fda     3fda        0     1                 
42003fdc     3fdc        0     1                 
42003fe0     3fe0        0     1                 
42003fe2     3fe2        0     1                 
42003fe6     3fe6        0     1                 
42003fea     3fea        0     1                 
42003fea     3fea        0     1                 
42003fec     3fec        0     1                 
42003fec     3fec        0     1                 
42003fee     3fee        0     1                 
42003fee     3fee        0     1                 
42003ffa     3ffa        0     1                 
42003ffc     3ffc        0     1                 
42004000     4000        0     1                 
42004000     4000        0     1                 
42004008     4008        0     1                 
42004008     4008        0     1                 
4200400c     400c        0     1                 
4200400c     400c        0     1                 
42004024     4024        0     1                 
42004042     4042        0     1                 
4200406c     406c        0     1                 
4200406c     406c        0     1                 
42004074     4074        0     1                 
42004074     4074        0     1                 
42004078     4078        0     1                 
42004078     4078        0     1                 
4200407e     407e        0     1                 
4200407e     407e        0     1                 
42004082     4082        0     1                 
42004082     4082        0     1                 
42004094     4094        0     1                 
42004094     4094        0     1                 
4200409c     409c        0     1                 
420040a0     40a0        0     1                 
420040a2     40a2        0     1                 
420040a6     40a6        0     1                 
420040a6     40a6        0     1                 
420040aa     40aa        0     1                 
420040aa     40aa        0     1                 
420040ac     40ac        0     1                 
420040ae     40ae        0     1                 
420040b2     40b2        0     1                 
420040b2     40b2        0     1                 
420040bc     40bc        0     1                 
420040bc     40bc        0     1                 
420040c0     40c0        0     1                 
420040c2     40c2        0     1                 
420040c6     40c6        0     1                 
420040d2     40d2        0     1                 
420040d6     40d6        0     1                 
420040d6     40d6        0     1                 
420040d8     40d8        0     1                 
420040d8     40d8        0     1                 
420040da     40da        0     1                 
420040da     40da        0     1                 
420040e6     40e6        0     1                 
420040e6     40e6        0     1                 
420040ec     40ec        0     1                 
420040f0     40f0        0     1                 
42004102     4102        0     1                 
42004114     4114        0     1                 
42004122     4122        0     1                 
42004122     4122        0     1                 
42004124     4124        0     1                 
42004124     4124        0     1                 
42004126     4126        0     1                 
42004126     4126        0     1                 
42004134     4134        0     1                 
42004134     4134        0     1                 
4200413a     413a        0     1                 
4200413a     413a        0     1                 
4200413e     413e        0     1                 
42004140     4140        0     1                 
42004144     4144        0     1                 
42004150     4150        0     1                 
42004154     4154        0     1                 
42004154     4154        0     1                 
42004156     4156        0     1                 
42004156     4156        0     1                 
42004158     4158        0     1                 
42004158     4158        0     1                 
42004162     4162        0     1                 
42004162     4162        0     1                 
4200416c     416c        0     1                 
42004170     4170        0     1                 
42004184     4184        0     1                 
4200418e     418e        0     1                 
4200418e     418e        0     1                 
42004192     4192        0     1                 
42004192     4192        0     1                 
42004194     4194        0     1                 
42004194     4194        0     1                 
42004196     4196        0     1                 
42004196     4196        0     1                 
4200419e     419e        0     1                 
4200419e     419e        0     1                 
420041a2     41a2        0     1                 
420041a2     41a2        0     1                 
420041a6     41a6        0     1                 
420041a8     41a8        0     1                 
420041ac     41ac        0     1                 
420041b2     41b2        0     1                 
420041b4     41b4        0     1                 
420041b4     41b4        0     1                 
420041ba     41ba        0     1                 
420041ba     41ba        0     1                 
420041ba     41ba        0     1                 
420041ba     41ba        0     1                 
420041ba     41ba       4c     2         /Users/mabez/.rustup/toolchains/nightly-aarch64-apple-darwin/lib/rustlib/riscv32imac-unknown-none-elf/lib/libcore-081fd8405fc18f2e.rlib(core-081fd8405fc18f2e.core.756fe54c-cgu.0.rcgu.o):(.text._ZN4core3fmt9Formatter12pad_integral12write_prefix17h92a836cf93074e90E)
420041ba     41ba       4c     1                 core::fmt::Formatter::pad_integral::write_prefix::h92a836cf93074e90
420041ba     41ba        0     1                 
420041ba     41ba        0     1                 
420041ba     41ba        0     1                 
420041bc     41bc        0     1                 
420041c4     41c4        0     1                 
420041ce     41ce        0     1                 
420041d2     41d2        0     1                 
420041e0     41e0        0     1                 
420041e2     41e2        0     1                 
420041f8     41f8        0     1                 
420041fa     41fa        0     1                 
42004206     4206        0     1                 
42004206     4206        0     1                 
42004206     4206        0     1                 
42004206     4206      292     2         /Users/mabez/.rustup/toolchains/nightly-aarch64-apple-darwin/lib/rustlib/riscv32imac-unknown-none-elf/lib/libcore-081fd8405fc18f2e.rlib(core-081fd8405fc18f2e.core.756fe54c-cgu.0.rcgu.o):(.text._ZN4core3fmt9Formatter3pad17h3ab584cac1d27d6eE)
42004206     4206        0     1                 
42004206     4206        0     1                 
42004206     4206        0     1                 
42004206     4206      292     1                 core::fmt::Formatter::pad::h3ab584cac1d27d6e
42004208     4208        0     1                 
42004208     4208        0     1                 
4200421a     421a        0     1                 
4200421c     421c        0     1                 
42004222     4222        0     1                 
4200422c     422c        0     1                 
42004230     4230        0     1                 
42004234     4234        0     1                 
42004238     4238        0     1                 
4200423a     423a        0     1                 
42004242     4242        0     1                 
42004242     4242        0     1                 
42004248     4248        0     1                 
42004248     4248        0     1                 
4200424a     424a        0     1                 
4200424a     424a        0     1                 
4200425a     425a        0     1                 
4200425a     425a        0     1                 
4200425e     425e        0     1                 
4200425e     425e        0     1                 
42004260     4260        0     1                 
42004260     4260        0     1                 
42004264     4264        0     1                 
42004264     4264        0     1                 
4200426a     426a        0     1                 
4200426a     426a        0     1                 
42004278     4278        0     1                 
42004278     4278        0     1                 
4200427c     427c        0     1                 
4200427c     427c        0     1                 
42004280     4280        0     1                 
42004282     4282        0     1                 
42004282     4282        0     1                 
42004284     4284        0     1                 
42004284     4284        0     1                 
42004288     4288        0     1                 
42004288     4288        0     1                 
4200428a     428a        0     1                 
4200428a     428a        0     1                 
4200428e     428e        0     1                 
4200428e     428e        0     1                 
42004292     4292        0     1                 
42004292     4292        0     1                 
42004296     4296        0     1                 
42004296     4296        0     1                 
4200429a     429a        0     1                 
4200429a     429a        0     1                 
4200429e     429e        0     1                 
4200429e     429e        0     1                 
420042a2     42a2        0     1                 
420042a2     42a2        0     1                 
420042a6     42a6        0     1                 
420042a6     42a6        0     1                 
420042ae     42ae        0     1                 
420042ae     42ae        0     1                 
420042b4     42b4        0     1                 
420042bc     42bc        0     1                 
420042c0     42c0        0     1                 
420042c0     42c0        0     1                 
420042c4     42c4        0     1                 
420042c4     42c4        0     1                 
420042c8     42c8        0     1                 
420042c8     42c8        0     1                 
420042ca     42ca        0     1                 
420042ca     42ca        0     1                 
420042ce     42ce        0     1                 
420042ce     42ce        0     1                 
420042d4     42d4        0     1                 
420042d8     42d8        0     1                 
420042dc     42dc        0     1                 
420042dc     42dc        0     1                 
420042e0     42e0        0     1                 
420042e0     42e0        0     1                 
420042e8     42e8        0     1                 
420042e8     42e8        0     1                 
420042ec     42ec        0     1                 
420042ec     42ec        0     1                 
420042f0     42f0        0     1                 
420042f4     42f4        0     1                 
420042f4     42f4        0     1                 
420042f6     42f6        0     1                 
420042fa     42fa        0     1                 
420042fe     42fe        0     1                 
42004306     4306        0     1                 
42004306     4306        0     1                 
4200430a     430a        0     1                 
4200430a     430a        0     1                 
42004310     4310        0     1                 
42004310     4310        0     1                 
42004314     4314        0     1                 
42004314     4314        0     1                 
4200431c     431c        0     1                 
4200431c     431c        0     1                 
42004320     4320        0     1                 
42004320     4320        0     1                 
42004324     4324        0     1                 
42004324     4324        0     1                 
42004328     4328        0     1                 
42004328     4328        0     1                 
42004332     4332        0     1                 
42004332     4332        0     1                 
42004338     4338        0     1                 
42004338     4338        0     1                 
4200433e     433e        0     1                 
4200433e     433e        0     1                 
42004342     4342        0     1                 
42004342     4342        0     1                 
42004344     4344        0     1                 
42004344     4344        0     1                 
42004348     4348        0     1                 
42004348     4348        0     1                 
4200434c     434c        0     1                 
4200434c     434c        0     1                 
42004350     4350        0     1                 
42004352     4352        0     1                 
42004354     4354        0     1                 
42004354     4354        0     1                 
42004358     4358        0     1                 
4200435c     435c        0     1                 
42004364     4364        0     1                 
4200436c     436c        0     1                 
4200436c     436c        0     1                 
42004370     4370        0     1                 
42004370     4370        0     1                 
42004372     4372        0     1                 
42004372     4372        0     1                 
42004376     4376        0     1                 
42004376     4376        0     1                 
42004378     4378        0     1                 
42004378     4378        0     1                 
4200437c     437c        0     1                 
4200437c     437c        0     1                 
42004380     4380        0     1                 
42004380     4380        0     1                 
4200438c     438c        0     1                 
4200438e     438e        0     1                 
42004392     4392        0     1                 
42004392     4392        0     1                 
42004398     4398        0     1                 
42004398     4398        0     1                 
4200439c     439c        0     1                 
4200439c     439c        0     1                 
420043c6     43c6        0     1                 
420043c6     43c6        0     1                 
420043ca     43ca        0     1                 
420043cc     43cc        0     1                 
420043d0     43d0        0     1                 
420043da     43da        0     1                 
420043de     43de        0     1                 
420043de     43de        0     1                 
420043e0     43e0        0     1                 
420043e0     43e0        0     1                 
420043e2     43e2        0     1                 
420043e2     43e2        0     1                 
420043ee     43ee        0     1                 
420043ee     43ee        0     1                 
420043f8     43f8        0     1                 
420043fc     43fc        0     1                 
4200440a     440a        0     1                 
4200440c     440c        0     1                 
4200440c     440c        0     1                 
42004410     4410        0     1                 
42004410     4410        0     1                 
42004414     4414        0     1                 
42004414     4414        0     1                 
42004416     4416        0     1                 
42004416     4416        0     1                 
42004424     4424        0     1                 
42004424     4424        0     1                 
4200442c     442c        0     1                 
4200442c     442c        0     1                 
42004430     4430        0     1                 
42004430     4430        0     1                 
42004434     4434        0     1                 
42004434     4434        0     1                 
42004438     4438        0     1                 
42004438     4438        0     1                 
4200443a     443a        0     1                 
4200443a     443a        0     1                 
42004442     4442        0     1                 
42004442     4442        0     1                 
42004448     4448        0     1                 
42004448     4448        0     1                 
4200444a     444a        0     1                 
4200444a     444a        0     1                 
4200444e     444e        0     1                 
4200444e     444e        0     1                 
42004466     4466        0     1                 
4200446e     446e        0     1                 
4200446e     446e        0     1                 
42004472     4472        0     1                 
42004474     4474        0     1                 
42004474     4474        0     1                 
42004478     4478        0     1                 
42004478     4478        0     1                 
4200447c     447c        0     1                 
42004482     4482        0     1                 
42004482     4482        0     1                 
42004484     4484        0     1                 
42004488     4488        0     1                 
42004488     4488        0     1                 
4200448c     448c        0     1                 
4200448c     448c        0     1                 
42004492     4492        0     1                 
42004492     4492        0     1                 
42004498     4498        0     1                 
42004498     4498        0     1                 
42004498     4498        0     1                 
42004498     4498        0     1                 
42004498     4498        a     2         /Users/mabez/.rustup/toolchains/nightly-aarch64-apple-darwin/lib/rustlib/riscv32imac-unknown-none-elf/lib/libcore-081fd8405fc18f2e.rlib(core-081fd8405fc18f2e.core.756fe54c-cgu.0.rcgu.o):(.text._ZN4core3fmt9Formatter15debug_lower_hex17h6eb2d3e5c39d5487E)
42004498     4498        0     1                 
42004498     4498        0     1                 
42004498     4498        0     1                 
42004498     4498        0     1                 
42004498     4498        a     1                 core::fmt::Formatter::debug_lower_hex::h6eb2d3e5c39d5487
420044a0     44a0        0     1                 
420044a2     44a2        0     1                 
420044a2     44a2        0     1                 
420044a2     44a2        0     1                 
420044a2     44a2        c     2         /Users/mabez/.rustup/toolchains/nightly-aarch64-apple-darwin/lib/rustlib/riscv32imac-unknown-none-elf/lib/libcore-081fd8405fc18f2e.rlib(core-081fd8405fc18f2e.core.756fe54c-cgu.0.rcgu.o):(.text._ZN4core3fmt9Formatter15debug_upper_hex17ha0e0f25a16a661deE)
420044a2     44a2        0     1                 
420044a2     44a2        0     1                 
420044a2     44a2        0     1                 
420044a2     44a2        0     1                 
420044a2     44a2        c     1                 core::fmt::Formatter::debug_upper_hex::ha0e0f25a16a661de
420044ac     44ac        0     1                 
420044ae     44ae        0     1                 
420044ae     44ae        0     1                 
420044ae     44ae        0     1                 
420044ae     44ae      50a     2         /Users/mabez/.rustup/toolchains/nightly-aarch64-apple-darwin/lib/rustlib/riscv32imac-unknown-none-elf/lib/libcore-081fd8405fc18f2e.rlib(core-081fd8405fc18f2e.core.756fe54c-cgu.0.rcgu.o):(.text._ZN40_$LT$str$u20$as$u20$core..fmt..Debug$GT$3fmt17hcccdaec8afe094d8E)
420044ae     44ae        0     1                 
420044ae     44ae        0     1                 
420044ae     44ae        0     1                 
420044ae     44ae      50a     1                 _$LT$str$u20$as$u20$core..fmt..Debug$GT$::fmt::hcccdaec8afe094d8
420044b0     44b0        0     1                 
420044b0     44b0        0     1                 
420044b0     44b0        0     1                 
420044ca     44ca        0     1                 
420044e0     44e0        0     1                 
420044e0     44e0        0     1                 
420044e2     44e2        0     1                 
42004502     4502        0     1                 
42004504     4504        0     1                 
42004504     4504        0     1                 
42004508     4508        0     1                 
42004508     4508        0     1                 
420045e0     45e0        0     1                 
420045e4     45e4        0     1                 
420045e4     45e4        0     1                 
420045e8     45e8        0     1                 
420045e8     45e8        0     1                 
420045ec     45ec        0     1                 
420045f0     45f0        0     1                 
420045f4     45f4        0     1                 
420045f4     45f4        0     1                 
420045f8     45f8        0     1                 
420045f8     45f8        0     1                 
420045fc     45fc        0     1                 
420045fc     45fc        0     1                 
420045fe     45fe        0     1                 
420045fe     45fe        0     1                 
42004602     4602        0     1                 
42004602     4602        0     1                 
42004606     4606        0     1                 
4200460e     460e        0     1                 
4200460e     460e        0     1                 
42004612     4612        0     1                 
42004612     4612        0     1                 
42004616     4616        0     1                 
42004616     4616        0     1                 
42004618     4618        0     1                 
42004618     4618        0     1                 
4200461c     461c        0     1                 
4200461c     461c        0     1                 
42004620     4620        0     1                 
42004620     4620        0     1                 
42004628     4628        0     1                 
42004628     4628        0     1                 
4200462c     462c        0     1                 
4200462c     462c        0     1                 
42004630     4630        0     1                 
42004630     4630        0     1                 
42004632     4632        0     1                 
42004632     4632        0     1                 
42004638     4638        0     1                 
42004638     4638        0     1                 
42004640     4640        0     1                 
42004648     4648        0     1                 
42004650     4650        0     1                 
42004650     4650        0     1                 
42004654     4654        0     1                 
42004654     4654        0     1                 
4200465c     465c        0     1                 
42004668     4668        0     1                 
4200466c     466c        0     1                 
4200466c     466c        0     1                 
42004670     4670        0     1                 
42004670     4670        0     1                 
42004674     4674        0     1                 
42004674     4674        0     1                 
4200467c     467c        0     1                 
4200467c     467c        0     1                 
4200467e     467e        0     1                 
4200467e     467e        0     1                 
4200469a     469a        0     1                 
420046a6     46a6        0     1                 
420046b2     46b2        0     1                 
420046b2     46b2        0     1                 
420046d0     46d0        0     1                 
420046d0     46d0        0     1                 
420046d4     46d4        0     1                 
420046d4     46d4        0     1                 
420046de     46de        0     1                 
420046e2     46e2        0     1                 
420046e2     46e2        0     1                 
420046e6     46e6        0     1                 
420046ea     46ea        0     1                 
420046ee     46ee        0     1                 
420046f2     46f2        0     1                 
420046f2     46f2        0     1                 
42004700     4700        0     1                 
42004700     4700        0     1                 
42004704     4704        0     1                 
42004704     4704        0     1                 
42004708     4708        0     1                 
42004708     4708        0     1                 
42004710     4710        0     1                 
42004710     4710        0     1                 .LBB197_38
42004710     4710        0     1                 
42004728     4728        0     1                 
42004728     4728        0     1                 
42004730     4730        0     1                 
42004730     4730        0     1                 
42004734     4734        0     1                 
42004736     4736        0     1                 
42004736     4736        0     1                 
4200473a     473a        0     1                 
4200473e     473e        0     1                 
42004742     4742        0     1                 
42004742     4742        0     1                 
4200474e     474e        0     1                 .LBB197_43
4200474e     474e        0     1                 
42004764     4764        0     1                 
42004764     4764        0     1                 
4200476a     476a        0     1                 
42004770     4770        0     1                 .LBB197_46
42004770     4770        0     1                 
42004770     4770        0     1                 
42004774     4774        0     1                 
4200477e     477e        0     1                 
4200477e     477e        0     1                 
42004784     4784        0     1                 
42004788     4788        0     1                 
4200478a     478a        0     1                 
4200478a     478a        0     1                 
4200478e     478e        0     1                 
42004794     4794        0     1                 .LBB197_50
42004794     4794        0     1                 
420047ae     47ae        0     1                 .LBB197_51
420047ae     47ae        0     1                 
420047c4     47c4        0     1                 
420047da     47da        0     1                 .LBB197_53
420047da     47da        0     1                 
420047da     47da        0     1                 
420047dc     47dc        0     1                 
420047dc     47dc        0     1                 
420047e4     47e4        0     1                 
420047ec     47ec        0     1                 
420047f4     47f4        0     1                 
420047fa     47fa        0     1                 
420047fa     47fa        0     1                 
42004802     4802        0     1                 
42004804     4804        0     1                 
4200480e     480e        0     1                 
4200480e     480e        0     1                 
42004814     4814        0     1                 
42004814     4814        0     1                 
4200481e     481e        0     1                 
4200481e     481e        0     1                 
42004820     4820        0     1                 
42004820     4820        0     1                 
42004826     4826        0     1                 
4200483c     483c        0     1                 
42004842     4842        0     1                 
42004856     4856        0     1                 
42004862     4862        0     1                 
420048ca     48ca        0     1                 
420048ca     48ca        0     1                 
420048cc     48cc        0     1                 
42004928     4928        0     1                 
42004928     4928        0     1                 
42004942     4942        0     1                 
42004942     4942        0     1                 
42004944     4944        0     1                 
42004948     4948        0     1                 
4200494c     494c        0     1                 
42004954     4954        0     1                 
42004954     4954        0     1                 
4200495a     495a        0     1                 
4200495e     495e        0     1                 
42004962     4962        0     1                 
42004962     4962        0     1                 
42004966     4966        0     1                 
42004966     4966        0     1                 
4200496c     496c        0     1                 
4200496c     496c        0     1                 
42004970     4970        0     1                 
42004970     4970        0     1                 
42004974     4974        0     1                 
42004974     4974        0     1                 
42004978     4978        0     1                 
42004978     4978        0     1                 
4200499e     499e        0     1                 
4200499e     499e        0     1                 
420049b8     49b8        0     1                 
420049b8     49b8        0     1                 
420049b8     49b8        0     1                 
420049b8     49b8        0     1                 
420049b8     49b8       10     2         /Users/mabez/.rustup/toolchains/nightly-aarch64-apple-darwin/lib/rustlib/riscv32imac-unknown-none-elf/lib/libcore-081fd8405fc18f2e.rlib(core-081fd8405fc18f2e.core.756fe54c-cgu.0.rcgu.o):(.text._ZN42_$LT$str$u20$as$u20$core..fmt..Display$GT$3fmt17h008158b5290718ffE)
420049b8     49b8        0     1                 
420049b8     49b8        0     1                 
420049b8     49b8        0     1                 
420049b8     49b8       10     1                 _$LT$str$u20$as$u20$core..fmt..Display$GT$::fmt::h008158b5290718ff
420049bc     49bc        0     1                 
420049c8     49c8        0     1                 
420049c8     49c8        0     1                 
420049c8     49c8        0     1                 
420049c8     49c8      2fc     2         /Users/mabez/.rustup/toolchains/nightly-aarch64-apple-darwin/lib/rustlib/riscv32imac-unknown-none-elf/lib/libcore-081fd8405fc18f2e.rlib(core-081fd8405fc18f2e.core.756fe54c-cgu.0.rcgu.o):(.text._ZN41_$LT$char$u20$as$u20$core..fmt..Debug$GT$3fmt17hdf4500e5dfef8767E)
420049c8     49c8        0     1                 
420049c8     49c8        0     1                 
420049c8     49c8        0     1                 
420049c8     49c8      2fc     1                 _$LT$char$u20$as$u20$core..fmt..Debug$GT$::fmt::hdf4500e5dfef8767
420049ca     49ca        0     1                 
420049ca     49ca        0     1                 
420049ca     49ca        0     1                 
420049e2     49e2        0     1                 
420049f6     49f6        0     1                 
420049f6     49f6        0     1                 
420049f8     49f8        0     1                 
42004a16     4a16        0     1                 
42004a1e     4a1e        0     1                 
42004a1e     4a1e        0     1                 
42004a22     4a22        0     1                 
42004a24     4a24        0     1                 
42004a28     4a28        0     1                 
42004a2c     4a2c        0     1                 
42004a30     4a30        0     1                 
42004a34     4a34        0     1                 
42004a3a     4a3a        0     1                 
42004a3c     4a3c        0     1                 
42004a40     4a40        0     1                 
42004a42     4a42        0     1                 
42004a46     4a46        0     1                 
42004a58     4a58        0     1                 
42004a58     4a58        0     1                 
42004a62     4a62        0     1                 
42004a62     4a62        0     1                 
42004a66     4a66        0     1                 
42004a66     4a66        0     1                 
42004a6c     4a6c        0     1                 
42004a90     4a90        0     1                 
42004aa0     4aa0        0     1                 
42004aa6     4aa6        0     1                 
42004aca     4aca        0     1                 
42004ad8     4ad8        0     1                 
42004b78     4b78        0     1                 
42004b78     4b78        0     1                 
42004b7a     4b7a        0     1                 
42004be8     4be8        0     1                 
42004c04     4c04        0     1                 
42004c04     4c04        0     1                 
42004c0a     4c0a        0     1                 
42004c0a     4c0a        0     1                 
42004c0e     4c0e        0     1                 
42004c0e     4c0e        0     1                 
42004c16     4c16        0     1                 
42004c16     4c16        0     1                 
42004c22     4c22        0     1                 .LBB199_26
42004c22     4c22        0     1                 
42004c30     4c30        0     1                 
42004c30     4c30        0     1                 
42004c34     4c34        0     1                 
42004c3a     4c3a        0     1                 .LBB199_29
42004c3a     4c3a        0     1                 
42004c3a     4c3a        0     1                 
42004c3e     4c3e        0     1                 
42004c48     4c48        0     1                 
42004c48     4c48        0     1                 
42004c4c     4c4c        0     1                 
42004c50     4c50        0     1                 
42004c52     4c52        0     1                 
42004c52     4c52        0     1                 
42004c56     4c56        0     1                 
42004c5a     4c5a        0     1                 .LBB199_33
42004c5a     4c5a        0     1                 
42004c6c     4c6c        0     1                 .LBB199_34
42004c6c     4c6c        0     1                 
42004c7e     4c7e        0     1                 .LBB199_35
42004c7e     4c7e        0     1                 
42004c90     4c90        0     1                 
42004c9c     4c9c        0     1                 
42004c9c     4c9c        0     1                 
42004ca0     4ca0        0     1                 .LBB199_38
42004ca0     4ca0        0     1                 
42004ca0     4ca0        0     1                 
42004cc4     4cc4        0     1                 
42004cc4     4cc4        0     1                 
42004cc4     4cc4        0     1                 
42004cc4     4cc4        0     1                 
42004cc4     4cc4       40     2         /Users/mabez/.rustup/toolchains/nightly-aarch64-apple-darwin/lib/rustlib/riscv32imac-unknown-none-elf/lib/libcore-081fd8405fc18f2e.rlib(core-081fd8405fc18f2e.core.756fe54c-cgu.0.rcgu.o):(.text.unlikely._ZN4core5slice5index26slice_start_index_len_fail17hdab66f8c91db18f1E)
42004cc4     4cc4        0     1                 
42004cc4     4cc4        0     1                 
42004cc4     4cc4        0     1                 
42004cc4     4cc4       40     1                 core::slice::index::slice_start_index_len_fail::hdab66f8c91db18f1
42004cc6     4cc6        0     1                 
42004cc8     4cc8        0     1                 
42004cce     4cce        0     1                 
42004ce0     4ce0        0     1                 
42004ce0     4ce0        0     1                 
42004cf6     4cf6        0     1                 
42004cf6     4cf6        0     1                 
42004d04     4d04        0     1                 
42004d04     4d04        0     1                 
42004d04     4d04        0     1                 
42004d04     4d04       40     2         /Users/mabez/.rustup/toolchains/nightly-aarch64-apple-darwin/lib/rustlib/riscv32imac-unknown-none-elf/lib/libcore-081fd8405fc18f2e.rlib(core-081fd8405fc18f2e.core.756fe54c-cgu.0.rcgu.o):(.text.unlikely._ZN4core5slice5index24slice_end_index_len_fail17ha66dfe3e03135a0bE)
42004d04     4d04        0     1                 
42004d04     4d04        0     1                 
42004d04     4d04        0     1                 
42004d04     4d04       40     1                 core::slice::index::slice_end_index_len_fail::ha66dfe3e03135a0b
42004d06     4d06        0     1                 
42004d08     4d08        0     1                 
42004d0e     4d0e        0     1                 
42004d20     4d20        0     1                 
42004d20     4d20        0     1                 
42004d36     4d36        0     1                 
42004d36     4d36        0     1                 
42004d44     4d44        0     1                 
42004d44     4d44        0     1                 
42004d44     4d44        0     1                 
42004d44     4d44       40     2         /Users/mabez/.rustup/toolchains/nightly-aarch64-apple-darwin/lib/rustlib/riscv32imac-unknown-none-elf/lib/libcore-081fd8405fc18f2e.rlib(core-081fd8405fc18f2e.core.756fe54c-cgu.0.rcgu.o):(.text.unlikely._ZN4core5slice5index22slice_index_order_fail17h8e894af7b68265c5E)
42004d44     4d44        0     1                 
42004d44     4d44        0     1                 
42004d44     4d44        0     1                 
42004d44     4d44       40     1                 core::slice::index::slice_index_order_fail::h8e894af7b68265c5
42004d46     4d46        0     1                 
42004d48     4d48        0     1                 
42004d4e     4d4e        0     1                 
42004d60     4d60        0     1                 
42004d60     4d60        0     1                 
42004d76     4d76        0     1                 
42004d76     4d76        0     1                 
42004d84     4d84        0     1                 
42004d84     4d84        0     1                 
42004d84     4d84        0     1                 
42004d84     4d84      282     2         /Users/mabez/.rustup/toolchains/nightly-aarch64-apple-darwin/lib/rustlib/riscv32imac-unknown-none-elf/lib/libcore-081fd8405fc18f2e.rlib(core-081fd8405fc18f2e.core.756fe54c-cgu.0.rcgu.o):(.text.unlikely._ZN4core3str16slice_error_fail17hf3651b9c804ef8e8E)
42004d84     4d84        0     1                 
42004d84     4d84        0     1                 
42004d84     4d84        0     1                 
42004d84     4d84      282     1                 core::str::slice_error_fail::hf3651b9c804ef8e8
42004d86     4d86        0     1                 
42004d88     4d88        0     1                 
42004d90     4d90        0     1                 
42004d90     4d90        0     1                 
42004d94     4d94        0     1                 
42004d94     4d94        0     1                 
42004d96     4d96        0     1                 
42004d9a     4d9a        0     1                 
42004da6     4da6        0     1                 
42004dae     4dae        0     1                 
42004dae     4dae        0     1                 
42004db6     4db6        0     1                 
42004db6     4db6        0     1                 
42004dba     4dba        0     1                 
42004dbc     4dbc        0     1                 
42004dbc     4dbc        0     1                 
42004dc0     4dc0        0     1                 
42004dc0     4dc0        0     1                 
42004dc4     4dc4        0     1                 
42004dc4     4dc4        0     1                 
42004dc8     4dc8        0     1                 
42004dc8     4dc8        0     1                 
42004dce     4dce        0     1                 
42004dd2     4dd2        0     1                 
42004dd2     4dd2        0     1                 
42004dd6     4dd6        0     1                 
42004de2     4de2        0     1                 
42004dee     4dee        0     1                 
42004df0     4df0        0     1                 
42004df2     4df2        0     1                 
42004dfc     4dfc        0     1                 
42004e1c     4e1c        0     1                 
42004e1c     4e1c        0     1                 
42004e2a     4e2a        0     1                 
42004e2a     4e2a        0     1                 
42004e2e     4e2e        0     1                 
42004e30     4e30        0     1                 
42004e56     4e56        0     1                 
42004e56     4e56        0     1                 
42004e64     4e64        0     1                 
42004e64     4e64        0     1                 
42004e74     4e74        0     1                 
42004e74     4e74        0     1                 
42004e7c     4e7c        0     1                 
42004e80     4e80        0     1                 
42004e80     4e80        0     1                 
42004e86     4e86        0     1                 
42004e86     4e86        0     1                 
42004e8a     4e8a        0     1                 
42004e8e     4e8e        0     1                 
42004e96     4e96        0     1                 
42004e96     4e96        0     1                 
42004e9c     4e9c        0     1                 
42004e9c     4e9c        0     1                 
42004eb2     4eb2        0     1                 
42004eb2     4eb2        0     1                 
42004eb6     4eb6        0     1                 
42004ec0     4ec0        0     1                 
42004ec0     4ec0        0     1                 
42004ec8     4ec8        0     1                 
42004ec8     4ec8        0     1                 
42004ecc     4ecc        0     1                 
42004ece     4ece        0     1                 
42004ece     4ece        0     1                 
42004ed0     4ed0        0     1                 
42004ed4     4ed4        0     1                 
42004ed4     4ed4        0     1                 
42004ed8     4ed8        0     1                 
42004ed8     4ed8        0     1                 
42004ef0     4ef0        0     1                 
42004ef0     4ef0        0     1                 
42004ef2     4ef2        0     1                 
42004ef6     4ef6        0     1                 
42004ef6     4ef6        0     1                 
42004efa     4efa        0     1                 
42004efa     4efa        0     1                 
42004f06     4f06        0     1                 
42004f0a     4f0a        0     1                 
42004f12     4f12        0     1                 
42004f12     4f12        0     1                 
42004f16     4f16        0     1                 
42004f16     4f16        0     1                 
42004f1a     4f1a        0     1                 
42004f1a     4f1a        0     1                 
42004f26     4f26        0     1                 
42004f26     4f26        0     1                 
42004f2a     4f2a        0     1                 
42004f2a     4f2a        0     1                 
42004f2e     4f2e        0     1                 
42004f2e     4f2e        0     1                 
42004f34     4f34        0     1                 
42004f34     4f34        0     1                 
42004f38     4f38        0     1                 
42004f38     4f38        0     1                 
42004f3c     4f3c        0     1                 
42004f3c     4f3c        0     1                 
42004f40     4f40        0     1                 
42004f40     4f40        0     1                 
42004f4c     4f4c        0     1                 
42004f4c     4f4c        0     1                 
42004f50     4f50        0     1                 
42004f50     4f50        0     1                 
42004f54     4f54        0     1                 
42004f54     4f54        0     1                 
42004f60     4f60        0     1                 
42004f60     4f60        0     1                 
42004f64     4f64        0     1                 
42004f68     4f68        0     1                 
42004f68     4f68        0     1                 
42004f6e     4f6e        0     1                 
42004f6e     4f6e        0     1                 
42004f74     4f74        0     1                 
42004f74     4f74        0     1                 
42004f7a     4f7a        0     1                 
42004f7a     4f7a        0     1                 
42004f7e     4f7e        0     1                 
42004f7e     4f7e        0     1                 
42004f86     4f86        0     1                 
42004f86     4f86        0     1                 
42004f8a     4f8a        0     1                 
42004f92     4f92        0     1                 
42004f9a     4f9a        0     1                 
42004f9c     4f9c        0     1                 
42004f9c     4f9c        0     1                 
42004fa0     4fa0        0     1                 
42004fa6     4fa6        0     1                 
42004fe2     4fe2        0     1                 
42004fe2     4fe2        0     1                 
42004fee     4fee        0     1                 
42004fee     4fee        0     1                 
42005006     5006        0     1                 
42005006     5006        0     1                 
42005006     5006        0     1                 
42005006     5006      116     2         /Users/mabez/.rustup/toolchains/nightly-aarch64-apple-darwin/lib/rustlib/riscv32imac-unknown-none-elf/lib/libcore-081fd8405fc18f2e.rlib(core-081fd8405fc18f2e.core.756fe54c-cgu.0.rcgu.o):(.text._ZN4core7unicode9printable5check17h7553926595cb49f5E)
42005006     5006      116     1                 core::unicode::printable::check::h7553926595cb49f5
42005006     5006        0     1                 
42005006     5006        0     1                 
42005006     5006        0     1                 
42005008     5008        0     1                 
42005008     5008        0     1                 
42005008     5008        0     1                 
4200500a     500a        0     1                 
4200500c     500c        0     1                 
4200500c     500c        0     1                 
42005022     5022        0     1                 
42005036     5036        0     1                 
4200503a     503a        0     1                 
4200503e     503e        0     1                 
4200503e     503e        0     1                 
42005040     5040        0     1                 
42005040     5040        0     1                 
42005044     5044        0     1                 
42005048     5048        0     1                 
42005048     5048        0     1                 
4200504c     504c        0     1                 
42005050     5050        0     1                 
42005050     5050        0     1                 
42005052     5052        0     1                 
42005052     5052        0     1                 
42005054     5054        0     1                 
42005054     5054        0     1                 
42005058     5058        0     1                 
42005058     5058        0     1                 
4200505a     505a        0     1                 
4200505a     505a        0     1                 
42005062     5062        0     1                 
42005064     5064        0     1                 
42005064     5064        0     1                 
42005068     5068        0     1                 
42005068     5068        0     1                 
4200506c     506c        0     1                 
4200506c     506c        0     1                 
42005072     5072        0     1                 
42005072     5072        0     1                 
42005078     5078        0     1                 
42005078     5078        0     1                 
42005084     5084        0     1                 
42005084     5084        0     1                 
42005088     5088        0     1                 
42005088     5088        0     1                 
4200508c     508c        0     1                 
4200508e     508e        0     1                 
42005096     5096        0     1                 
42005096     5096        0     1                 
4200509a     509a        0     1                 
4200509a     509a        0     1                 
4200509e     509e        0     1                 
4200509e     509e        0     1                 
420050a4     50a4        0     1                 
420050a4     50a4        0     1                 
420050a6     50a6        0     1                 
420050a6     50a6        0     1                 
420050a8     50a8        0     1                 
420050aa     50aa        0     1                 
420050ae     50ae        0     1                 
420050b2     50b2        0     1                 
420050b2     50b2        0     1                 
420050b6     50b6        0     1                 
420050b6     50b6        0     1                 
420050be     50be        0     1                 
420050c0     50c0        0     1                 
420050c8     50c8        0     1                 
420050ca     50ca        0     1                 
420050d2     50d2        0     1                 
420050d2     50d2        0     1                 
420050f0     50f0        0     1                 
420050f0     50f0        0     1                 
42005106     5106        0     1                 
4200511c     511c        0     1                 
4200511c     511c        0     1                 
4200511c     511c        0     1                 
4200511c     511c        0     1                 
4200511c     511c       dc     2         /Users/mabez/.rustup/toolchains/nightly-aarch64-apple-darwin/lib/rustlib/riscv32imac-unknown-none-elf/lib/libcore-081fd8405fc18f2e.rlib(core-081fd8405fc18f2e.core.756fe54c-cgu.0.rcgu.o):(.text._ZN68_$LT$core..panic..location..Location$u20$as$u20$core..fmt..Debug$GT$3fmt17h6138f301e9495677E)
4200511c     511c        0     1                 
4200511c     511c        0     1                 
4200511c     511c        0     1                 
4200511c     511c       dc     1                 _$LT$core..panic..location..Location$u20$as$u20$core..fmt..Debug$GT$::fmt::h6138f301e9495677
4200511e     511e        0     1                 
42005128     5128        0     1                 
4200512a     512a        0     1                 
4200512a     512a        0     1                 
42005132     5132        0     1                 
42005132     5132        0     1                 
42005136     5136        0     1                 
4200513a     513a        0     1                 
4200513a     513a        0     1                 
42005148     5148        0     1                 
42005148     5148        0     1                 
4200514c     514c        0     1                 
4200514e     514e        0     1                 
4200516c     516c        0     1                 
4200516e     516e        0     1                 
4200518e     518e        0     1                 
42005190     5190        0     1                 
420051a8     51a8        0     1                 
420051a8     51a8        0     1                 
420051ac     51ac        0     1                 
420051b0     51b0        0     1                 
420051b2     51b2        0     1                 
420051b4     51b4        0     1                 
420051b4     51b4        0     1                 
420051b6     51b6        0     1                 
420051b6     51b6        0     1                 
420051b8     51b8        0     1                 
420051b8     51b8        0     1                 
420051be     51be        0     1                 
420051be     51be        0     1                 
420051c0     51c0        0     1                 
420051c0     51c0        0     1                 
420051d2     51d2        0     1                 
420051d2     51d2        0     1                 
420051e2     51e2        0     1                 
420051e2     51e2        0     1                 
420051e4     51e4        0     1                 
420051e6     51e6        0     1                 
420051ea     51ea        0     1                 
420051ea     51ea        0     1                 
420051f8     51f8        0     1                 
420051f8     51f8        0     1                 
420051f8     51f8        0     1                 
420051f8     51f8       e0     2         /Users/mabez/.rustup/toolchains/nightly-aarch64-apple-darwin/lib/rustlib/riscv32imac-unknown-none-elf/lib/libcore-081fd8405fc18f2e.rlib(core-081fd8405fc18f2e.core.756fe54c-cgu.0.rcgu.o):(.text._ZN71_$LT$core..panic..panic_info..PanicInfo$u20$as$u20$core..fmt..Debug$GT$3fmt17h3aa005868798f638E)
420051f8     51f8        0     1                 
420051f8     51f8        0     1                 
420051f8     51f8        0     1                 
420051f8     51f8       e0     1                 _$LT$core..panic..panic_info..PanicInfo$u20$as$u20$core..fmt..Debug$GT$::fmt::h3aa005868798f638
420051fa     51fa        0     1                 
42005204     5204        0     1                 
42005206     5206        0     1                 
42005206     5206        0     1                 
4200520e     520e        0     1                 
4200520e     520e        0     1                 
42005212     5212        0     1                 
42005216     5216        0     1                 
42005216     5216        0     1                 
42005224     5224        0     1                 
42005224     5224        0     1                 
42005228     5228        0     1                 
4200522a     522a        0     1                 
42005248     5248        0     1                 
4200524a     524a        0     1                 
42005268     5268        0     1                 
4200526a     526a        0     1                 
42005288     5288        0     1                 
42005288     5288        0     1                 
4200528c     528c        0     1                 
42005290     5290        0     1                 
42005292     5292        0     1                 
42005294     5294        0     1                 
42005294     5294        0     1                 
42005296     5296        0     1                 
42005296     5296        0     1                 
42005298     5298        0     1                 
42005298     5298        0     1                 
4200529e     529e        0     1                 
4200529e     529e        0     1                 
420052a0     52a0        0     1                 
420052a0     52a0        0     1                 
420052b2     52b2        0     1                 
420052b2     52b2        0     1                 
420052c2     52c2        0     1                 
420052c2     52c2        0     1                 
420052c4     52c4        0     1                 
420052c6     52c6        0     1                 
420052ca     52ca        0     1                 
420052ca     52ca        0     1                 
420052d8     52d8        0     1                 
420052d8     52d8        0     1                 
420052d8     52d8        0     1                 
420052d8     52d8       86     2         /Users/mabez/.rustup/toolchains/nightly-aarch64-apple-darwin/lib/rustlib/riscv32imac-unknown-none-elf/lib/libcore-081fd8405fc18f2e.rlib(core-081fd8405fc18f2e.core.756fe54c-cgu.0.rcgu.o):(.text._ZN4core3fmt3num53_$LT$impl$u20$core..fmt..LowerHex$u20$for$u20$i32$GT$3fmt17h1bf4736efcdaea61E)
420052d8     52d8        0     1                 
420052d8     52d8        0     1                 
420052d8     52d8        0     1                 
420052d8     52d8       86     1                 core::fmt::num::_$LT$impl$u20$core..fmt..LowerHex$u20$for$u20$i32$GT$::fmt::h1bf4736efcdaea61
420052d8     52d8       86     1                 core::fmt::num::_$LT$impl$u20$core..fmt..LowerHex$u20$for$u20$usize$GT$::fmt::h9c7549e597f0fe26
420052d8     52d8       86     1                 core::fmt::num::_$LT$impl$u20$core..fmt..LowerHex$u20$for$u20$isize$GT$::fmt::h0a3c60f45bbec4ab
420052d8     52d8       86     1                 core::fmt::num::_$LT$impl$u20$core..fmt..LowerHex$u20$for$u20$u32$GT$::fmt::h9d1542a507b7d93d
420052da     52da        0     1                 
420052dc     52dc        0     1                 
420052e0     52e0        0     1                 
420052ec     52ec        0     1                 
420052ec     52ec        0     1                 
420052f4     52f4        0     1                 
420052f6     52f6        0     1                 
420052f6     52f6        0     1                 
420052fa     52fa        0     1                 
420052fa     52fa        0     1                 
42005300     5300        0     1                 
42005302     5302        0     1                 
42005302     5302        0     1                 
4200530a     530a        0     1                 
4200530a     530a        0     1                 
4200530e     530e        0     1                 
4200530e     530e        0     1                 
42005314     5314        0     1                 
42005314     5314        0     1                 
42005320     5320        0     1                 
42005320     5320        0     1                 
42005326     5326        0     1                 
42005326     5326        0     1                 
42005342     5342        0     1                 
42005342     5342        0     1                 
42005348     5348        0     1                 
42005348     5348        0     1                 
4200535e     535e        0     1                 
4200535e     535e        0     1                 
4200535e     535e        0     1                 
4200535e     535e        0     1                 
4200535e     535e       86     2         /Users/mabez/.rustup/toolchains/nightly-aarch64-apple-darwin/lib/rustlib/riscv32imac-unknown-none-elf/lib/libcore-081fd8405fc18f2e.rlib(core-081fd8405fc18f2e.core.756fe54c-cgu.0.rcgu.o):(.text._ZN4core3fmt3num53_$LT$impl$u20$core..fmt..UpperHex$u20$for$u20$i32$GT$3fmt17h78194a7b4370f960E)
4200535e     535e        0     1                 
4200535e     535e        0     1                 
4200535e     535e        0     1                 
4200535e     535e       86     1                 core::fmt::num::_$LT$impl$u20$core..fmt..UpperHex$u20$for$u20$i32$GT$::fmt::h78194a7b4370f960
4200535e     535e       86     1                 core::fmt::num::_$LT$impl$u20$core..fmt..UpperHex$u20$for$u20$usize$GT$::fmt::hcbe88bb81fb479db
4200535e     535e       86     1                 core::fmt::num::_$LT$impl$u20$core..fmt..UpperHex$u20$for$u20$isize$GT$::fmt::hc80d4907c186d899
4200535e     535e       86     1                 core::fmt::num::_$LT$impl$u20$core..fmt..UpperHex$u20$for$u20$u32$GT$::fmt::h60e678a287fc9921
42005360     5360        0     1                 
42005362     5362        0     1                 
42005366     5366        0     1                 
42005372     5372        0     1                 
42005372     5372        0     1                 
4200537a     537a        0     1                 
4200537c     537c        0     1                 
4200537c     537c        0     1                 
42005380     5380        0     1                 
42005380     5380        0     1                 
42005386     5386        0     1                 
42005388     5388        0     1                 
42005388     5388        0     1                 
42005390     5390        0     1                 
42005390     5390        0     1                 
42005394     5394        0     1                 
42005394     5394        0     1                 
4200539a     539a        0     1                 
4200539a     539a        0     1                 
420053a6     53a6        0     1                 
420053a6     53a6        0     1                 
420053ac     53ac        0     1                 
420053ac     53ac        0     1                 
420053c8     53c8        0     1                 
420053c8     53c8        0     1                 
420053ce     53ce        0     1                 
420053ce     53ce        0     1                 
420053e4     53e4        0     1                 
420053e4     53e4        0     1                 
420053e4     53e4        0     1                 
420053e4     53e4        0     1                 
420053e4     53e4       dc     2         /Users/mabez/.rustup/toolchains/nightly-aarch64-apple-darwin/lib/rustlib/riscv32imac-unknown-none-elf/lib/libcore-081fd8405fc18f2e.rlib(core-081fd8405fc18f2e.core.756fe54c-cgu.0.rcgu.o):(.text._ZN4core3fmt3num52_$LT$impl$u20$core..fmt..Debug$u20$for$u20$usize$GT$3fmt17hc36110ef658364b2E)
420053e4     53e4       dc     1                 core::fmt::num::_$LT$impl$u20$core..fmt..Debug$u20$for$u20$usize$GT$::fmt::hc36110ef658364b2
420053e4     53e4        0     1                 
420053e4     53e4        0     1                 
420053e4     53e4        0     1                 
420053e6     53e6        0     1                 
420053e8     53e8        0     1                 
420053ea     53ea        0     1                 
420053ea     53ea        0     1                 
420053f0     53f0        0     1                 
420053f0     53f0        0     1                 
420053f2     53f2        0     1                 
420053f2     53f2        0     1                 
420053f6     53f6        0     1                 
420053f6     53f6        0     1                 
420053f8     53f8        0     1                 
420053f8     53f8        0     1                 
420053fa     53fa        0     1                 
420053fa     53fa        0     1                 
4200540a     540a        0     1                 
4200540a     540a        0     1                 
4200540c     540c        0     1                 
4200540c     540c        0     1                 
42005418     5418        0     1                 
42005418     5418        0     1                 
42005420     5420        0     1                 
42005422     5422        0     1                 
42005422     5422        0     1                 
42005426     5426        0     1                 
42005426     5426        0     1                 
4200542c     542c        0     1                 
4200542e     542e        0     1                 
4200542e     542e        0     1                 
42005436     5436        0     1                 
42005436     5436        0     1                 
4200543a     543a        0     1                 
4200543a     543a        0     1                 
42005442     5442        0     1                 
42005442     5442        0     1                 
4200544e     544e        0     1                 
4200544e     544e        0     1                 
42005456     5456        0     1                 
42005458     5458        0     1                 
42005458     5458        0     1                 
4200545c     545c        0     1                 
4200545c     545c        0     1                 
42005462     5462        0     1                 
42005464     5464        0     1                 
42005464     5464        0     1                 
4200546c     546c        0     1                 
4200546c     546c        0     1                 
42005470     5470        0     1                 
42005470     5470        0     1                 
420054a4     54a4        0     1                 
420054aa     54aa        0     1                 
420054c0     54c0        0     1                 
420054c0     54c0        0     1                 
420054c0     54c0        0     1                 
420054c0     54c0      16e     2         /Users/mabez/.rustup/toolchains/nightly-aarch64-apple-darwin/lib/rustlib/riscv32imac-unknown-none-elf/lib/libcore-081fd8405fc18f2e.rlib(core-081fd8405fc18f2e.core.756fe54c-cgu.0.rcgu.o):(.text._ZN4core3fmt3num3imp7fmt_u3217h692938b18ef1d188E)
420054c0     54c0      16e     1                 core::fmt::num::imp::fmt_u32::h692938b18ef1d188
420054c0     54c0        0     1                 
420054c0     54c0        0     1                 
420054c0     54c0        0     1                 
420054c2     54c2        0     1                 
420054c8     54c8        0     1                 
420054ca     54ca        0     1                 
420054da     54da        0     1                 
420054de     54de        0     1                 
420054e2     54e2        0     1                 
420054e4     54e4        0     1                 
420054e8     54e8        0     1                 
420054ee     54ee        0     1                 
420054ee     54ee        0     1                 
420054f0     54f0        0     1                 
420054f0     54f0        0     1                 
420054fa     54fa        0     1                 
4200552a     552a        0     1                 
42005538     5538        0     1                 
42005550     5550        0     1                 
42005556     5556        0     1                 
42005556     5556        0     1                 
4200555a     555a        0     1                 
4200555a     555a        0     1                 
42005566     5566        0     1                 
42005566     5566        0     1                 
42005568     5568        0     1                 
42005568     5568        0     1                 
42005570     5570        0     1                 
42005570     5570        0     1                 
42005578     5578        0     1                 
42005578     5578        0     1                 
42005580     5580        0     1                 
42005580     5580        0     1                 
42005586     5586        0     1                 
42005592     5592        0     1                 
420055ae     55ae        0     1                 
420055b2     55b2        0     1                 
420055b4     55b4        0     1                 
420055b4     55b4        0     1                 
420055be     55be        0     1                 
420055be     55be        0     1                 
420055ca     55ca        0     1                 
420055ca     55ca        0     1                 
420055cc     55cc        0     1                 
420055cc     55cc        0     1                 
420055d8     55d8        0     1                 
420055d8     55d8        0     1                 
420055dc     55dc        0     1                 
420055de     55de        0     1                 
420055e0     55e0        0     1                 
420055e0     55e0        0     1                 
420055ea     55ea        0     1                 
420055ea     55ea        0     1                 
420055f6     55f6        0     1                 
420055f6     55f6        0     1                 
420055f8     55f8        0     1                 
420055f8     55f8        0     1                 
42005600     5600        0     1                 
42005600     5600        0     1                 
42005604     5604        0     1                 
42005604     5604        0     1                 
4200560c     560c        0     1                 
4200560c     560c        0     1                 
42005610     5610        0     1                 
42005624     5624        0     1                 
4200562e     562e        0     1                 
4200562e     562e        0     1                 
4200562e     562e        0     1                 
4200562e     562e       20     2         /Users/mabez/.rustup/toolchains/nightly-aarch64-apple-darwin/lib/rustlib/riscv32imac-unknown-none-elf/lib/libcore-081fd8405fc18f2e.rlib(core-081fd8405fc18f2e.core.756fe54c-cgu.0.rcgu.o):(.text._ZN4core3fmt3num3imp52_$LT$impl$u20$core..fmt..Display$u20$for$u20$i32$GT$3fmt17h6f10af166d1f1e6dE)
4200562e     562e        0     1                 
4200562e     562e        0     1                 
4200562e     562e        0     1                 
4200562e     562e        0     1                 
4200562e     562e       20     1                 core::fmt::num::imp::_$LT$impl$u20$core..fmt..Display$u20$for$u20$i32$GT$::fmt::h6f10af166d1f1e6d
4200562e     562e       20     1                 core::fmt::num::imp::_$LT$impl$u20$core..fmt..Display$u20$for$u20$isize$GT$::fmt::h601aba5dcc9b19d9
42005630     5630        0     1                 
4200563a     563a        0     1                 
4200564e     564e        0     1                 
4200564e     564e        0     1                 
4200564e     564e        0     1                 
4200564e     564e        e     2         /Users/mabez/.rustup/toolchains/nightly-aarch64-apple-darwin/lib/rustlib/riscv32imac-unknown-none-elf/lib/libcore-081fd8405fc18f2e.rlib(core-081fd8405fc18f2e.core.756fe54c-cgu.0.rcgu.o):(.text._ZN4core3fmt3num3imp52_$LT$impl$u20$core..fmt..Display$u20$for$u20$u32$GT$3fmt17h9316138a6cd01a24E)
4200564e     564e        0     1                 
4200564e     564e        0     1                 
4200564e     564e        0     1                 
4200564e     564e        0     1                 
4200564e     564e        e     1                 core::fmt::num::imp::_$LT$impl$u20$core..fmt..Display$u20$for$u20$u32$GT$::fmt::h9316138a6cd01a24
4200564e     564e        e     1                 core::fmt::num::imp::_$LT$impl$u20$core..fmt..Display$u20$for$u20$usize$GT$::fmt::h2469bec0aa3331b6
42005652     5652        0     1                 
42005652     5652        0     1                 
4200565c     565c        0     1                 
4200565c     565c        0     1                 
4200565c     565c        0     1                 
4200565c     565c       12     2         /Users/mabez/.rustup/toolchains/nightly-aarch64-apple-darwin/lib/rustlib/riscv32imac-unknown-none-elf/lib/libcore-081fd8405fc18f2e.rlib(core-081fd8405fc18f2e.core.756fe54c-cgu.0.rcgu.o):(.text._ZN53_$LT$core..fmt..Error$u20$as$u20$core..fmt..Debug$GT$3fmt17h8a8ef5898e323d42E)
4200565c     565c        0     1                 
4200565c     565c        0     1                 
4200565c     565c        0     1                 
4200565c     565c        0     1                 
4200565c     565c       12     1                 _$LT$core..fmt..Error$u20$as$u20$core..fmt..Debug$GT$::fmt::h8a8ef5898e323d42
4200566e     566e        0     1                 
4200566e     566e        0     1                 
4200566e     566e        0     1                 
4200566e     566e        0     1                 
4200566e     566e        c     2         /Users/mabez/.rustup/toolchains/nightly-aarch64-apple-darwin/lib/rustlib/riscv32imac-unknown-none-elf/lib/libcore-081fd8405fc18f2e.rlib(core-081fd8405fc18f2e.core.756fe54c-cgu.0.rcgu.o):(.text._ZN42_$LT$$RF$T$u20$as$u20$core..fmt..Debug$GT$3fmt17h183459a932e0c0cfE)
4200566e     566e        c     1                 _$LT$$RF$T$u20$as$u20$core..fmt..Debug$GT$::fmt::h183459a932e0c0cf
4200566e     566e        0     1                 
4200566e     566e        0     1                 
4200566e     566e        0     1                 
4200566e     566e        0     1                 
42005670     5670        0     1                 
42005672     5672        0     1                 
42005672     5672        0     1                 
4200567a     567a        0     1                 
4200567a     567a        0     1                 
4200567a     567a        0     1                 
4200567a     567a        0     1                 
4200567a     567a       14     2         /Users/mabez/.rustup/toolchains/nightly-aarch64-apple-darwin/lib/rustlib/riscv32imac-unknown-none-elf/lib/libcore-081fd8405fc18f2e.rlib(core-081fd8405fc18f2e.core.756fe54c-cgu.0.rcgu.o):(.text._ZN42_$LT$$RF$T$u20$as$u20$core..fmt..Debug$GT$3fmt17h2458f1e13370f2ecE)
4200567a     567a       14     1                 _$LT$$RF$T$u20$as$u20$core..fmt..Debug$GT$::fmt::h2458f1e13370f2ec
4200567a     567a        0     1                 
4200567a     567a        0     1                 
4200567a     567a        0     1                 
4200567a     567a        0     1                 
4200567c     567c        0     1                 
4200567c     567c        0     1                 
42005682     5682        0     1                 
4200568e     568e        0     1                 
4200568e     568e        0     1                 
4200568e     568e        0     1                 
4200568e     568e        0     1                 
4200568e     568e       34     2         /Users/mabez/.rustup/toolchains/nightly-aarch64-apple-darwin/lib/rustlib/riscv32imac-unknown-none-elf/lib/libcore-081fd8405fc18f2e.rlib(core-081fd8405fc18f2e.core.756fe54c-cgu.0.rcgu.o):(.text._ZN42_$LT$$RF$T$u20$as$u20$core..fmt..Debug$GT$3fmt17h3556e9a7fba0e1c7E)
4200568e     568e       34     1                 _$LT$$RF$T$u20$as$u20$core..fmt..Debug$GT$::fmt::h3556e9a7fba0e1c7
4200568e     568e        0     1                 
4200568e     568e        0     1                 
4200568e     568e        0     1                 
42005690     5690        0     1                 
42005690     5690        0     1                 
42005692     5692        0     1                 
42005694     5694        0     1                 
42005696     5696        0     1                 
42005696     5696        0     1                 
420056a8     56a8        0     1                 
420056a8     56a8        0     1                 
420056aa     56aa        0     1                 
420056aa     56aa        0     1                 
420056ae     56ae        0     1                 
420056ae     56ae        0     1                 
420056b0     56b0        0     1                 
420056b0     56b0        0     1                 
420056b2     56b2        0     1                 
420056bc     56bc        0     1                 
420056bc     56bc        0     1                 
420056c2     56c2        0     1                 
420056c2     56c2        0     1                 
420056c2     56c2        0     1                 
420056c2     56c2       3e     2         /Users/mabez/.rustup/toolchains/nightly-aarch64-apple-darwin/lib/rustlib/riscv32imac-unknown-none-elf/lib/libcore-081fd8405fc18f2e.rlib(core-081fd8405fc18f2e.core.756fe54c-cgu.0.rcgu.o):(.text._ZN42_$LT$$RF$T$u20$as$u20$core..fmt..Debug$GT$3fmt17h418a2d0c5db73ae8E)
420056c2     56c2       3e     1                 _$LT$$RF$T$u20$as$u20$core..fmt..Debug$GT$::fmt::h418a2d0c5db73ae8
420056c2     56c2        0     1                 
420056c2     56c2        0     1                 
420056c2     56c2        0     1                 
420056c4     56c4        0     1                 
420056c4     56c4        0     1                 
420056c4     56c4        0     1                 
420056c8     56c8        0     1                 
420056de     56de        0     1                 
420056de     56de        0     1                 
420056e0     56e0        0     1                 
420056e0     56e0        0     1                 
420056ea     56ea        0     1                 
420056ea     56ea        0     1                 
42005700     5700        0     1                 
42005700     5700        0     1                 
42005700     5700        0     1                 
42005700     5700        0     1                 
42005700     5700        8     2         /Users/mabez/.rustup/toolchains/nightly-aarch64-apple-darwin/lib/rustlib/riscv32imac-unknown-none-elf/lib/libcore-081fd8405fc18f2e.rlib(core-081fd8405fc18f2e.core.756fe54c-cgu.0.rcgu.o):(.text._ZN42_$LT$$RF$T$u20$as$u20$core..fmt..Debug$GT$3fmt17h595cc801ec50f5daE)
42005700     5700        8     1                 _$LT$$RF$T$u20$as$u20$core..fmt..Debug$GT$::fmt::h595cc801ec50f5da
42005700     5700        0     1                 
42005700     5700        0     1                 
42005700     5700        0     1                 
42005700     5700        0     1                 
42005704     5704        0     1                 
42005708     5708        0     1                 
42005708     5708        0     1                 
42005708     5708        0     1                 
42005708     5708       de     2         /Users/mabez/.rustup/toolchains/nightly-aarch64-apple-darwin/lib/rustlib/riscv32imac-unknown-none-elf/lib/libcore-081fd8405fc18f2e.rlib(core-081fd8405fc18f2e.core.756fe54c-cgu.0.rcgu.o):(.text._ZN42_$LT$$RF$T$u20$as$u20$core..fmt..Debug$GT$3fmt17h6077c14044202c8dE)
42005708     5708       de     1                 _$LT$$RF$T$u20$as$u20$core..fmt..Debug$GT$::fmt::h6077c14044202c8d
42005708     5708        0     1                 
42005708     5708        0     1                 
42005708     5708        0     1                 
4200570a     570a        0     1                 
4200570c     570c        0     1                 
4200570e     570e        0     1                 
4200570e     570e        0     1                 
42005710     5710        0     1                 
42005710     5710        0     1                 
42005712     5712        0     1                 
42005712     5712        0     1                 
42005716     5716        0     1                 
42005716     5716        0     1                 
42005718     5718        0     1                 
42005718     5718        0     1                 
4200571c     571c        0     1                 
4200571c     571c        0     1                 
4200571e     571e        0     1                 
4200571e     571e        0     1                 
42005720     5720        0     1                 
42005720     5720        0     1                 
42005730     5730        0     1                 
42005730     5730        0     1                 
42005732     5732        0     1                 
42005732     5732        0     1                 
4200573e     573e        0     1                 
4200573e     573e        0     1                 
42005746     5746        0     1                 
42005748     5748        0     1                 
42005748     5748        0     1                 
4200574c     574c        0     1                 
4200574c     574c        0     1                 
42005752     5752        0     1                 
42005754     5754        0     1                 
42005754     5754        0     1                 
4200575c     575c        0     1                 
4200575c     575c        0     1                 
42005760     5760        0     1                 
42005760     5760        0     1                 
42005768     5768        0     1                 
42005768     5768        0     1                 
42005774     5774        0     1                 
42005774     5774        0     1                 
4200577c     577c        0     1                 
4200577e     577e        0     1                 
4200577e     577e        0     1                 
42005782     5782        0     1                 
42005782     5782        0     1                 
42005788     5788        0     1                 
4200578a     578a        0     1                 
4200578a     578a        0     1                 
42005792     5792        0     1                 
42005792     5792        0     1                 
42005796     5796        0     1                 
42005796     5796        0     1                 
420057ca     57ca        0     1                 
420057ca     57ca        0     1                 
420057d0     57d0        0     1                 
420057d0     57d0        0     1                 
420057e6     57e6        0     1                 
420057e6     57e6        0     1                 
420057e6     57e6        0     1                 
420057e6     57e6        0     1                 
420057e6     57e6       c0     2         /Users/mabez/.rustup/toolchains/nightly-aarch64-apple-darwin/lib/rustlib/riscv32imac-unknown-none-elf/lib/libcore-081fd8405fc18f2e.rlib(core-081fd8405fc18f2e.core.756fe54c-cgu.0.rcgu.o):(.text._ZN42_$LT$$RF$T$u20$as$u20$core..fmt..Debug$GT$3fmt17hbf78e50af60f2f35E)
420057e6     57e6       c0     1                 _$LT$$RF$T$u20$as$u20$core..fmt..Debug$GT$::fmt::hbf78e50af60f2f35
420057e6     57e6        0     1                 
420057e6     57e6        0     1                 
420057e6     57e6        0     1                 
420057e8     57e8        0     1                 
420057e8     57e8        0     1                 
420057ee     57ee        0     1                 
420057f0     57f0        0     1                 
420057f0     57f0        0     1                 
420057f6     57f6        0     1                 
420057f6     57f6        0     1                 
42005808     5808        0     1                 
42005808     5808        0     1                 
42005814     5814        0     1                 
42005814     5814        0     1                 
42005816     5816        0     1                 
4200582a     582a        0     1                 
4200582a     582a        0     1                 
4200582c     582c        0     1                 
42005830     5830        0     1                 
42005832     5832        0     1                 
42005834     5834        0     1                 
42005834     5834        0     1                 
42005836     5836        0     1                 
4200583a     583a        0     1                 
4200583a     583a        0     1                 
42005840     5840        0     1                 
42005846     5846        0     1                 
4200584a     584a        0     1                 
4200584a     584a        0     1                 
42005850     5850        0     1                 
42005850     5850        0     1                 
42005852     5852        0     1                 
42005852     5852        0     1                 
42005866     5866        0     1                 
42005866     5866        0     1                 
42005868     5868        0     1                 
42005868     5868        0     1                 
4200587c     587c        0     1                 
4200587c     587c        0     1                 
4200587e     587e        0     1                 
42005882     5882        0     1                 
42005882     5882        0     1                 
4200588c     588c        0     1                 
4200588c     588c        0     1                 
420058a6     58a6        0     1                 
420058a6     58a6        0     1                 
420058a6     58a6        0     1                 
420058a6     58a6        0     1                 
420058a6     58a6       10     2         /Users/mabez/.rustup/toolchains/nightly-aarch64-apple-darwin/lib/rustlib/riscv32imac-unknown-none-elf/lib/libcore-081fd8405fc18f2e.rlib(core-081fd8405fc18f2e.core.756fe54c-cgu.0.rcgu.o):(.text._ZN44_$LT$$RF$T$u20$as$u20$core..fmt..Display$GT$3fmt17h7a266e96d93e7d6bE)
420058a6     58a6       10     1                 _$LT$$RF$T$u20$as$u20$core..fmt..Display$GT$::fmt::h7a266e96d93e7d6b
420058a6     58a6        0     1                 
420058a6     58a6        0     1                 
420058a6     58a6        0     1                 
420058a6     58a6        0     1                 
420058ac     58ac        0     1                 
420058ac     58ac        0     1                 
420058b6     58b6        0     1                 
420058b6     58b6        0     1                 
420058b6     58b6        0     1                 
420058b6     58b6        0     1                 
420058b6     58b6      138     2         /Users/mabez/.rustup/toolchains/nightly-aarch64-apple-darwin/lib/rustlib/riscv32imac-unknown-none-elf/lib/libcore-081fd8405fc18f2e.rlib(core-081fd8405fc18f2e.core.756fe54c-cgu.0.rcgu.o):(.text._ZN4core7unicode12unicode_data15grapheme_extend6lookup17h2fe7290486e8d868E)
420058b6     58b6        0     1                 
420058b6     58b6        0     1                 
420058b6     58b6        0     1                 
420058b6     58b6      138     1                 core::unicode::unicode_data::grapheme_extend::lookup::h2fe7290486e8d868
420058b8     58b8        0     1                 
420058ba     58ba        0     1                 
420058bc     58bc        0     1                 
420058bc     58bc        0     1                 
420058d2     58d2        0     1                 
420058d2     58d2        0     1                 
420058d6     58d6        0     1                 
420058da     58da        0     1                 
420058de     58de        0     1                 
420058e2     58e2        0     1                 
420058e6     58e6        0     1                 
420058e6     58e6        0     1                 
420058ec     58ec        0     1                 
420058ec     58ec        0     1                 
420058ee     58ee        0     1                 
420058ee     58ee        0     1                 
420058f0     58f0        0     1                 
420058f0     58f0        0     1                 
420058f4     58f4        0     1                 
420058f8     58f8        0     1                 
420058fa     58fa        0     1                 
420058fe     58fe        0     1                 
42005904     5904        0     1                 
42005904     5904        0     1                 
42005908     5908        0     1                 
4200590a     590a        0     1                 
4200591e     591e        0     1                 
42005922     5922        0     1                 
42005926     5926        0     1                 
42005928     5928        0     1                 
42005928     5928        0     1                 
4200592a     592a        0     1                 
4200592a     592a        0     1                 
4200592e     592e        0     1                 
4200592e     592e        0     1                 
42005932     5932        0     1                 
4200593a     593a        0     1                 
4200593a     593a        0     1                 
42005952     5952        0     1                 
42005952     5952        0     1                 
42005954     5954        0     1                 
42005954     5954        0     1                 
4200595a     595a        0     1                 
4200595e     595e        0     1                 
4200595e     595e        0     1                 
42005962     5962        0     1                 
42005962     5962        0     1                 
42005968     5968        0     1                 
4200596c     596c        0     1                 
42005976     5976        0     1                 
4200598e     598e        0     1                 
42005990     5990        0     1                 
42005994     5994        0     1                 
42005996     5996        0     1                 
42005996     5996        0     1                 
4200599a     599a        0     1                 
4200599a     599a        0     1                 
4200599c     599c        0     1                 
420059a0     59a0        0     1                 
420059a0     59a0        0     1                 
420059a6     59a6        0     1                 
420059a6     59a6        0     1                 
420059be     59be        0     1                 
420059d6     59d6        0     1                 
420059d6     59d6        0     1                 
420059ee     59ee        0     1                 
420059ee     59ee        0     1                 
420059ee     59ee        0     1                 
420059ee     59ee        0     1                 
420059ee     59ee       16     2         /Users/mabez/.rustup/toolchains/nightly-aarch64-apple-darwin/lib/rustlib/riscv32imac-unknown-none-elf/lib/libcompiler_builtins-1e32d751d3fb162c.rlib(compiler_builtins-1e32d751d3fb162c.compiler_builtins.864c03ce-cgu.20.rcgu.o):(.text.memcpy)
420059ee     59ee        0     1                 
420059ee     59ee        0     1                 
420059ee     59ee        0     1                 
420059ee     59ee        0     1                 
420059ee     59ee       16     1                 memcpy
420059f0     59f0        0     1                 
420059f2     59f2        0     1                 
420059f6     59f6        0     1                 
420059fa     59fa        0     1                 
42005a02     5a02        0     1                 
42005a02     5a02        0     1                 
42005a04     5a04        0     1                 
42005a04     5a04        0     1                 
42005a04     5a04        0     1                 
42005a04     5a04       10     2         /Users/mabez/.rustup/toolchains/nightly-aarch64-apple-darwin/lib/rustlib/riscv32imac-unknown-none-elf/lib/libcompiler_builtins-1e32d751d3fb162c.rlib(compiler_builtins-1e32d751d3fb162c.compiler_builtins.864c03ce-cgu.20.rcgu.o):(.text.memset)
42005a04     5a04        0     1                 
42005a04     5a04        0     1                 
42005a04     5a04        0     1                 
42005a04     5a04        0     1                 
42005a04     5a04       10     1                 memset
42005a06     5a06        0     1                 
42005a08     5a08        0     1                 
42005a0c     5a0c        0     1                 
42005a12     5a12        0     1                 
42005a12     5a12        0     1                 
42005a14     5a14        0     1                 
42005a14     5a14        0     1                 
42005a14     5a14        0     1                 
42005a14     5a14        8     2         /Users/mabez/Development/rust/embedded/experiments/esp32c3-experiments/target/riscv32imac-unknown-none-elf/debug/deps/libriscv_rt-792395b706c7e295.rlib(riscv_rt-792395b706c7e295.n23zmh27zi56vj2.rcgu.o):(.text.DefaultExceptionHandler)
42005a14     5a14        0     1                 
42005a14     5a14        0     1                 
42005a14     5a14        0     1                 
42005a14     5a14        8     1                 DefaultExceptionHandler
42005a16     5a16        0     1                 
42005a18     5a18        0     1                 
42005a1c     5a1c        0     1                 
42005a1c     5a1c        0     1                 
42005a1c     5a1c        0     1                 
42005a1c     5a1c        4     2         /Users/mabez/Development/rust/embedded/experiments/esp32c3-experiments/target/riscv32imac-unknown-none-elf/debug/deps/libriscv_rt-792395b706c7e295.rlib(riscv_rt-792395b706c7e295.n23zmh27zi56vj2.rcgu.o):(.text.DefaultInterruptHandler)
42005a1c     5a1c        0     1                 
42005a1c     5a1c        0     1                 
42005a1c     5a1c        0     1                 
42005a1c     5a1c        0     1                 
42005a1c     5a1c        4     1                 DefaultInterruptHandler
42005a20     5a20        0     1                 
42005a20     5a20        0     1                 
42005a20     5a20        0     1                 
42005a20     5a20        2     2         /Users/mabez/Development/rust/embedded/experiments/esp32c3-experiments/target/riscv32imac-unknown-none-elf/debug/deps/libriscv_rt-792395b706c7e295.rlib(riscv_rt-792395b706c7e295.n23zmh27zi56vj2.rcgu.o):(.text.default_pre_init)
42005a20     5a20        0     1                 
42005a20     5a20        0     1                 
42005a20     5a20        0     1                 
42005a20     5a20        0     1                 
42005a20     5a20        2     1                 default_pre_init
42005a22     5a22        0     1                 
42005a22     5a22        0     1                 
42005a22     5a22        0     1                 
42005a22     5a22       2c     2         /Users/mabez/Development/rust/embedded/experiments/esp32c3-experiments/target/riscv32imac-unknown-none-elf/debug/deps/libriscv_rt-792395b706c7e295.rlib(riscv_rt-792395b706c7e295.n23zmh27zi56vj2.rcgu.o):(.text.default_mp_hook)
42005a22     5a22        0     1                 
42005a22     5a22        0     1                 
42005a22     5a22        0     1                 
42005a22     5a22       2c     1                 default_mp_hook
42005a24     5a24        0     1                 
42005a24     5a24        0     1                 
42005a26     5a26        0     1                 
42005a32     5a32        0     1                 
42005a36     5a36        0     1                 
42005a3c     5a3c        0     1                 
42005a3e     5a3e        0     1                 
42005a44     5a44        0     1                 
42005a4e     5a4e        0     1                 
42005a4e     5a4e        0     1                 
42005a4e     5a4e        0     1                 
42005a4e     5a4e       56     2         /Users/mabez/Development/rust/embedded/experiments/esp32c3-experiments/target/riscv32imac-unknown-none-elf/debug/deps/libriscv_rt-792395b706c7e295.rlib(riscv_rt-792395b706c7e295.2si3iiyx4w55gh9p.rcgu.o):(.text._ZN2r08zero_bss17hb4eaadc5064452d6E)
42005a4e     5a4e        0     1                 
42005a4e     5a4e        0     1                 
42005a4e     5a4e        0     1                 
42005a4e     5a4e       56     1                 r0::zero_bss::hb4eaadc5064452d6
42005a50     5a50        0     1                 
42005a52     5a52        0     1                 
42005a58     5a58        0     1                 
42005a5a     5a5a        0     1                 
42005a64     5a64        0     1                 
42005a6a     5a6a        0     1                 
42005a6c     5a6c        0     1                 
42005a6c     5a6c        0     1                 
42005a7e     5a7e        0     1                 
42005a7e     5a7e        0     1                 
42005a80     5a80        0     1                 
42005a8e     5a8e        0     1                 
42005a96     5a96        0     1                 
42005a96     5a96        0     1                 
42005a9c     5a9c        0     1                 
42005a9c     5a9c        0     1                 
42005a9e     5a9e        0     1                 
42005aa2     5aa2        0     1                 
42005aa4     5aa4        0     1                 
42005aa4     5aa4        0     1                 
42005aa4     5aa4        0     1                 
42005aa4     5aa4       68     2         /Users/mabez/Development/rust/embedded/experiments/esp32c3-experiments/target/riscv32imac-unknown-none-elf/debug/deps/libriscv_rt-792395b706c7e295.rlib(riscv_rt-792395b706c7e295.2si3iiyx4w55gh9p.rcgu.o):(.text._ZN2r09init_data17he395798f0bb43d15E)
42005aa4     5aa4        0     1                 
42005aa4     5aa4        0     1                 
42005aa4     5aa4        0     1                 
42005aa4     5aa4       68     1                 r0::init_data::he395798f0bb43d15
42005aa6     5aa6        0     1                 
42005aa8     5aa8        0     1                 
42005ab0     5ab0        0     1                 
42005ab2     5ab2        0     1                 
42005abc     5abc        0     1                 
42005ac2     5ac2        0     1                 
42005ac4     5ac4        0     1                 
42005ac8     5ac8        0     1                 
42005ad4     5ad4        0     1                 
42005ae2     5ae2        0     1                 
42005aea     5aea        0     1                 
42005aea     5aea        0     1                 
42005af0     5af0        0     1                 
42005af0     5af0        0     1                 
42005af2     5af2        0     1                 
42005af6     5af6        0     1                 
42005afe     5afe        0     1                 
42005afe     5afe        0     1                 
42005b04     5b04        0     1                 
42005b04     5b04        0     1                 
42005b06     5b06        0     1                 
42005b0a     5b0a        0     1                 
42005b0c     5b0c        0     1                 
42005b0c     5b0c        0     1                 
42005b0c     5b0c        0     1                 
42005b0c     5b0c       30     2         /Users/mabez/Development/rust/embedded/experiments/esp32c3-experiments/target/riscv32imac-unknown-none-elf/debug/deps/libriscv_rt-792395b706c7e295.rlib(riscv_rt-792395b706c7e295.nu58l7xx5z184oa.rcgu.o):(.text._ZN4core3mem12maybe_uninit20MaybeUninit$LT$T$GT$6zeroed17h8367954c0122ebafE)
42005b0c     5b0c        0     1                 
42005b0c     5b0c        0     1                 
42005b0c     5b0c        0     1                 
42005b0c     5b0c       30     1                 core::mem::maybe_uninit::MaybeUninit$LT$T$GT$::zeroed::h8367954c0122ebaf
42005b0e     5b0e        0     1                 
42005b0e     5b0e        0     1                 
42005b0e     5b0e        0     1                 
42005b10     5b10        0     1                 
42005b12     5b12        0     1                 
42005b12     5b12        0     1                 
42005b16     5b16        0     1                 
42005b1a     5b1a        0     1                 
42005b1a     5b1a        0     1                 
42005b1c     5b1c        0     1                 
42005b2a     5b2a        0     1                 
42005b2a     5b2a        0     1                 
42005b32     5b32        0     1                 
42005b32     5b32        0     1                 
42005b34     5b34        0     1                 
42005b34     5b34        0     1                 
42005b3c     5b3c        0     1                 
42005b3c     5b3c        0     1                 
42005b3c     5b3c        0     1                 
42005b3c     5b3c       1e     2         /Users/mabez/Development/rust/embedded/experiments/esp32c3-experiments/target/riscv32imac-unknown-none-elf/debug/deps/libriscv_rt-792395b706c7e295.rlib(riscv_rt-792395b706c7e295.40ecbdq24jylbsk0.rcgu.o):(.text._ZN4core10intrinsics11write_bytes17h57a846edda72e4bfE)
42005b3c     5b3c        0     1                 
42005b3c     5b3c        0     1                 
42005b3c     5b3c        0     1                 
42005b3c     5b3c       1e     1                 core::intrinsics::write_bytes::h57a846edda72e4bf
42005b3e     5b3e        0     1                 
42005b40     5b40        0     1                 
42005b48     5b48        0     1                 
42005b54     5b54        0     1                 
42005b5a     5b5a        0     1                 
42005b5a     5b5a        0     1                 
42005b5a     5b5a        0     1                 
42005b5a     5b5a        e     2         /Users/mabez/Development/rust/embedded/experiments/esp32c3-experiments/target/riscv32imac-unknown-none-elf/debug/deps/libriscv_rt-792395b706c7e295.rlib(riscv_rt-792395b706c7e295.4l8nnv0gz5uboi7y.rcgu.o):(.text._ZN4core3ptr14write_volatile17h5cdae313b0472351E)
42005b5a     5b5a        0     1                 
42005b5a     5b5a        0     1                 
42005b5a     5b5a        0     1                 
42005b5a     5b5a        e     1                 core::ptr::write_volatile::h5cdae313b0472351
42005b5c     5b5c        0     1                 
42005b60     5b60        0     1                 
42005b64     5b64        0     1                 
42005b68     5b68        0     1                 
42005b68     5b68        0     1                 
42005b68     5b68        0     1                 
42005b68     5b68       26     2         /Users/mabez/Development/rust/embedded/experiments/esp32c3-experiments/target/riscv32imac-unknown-none-elf/debug/deps/libriscv_rt-792395b706c7e295.rlib(riscv_rt-792395b706c7e295.4l8nnv0gz5uboi7y.rcgu.o):(.text._ZN4core3ptr4read17h747aecee69941c43E)
42005b68     5b68        0     1                 
42005b68     5b68        0     1                 
42005b68     5b68        0     1                 
42005b68     5b68       26     1                 core::ptr::read::h747aecee69941c43
42005b6a     5b6a        0     1                 
42005b6e     5b6e        0     1                 
42005b6e     5b6e        0     1                 
42005b70     5b70        0     1                 
42005b70     5b70        0     1                 
42005b74     5b74        0     1                 
42005b78     5b78        0     1                 
42005b78     5b78        0     1                 
42005b7a     5b7a        0     1                 
42005b86     5b86        0     1                 
42005b88     5b88        0     1                 
42005b88     5b88        0     1                 
42005b8e     5b8e        0     1                 
42005b8e     5b8e        0     1                 
42005b8e     5b8e        0     1                 
42005b8e     5b8e        c     2         /Users/mabez/Development/rust/embedded/experiments/esp32c3-experiments/target/riscv32imac-unknown-none-elf/debug/deps/libriscv_rt-792395b706c7e295.rlib(riscv_rt-792395b706c7e295.4l8nnv0gz5uboi7y.rcgu.o):(.text._ZN4core3ptr5write17h1a9de76e215c79baE)
42005b8e     5b8e        0     1                 
42005b8e     5b8e        0     1                 
42005b8e     5b8e        0     1                 
42005b8e     5b8e        c     1                 core::ptr::write::h1a9de76e215c79ba
42005b90     5b90        0     1                 
42005b94     5b94        0     1                 
42005b96     5b96        0     1                 
42005b9a     5b9a        0     1                 
42005b9a     5b9a        0     1                 
42005b9a     5b9a        0     1                 
42005b9a     5b9a       18     2         /Users/mabez/Development/rust/embedded/experiments/esp32c3-experiments/target/riscv32imac-unknown-none-elf/debug/deps/libriscv_rt-792395b706c7e295.rlib(riscv_rt-792395b706c7e295.2fig4fon7wqsswts.rcgu.o):(.text._ZN5riscv8register7mhartid4read17h45df8861f1d90b77E)
42005b9a     5b9a        0     1                 
42005b9a     5b9a        0     1                 
42005b9a     5b9a        0     1                 
42005b9a     5b9a       18     1                 riscv::register::mhartid::read::h45df8861f1d90b77
42005b9c     5b9c        0     1                 
42005b9c     5b9c        0     1                 
42005b9e     5b9e        0     1                 
42005baa     5baa        0     1                 
42005bb2     5bb2        0     1                 
42005bb2     5bb2        0     1                 
42005bb2     5bb2        0     1                 
42005bb2     5bb2       18     2         /Users/mabez/Development/rust/embedded/experiments/esp32c3-experiments/target/riscv32imac-unknown-none-elf/debug/deps/libriscv_rt-792395b706c7e295.rlib(riscv_rt-792395b706c7e295.2fig4fon7wqsswts.rcgu.o):(.text._ZN5riscv8register7mhartid5_read17h4df51e9570f3b6edE)
42005bb2     5bb2       18     1                 riscv::register::mhartid::_read::h4df51e9570f3b6ed
42005bb2     5bb2        0     1                 
42005bb2     5bb2        0     1                 
42005bb2     5bb2        0     1                 
42005bb4     5bb4        0     1                 
42005bb4     5bb4        0     1                 
42005bb6     5bb6        0     1                 
42005bc2     5bc2        0     1                 
42005bca     5bca        0     1                 
42005bca     5bca        0     1                 
42005bca     5bca        0     1                 
42005bca     5bca       14     2         /Users/mabez/Development/rust/embedded/experiments/esp32c3-experiments/target/riscv32imac-unknown-none-elf/debug/deps/libriscv_rt-792395b706c7e295.rlib(riscv_rt-792395b706c7e295.53lukflzfjg86k6f.rcgu.o):(.text._ZN5riscv3asm3wfi17hd8bcab9e80987ad0E)
42005bca     5bca        0     1                 
42005bca     5bca        0     1                 
42005bca     5bca        0     1                 
42005bca     5bca       14     1                 riscv::asm::wfi::hd8bcab9e80987ad0
42005bcc     5bcc        0     1                 
42005bcc     5bcc        0     1                 
42005bce     5bce        0     1                 
42005bd8     5bd8        0     1                 
42005bde     5bde        0     1                 
42005bde     5bde        0     1                 
42005bde     5bde        0     1                 
42005bde     5bde       10     2         /Users/mabez/Development/rust/embedded/experiments/esp32c3-experiments/target/riscv32imac-unknown-none-elf/debug/deps/libriscv_rt-792395b706c7e295.rlib(riscv-rt.o):(.text)
42005bde     5bde        0     1                 .L0 
42005bde     5bde        0     1                 .L0 
42005bde     5bde        0     1                 .L0 
42005bde     5bde        0     1                 .L0 
42005bde     5bde        0     1                 default_setup_interrupts
42005be6     5be6        0     1                 .L0 
42005bea     5bea        0     1                 .L0 
42005bec     5bec        0     1                 .L0 
42005bec     5bec        0     1                 abort
42005bee     5bee        0     1                 .L0 
42005bee     5bee        0     1                 .L0 
42005bee     5bee       4e     2         /Users/mabez/Development/rust/embedded/experiments/esp32c3-experiments/target/riscv32imac-unknown-none-elf/debug/deps/libriscv_atomic_emulation_trap-36c6147cf3a7da2f.rlib(riscv_atomic_emulation_trap-36c6147cf3a7da2f.192heijy3m9d29qe.rcgu.o):(.text._ZN27riscv_atomic_emulation_trap9TrapFrame12as_mut_words17hbe5aacd6f1c9c5d5E)
42005bee     5bee       4e     1                 riscv_atomic_emulation_trap::TrapFrame::as_mut_words::hbe5aacd6f1c9c5d5
42005bee     5bee        0     1                 
42005bee     5bee        0     1                 
42005bee     5bee        0     1                 
42005bf0     5bf0        0     1                 
42005bf2     5bf2        0     1                 
42005bf4     5bf4        0     1                 
42005bf8     5bf8        0     1                 
42005bfa     5bfa        0     1                 
42005bfc     5bfc        0     1                 
42005c02     5c02        0     1                 
42005c16     5c16        0     1                 
42005c32     5c32        0     1                 
42005c3c     5c3c        0     1                 
42005c3c     5c3c        0     1                 
42005c3c     5c3c        0     1                 
42005c3c     5c3c       7a     2         /Users/mabez/Development/rust/embedded/experiments/esp32c3-experiments/target/riscv32imac-unknown-none-elf/debug/deps/libriscv_atomic_emulation_trap-36c6147cf3a7da2f.rlib(riscv_atomic_emulation_trap-36c6147cf3a7da2f.192heijy3m9d29qe.rcgu.o):(.text._ZN27riscv_atomic_emulation_trap9TrapFrame22as_riscv_rt_trap_frame17h93c0ba2b5b541a3eE)
42005c3c     5c3c       7a     1                 riscv_atomic_emulation_trap::TrapFrame::as_riscv_rt_trap_frame::h93c0ba2b5b541a3e
42005c3c     5c3c        0     1                 
42005c3c     5c3c        0     1                 
42005c3c     5c3c        0     1                 
42005c3e     5c3e        0     1                 
42005c42     5c42        0     1                 
42005c4a     5c4a        0     1                 
42005c4c     5c4c        0     1                 
42005c4e     5c4e        0     1                 
42005c52     5c52        0     1                 
42005c56     5c56        0     1                 
42005c5a     5c5a        0     1                 
42005c5e     5c5e        0     1                 
42005c62     5c62        0     1                 
42005c66     5c66        0     1                 
42005c6a     5c6a        0     1                 
42005c6e     5c6e        0     1                 
42005c72     5c72        0     1                 
42005c74     5c74        0     1                 
42005c76     5c76        0     1                 
42005c78     5c78        0     1                 
42005c7a     5c7a        0     1                 
42005c7c     5c7c        0     1                 
42005cae     5cae        0     1                 
42005cb6     5cb6        0     1                 
42005cb6     5cb6        0     1                 
42005cb6     5cb6        0     1                 
42005cb6     5cb6      874     2         /Users/mabez/Development/rust/embedded/experiments/esp32c3-experiments/target/riscv32imac-unknown-none-elf/debug/deps/libriscv_atomic_emulation_trap-36c6147cf3a7da2f.rlib(riscv_atomic_emulation_trap-36c6147cf3a7da2f.192heijy3m9d29qe.rcgu.o):(.text._ZN27riscv_atomic_emulation_trap16atomic_emulation17hed680e9af9b9e70bE)
42005cb6     5cb6        0     1                 
42005cb6     5cb6        0     1                 
42005cb6     5cb6        0     1                 
42005cb6     5cb6      874     1                 riscv_atomic_emulation_trap::atomic_emulation::hed680e9af9b9e70b
42005cb8     5cb8        0     1                 
42005cbc     5cbc        0     1                 
42005cc2     5cc2        0     1                 
42005cc4     5cc4        0     1                 
42005ccc     5ccc        0     1                 
42005ccc     5ccc        0     1                 
42005cda     5cda        0     1                 
42005cde     5cde        0     1                 
42005ce2     5ce2        0     1                 
42005ce2     5ce2        0     1                 
42005ce8     5ce8        0     1                 
42005ce8     5ce8        0     1                 
42005cea     5cea        0     1                 
42005cee     5cee        0     1                 
42005cf0     5cf0        0     1                 
42005cf0     5cf0        0     1                 
42005cfc     5cfc        0     1                 
42005cfc     5cfc        0     1                 
42005d08     5d08        0     1                 
42005d08     5d08        0     1                 
42005d1a     5d1a        0     1                 
42005d1a     5d1a        0     1                 
42005d2c     5d2c        0     1                 
42005d2c     5d2c        0     1                 
42005d46     5d46        0     1                 
42005d46     5d46        0     1                 
42005d4e     5d4e        0     1                 
42005d5a     5d5a        0     1                 
42005d6c     5d6c        0     1                 .LBB2_10
42005d6e     5d6e        0     1                 
42005d72     5d72        0     1                 
42005d72     5d72        0     1                 
42005d74     5d74        0     1                 .LBB2_11
42005d74     5d74        0     1                 
42005d74     5d74        0     1                 
42005d7e     5d7e        0     1                 .LBB2_12
42005d7e     5d7e        0     1                 
42005d88     5d88        0     1                 .LBB2_13
42005d88     5d88        0     1                 
42005d92     5d92        0     1                 .LBB2_14
42005d92     5d92        0     1                 
42005d9c     5d9c        0     1                 .LBB2_15
42005d9c     5d9c        0     1                 
42005da6     5da6        0     1                 .LBB2_16
42005da6     5da6        0     1                 
42005db0     5db0        0     1                 .LBB2_17
42005db0     5db0        0     1                 
42005dba     5dba        0     1                 .LBB2_18
42005dba     5dba        0     1                 
42005dc4     5dc4        0     1                 .LBB2_19
42005dc4     5dc4        0     1                 
42005dce     5dce        0     1                 .LBB2_20
42005dce     5dce        0     1                 
42005dd8     5dd8        0     1                 .LBB2_21
42005dd8     5dd8        0     1                 
42005df6     5df6        0     1                 
42005df6     5df6        0     1                 
42005dfe     5dfe        0     1                 
42005dfe     5dfe        0     1                 
42005e04     5e04        0     1                 
42005e04     5e04        0     1                 
42005e1a     5e1a        0     1                 
42005e1a     5e1a        0     1                 
42005e2e     5e2e        0     1                 
42005e2e     5e2e        0     1                 
42005e34     5e34        0     1                 
42005e34     5e34        0     1                 
42005e4a     5e4a        0     1                 
42005e4a     5e4a        0     1                 
42005e90     5e90        0     1                 
42005e90     5e90        0     1                 
42005e92     5e92        0     1                 
42005e94     5e94        0     1                 
42005e98     5e98        0     1                 
42005e98     5e98        0     1                 
42005e9a     5e9a        0     1                 
42005e9a     5e9a        0     1                 
42005eae     5eae        0     1                 
42005eae     5eae        0     1                 
42005eb6     5eb6        0     1                 
42005eb6     5eb6        0     1                 
42005ebc     5ebc        0     1                 
42005ebc     5ebc        0     1                 
42005ed2     5ed2        0     1                 
42005ed2     5ed2        0     1                 
42005ee6     5ee6        0     1                 
42005ee6     5ee6        0     1                 
42005eec     5eec        0     1                 
42005eec     5eec        0     1                 
42005f02     5f02        0     1                 
42005f02     5f02        0     1                 
42005f48     5f48        0     1                 
42005f48     5f48        0     1                 
42005f4a     5f4a        0     1                 
42005f5e     5f5e        0     1                 
42005f5e     5f5e        0     1                 
42005f66     5f66        0     1                 
42005f66     5f66        0     1                 
42005f6c     5f6c        0     1                 
42005f6c     5f6c        0     1                 
42005f82     5f82        0     1                 
42005f82     5f82        0     1                 
42005f96     5f96        0     1                 
42005f96     5f96        0     1                 
42005f9c     5f9c        0     1                 
42005f9c     5f9c        0     1                 
42005fb2     5fb2        0     1                 
42005fb2     5fb2        0     1                 
42005ff8     5ff8        0     1                 
42005ff8     5ff8        0     1                 
42005ffa     5ffa        0     1                 
4200600e     600e        0     1                 
4200600e     600e        0     1                 
42006016     6016        0     1                 
42006016     6016        0     1                 
4200601c     601c        0     1                 
4200601c     601c        0     1                 
42006032     6032        0     1                 
42006032     6032        0     1                 
42006046     6046        0     1                 
42006046     6046        0     1                 
4200604c     604c        0     1                 
4200604c     604c        0     1                 
42006062     6062        0     1                 
42006062     6062        0     1                 
420060a4     60a4        0     1                 
420060a4     60a4        0     1                 
420060a6     60a6        0     1                 
420060ba     60ba        0     1                 
420060ba     60ba        0     1                 
420060c2     60c2        0     1                 
420060c2     60c2        0     1                 
420060c8     60c8        0     1                 
420060c8     60c8        0     1                 
420060de     60de        0     1                 
420060de     60de        0     1                 
420060f2     60f2        0     1                 
420060f2     60f2        0     1                 
420060f8     60f8        0     1                 
420060f8     60f8        0     1                 
4200610e     610e        0     1                 
4200610e     610e        0     1                 
42006150     6150        0     1                 
42006150     6150        0     1                 
42006152     6152        0     1                 
42006166     6166        0     1                 
42006166     6166        0     1                 
4200616e     616e        0     1                 
4200616e     616e        0     1                 
42006174     6174        0     1                 
42006174     6174        0     1                 
4200618a     618a        0     1                 
4200618a     618a        0     1                 
4200619e     619e        0     1                 
4200619e     619e        0     1                 
420061a4     61a4        0     1                 
420061a4     61a4        0     1                 
420061ba     61ba        0     1                 
420061ba     61ba        0     1                 
420061fc     61fc        0     1                 
420061fc     61fc        0     1                 
420061fe     61fe        0     1                 
42006212     6212        0     1                 
42006212     6212        0     1                 
4200621a     621a        0     1                 
4200621a     621a        0     1                 
42006220     6220        0     1                 
42006220     6220        0     1                 
42006236     6236        0     1                 
42006236     6236        0     1                 
4200624a     624a        0     1                 
4200624a     624a        0     1                 
42006250     6250        0     1                 
42006250     6250        0     1                 
42006266     6266        0     1                 
42006266     6266        0     1                 
420062a8     62a8        0     1                 
420062a8     62a8        0     1                 
420062aa     62aa        0     1                 
420062be     62be        0     1                 
420062be     62be        0     1                 
420062c6     62c6        0     1                 
420062c6     62c6        0     1                 
420062cc     62cc        0     1                 
420062cc     62cc        0     1                 
420062e2     62e2        0     1                 
420062e2     62e2        0     1                 
420062f6     62f6        0     1                 
420062f6     62f6        0     1                 
420062fc     62fc        0     1                 
420062fc     62fc        0     1                 
42006312     6312        0     1                 
42006312     6312        0     1                 
42006354     6354        0     1                 
42006354     6354        0     1                 
42006356     6356        0     1                 
4200636a     636a        0     1                 
4200636a     636a        0     1                 
42006372     6372        0     1                 
42006372     6372        0     1                 
42006378     6378        0     1                 
42006378     6378        0     1                 
4200638e     638e        0     1                 
4200638e     638e        0     1                 
420063a2     63a2        0     1                 
420063a2     63a2        0     1                 
420063a8     63a8        0     1                 
420063a8     63a8        0     1                 
420063be     63be        0     1                 
420063be     63be        0     1                 
42006400     6400        0     1                 
42006400     6400        0     1                 
42006402     6402        0     1                 
42006410     6410        0     1                 
42006410     6410        0     1                 
42006418     6418        0     1                 
4200641e     641e        0     1                 
4200641e     641e        0     1                 
42006434     6434        0     1                 
42006434     6434        0     1                 
4200643e     643e        0     1                 
42006454     6454        0     1                 
42006456     6456        0     1                 
4200646c     646c        0     1                 
4200647a     647a        0     1                 
42006482     6482        0     1                 
42006484     6484        0     1                 
4200648a     648a        0     1                 
420064a0     64a0        0     1                 
420064ac     64ac        0     1                 
420064b4     64b4        0     1                 
420064b6     64b6        0     1                 
420064cc     64cc        0     1                 
420064cc     64cc        0     1                 
420064da     64da        0     1                 
420064e2     64e2        0     1                 
420064ea     64ea        0     1                 
420064ea     64ea        0     1                 
420064f0     64f0        0     1                 
420064f0     64f0        0     1                 
42006506     6506        0     1                 
42006506     6506        0     1                 
42006512     6512        0     1                 
42006512     6512        0     1                 
42006514     6514        0     1                 
42006514     6514        0     1                 
4200652a     652a        0     1                 
4200652a     652a        0     1                 
4200652a     652a        0     1                 
4200652a     652a        0     1                 
4200652a     652a       32     2         /Users/mabez/Development/rust/embedded/experiments/esp32c3-experiments/target/riscv32imac-unknown-none-elf/debug/deps/libriscv_atomic_emulation_trap-36c6147cf3a7da2f.rlib(riscv_atomic_emulation_trap-36c6147cf3a7da2f.4wwaujsdloo4dvp5.rcgu.o):(.text._ZN4core5slice3raw18from_raw_parts_mut17hf30e3c8eb478cb68E)
4200652a     652a        0     1                 
4200652a     652a        0     1                 
4200652a     652a        0     1                 
4200652a     652a       32     1                 core::slice::raw::from_raw_parts_mut::hf30e3c8eb478cb68
4200652c     652c        0     1                 
4200652e     652e        0     1                 
42006536     6536        0     1                 
42006540     6540        0     1                 
42006552     6552        0     1                 
4200655c     655c        0     1                 
4200655c     655c        0     1                 
4200655c     655c        0     1                 
4200655c     655c        a     2         /Users/mabez/Development/rust/embedded/experiments/esp32c3-experiments/target/riscv32imac-unknown-none-elf/debug/deps/libriscv_atomic_emulation_trap-36c6147cf3a7da2f.rlib(riscv_atomic_emulation_trap-36c6147cf3a7da2f.4wwaujsdloo4dvp5.rcgu.o):(.text._ZN4core5slice3raw20debug_check_data_len17h13396545f903e701E)
4200655c     655c        0     1                 
4200655c     655c        0     1                 
4200655c     655c        0     1                 
4200655c     655c        a     1                 core::slice::raw::debug_check_data_len::h13396545f903e701
4200655e     655e        0     1                 
42006562     6562        0     1                 
42006566     6566        0     1                 
42006566     6566        0     1                 
42006566     6566        0     1                 
42006566     6566       2c     2         /Users/mabez/Development/rust/embedded/experiments/esp32c3-experiments/target/riscv32imac-unknown-none-elf/debug/deps/libriscv_atomic_emulation_trap-36c6147cf3a7da2f.rlib(riscv_atomic_emulation_trap-36c6147cf3a7da2f.1mk8bwfvrfakb4yc.rcgu.o):(.text._ZN4core3ptr24slice_from_raw_parts_mut17h12d6af6f6bd823d7E)
42006566     6566        0     1                 
42006566     6566        0     1                 
42006566     6566        0     1                 
42006566     6566       2c     1                 core::ptr::slice_from_raw_parts_mut::h12d6af6f6bd823d7
42006568     6568        0     1                 
4200656a     656a        0     1                 
42006572     6572        0     1                 
42006576     6576        0     1                 
42006588     6588        0     1                 
42006592     6592        0     1                 
42006592     6592        0     1                 
42006592     6592        0     1                 
42006592     6592       12     2         /Users/mabez/Development/rust/embedded/experiments/esp32c3-experiments/target/riscv32imac-unknown-none-elf/debug/deps/libriscv_atomic_emulation_trap-36c6147cf3a7da2f.rlib(riscv_atomic_emulation_trap-36c6147cf3a7da2f.3grzare3werdor3q.rcgu.o):(.text._ZN4core3ptr8metadata18from_raw_parts_mut17hf4061d24d66ebd14E)
42006592     6592        0     1                 
42006592     6592        0     1                 
42006592     6592        0     1                 
42006592     6592       12     1                 core::ptr::metadata::from_raw_parts_mut::hf4061d24d66ebd14
42006594     6594        0     1                 
42006598     6598        0     1                 
4200659c     659c        0     1                 
420065a0     65a0        0     1                 
420065a4     65a4        0     1                 
420065a4     65a4        0     1                 
420065a4     65a4        0     1                 
420065a4     65a4       12     2         /Users/mabez/Development/rust/embedded/experiments/esp32c3-experiments/target/riscv32imac-unknown-none-elf/debug/deps/libriscv_atomic_emulation_trap-36c6147cf3a7da2f.rlib(riscv_atomic_emulation_trap-36c6147cf3a7da2f.4l7k26w2j1wwfghy.rcgu.o):(.text._ZN27riscv_atomic_emulation_trap16atomic_emulation28_$u7b$$u7b$closure$u7d$$u7d$17hb7d73b33269abfc9E)
420065a4     65a4        0     1                 
420065a4     65a4        0     1                 
420065a4     65a4        0     1                 
420065a4     65a4       12     1                 riscv_atomic_emulation_trap::atomic_emulation::_$u7b$$u7b$closure$u7d$$u7d$::hb7d73b33269abfc9
420065a6     65a6        0     1                 
420065b2     65b2        0     1                 
420065b6     65b6        0     1                 
420065b6     65b6        0     1                 
420065b6     65b6        0     1                 
420065b6     65b6       36     2         /Users/mabez/Development/rust/embedded/experiments/esp32c3-experiments/target/riscv32imac-unknown-none-elf/debug/deps/libriscv_atomic_emulation_trap-36c6147cf3a7da2f.rlib(riscv_atomic_emulation_trap-36c6147cf3a7da2f.4l7k26w2j1wwfghy.rcgu.o):(.text._ZN27riscv_atomic_emulation_trap16atomic_emulation28_$u7b$$u7b$closure$u7d$$u7d$17h68081fe82522d90aE)
420065b6     65b6        0     1                 
420065b6     65b6        0     1                 
420065b6     65b6        0     1                 
420065b6     65b6       36     1                 riscv_atomic_emulation_trap::atomic_emulation::_$u7b$$u7b$closure$u7d$$u7d$::h68081fe82522d90a
420065b8     65b8        0     1                 
420065be     65be        0     1                 
420065ca     65ca        0     1                 
420065d0     65d0        0     1                 
420065ec     65ec        0     1                 
420065ec     65ec        0     1                 
420065ec     65ec        0     1                 
420065ec     65ec       10     2         /Users/mabez/Development/rust/embedded/experiments/esp32c3-experiments/target/riscv32imac-unknown-none-elf/debug/deps/libriscv_atomic_emulation_trap-36c6147cf3a7da2f.rlib(riscv_atomic_emulation_trap-36c6147cf3a7da2f.4l7k26w2j1wwfghy.rcgu.o):(.text._ZN27riscv_atomic_emulation_trap16atomic_emulation28_$u7b$$u7b$closure$u7d$$u7d$17ha454781831b9d97fE)
420065ec     65ec        0     1                 
420065ec     65ec        0     1                 
420065ec     65ec        0     1                 
420065ec     65ec       10     1                 riscv_atomic_emulation_trap::atomic_emulation::_$u7b$$u7b$closure$u7d$$u7d$::ha454781831b9d97f
420065ee     65ee        0     1                 
420065f4     65f4        0     1                 
420065f8     65f8        0     1                 
420065fc     65fc        0     1                 
420065fc     65fc        0     1                 
420065fc     65fc        0     1                 
420065fc     65fc       10     2         /Users/mabez/Development/rust/embedded/experiments/esp32c3-experiments/target/riscv32imac-unknown-none-elf/debug/deps/libriscv_atomic_emulation_trap-36c6147cf3a7da2f.rlib(riscv_atomic_emulation_trap-36c6147cf3a7da2f.4l7k26w2j1wwfghy.rcgu.o):(.text._ZN27riscv_atomic_emulation_trap16atomic_emulation28_$u7b$$u7b$closure$u7d$$u7d$17hc3a33acfd5614d5dE)
420065fc     65fc        0     1                 
420065fc     65fc        0     1                 
420065fc     65fc        0     1                 
420065fc     65fc       10     1                 riscv_atomic_emulation_trap::atomic_emulation::_$u7b$$u7b$closure$u7d$$u7d$::hc3a33acfd5614d5d
420065fe     65fe        0     1                 
42006604     6604        0     1                 
42006608     6608        0     1                 
4200660c     660c        0     1                 
4200660c     660c        0     1                 
4200660c     660c        0     1                 
4200660c     660c       10     2         /Users/mabez/Development/rust/embedded/experiments/esp32c3-experiments/target/riscv32imac-unknown-none-elf/debug/deps/libriscv_atomic_emulation_trap-36c6147cf3a7da2f.rlib(riscv_atomic_emulation_trap-36c6147cf3a7da2f.4l7k26w2j1wwfghy.rcgu.o):(.text._ZN27riscv_atomic_emulation_trap16atomic_emulation28_$u7b$$u7b$closure$u7d$$u7d$17hfb697167afca26ffE)
4200660c     660c        0     1                 
4200660c     660c        0     1                 
4200660c     660c        0     1                 
4200660c     660c       10     1                 riscv_atomic_emulation_trap::atomic_emulation::_$u7b$$u7b$closure$u7d$$u7d$::hfb697167afca26ff
4200660e     660e        0     1                 
42006614     6614        0     1                 
42006618     6618        0     1                 
4200661c     661c        0     1                 
4200661c     661c        0     1                 
4200661c     661c        0     1                 
4200661c     661c       2a     2         /Users/mabez/Development/rust/embedded/experiments/esp32c3-experiments/target/riscv32imac-unknown-none-elf/debug/deps/libriscv_atomic_emulation_trap-36c6147cf3a7da2f.rlib(riscv_atomic_emulation_trap-36c6147cf3a7da2f.4l7k26w2j1wwfghy.rcgu.o):(.text._ZN27riscv_atomic_emulation_trap16atomic_emulation28_$u7b$$u7b$closure$u7d$$u7d$17hb6c6882262cad578E)
4200661c     661c        0     1                 
4200661c     661c        0     1                 
4200661c     661c        0     1                 
4200661c     661c       2a     1                 riscv_atomic_emulation_trap::atomic_emulation::_$u7b$$u7b$closure$u7d$$u7d$::hb6c6882262cad578
4200661e     661e        0     1                 
42006620     6620        0     1                 
42006632     6632        0     1                 
4200663e     663e        0     1                 
42006646     6646        0     1                 
42006646     6646        0     1                 
42006646     6646        0     1                 
42006646     6646       2a     2         /Users/mabez/Development/rust/embedded/experiments/esp32c3-experiments/target/riscv32imac-unknown-none-elf/debug/deps/libriscv_atomic_emulation_trap-36c6147cf3a7da2f.rlib(riscv_atomic_emulation_trap-36c6147cf3a7da2f.4l7k26w2j1wwfghy.rcgu.o):(.text._ZN27riscv_atomic_emulation_trap16atomic_emulation28_$u7b$$u7b$closure$u7d$$u7d$17h393b3c9aec017075E)
42006646     6646        0     1                 
42006646     6646        0     1                 
42006646     6646        0     1                 
42006646     6646       2a     1                 riscv_atomic_emulation_trap::atomic_emulation::_$u7b$$u7b$closure$u7d$$u7d$::h393b3c9aec017075
42006648     6648        0     1                 
4200664a     664a        0     1                 
4200665c     665c        0     1                 
42006668     6668        0     1                 
42006670     6670        0     1                 
42006670     6670        0     1                 
42006670     6670        0     1                 
42006670     6670       2a     2         /Users/mabez/Development/rust/embedded/experiments/esp32c3-experiments/target/riscv32imac-unknown-none-elf/debug/deps/libriscv_atomic_emulation_trap-36c6147cf3a7da2f.rlib(riscv_atomic_emulation_trap-36c6147cf3a7da2f.4l7k26w2j1wwfghy.rcgu.o):(.text._ZN27riscv_atomic_emulation_trap16atomic_emulation28_$u7b$$u7b$closure$u7d$$u7d$17hb0ae27259a63d482E)
42006670     6670        0     1                 
42006670     6670        0     1                 
42006670     6670        0     1                 
42006670     6670       2a     1                 riscv_atomic_emulation_trap::atomic_emulation::_$u7b$$u7b$closure$u7d$$u7d$::hb0ae27259a63d482
42006672     6672        0     1                 
42006674     6674        0     1                 
42006686     6686        0     1                 
42006692     6692        0     1                 
4200669a     669a        0     1                 
4200669a     669a        0     1                 
4200669a     669a        0     1                 
4200669a     669a       2a     2         /Users/mabez/Development/rust/embedded/experiments/esp32c3-experiments/target/riscv32imac-unknown-none-elf/debug/deps/libriscv_atomic_emulation_trap-36c6147cf3a7da2f.rlib(riscv_atomic_emulation_trap-36c6147cf3a7da2f.4l7k26w2j1wwfghy.rcgu.o):(.text._ZN27riscv_atomic_emulation_trap16atomic_emulation28_$u7b$$u7b$closure$u7d$$u7d$17h23a3673438232b8eE)
4200669a     669a        0     1                 
4200669a     669a        0     1                 
4200669a     669a        0     1                 
4200669a     669a       2a     1                 riscv_atomic_emulation_trap::atomic_emulation::_$u7b$$u7b$closure$u7d$$u7d$::h23a3673438232b8e
4200669c     669c        0     1                 
4200669e     669e        0     1                 
420066b0     66b0        0     1                 
420066bc     66bc        0     1                 
420066c4     66c4        0     1                 
420066c4     66c4        0     1                 
420066c4     66c4        0     1                 
420066c4     66c4       1c     2         /Users/mabez/Development/rust/embedded/experiments/esp32c3-experiments/target/riscv32imac-unknown-none-elf/debug/deps/libriscv_atomic_emulation_trap-36c6147cf3a7da2f.rlib(riscv_atomic_emulation_trap-36c6147cf3a7da2f.be49seve1qmvobv.rcgu.o):(.text._ZN4core3cmp3Ord3max17h478be84e2584517bE)
420066c4     66c4        0     1                 
420066c4     66c4        0     1                 
420066c4     66c4        0     1                 
420066c4     66c4       1c     1                 core::cmp::Ord::max::h478be84e2584517b
420066c6     66c6        0     1                 
420066c8     66c8        0     1                 
420066cc     66cc        0     1                 
420066d8     66d8        0     1                 
420066e0     66e0        0     1                 
420066e0     66e0        0     1                 
420066e0     66e0        0     1                 
420066e0     66e0       1c     2         /Users/mabez/Development/rust/embedded/experiments/esp32c3-experiments/target/riscv32imac-unknown-none-elf/debug/deps/libriscv_atomic_emulation_trap-36c6147cf3a7da2f.rlib(riscv_atomic_emulation_trap-36c6147cf3a7da2f.be49seve1qmvobv.rcgu.o):(.text._ZN4core3cmp3Ord3max17hbc6736838cc3dd58E)
420066e0     66e0        0     1                 
420066e0     66e0        0     1                 
420066e0     66e0        0     1                 
420066e0     66e0       1c     1                 core::cmp::Ord::max::hbc6736838cc3dd58
420066e2     66e2        0     1                 
420066e4     66e4        0     1                 
420066e8     66e8        0     1                 
420066f4     66f4        0     1                 
420066fc     66fc        0     1                 
420066fc     66fc        0     1                 
420066fc     66fc        0     1                 
420066fc     66fc       1c     2         /Users/mabez/Development/rust/embedded/experiments/esp32c3-experiments/target/riscv32imac-unknown-none-elf/debug/deps/libriscv_atomic_emulation_trap-36c6147cf3a7da2f.rlib(riscv_atomic_emulation_trap-36c6147cf3a7da2f.be49seve1qmvobv.rcgu.o):(.text._ZN4core3cmp3Ord3min17h917bd582259dc399E)
420066fc     66fc        0     1                 
420066fc     66fc        0     1                 
420066fc     66fc        0     1                 
420066fc     66fc       1c     1                 core::cmp::Ord::min::h917bd582259dc399
420066fe     66fe        0     1                 
42006700     6700        0     1                 
42006704     6704        0     1                 
42006710     6710        0     1                 
42006718     6718        0     1                 
42006718     6718        0     1                 
42006718     6718        0     1                 
42006718     6718       1c     2         /Users/mabez/Development/rust/embedded/experiments/esp32c3-experiments/target/riscv32imac-unknown-none-elf/debug/deps/libriscv_atomic_emulation_trap-36c6147cf3a7da2f.rlib(riscv_atomic_emulation_trap-36c6147cf3a7da2f.be49seve1qmvobv.rcgu.o):(.text._ZN4core3cmp3Ord3min17he3f576ce18c92030E)
42006718     6718        0     1                 
42006718     6718        0     1                 
42006718     6718        0     1                 
42006718     6718       1c     1                 core::cmp::Ord::min::he3f576ce18c92030
4200671a     671a        0     1                 
4200671c     671c        0     1                 
42006720     6720        0     1                 
4200672c     672c        0     1                 
42006734     6734        0     1                 
42006734     6734        0     1                 
42006734     6734        0     1                 
42006734     6734       7e     2         /Users/mabez/Development/rust/embedded/experiments/esp32c3-experiments/target/riscv32imac-unknown-none-elf/debug/deps/libriscv_atomic_emulation_trap-36c6147cf3a7da2f.rlib(riscv_atomic_emulation_trap-36c6147cf3a7da2f.be49seve1qmvobv.rcgu.o):(.text._ZN4core3cmp6max_by17h24698dbd91fe4239E)
42006734     6734        0     1                 
42006734     6734        0     1                 
42006734     6734        0     1                 
42006734     6734       7e     1                 core::cmp::max_by::h24698dbd91fe4239
42006736     6736        0     1                 
42006738     6738        0     1                 
4200673e     673e        0     1                 
42006760     6760        0     1                 
42006770     6770        0     1                 
42006772     6772        0     1                 
42006774     6774        0     1                 
4200677e     677e        0     1                 
42006780     6780        0     1                 
4200678a     678a        0     1                 
420067a8     67a8        0     1                 
420067b0     67b0        0     1                 
420067b2     67b2        0     1                 
420067b2     67b2        0     1                 
420067b2     67b2        0     1                 
420067b2     67b2       7e     2         /Users/mabez/Development/rust/embedded/experiments/esp32c3-experiments/target/riscv32imac-unknown-none-elf/debug/deps/libriscv_atomic_emulation_trap-36c6147cf3a7da2f.rlib(riscv_atomic_emulation_trap-36c6147cf3a7da2f.be49seve1qmvobv.rcgu.o):(.text._ZN4core3cmp6max_by17h788b630f02d0304bE)
420067b2     67b2        0     1                 
420067b2     67b2        0     1                 
420067b2     67b2        0     1                 
420067b2     67b2       7e     1                 core::cmp::max_by::h788b630f02d0304b
420067b4     67b4        0     1                 
420067b6     67b6        0     1                 
420067bc     67bc        0     1                 
420067de     67de        0     1                 
420067ee     67ee        0     1                 
420067f0     67f0        0     1                 
420067f2     67f2        0     1                 
420067fc     67fc        0     1                 
420067fe     67fe        0     1                 
42006808     6808        0     1                 
42006826     6826        0     1                 
4200682e     682e        0     1                 
42006830     6830        0     1                 
42006830     6830        0     1                 
42006830     6830        0     1                 
42006830     6830       7e     2         /Users/mabez/Development/rust/embedded/experiments/esp32c3-experiments/target/riscv32imac-unknown-none-elf/debug/deps/libriscv_atomic_emulation_trap-36c6147cf3a7da2f.rlib(riscv_atomic_emulation_trap-36c6147cf3a7da2f.be49seve1qmvobv.rcgu.o):(.text._ZN4core3cmp6min_by17h2a8a5b5111ee81cfE)
42006830     6830        0     1                 
42006830     6830        0     1                 
42006830     6830        0     1                 
42006830     6830       7e     1                 core::cmp::min_by::h2a8a5b5111ee81cf
42006832     6832        0     1                 
42006834     6834        0     1                 
4200683a     683a        0     1                 
4200685c     685c        0     1                 
4200686c     686c        0     1                 
4200686e     686e        0     1                 
42006870     6870        0     1                 
4200687a     687a        0     1                 
4200687c     687c        0     1                 
42006886     6886        0     1                 
420068a4     68a4        0     1                 
420068ac     68ac        0     1                 
420068ae     68ae        0     1                 
420068ae     68ae        0     1                 
420068ae     68ae        0     1                 
420068ae     68ae       7e     2         /Users/mabez/Development/rust/embedded/experiments/esp32c3-experiments/target/riscv32imac-unknown-none-elf/debug/deps/libriscv_atomic_emulation_trap-36c6147cf3a7da2f.rlib(riscv_atomic_emulation_trap-36c6147cf3a7da2f.be49seve1qmvobv.rcgu.o):(.text._ZN4core3cmp6min_by17h86e485d6f5e1c0e0E)
420068ae     68ae        0     1                 
420068ae     68ae        0     1                 
420068ae     68ae        0     1                 
420068ae     68ae       7e     1                 core::cmp::min_by::h86e485d6f5e1c0e0
420068b0     68b0        0     1                 
420068b2     68b2        0     1                 
420068b8     68b8        0     1                 
420068da     68da        0     1                 
420068ea     68ea        0     1                 
420068ec     68ec        0     1                 
420068ee     68ee        0     1                 
420068f8     68f8        0     1                 
420068fa     68fa        0     1                 
42006904     6904        0     1                 
42006922     6922        0     1                 
4200692a     692a        0     1                 
4200692c     692c        0     1                 
4200692c     692c        0     1                 
4200692c     692c        0     1                 
4200692c     692c       1c     2         /Users/mabez/Development/rust/embedded/experiments/esp32c3-experiments/target/riscv32imac-unknown-none-elf/debug/deps/libriscv_atomic_emulation_trap-36c6147cf3a7da2f.rlib(riscv_atomic_emulation_trap-36c6147cf3a7da2f.431el3q0783r85py.rcgu.o):(.text._ZN4core3ops8function6FnOnce9call_once17h6fd22bda8d851450E)
4200692c     692c        0     1                 
4200692c     692c        0     1                 
4200692c     692c        0     1                 
4200692c     692c       1c     1                 core::ops::function::FnOnce::call_once::h6fd22bda8d851450
4200692e     692e        0     1                 
42006930     6930        0     1                 
42006934     6934        0     1                 
42006948     6948        0     1                 
42006948     6948        0     1                 
42006948     6948        0     1                 
42006948     6948       1c     2         /Users/mabez/Development/rust/embedded/experiments/esp32c3-experiments/target/riscv32imac-unknown-none-elf/debug/deps/libriscv_atomic_emulation_trap-36c6147cf3a7da2f.rlib(riscv_atomic_emulation_trap-36c6147cf3a7da2f.431el3q0783r85py.rcgu.o):(.text._ZN4core3ops8function6FnOnce9call_once17hba84c481d778377cE)
42006948     6948        0     1                 
42006948     6948        0     1                 
42006948     6948        0     1                 
42006948     6948       1c     1                 core::ops::function::FnOnce::call_once::hba84c481d778377c
4200694a     694a        0     1                 
4200694c     694c        0     1                 
42006950     6950        0     1                 
42006964     6964        0     1                 
42006964     6964        0     1                 
42006964     6964        0     1                 
42006964     6964       46     2         /Users/mabez/Development/rust/embedded/experiments/esp32c3-experiments/target/riscv32imac-unknown-none-elf/debug/deps/libriscv_atomic_emulation_trap-36c6147cf3a7da2f.rlib(riscv_atomic_emulation_trap-36c6147cf3a7da2f.4q0r5d249n6epd3q.rcgu.o):(.text._ZN4core3cmp5impls50_$LT$impl$u20$core..cmp..Ord$u20$for$u20$isize$GT$3cmp17hccd3ffbaba9417e0E)
42006964     6964        0     1                 
42006964     6964        0     1                 
42006964     6964        0     1                 
42006964     6964       46     1                 core::cmp::impls::_$LT$impl$u20$core..cmp..Ord$u20$for$u20$isize$GT$::cmp::hccd3ffbaba9417e0
42006966     6966        0     1                 
4200696e     696e        0     1                 
42006970     6970        0     1                 
42006972     6972        0     1                 
42006978     6978        0     1                 
4200697e     697e        0     1                 
42006980     6980        0     1                 
42006986     6986        0     1                 
4200698a     698a        0     1                 
4200698e     698e        0     1                 
42006990     6990        0     1                 
42006998     6998        0     1                 
4200699a     699a        0     1                 
4200699e     699e        0     1                 
420069a0     69a0        0     1                 
420069a2     69a2        0     1                 
420069a6     69a6        0     1                 
420069a8     69a8        0     1                 
420069aa     69aa        0     1                 
420069aa     69aa        0     1                 
420069aa     69aa        0     1                 
420069aa     69aa       46     2         /Users/mabez/Development/rust/embedded/experiments/esp32c3-experiments/target/riscv32imac-unknown-none-elf/debug/deps/libriscv_atomic_emulation_trap-36c6147cf3a7da2f.rlib(riscv_atomic_emulation_trap-36c6147cf3a7da2f.4q0r5d249n6epd3q.rcgu.o):(.text._ZN4core3cmp5impls50_$LT$impl$u20$core..cmp..Ord$u20$for$u20$usize$GT$3cmp17hf76d20a92e19e67fE)
420069aa     69aa        0     1                 
420069aa     69aa        0     1                 
420069aa     69aa        0     1                 
420069aa     69aa       46     1                 core::cmp::impls::_$LT$impl$u20$core..cmp..Ord$u20$for$u20$usize$GT$::cmp::hf76d20a92e19e67f
420069ac     69ac        0     1                 
420069b4     69b4        0     1                 
420069b6     69b6        0     1                 
420069b8     69b8        0     1                 
420069be     69be        0     1                 
420069c4     69c4        0     1                 
420069c6     69c6        0     1                 
420069cc     69cc        0     1                 
420069d0     69d0        0     1                 
420069d4     69d4        0     1                 
420069d6     69d6        0     1                 
420069de     69de        0     1                 
420069e0     69e0        0     1                 
420069e4     69e4        0     1                 
420069e6     69e6        0     1                 
420069e8     69e8        0     1                 
420069ec     69ec        0     1                 
420069ee     69ee        0     1                 
420069f0     69f0        0     1                 
420069f0     69f0        0     1                 
420069f0     69f0        0     1                 
420069f0     69f0       1a     2         /Users/mabez/Development/rust/embedded/experiments/esp32c3-experiments/target/riscv32imac-unknown-none-elf/debug/deps/libriscv_atomic_emulation_trap-36c6147cf3a7da2f.rlib(riscv_atomic_emulation_trap-36c6147cf3a7da2f.4z6enr9b9fac5dau.rcgu.o):(.text._ZN5riscv8register6mcause4read17he1bd12ecd852b76dE)
420069f0     69f0        0     1                 
420069f0     69f0        0     1                 
420069f0     69f0        0     1                 
420069f0     69f0       1a     1                 riscv::register::mcause::read::he1bd12ecd852b76d
420069f2     69f2        0     1                 
420069f2     69f2        0     1                 
420069f4     69f4        0     1                 
42006a00     6a00        0     1                 
42006a04     6a04        0     1                 
42006a0a     6a0a        0     1                 
42006a0a     6a0a        0     1                 
42006a0a     6a0a        0     1                 
42006a0a     6a0a       18     2         /Users/mabez/Development/rust/embedded/experiments/esp32c3-experiments/target/riscv32imac-unknown-none-elf/debug/deps/libriscv_atomic_emulation_trap-36c6147cf3a7da2f.rlib(riscv_atomic_emulation_trap-36c6147cf3a7da2f.4z6enr9b9fac5dau.rcgu.o):(.text._ZN5riscv8register6mcause5_read17h87c9276744b79f9aE)
42006a0a     6a0a       18     1                 riscv::register::mcause::_read::h87c9276744b79f9a
42006a0a     6a0a        0     1                 
42006a0a     6a0a        0     1                 
42006a0a     6a0a        0     1                 
42006a0c     6a0c        0     1                 
42006a0c     6a0c        0     1                 
42006a0e     6a0e        0     1                 
42006a1a     6a1a        0     1                 
42006a22     6a22        0     1                 
42006a22     6a22        0     1                 
42006a22     6a22        0     1                 
42006a22     6a22       12     2         /Users/mabez/Development/rust/embedded/experiments/esp32c3-experiments/target/riscv32imac-unknown-none-elf/debug/deps/libriscv_atomic_emulation_trap-36c6147cf3a7da2f.rlib(riscv_atomic_emulation_trap-36c6147cf3a7da2f.4z6enr9b9fac5dau.rcgu.o):(.text._ZN5riscv8register6mcause6Mcause12is_interrupt17h76234b5bbb3d373bE)
42006a22     6a22       12     1                 riscv::register::mcause::Mcause::is_interrupt::h76234b5bbb3d373b
42006a22     6a22        0     1                 
42006a22     6a22        0     1                 
42006a22     6a22        0     1                 
42006a24     6a24        0     1                 
42006a26     6a26        0     1                 
42006a30     6a30        0     1                 
42006a34     6a34        0     1                 
42006a34     6a34        0     1                 
42006a34     6a34        0     1                 
42006a34     6a34       88     2         /Users/mabez/Development/rust/embedded/experiments/esp32c3-experiments/target/riscv32imac-unknown-none-elf/debug/deps/libriscv_atomic_emulation_trap-36c6147cf3a7da2f.rlib(riscv_atomic_emulation_trap-36c6147cf3a7da2f.4z6enr9b9fac5dau.rcgu.o):(.text._ZN5riscv8register6mcause6Mcause5cause17h23cabc9aaab81919E)
42006a34     6a34        0     1                 
42006a34     6a34        0     1                 
42006a34     6a34        0     1                 
42006a34     6a34       88     1                 riscv::register::mcause::Mcause::cause::h23cabc9aaab81919
42006a36     6a36        0     1                 
42006a38     6a38        0     1                 
42006a3c     6a3c        0     1                 
42006a48     6a48        0     1                 
42006a4c     6a4c        0     1                 
42006a52     6a52        0     1                 
42006a60     6a60        0     1                 
42006a6e     6a6e        0     1                 
42006a80     6a80        0     1                 
42006a8c     6a8c        0     1                 
42006a8e     6a8e        0     1                 
42006a9c     6a9c        0     1                 
42006aae     6aae        0     1                 
42006aba     6aba        0     1                 
42006abc     6abc        0     1                 
42006abc     6abc        0     1                 
42006abc     6abc        0     1                 
42006abc     6abc       7a     2         /Users/mabez/Development/rust/embedded/experiments/esp32c3-experiments/target/riscv32imac-unknown-none-elf/debug/deps/libriscv-e6570dc03e37c02b.rlib(riscv-e6570dc03e37c02b.riscv.6a3f384f-cgu.0.rcgu.o):(.text._ZN5riscv8register6mcause9Interrupt4from17h49c27c9cfc30d674E)
42006abc     6abc        0     1                 
42006abc     6abc        0     1                 
42006abc     6abc        0     1                 
42006abc     6abc       7a     1                 riscv::register::mcause::Interrupt::from::h49c27c9cfc30d674
42006abe     6abe        0     1                 
42006ac2     6ac2        0     1                 
42006acc     6acc        0     1                 
42006ade     6ade        0     1                 .LBB2_2
42006ae0     6ae0        0     1                 
42006ae6     6ae6        0     1                 .LBB2_3
42006ae6     6ae6        0     1                 
42006ae8     6ae8        0     1                 
42006aee     6aee        0     1                 .LBB2_4
42006aee     6aee        0     1                 
42006af0     6af0        0     1                 
42006af6     6af6        0     1                 .LBB2_5
42006af6     6af6        0     1                 
42006af8     6af8        0     1                 
42006afe     6afe        0     1                 .LBB2_6
42006afe     6afe        0     1                 
42006b00     6b00        0     1                 
42006b06     6b06        0     1                 .LBB2_7
42006b06     6b06        0     1                 
42006b08     6b08        0     1                 
42006b0e     6b0e        0     1                 .LBB2_8
42006b0e     6b0e        0     1                 
42006b10     6b10        0     1                 
42006b16     6b16        0     1                 .LBB2_9
42006b16     6b16        0     1                 
42006b18     6b18        0     1                 
42006b1e     6b1e        0     1                 .LBB2_10
42006b1e     6b1e        0     1                 
42006b20     6b20        0     1                 
42006b26     6b26        0     1                 .LBB2_11
42006b26     6b26        0     1                 
42006b28     6b28        0     1                 
42006b2e     6b2e        0     1                 
42006b36     6b36        0     1                 
42006b36     6b36        0     1                 
42006b36     6b36        0     1                 
42006b36     6b36       a2     2         /Users/mabez/Development/rust/embedded/experiments/esp32c3-experiments/target/riscv32imac-unknown-none-elf/debug/deps/libriscv-e6570dc03e37c02b.rlib(riscv-e6570dc03e37c02b.riscv.6a3f384f-cgu.0.rcgu.o):(.text._ZN5riscv8register6mcause9Exception4from17h278da2cde5b275f4E)
42006b36     6b36        0     1                 
42006b36     6b36        0     1                 
42006b36     6b36        0     1                 
42006b36     6b36       a2     1                 riscv::register::mcause::Exception::from::h278da2cde5b275f4
42006b38     6b38        0     1                 
42006b3c     6b3c        0     1                 
42006b46     6b46        0     1                 
42006b58     6b58        0     1                 .LBB3_2
42006b5a     6b5a        0     1                 
42006b60     6b60        0     1                 .LBB3_3
42006b60     6b60        0     1                 
42006b62     6b62        0     1                 
42006b68     6b68        0     1                 .LBB3_4
42006b68     6b68        0     1                 
42006b6a     6b6a        0     1                 
42006b70     6b70        0     1                 .LBB3_5
42006b70     6b70        0     1                 
42006b72     6b72        0     1                 
42006b78     6b78        0     1                 .LBB3_6
42006b78     6b78        0     1                 
42006b7a     6b7a        0     1                 
42006b80     6b80        0     1                 .LBB3_7
42006b80     6b80        0     1                 
42006b82     6b82        0     1                 
42006b88     6b88        0     1                 .LBB3_8
42006b88     6b88        0     1                 
42006b8a     6b8a        0     1                 
42006b90     6b90        0     1                 .LBB3_9
42006b90     6b90        0     1                 
42006b92     6b92        0     1                 
42006b98     6b98        0     1                 .LBB3_10
42006b98     6b98        0     1                 
42006b9a     6b9a        0     1                 
42006ba0     6ba0        0     1                 .LBB3_11
42006ba0     6ba0        0     1                 
42006ba2     6ba2        0     1                 
42006ba8     6ba8        0     1                 .LBB3_12
42006ba8     6ba8        0     1                 
42006baa     6baa        0     1                 
42006bb0     6bb0        0     1                 .LBB3_13
42006bb0     6bb0        0     1                 
42006bb2     6bb2        0     1                 
42006bb8     6bb8        0     1                 .LBB3_14
42006bb8     6bb8        0     1                 
42006bba     6bba        0     1                 
42006bc0     6bc0        0     1                 .LBB3_15
42006bc0     6bc0        0     1                 
42006bc2     6bc2        0     1                 
42006bc8     6bc8        0     1                 .LBB3_16
42006bc8     6bc8        0     1                 
42006bca     6bca        0     1                 
42006bd0     6bd0        0     1                 
42006bd8     6bd8        0     1                 
42006bd8     6bd8        0     1                 
42006bd8     6bd8        0     1                 
42006bd8     6bd8       12     2         /Users/mabez/Development/rust/embedded/experiments/esp32c3-experiments/target/riscv32imac-unknown-none-elf/debug/deps/libriscv-e6570dc03e37c02b.rlib(riscv-e6570dc03e37c02b.riscv.6a3f384f-cgu.0.rcgu.o):(.text._ZN5riscv8register6mcause6Mcause4code17hb313bb9c36e9648aE)
42006bd8     6bd8        0     1                 
42006bd8     6bd8        0     1                 
42006bd8     6bd8        0     1                 
42006bd8     6bd8       12     1                 riscv::register::mcause::Mcause::code::hb313bb9c36e9648a
42006bda     6bda        0     1                 
42006bdc     6bdc        0     1                 
42006be6     6be6        0     1                 
42006bea     6bea        0     1                 
42006bea     6bea        0     1                 
42006bea     6bea        0     1                 
42006bea     6bea        0     1         _etext = .
42006bea     6bea        0     1 _text_size = _etext - _stext + 8
3c006bea     6bea     1df2    16 .rodata
3c006bea     6bea        0     1         _srodata = .
3c006bea     6bea       2b     1         /Users/mabez/Development/rust/embedded/experiments/esp32c3-experiments/target/riscv32imac-unknown-none-elf/debug/deps/esp32c3-0792fe58911f872d.1e78zwiugb76rjx.rcgu.o:(.rodata..L__unnamed_5)
3c006bea     6bea       2b     1                 .L__unnamed_5
3c006c18     6c18       10     4         /Users/mabez/Development/rust/embedded/experiments/esp32c3-experiments/target/riscv32imac-unknown-none-elf/debug/deps/esp32c3-0792fe58911f872d.1e78zwiugb76rjx.rcgu.o:(.rodata..L__unnamed_1)
3c006c18     6c18       10     1                 .L__unnamed_1
3c006c28     6c28       10     4         /Users/mabez/Development/rust/embedded/experiments/esp32c3-experiments/target/riscv32imac-unknown-none-elf/debug/deps/esp32c3-0792fe58911f872d.1e78zwiugb76rjx.rcgu.o:(.rodata..L__unnamed_2)
3c006c28     6c28       10     1                 .L__unnamed_2
3c006c38     6c38       10     4         /Users/mabez/Development/rust/embedded/experiments/esp32c3-experiments/target/riscv32imac-unknown-none-elf/debug/deps/esp32c3-0792fe58911f872d.1e78zwiugb76rjx.rcgu.o:(.rodata..L__unnamed_3)
3c006c38     6c38       10     1                 .L__unnamed_3
3c006c48     6c48       10     4         /Users/mabez/Development/rust/embedded/experiments/esp32c3-experiments/target/riscv32imac-unknown-none-elf/debug/deps/esp32c3-0792fe58911f872d.1e78zwiugb76rjx.rcgu.o:(.rodata..L__unnamed_4)
3c006c48     6c48       10     1                 .L__unnamed_4
3c006c58     6c58       14     4         /Users/mabez/Development/rust/embedded/experiments/esp32c3-experiments/target/riscv32imac-unknown-none-elf/debug/deps/esp32c3-0792fe58911f872d.1nerp55l46tnskb3.rcgu.o:(.rodata._ZN4core4sync6atomic10atomic_add17h4cf74e1f4500bec4E)
3c006c58     6c58        0     1                 .LJTI0_0
3c006c6c     6c6c       14     4         /Users/mabez/Development/rust/embedded/experiments/esp32c3-experiments/target/riscv32imac-unknown-none-elf/debug/deps/esp32c3-0792fe58911f872d.1nerp55l46tnskb3.rcgu.o:(.rodata._ZN4core4sync6atomic23atomic_compare_exchange17h1bbe87a9f68e5ef8E)
3c006c6c     6c6c        0     1                 .LJTI1_0
3c006c80     6c80       3c     1         /Users/mabez/Development/rust/embedded/experiments/esp32c3-experiments/target/riscv32imac-unknown-none-elf/debug/deps/esp32c3-0792fe58911f872d.1nerp55l46tnskb3.rcgu.o:(.rodata..L__unnamed_1)
3c006c80     6c80       3c     1                 .L__unnamed_1
3c006cbc     6cbc       4f     1         /Users/mabez/Development/rust/embedded/experiments/esp32c3-experiments/target/riscv32imac-unknown-none-elf/debug/deps/esp32c3-0792fe58911f872d.1nerp55l46tnskb3.rcgu.o:(.rodata..L__unnamed_7)
3c006cbc     6cbc       4f     1                 .L__unnamed_7
3c006d0c     6d0c       10     4         /Users/mabez/Development/rust/embedded/experiments/esp32c3-experiments/target/riscv32imac-unknown-none-elf/debug/deps/esp32c3-0792fe58911f872d.1nerp55l46tnskb3.rcgu.o:(.rodata..L__unnamed_2)
3c006d0c     6d0c       10     1                 .L__unnamed_2
3c006d1c     6d1c       3d     1         /Users/mabez/Development/rust/embedded/experiments/esp32c3-experiments/target/riscv32imac-unknown-none-elf/debug/deps/esp32c3-0792fe58911f872d.1nerp55l46tnskb3.rcgu.o:(.rodata..L__unnamed_5)
3c006d1c     6d1c       3d     1                 .L__unnamed_5
3c006d5c     6d5c       10     4         /Users/mabez/Development/rust/embedded/experiments/esp32c3-experiments/target/riscv32imac-unknown-none-elf/debug/deps/esp32c3-0792fe58911f872d.1nerp55l46tnskb3.rcgu.o:(.rodata..L__unnamed_6)
3c006d5c     6d5c       10     1                 .L__unnamed_6
3c006d6c     6d6c       34     1         /Users/mabez/Development/rust/embedded/experiments/esp32c3-experiments/target/riscv32imac-unknown-none-elf/debug/deps/esp32c3-0792fe58911f872d.1nerp55l46tnskb3.rcgu.o:(.rodata..L__unnamed_3)
3c006d6c     6d6c       34     1                 .L__unnamed_3
3c006da0     6da0       10     4         /Users/mabez/Development/rust/embedded/experiments/esp32c3-experiments/target/riscv32imac-unknown-none-elf/debug/deps/esp32c3-0792fe58911f872d.1nerp55l46tnskb3.rcgu.o:(.rodata..L__unnamed_4)
3c006da0     6da0       10     1                 .L__unnamed_4
3c006db0     6db0        2     1         /Users/mabez/Development/rust/embedded/experiments/esp32c3-experiments/target/riscv32imac-unknown-none-elf/debug/deps/esp32c3-0792fe58911f872d.297xt9owoyeiose3.rcgu.o:(.rodata..L__unnamed_1)
3c006db0     6db0        2     1                 .L__unnamed_1
3c006db2     6db2        c     1         /Users/mabez/Development/rust/embedded/experiments/esp32c3-experiments/target/riscv32imac-unknown-none-elf/debug/deps/esp32c3-0792fe58911f872d.297xt9owoyeiose3.rcgu.o:(.rodata..L__unnamed_2)
3c006db2     6db2        c     1                 .L__unnamed_2
3c006dbe     6dbe       4b     1         /Users/mabez/Development/rust/embedded/experiments/esp32c3-experiments/target/riscv32imac-unknown-none-elf/debug/deps/esp32c3-0792fe58911f872d.297xt9owoyeiose3.rcgu.o:(.rodata..L__unnamed_4)
3c006dbe     6dbe       4b     1                 .L__unnamed_4
3c006e0c     6e0c       10     4         /Users/mabez/Development/rust/embedded/experiments/esp32c3-experiments/target/riscv32imac-unknown-none-elf/debug/deps/esp32c3-0792fe58911f872d.297xt9owoyeiose3.rcgu.o:(.rodata..L__unnamed_3)
3c006e0c     6e0c       10     1                 .L__unnamed_3
3c006e1c     6e1c       18     4         /Users/mabez/Development/rust/embedded/experiments/esp32c3-experiments/target/riscv32imac-unknown-none-elf/debug/deps/esp32c3-0792fe58911f872d.31cobsrxn8v7n7js.rcgu.o:(.rodata..L__unnamed_1)
3c006e1c     6e1c       18     1                 .L__unnamed_1
3c006e34     6e34        9     1         /Users/mabez/Development/rust/embedded/experiments/esp32c3-experiments/target/riscv32imac-unknown-none-elf/debug/deps/esp32c3-0792fe58911f872d.346chqw3v9dutnx9.rcgu.o:(.rodata..L__unnamed_34)
3c006e34     6e34        9     1                 .L__unnamed_34
3c006e40     6e40        8     4         /Users/mabez/Development/rust/embedded/experiments/esp32c3-experiments/target/riscv32imac-unknown-none-elf/debug/deps/esp32c3-0792fe58911f872d.346chqw3v9dutnx9.rcgu.o:(.rodata._ZN7esp32c317DATA_SECTION_TEST17h0691f0fa0abd0311E)
3c006e40     6e40        8     1                 esp32c3::DATA_SECTION_TEST::h0691f0fa0abd0311
3c006e48     6e48        7     1         /Users/mabez/Development/rust/embedded/experiments/esp32c3-experiments/target/riscv32imac-unknown-none-elf/debug/deps/esp32c3-0792fe58911f872d.346chqw3v9dutnx9.rcgu.o:(.rodata..L__unnamed_35)
3c006e48     6e48        7     1                 .L__unnamed_35
3c006e4f     6e4f        1     1         /Users/mabez/Development/rust/embedded/experiments/esp32c3-experiments/target/riscv32imac-unknown-none-elf/debug/deps/esp32c3-0792fe58911f872d.346chqw3v9dutnx9.rcgu.o:(.rodata..L__unnamed_36)
3c006e4f     6e4f        1     1                 .L__unnamed_36
3c006e50     6e50       10     4         /Users/mabez/Development/rust/embedded/experiments/esp32c3-experiments/target/riscv32imac-unknown-none-elf/debug/deps/esp32c3-0792fe58911f872d.346chqw3v9dutnx9.rcgu.o:(.rodata..L__unnamed_1)
3c006e50     6e50       10     1                 .L__unnamed_1
3c006e60     6e60       a0     4         <internal>:(.rodata)
3c006f00     6f00       19     1         /Users/mabez/Development/rust/embedded/experiments/esp32c3-experiments/target/riscv32imac-unknown-none-elf/debug/deps/esp32c3-0792fe58911f872d.346chqw3v9dutnx9.rcgu.o:(.rodata..L__unnamed_37)
3c006f00     6f00       19     1                 .L__unnamed_37
3c006f1c     6f1c        8     4         /Users/mabez/Development/rust/embedded/experiments/esp32c3-experiments/target/riscv32imac-unknown-none-elf/debug/deps/esp32c3-0792fe58911f872d.346chqw3v9dutnx9.rcgu.o:(.rodata..L__unnamed_3)
3c006f1c     6f1c        8     1                 .L__unnamed_3
3c006f24     6f24        b     1         /Users/mabez/Development/rust/embedded/experiments/esp32c3-experiments/target/riscv32imac-unknown-none-elf/debug/deps/esp32c3-0792fe58911f872d.346chqw3v9dutnx9.rcgu.o:(.rodata..L__unnamed_38)
3c006f24     6f24        b     1                 .L__unnamed_38
3c006f30     6f30       10     4         /Users/mabez/Development/rust/embedded/experiments/esp32c3-experiments/target/riscv32imac-unknown-none-elf/debug/deps/esp32c3-0792fe58911f872d.346chqw3v9dutnx9.rcgu.o:(.rodata..L__unnamed_5)
3c006f30     6f30       10     1                 .L__unnamed_5
3c006f40     6f40        9     1         /Users/mabez/Development/rust/embedded/experiments/esp32c3-experiments/target/riscv32imac-unknown-none-elf/debug/deps/esp32c3-0792fe58911f872d.346chqw3v9dutnx9.rcgu.o:(.rodata..L__unnamed_6)
3c006f40     6f40        9     1                 .L__unnamed_6
3c006f49     6f49        d     1         /Users/mabez/Development/rust/embedded/experiments/esp32c3-experiments/target/riscv32imac-unknown-none-elf/debug/deps/esp32c3-0792fe58911f872d.346chqw3v9dutnx9.rcgu.o:(.rodata..L__unnamed_39)
3c006f49     6f49        d     1                 .L__unnamed_39
3c006f58     6f58        8     4         /Users/mabez/Development/rust/embedded/experiments/esp32c3-experiments/target/riscv32imac-unknown-none-elf/debug/deps/esp32c3-0792fe58911f872d.346chqw3v9dutnx9.rcgu.o:(.rodata..L__unnamed_7)
3c006f58     6f58        8     1                 .L__unnamed_7
3c006f60     6f60        0     4         /Users/mabez/Development/rust/embedded/experiments/esp32c3-experiments/target/riscv32imac-unknown-none-elf/debug/deps/esp32c3-0792fe58911f872d.346chqw3v9dutnx9.rcgu.o:(.rodata..L__unnamed_8)
3c006f60     6f60        0     1                 .L__unnamed_8
3c006f60     6f60       10     4         /Users/mabez/Development/rust/embedded/experiments/esp32c3-experiments/target/riscv32imac-unknown-none-elf/debug/deps/esp32c3-0792fe58911f872d.346chqw3v9dutnx9.rcgu.o:(.rodata..L__unnamed_9)
3c006f60     6f60       10     1                 .L__unnamed_9
3c006f70     6f70       10     4         /Users/mabez/Development/rust/embedded/experiments/esp32c3-experiments/target/riscv32imac-unknown-none-elf/debug/deps/esp32c3-0792fe58911f872d.346chqw3v9dutnx9.rcgu.o:(.rodata..L__unnamed_10)
3c006f70     6f70       10     1                 .L__unnamed_10
3c006f80     6f80       10     4         /Users/mabez/Development/rust/embedded/experiments/esp32c3-experiments/target/riscv32imac-unknown-none-elf/debug/deps/esp32c3-0792fe58911f872d.346chqw3v9dutnx9.rcgu.o:(.rodata..L__unnamed_11)
3c006f80     6f80       10     1                 .L__unnamed_11
3c006f90     6f90       10     4         /Users/mabez/Development/rust/embedded/experiments/esp32c3-experiments/target/riscv32imac-unknown-none-elf/debug/deps/esp32c3-0792fe58911f872d.346chqw3v9dutnx9.rcgu.o:(.rodata..L__unnamed_12)
3c006f90     6f90       10     1                 .L__unnamed_12
3c006fa0     6fa0        c     1         /Users/mabez/Development/rust/embedded/experiments/esp32c3-experiments/target/riscv32imac-unknown-none-elf/debug/deps/esp32c3-0792fe58911f872d.346chqw3v9dutnx9.rcgu.o:(.rodata..L__unnamed_40)
3c006fa0     6fa0        c     1                 .L__unnamed_40
3c006fac     6fac       10     4         /Users/mabez/Development/rust/embedded/experiments/esp32c3-experiments/target/riscv32imac-unknown-none-elf/debug/deps/esp32c3-0792fe58911f872d.346chqw3v9dutnx9.rcgu.o:(.rodata..L__unnamed_13)
3c006fac     6fac       10     1                 .L__unnamed_13
3c006fbc     6fbc       10     4         /Users/mabez/Development/rust/embedded/experiments/esp32c3-experiments/target/riscv32imac-unknown-none-elf/debug/deps/esp32c3-0792fe58911f872d.346chqw3v9dutnx9.rcgu.o:(.rodata..L__unnamed_14)
3c006fbc     6fbc       10     1                 .L__unnamed_14
3c006fcc     6fcc       40     4         <internal>:(.rodata)
3c00700c     700c       10     4         /Users/mabez/Development/rust/embedded/experiments/esp32c3-experiments/target/riscv32imac-unknown-none-elf/debug/deps/esp32c3-0792fe58911f872d.346chqw3v9dutnx9.rcgu.o:(.rodata..L__unnamed_15)
3c00700c     700c       10     1                 .L__unnamed_15
3c00701c     701c       10     4         /Users/mabez/Development/rust/embedded/experiments/esp32c3-experiments/target/riscv32imac-unknown-none-elf/debug/deps/esp32c3-0792fe58911f872d.346chqw3v9dutnx9.rcgu.o:(.rodata..L__unnamed_16)
3c00701c     701c       10     1                 .L__unnamed_16
3c00702c     702c        a     1         /Users/mabez/Development/rust/embedded/experiments/esp32c3-experiments/target/riscv32imac-unknown-none-elf/debug/deps/esp32c3-0792fe58911f872d.346chqw3v9dutnx9.rcgu.o:(.rodata..L__unnamed_42)
3c00702c     702c        a     1                 .L__unnamed_42
3c007038     7038       10     4         /Users/mabez/Development/rust/embedded/experiments/esp32c3-experiments/target/riscv32imac-unknown-none-elf/debug/deps/esp32c3-0792fe58911f872d.346chqw3v9dutnx9.rcgu.o:(.rodata..L__unnamed_17)
3c007038     7038       10     1                 .L__unnamed_17
3c007048     7048       10     4         /Users/mabez/Development/rust/embedded/experiments/esp32c3-experiments/target/riscv32imac-unknown-none-elf/debug/deps/esp32c3-0792fe58911f872d.346chqw3v9dutnx9.rcgu.o:(.rodata..L__unnamed_18)
3c007048     7048       10     1                 .L__unnamed_18
3c007058     7058       12     1         /Users/mabez/Development/rust/embedded/experiments/esp32c3-experiments/target/riscv32imac-unknown-none-elf/debug/deps/esp32c3-0792fe58911f872d.346chqw3v9dutnx9.rcgu.o:(.rodata..L__unnamed_43)
3c007058     7058       12     1                 .L__unnamed_43
3c00706c     706c       10     4         /Users/mabez/Development/rust/embedded/experiments/esp32c3-experiments/target/riscv32imac-unknown-none-elf/debug/deps/esp32c3-0792fe58911f872d.346chqw3v9dutnx9.rcgu.o:(.rodata..L__unnamed_19)
3c00706c     706c       10     1                 .L__unnamed_19
3c00707c     707c       10     4         /Users/mabez/Development/rust/embedded/experiments/esp32c3-experiments/target/riscv32imac-unknown-none-elf/debug/deps/esp32c3-0792fe58911f872d.346chqw3v9dutnx9.rcgu.o:(.rodata..L__unnamed_20)
3c00707c     707c       10     1                 .L__unnamed_20
3c00708c     708c       17     1         /Users/mabez/Development/rust/embedded/experiments/esp32c3-experiments/target/riscv32imac-unknown-none-elf/debug/deps/esp32c3-0792fe58911f872d.346chqw3v9dutnx9.rcgu.o:(.rodata..L__unnamed_21)
3c00708c     708c       17     1                 .L__unnamed_21
3c0070a3     70a3        5     1         /Users/mabez/Development/rust/embedded/experiments/esp32c3-experiments/target/riscv32imac-unknown-none-elf/debug/deps/esp32c3-0792fe58911f872d.346chqw3v9dutnx9.rcgu.o:(.rodata..L__unnamed_24)
3c0070a3     70a3        5     1                 .L__unnamed_24
3c0070a8     70a8        8     4         /Users/mabez/Development/rust/embedded/experiments/esp32c3-experiments/target/riscv32imac-unknown-none-elf/debug/deps/esp32c3-0792fe58911f872d.346chqw3v9dutnx9.rcgu.o:(.rodata..L__unnamed_22)
3c0070a8     70a8        8     1                 .L__unnamed_22
3c0070b0     70b0       10     4         /Users/mabez/Development/rust/embedded/experiments/esp32c3-experiments/target/riscv32imac-unknown-none-elf/debug/deps/esp32c3-0792fe58911f872d.346chqw3v9dutnx9.rcgu.o:(.rodata..L__unnamed_23)
3c0070b0     70b0       10     1                 .L__unnamed_23
3c0070c0     70c0       10     4         /Users/mabez/Development/rust/embedded/experiments/esp32c3-experiments/target/riscv32imac-unknown-none-elf/debug/deps/esp32c3-0792fe58911f872d.346chqw3v9dutnx9.rcgu.o:(.rodata..L__unnamed_25)
3c0070c0     70c0       10     1                 .L__unnamed_25
3c0070d0     70d0       10     4         /Users/mabez/Development/rust/embedded/experiments/esp32c3-experiments/target/riscv32imac-unknown-none-elf/debug/deps/esp32c3-0792fe58911f872d.346chqw3v9dutnx9.rcgu.o:(.rodata..L__unnamed_26)
3c0070d0     70d0       10     1                 .L__unnamed_26
3c0070e0     70e0       20     4         <internal>:(.rodata)
3c007100     7100        8     4         /Users/mabez/Development/rust/embedded/experiments/esp32c3-experiments/target/riscv32imac-unknown-none-elf/debug/deps/esp32c3-0792fe58911f872d.346chqw3v9dutnx9.rcgu.o:(.rodata..L__unnamed_27)
3c007100     7100        8     1                 .L__unnamed_27
3c007108     7108       10     4         /Users/mabez/Development/rust/embedded/experiments/esp32c3-experiments/target/riscv32imac-unknown-none-elf/debug/deps/esp32c3-0792fe58911f872d.346chqw3v9dutnx9.rcgu.o:(.rodata..L__unnamed_28)
3c007108     7108       10     1                 .L__unnamed_28
3c007118     7118       10     4         /Users/mabez/Development/rust/embedded/experiments/esp32c3-experiments/target/riscv32imac-unknown-none-elf/debug/deps/esp32c3-0792fe58911f872d.346chqw3v9dutnx9.rcgu.o:(.rodata..L__unnamed_30)
3c007118     7118       10     1                 .L__unnamed_30
3c007128     7128       10     4         /Users/mabez/Development/rust/embedded/experiments/esp32c3-experiments/target/riscv32imac-unknown-none-elf/debug/deps/esp32c3-0792fe58911f872d.346chqw3v9dutnx9.rcgu.o:(.rodata..L__unnamed_31)
3c007128     7128       10     1                 .L__unnamed_31
3c007138     7138        b     1         /Users/mabez/Development/rust/embedded/experiments/esp32c3-experiments/target/riscv32imac-unknown-none-elf/debug/deps/esp32c3-0792fe58911f872d.346chqw3v9dutnx9.rcgu.o:(.rodata..L__unnamed_44)
3c007138     7138        b     1                 .L__unnamed_44
3c007144     7144       10     4         /Users/mabez/Development/rust/embedded/experiments/esp32c3-experiments/target/riscv32imac-unknown-none-elf/debug/deps/esp32c3-0792fe58911f872d.346chqw3v9dutnx9.rcgu.o:(.rodata..L__unnamed_32)
3c007144     7144       10     1                 .L__unnamed_32
3c007154     7154       10     4         /Users/mabez/Development/rust/embedded/experiments/esp32c3-experiments/target/riscv32imac-unknown-none-elf/debug/deps/esp32c3-0792fe58911f872d.346chqw3v9dutnx9.rcgu.o:(.rodata..L__unnamed_33)
3c007154     7154       10     1                 .L__unnamed_33
3c007170     7170       1c    16         /Users/mabez/Development/rust/embedded/experiments/esp32c3-experiments/target/riscv32imac-unknown-none-elf/debug/deps/esp32c3-0792fe58911f872d.346chqw3v9dutnx9.rcgu.o:(.rodata.str.0)
3c007170     7170       1c     1                 str.0
3c00718c     718c       50     1         /Users/mabez/Development/rust/embedded/experiments/esp32c3-experiments/target/riscv32imac-unknown-none-elf/debug/deps/esp32c3-0792fe58911f872d.3xtnx60qzz8qc3n4.rcgu.o:(.rodata..L__unnamed_5)
3c00718c     718c       50     1                 .L__unnamed_5
3c0071dc     71dc       10     4         /Users/mabez/Development/rust/embedded/experiments/esp32c3-experiments/target/riscv32imac-unknown-none-elf/debug/deps/esp32c3-0792fe58911f872d.3xtnx60qzz8qc3n4.rcgu.o:(.rodata..L__unnamed_1)
3c0071dc     71dc       10     1                 .L__unnamed_1
3c0071ec     71ec       10     4         /Users/mabez/Development/rust/embedded/experiments/esp32c3-experiments/target/riscv32imac-unknown-none-elf/debug/deps/esp32c3-0792fe58911f872d.3xtnx60qzz8qc3n4.rcgu.o:(.rodata..L__unnamed_2)
3c0071ec     71ec       10     1                 .L__unnamed_2
3c0071fc     71fc       12     1         /Users/mabez/Development/rust/embedded/experiments/esp32c3-experiments/target/riscv32imac-unknown-none-elf/debug/deps/esp32c3-0792fe58911f872d.3xtnx60qzz8qc3n4.rcgu.o:(.rodata..L__unnamed_6)
3c0071fc     71fc       12     1                 .L__unnamed_6
3c00720e     720e       13     1         /Users/mabez/Development/rust/embedded/experiments/esp32c3-experiments/target/riscv32imac-unknown-none-elf/debug/deps/esp32c3-0792fe58911f872d.3xtnx60qzz8qc3n4.rcgu.o:(.rodata..L__unnamed_7)
3c00720e     720e       13     1                 .L__unnamed_7
3c007221     7221       15     1         /Users/mabez/Development/rust/embedded/experiments/esp32c3-experiments/target/riscv32imac-unknown-none-elf/debug/deps/esp32c3-0792fe58911f872d.3xtnx60qzz8qc3n4.rcgu.o:(.rodata..L__unnamed_8)
3c007221     7221       15     1                 .L__unnamed_8
3c007238     7238       18     4         /Users/mabez/Development/rust/embedded/experiments/esp32c3-experiments/target/riscv32imac-unknown-none-elf/debug/deps/esp32c3-0792fe58911f872d.3xtnx60qzz8qc3n4.rcgu.o:(.rodata..L__unnamed_3)
3c007238     7238       18     1                 .L__unnamed_3
3c007250     7250       10     4         /Users/mabez/Development/rust/embedded/experiments/esp32c3-experiments/target/riscv32imac-unknown-none-elf/debug/deps/esp32c3-0792fe58911f872d.3xtnx60qzz8qc3n4.rcgu.o:(.rodata..L__unnamed_4)
3c007250     7250       10     1                 .L__unnamed_4
3c007260     7260        5     1         /Users/mabez/Development/rust/embedded/experiments/esp32c3-experiments/target/riscv32imac-unknown-none-elf/debug/deps/librtt_target-c8a503ffaa8773f6.rlib(rtt_target-c8a503ffaa8773f6.rtt_target.49ad93cd-cgu.0.rcgu.o):(.rodata..L__unnamed_2)
3c007260     7260        5     1                 .L__unnamed_2
3c007265     7265        c     1         /Users/mabez/Development/rust/embedded/experiments/esp32c3-experiments/target/riscv32imac-unknown-none-elf/debug/deps/librtt_target-c8a503ffaa8773f6.rlib(rtt_target-c8a503ffaa8773f6.rtt_target.49ad93cd-cgu.0.rcgu.o):(.rodata..L__unnamed_3)
3c007265     7265        c     1                 .L__unnamed_3
3c007271     7271       58     1         /Users/mabez/Development/rust/embedded/experiments/esp32c3-experiments/target/riscv32imac-unknown-none-elf/debug/deps/librtt_target-c8a503ffaa8773f6.rlib(rtt_target-c8a503ffaa8773f6.rtt_target.49ad93cd-cgu.0.rcgu.o):(.rodata..L__unnamed_17)
3c007271     7271       58     1                 .L__unnamed_17
3c0072d0     72d0       1c    16         /Users/mabez/Development/rust/embedded/experiments/esp32c3-experiments/target/riscv32imac-unknown-none-elf/debug/deps/librtt_target-c8a503ffaa8773f6.rlib(rtt_target-c8a503ffaa8773f6.rtt_target.49ad93cd-cgu.0.rcgu.o):(.rodata.str.0)
3c0072d0     72d0       1c     1                 str.0
3c0072f0     72f0       21    16         /Users/mabez/Development/rust/embedded/experiments/esp32c3-experiments/target/riscv32imac-unknown-none-elf/debug/deps/librtt_target-c8a503ffaa8773f6.rlib(rtt_target-c8a503ffaa8773f6.rtt_target.49ad93cd-cgu.0.rcgu.o):(.rodata.str.1)
3c0072f0     72f0       21     1                 str.1
3c007311     7311        1     1         /Users/mabez/Development/rust/embedded/experiments/esp32c3-experiments/target/riscv32imac-unknown-none-elf/debug/deps/librtt_target-c8a503ffaa8773f6.rlib(rtt_target-c8a503ffaa8773f6.rtt_target.49ad93cd-cgu.0.rcgu.o):(.rodata..L__unnamed_9)
3c007311     7311        1     1                 .L__unnamed_9
3c007314     7314       10     4         /Users/mabez/Development/rust/embedded/experiments/esp32c3-experiments/target/riscv32imac-unknown-none-elf/debug/deps/librtt_target-c8a503ffaa8773f6.rlib(rtt_target-c8a503ffaa8773f6.rtt_target.49ad93cd-cgu.0.rcgu.o):(.rodata..L__unnamed_10)
3c007314     7314       10     1                 .L__unnamed_10
3c007324     7324       10     4         /Users/mabez/Development/rust/embedded/experiments/esp32c3-experiments/target/riscv32imac-unknown-none-elf/debug/deps/librtt_target-c8a503ffaa8773f6.rlib(rtt_target-c8a503ffaa8773f6.rtt_target.49ad93cd-cgu.0.rcgu.o):(.rodata..L__unnamed_11)
3c007324     7324       10     1                 .L__unnamed_11
3c007334     7334       10     4         /Users/mabez/Development/rust/embedded/experiments/esp32c3-experiments/target/riscv32imac-unknown-none-elf/debug/deps/librtt_target-c8a503ffaa8773f6.rlib(rtt_target-c8a503ffaa8773f6.rtt_target.49ad93cd-cgu.0.rcgu.o):(.rodata..L__unnamed_12)
3c007334     7334       10     1                 .L__unnamed_12
3c007344     7344       10     4         /Users/mabez/Development/rust/embedded/experiments/esp32c3-experiments/target/riscv32imac-unknown-none-elf/debug/deps/librtt_target-c8a503ffaa8773f6.rlib(rtt_target-c8a503ffaa8773f6.rtt_target.49ad93cd-cgu.0.rcgu.o):(.rodata..L__unnamed_13)
3c007344     7344       10     1                 .L__unnamed_13
3c007354     7354       10     4         /Users/mabez/Development/rust/embedded/experiments/esp32c3-experiments/target/riscv32imac-unknown-none-elf/debug/deps/librtt_target-c8a503ffaa8773f6.rlib(rtt_target-c8a503ffaa8773f6.rtt_target.49ad93cd-cgu.0.rcgu.o):(.rodata..L__unnamed_14)
3c007354     7354       10     1                 .L__unnamed_14
3c007364     7364       10     4         /Users/mabez/Development/rust/embedded/experiments/esp32c3-experiments/target/riscv32imac-unknown-none-elf/debug/deps/librtt_target-c8a503ffaa8773f6.rlib(rtt_target-c8a503ffaa8773f6.rtt_target.49ad93cd-cgu.0.rcgu.o):(.rodata..L__unnamed_15)
3c007364     7364       10     1                 .L__unnamed_15
3c007374     7374        1     1         /Users/mabez/Development/rust/embedded/experiments/esp32c3-experiments/target/riscv32imac-unknown-none-elf/debug/deps/librtt_target-c8a503ffaa8773f6.rlib(rtt_target-c8a503ffaa8773f6.rtt_target.49ad93cd-cgu.0.rcgu.o):(.rodata..L__unnamed_16)
3c007374     7374        1     1                 .L__unnamed_16
3c007375     7375       50     1         /Users/mabez/Development/rust/embedded/experiments/esp32c3-experiments/target/riscv32imac-unknown-none-elf/debug/deps/librtt_target-c8a503ffaa8773f6.rlib(rtt_target-c8a503ffaa8773f6.rtt_target.49ad93cd-cgu.1.rcgu.o):(.rodata..L__unnamed_5)
3c007375     7375       50     1                 .L__unnamed_5
3c0073c8     73c8       10     4         /Users/mabez/Development/rust/embedded/experiments/esp32c3-experiments/target/riscv32imac-unknown-none-elf/debug/deps/librtt_target-c8a503ffaa8773f6.rlib(rtt_target-c8a503ffaa8773f6.rtt_target.49ad93cd-cgu.1.rcgu.o):(.rodata..L__unnamed_1)
3c0073c8     73c8       10     1                 .L__unnamed_1
3c0073d8     73d8       10     4         /Users/mabez/Development/rust/embedded/experiments/esp32c3-experiments/target/riscv32imac-unknown-none-elf/debug/deps/librtt_target-c8a503ffaa8773f6.rlib(rtt_target-c8a503ffaa8773f6.rtt_target.49ad93cd-cgu.1.rcgu.o):(.rodata..L__unnamed_2)
3c0073d8     73d8       10     1                 .L__unnamed_2
3c0073e8     73e8       12     1         /Users/mabez/Development/rust/embedded/experiments/esp32c3-experiments/target/riscv32imac-unknown-none-elf/debug/deps/librtt_target-c8a503ffaa8773f6.rlib(rtt_target-c8a503ffaa8773f6.rtt_target.49ad93cd-cgu.1.rcgu.o):(.rodata..L__unnamed_6)
3c0073e8     73e8       12     1                 .L__unnamed_6
3c0073fa     73fa       13     1         /Users/mabez/Development/rust/embedded/experiments/esp32c3-experiments/target/riscv32imac-unknown-none-elf/debug/deps/librtt_target-c8a503ffaa8773f6.rlib(rtt_target-c8a503ffaa8773f6.rtt_target.49ad93cd-cgu.1.rcgu.o):(.rodata..L__unnamed_7)
3c0073fa     73fa       13     1                 .L__unnamed_7
3c00740d     740d       15     1         /Users/mabez/Development/rust/embedded/experiments/esp32c3-experiments/target/riscv32imac-unknown-none-elf/debug/deps/librtt_target-c8a503ffaa8773f6.rlib(rtt_target-c8a503ffaa8773f6.rtt_target.49ad93cd-cgu.1.rcgu.o):(.rodata..L__unnamed_8)
3c00740d     740d       15     1                 .L__unnamed_8
3c007424     7424       18     4         /Users/mabez/Development/rust/embedded/experiments/esp32c3-experiments/target/riscv32imac-unknown-none-elf/debug/deps/librtt_target-c8a503ffaa8773f6.rlib(rtt_target-c8a503ffaa8773f6.rtt_target.49ad93cd-cgu.1.rcgu.o):(.rodata..L__unnamed_3)
3c007424     7424       18     1                 .L__unnamed_3
3c00743c     743c       10     4         /Users/mabez/Development/rust/embedded/experiments/esp32c3-experiments/target/riscv32imac-unknown-none-elf/debug/deps/librtt_target-c8a503ffaa8773f6.rlib(rtt_target-c8a503ffaa8773f6.rtt_target.49ad93cd-cgu.1.rcgu.o):(.rodata..L__unnamed_4)
3c00743c     743c       10     1                 .L__unnamed_4
3c00744c     744c       28     1         /Users/mabez/Development/rust/embedded/experiments/esp32c3-experiments/target/riscv32imac-unknown-none-elf/debug/deps/librtt_target-c8a503ffaa8773f6.rlib(rtt_target-c8a503ffaa8773f6.rtt_target.49ad93cd-cgu.11.rcgu.o):(.rodata..L__unnamed_1)
3c00744c     744c       28     1                 .L__unnamed_1
3c007474     7474       58     1         /Users/mabez/Development/rust/embedded/experiments/esp32c3-experiments/target/riscv32imac-unknown-none-elf/debug/deps/librtt_target-c8a503ffaa8773f6.rlib(rtt_target-c8a503ffaa8773f6.rtt_target.49ad93cd-cgu.11.rcgu.o):(.rodata..L__unnamed_3)
3c007474     7474       58     1                 .L__unnamed_3
3c0074cc     74cc       10     4         /Users/mabez/Development/rust/embedded/experiments/esp32c3-experiments/target/riscv32imac-unknown-none-elf/debug/deps/librtt_target-c8a503ffaa8773f6.rlib(rtt_target-c8a503ffaa8773f6.rtt_target.49ad93cd-cgu.11.rcgu.o):(.rodata..L__unnamed_2)
3c0074cc     74cc       10     1                 .L__unnamed_2
3c0074e0     74e0       23    16         /Users/mabez/Development/rust/embedded/experiments/esp32c3-experiments/target/riscv32imac-unknown-none-elf/debug/deps/librtt_target-c8a503ffaa8773f6.rlib(rtt_target-c8a503ffaa8773f6.rtt_target.49ad93cd-cgu.11.rcgu.o):(.rodata.str.0)
3c0074e0     74e0       23     1                 str.0
3c007504     7504        4     4         /Users/mabez/Development/rust/embedded/experiments/esp32c3-experiments/target/riscv32imac-unknown-none-elf/debug/deps/librtt_target-c8a503ffaa8773f6.rlib(rtt_target-c8a503ffaa8773f6.rtt_target.49ad93cd-cgu.12.rcgu.o):(.rodata..L__unnamed_1)
3c007504     7504        4     1                 .L__unnamed_1
3c007508     7508       18     4         /Users/mabez/Development/rust/embedded/experiments/esp32c3-experiments/target/riscv32imac-unknown-none-elf/debug/deps/librtt_target-c8a503ffaa8773f6.rlib(rtt_target-c8a503ffaa8773f6.rtt_target.49ad93cd-cgu.2.rcgu.o):(.rodata..L__unnamed_1)
3c007508     7508       18     1                 .L__unnamed_1
3c007520     7520       58     1         /Users/mabez/Development/rust/embedded/experiments/esp32c3-experiments/target/riscv32imac-unknown-none-elf/debug/deps/librtt_target-c8a503ffaa8773f6.rlib(rtt_target-c8a503ffaa8773f6.rtt_target.49ad93cd-cgu.2.rcgu.o):(.rodata..L__unnamed_5)
3c007520     7520       58     1                 .L__unnamed_5
3c007578     7578       10     4         /Users/mabez/Development/rust/embedded/experiments/esp32c3-experiments/target/riscv32imac-unknown-none-elf/debug/deps/librtt_target-c8a503ffaa8773f6.rlib(rtt_target-c8a503ffaa8773f6.rtt_target.49ad93cd-cgu.2.rcgu.o):(.rodata..L__unnamed_4)
3c007578     7578       10     1                 .L__unnamed_4
3c007588     7588       14     4         /Users/mabez/Development/rust/embedded/experiments/esp32c3-experiments/target/riscv32imac-unknown-none-elf/debug/deps/librtt_target-c8a503ffaa8773f6.rlib(rtt_target-c8a503ffaa8773f6.rtt_target.49ad93cd-cgu.4.rcgu.o):(.rodata._ZN4core4sync6atomic11atomic_load17h15e13fea84126722E)
3c007588     7588        0     1                 .LJTI2_0
3c00759c     759c       14     4         /Users/mabez/Development/rust/embedded/experiments/esp32c3-experiments/target/riscv32imac-unknown-none-elf/debug/deps/librtt_target-c8a503ffaa8773f6.rlib(rtt_target-c8a503ffaa8773f6.rtt_target.49ad93cd-cgu.4.rcgu.o):(.rodata._ZN4core4sync6atomic11atomic_load17h744fbfbcb2d200afE)
3c00759c     759c        0     1                 .LJTI3_0
3c0075b0     75b0       14     4         /Users/mabez/Development/rust/embedded/experiments/esp32c3-experiments/target/riscv32imac-unknown-none-elf/debug/deps/librtt_target-c8a503ffaa8773f6.rlib(rtt_target-c8a503ffaa8773f6.rtt_target.49ad93cd-cgu.4.rcgu.o):(.rodata._ZN4core4sync6atomic12atomic_store17h10bf4cd654dacc0bE)
3c0075b0     75b0        0     1                 .LJTI4_0
3c0075c4     75c4       14     4         /Users/mabez/Development/rust/embedded/experiments/esp32c3-experiments/target/riscv32imac-unknown-none-elf/debug/deps/librtt_target-c8a503ffaa8773f6.rlib(rtt_target-c8a503ffaa8773f6.rtt_target.49ad93cd-cgu.4.rcgu.o):(.rodata._ZN4core4sync6atomic12atomic_store17hcfab5a99b92ee0c1E)
3c0075c4     75c4        0     1                 .LJTI5_0
3c0075d8     75d8       14     4         /Users/mabez/Development/rust/embedded/experiments/esp32c3-experiments/target/riscv32imac-unknown-none-elf/debug/deps/librtt_target-c8a503ffaa8773f6.rlib(rtt_target-c8a503ffaa8773f6.rtt_target.49ad93cd-cgu.4.rcgu.o):(.rodata._ZN4core4sync6atomic5fence17h3a9aa7dc25896a62E)
3c0075d8     75d8        0     1                 .LJTI8_0
3c0075ec     75ec       31     1         /Users/mabez/Development/rust/embedded/experiments/esp32c3-experiments/target/riscv32imac-unknown-none-elf/debug/deps/librtt_target-c8a503ffaa8773f6.rlib(rtt_target-c8a503ffaa8773f6.rtt_target.49ad93cd-cgu.4.rcgu.o):(.rodata..L__unnamed_3)
3c0075ec     75ec       31     1                 .L__unnamed_3
3c00761d     761d       4f     1         /Users/mabez/Development/rust/embedded/experiments/esp32c3-experiments/target/riscv32imac-unknown-none-elf/debug/deps/librtt_target-c8a503ffaa8773f6.rlib(rtt_target-c8a503ffaa8773f6.rtt_target.49ad93cd-cgu.4.rcgu.o):(.rodata..L__unnamed_11)
3c00761d     761d       4f     1                 .L__unnamed_11
3c00766c     766c       10     4         /Users/mabez/Development/rust/embedded/experiments/esp32c3-experiments/target/riscv32imac-unknown-none-elf/debug/deps/librtt_target-c8a503ffaa8773f6.rlib(rtt_target-c8a503ffaa8773f6.rtt_target.49ad93cd-cgu.4.rcgu.o):(.rodata..L__unnamed_4)
3c00766c     766c       10     1                 .L__unnamed_4
3c00767c     767c       28     1         /Users/mabez/Development/rust/embedded/experiments/esp32c3-experiments/target/riscv32imac-unknown-none-elf/debug/deps/librtt_target-c8a503ffaa8773f6.rlib(rtt_target-c8a503ffaa8773f6.rtt_target.49ad93cd-cgu.4.rcgu.o):(.rodata..L__unnamed_1)
3c00767c     767c       28     1                 .L__unnamed_1
3c0076a4     76a4       10     4         /Users/mabez/Development/rust/embedded/experiments/esp32c3-experiments/target/riscv32imac-unknown-none-elf/debug/deps/librtt_target-c8a503ffaa8773f6.rlib(rtt_target-c8a503ffaa8773f6.rtt_target.49ad93cd-cgu.4.rcgu.o):(.rodata..L__unnamed_2)
3c0076a4     76a4       10     1                 .L__unnamed_2
3c0076b4     76b4       32     1         /Users/mabez/Development/rust/embedded/experiments/esp32c3-experiments/target/riscv32imac-unknown-none-elf/debug/deps/librtt_target-c8a503ffaa8773f6.rlib(rtt_target-c8a503ffaa8773f6.rtt_target.49ad93cd-cgu.4.rcgu.o):(.rodata..L__unnamed_7)
3c0076b4     76b4       32     1                 .L__unnamed_7
3c0076e8     76e8       10     4         /Users/mabez/Development/rust/embedded/experiments/esp32c3-experiments/target/riscv32imac-unknown-none-elf/debug/deps/librtt_target-c8a503ffaa8773f6.rlib(rtt_target-c8a503ffaa8773f6.rtt_target.49ad93cd-cgu.4.rcgu.o):(.rodata..L__unnamed_8)
3c0076e8     76e8       10     1                 .L__unnamed_8
3c0076f8     76f8       2a     1         /Users/mabez/Development/rust/embedded/experiments/esp32c3-experiments/target/riscv32imac-unknown-none-elf/debug/deps/librtt_target-c8a503ffaa8773f6.rlib(rtt_target-c8a503ffaa8773f6.rtt_target.49ad93cd-cgu.4.rcgu.o):(.rodata..L__unnamed_5)
3c0076f8     76f8       2a     1                 .L__unnamed_5
3c007724     7724       10     4         /Users/mabez/Development/rust/embedded/experiments/esp32c3-experiments/target/riscv32imac-unknown-none-elf/debug/deps/librtt_target-c8a503ffaa8773f6.rlib(rtt_target-c8a503ffaa8773f6.rtt_target.49ad93cd-cgu.4.rcgu.o):(.rodata..L__unnamed_6)
3c007724     7724       10     1                 .L__unnamed_6
3c007734     7734       29     1         /Users/mabez/Development/rust/embedded/experiments/esp32c3-experiments/target/riscv32imac-unknown-none-elf/debug/deps/librtt_target-c8a503ffaa8773f6.rlib(rtt_target-c8a503ffaa8773f6.rtt_target.49ad93cd-cgu.4.rcgu.o):(.rodata..L__unnamed_9)
3c007734     7734       29     1                 .L__unnamed_9
3c007760     7760       10     4         /Users/mabez/Development/rust/embedded/experiments/esp32c3-experiments/target/riscv32imac-unknown-none-elf/debug/deps/librtt_target-c8a503ffaa8773f6.rlib(rtt_target-c8a503ffaa8773f6.rtt_target.49ad93cd-cgu.4.rcgu.o):(.rodata..L__unnamed_10)
3c007760     7760       10     1                 .L__unnamed_10
3c007770     7770        c     1         /Users/mabez/Development/rust/embedded/experiments/esp32c3-experiments/target/riscv32imac-unknown-none-elf/debug/deps/librtt_target-c8a503ffaa8773f6.rlib(rtt_target-c8a503ffaa8773f6.rtt_target.49ad93cd-cgu.6.rcgu.o):(.rodata..L__unnamed_1)
3c007770     7770        c     1                 .L__unnamed_1
3c00777c     777c       4b     1         /Users/mabez/Development/rust/embedded/experiments/esp32c3-experiments/target/riscv32imac-unknown-none-elf/debug/deps/librtt_target-c8a503ffaa8773f6.rlib(rtt_target-c8a503ffaa8773f6.rtt_target.49ad93cd-cgu.6.rcgu.o):(.rodata..L__unnamed_3)
3c00777c     777c       4b     1                 .L__unnamed_3
3c0077c8     77c8       10     4         /Users/mabez/Development/rust/embedded/experiments/esp32c3-experiments/target/riscv32imac-unknown-none-elf/debug/deps/librtt_target-c8a503ffaa8773f6.rlib(rtt_target-c8a503ffaa8773f6.rtt_target.49ad93cd-cgu.6.rcgu.o):(.rodata..L__unnamed_2)
3c0077c8     77c8       10     1                 .L__unnamed_2
3c0077d8     77d8        a     1         /Users/mabez/Development/rust/embedded/experiments/esp32c3-experiments/target/riscv32imac-unknown-none-elf/debug/deps/libesp32c3_lib-9b353d7564fdb320.rlib(esp32c3_lib-9b353d7564fdb320.4sht8tb4vhhjrf1k.rcgu.o):(.rodata..L__unnamed_6)
3c0077d8     77d8        a     1                 .L__unnamed_6
3c0077e4     77e4       10     4         /Users/mabez/Development/rust/embedded/experiments/esp32c3-experiments/target/riscv32imac-unknown-none-elf/debug/deps/libesp32c3_lib-9b353d7564fdb320.rlib(esp32c3_lib-9b353d7564fdb320.4sht8tb4vhhjrf1k.rcgu.o):(.rodata..L__unnamed_1)
3c0077e4     77e4       10     1                 .L__unnamed_1
3c007800     7800       21    16         /Users/mabez/Development/rust/embedded/experiments/esp32c3-experiments/target/riscv32imac-unknown-none-elf/debug/deps/libesp32c3_lib-9b353d7564fdb320.rlib(esp32c3_lib-9b353d7564fdb320.4sht8tb4vhhjrf1k.rcgu.o):(.rodata.str.0)
3c007800     7800       21     1                 str.0
3c007824     7824       10     4         /Users/mabez/Development/rust/embedded/experiments/esp32c3-experiments/target/riscv32imac-unknown-none-elf/debug/deps/libesp32c3_lib-9b353d7564fdb320.rlib(esp32c3_lib-9b353d7564fdb320.4sht8tb4vhhjrf1k.rcgu.o):(.rodata..L__unnamed_2)
3c007824     7824       10     1                 .L__unnamed_2
3c007840     7840       1c    16         /Users/mabez/Development/rust/embedded/experiments/esp32c3-experiments/target/riscv32imac-unknown-none-elf/debug/deps/libesp32c3_lib-9b353d7564fdb320.rlib(esp32c3_lib-9b353d7564fdb320.4sht8tb4vhhjrf1k.rcgu.o):(.rodata.str.1)
3c007840     7840       1c     1                 str.1
3c00785c     785c       10     4         /Users/mabez/Development/rust/embedded/experiments/esp32c3-experiments/target/riscv32imac-unknown-none-elf/debug/deps/libesp32c3_lib-9b353d7564fdb320.rlib(esp32c3_lib-9b353d7564fdb320.4sht8tb4vhhjrf1k.rcgu.o):(.rodata..L__unnamed_3)
3c00785c     785c       10     1                 .L__unnamed_3
3c007870     7870       23    16         /Users/mabez/Development/rust/embedded/experiments/esp32c3-experiments/target/riscv32imac-unknown-none-elf/debug/deps/libesp32c3_lib-9b353d7564fdb320.rlib(esp32c3_lib-9b353d7564fdb320.4sht8tb4vhhjrf1k.rcgu.o):(.rodata.str.2)
3c007870     7870       23     1                 str.2
3c007894     7894       10     4         /Users/mabez/Development/rust/embedded/experiments/esp32c3-experiments/target/riscv32imac-unknown-none-elf/debug/deps/libesp32c3_lib-9b353d7564fdb320.rlib(esp32c3_lib-9b353d7564fdb320.4sht8tb4vhhjrf1k.rcgu.o):(.rodata..L__unnamed_4)
3c007894     7894       10     1                 .L__unnamed_4
3c0078a4     78a4       10     4         /Users/mabez/Development/rust/embedded/experiments/esp32c3-experiments/target/riscv32imac-unknown-none-elf/debug/deps/libesp32c3_lib-9b353d7564fdb320.rlib(esp32c3_lib-9b353d7564fdb320.4sht8tb4vhhjrf1k.rcgu.o):(.rodata..L__unnamed_5)
3c0078a4     78a4       10     1                 .L__unnamed_5
3c0078b4     78b4       18     4         /Users/mabez/.rustup/toolchains/nightly-aarch64-apple-darwin/lib/rustlib/riscv32imac-unknown-none-elf/lib/libcore-081fd8405fc18f2e.rlib(core-081fd8405fc18f2e.core.756fe54c-cgu.0.rcgu.o):(.rodata._ZN40_$LT$str$u20$as$u20$core..fmt..Debug$GT$3fmt17hcccdaec8afe094d8E)
3c0078b4     78b4        0     1                 .LJTI197_0
3c0078cc     78cc       18     4         /Users/mabez/.rustup/toolchains/nightly-aarch64-apple-darwin/lib/rustlib/riscv32imac-unknown-none-elf/lib/libcore-081fd8405fc18f2e.rlib(core-081fd8405fc18f2e.core.756fe54c-cgu.0.rcgu.o):(.rodata._ZN41_$LT$char$u20$as$u20$core..fmt..Debug$GT$3fmt17hdf4500e5dfef8767E)
3c0078cc     78cc        0     1                 .LJTI199_0
3c0078e4     78e4        0     4         /Users/mabez/.rustup/toolchains/nightly-aarch64-apple-darwin/lib/rustlib/riscv32imac-unknown-none-elf/lib/libcore-081fd8405fc18f2e.rlib(core-081fd8405fc18f2e.core.756fe54c-cgu.0.rcgu.o):(.rodata..Lanon.6576d0208e50a9ab262801bbdd388cb2.101)
3c0078e4     78e4        0     1                 .Lanon.6576d0208e50a9ab262801bbdd388cb2.101
3c0078e4     78e4        2     1         /Users/mabez/.rustup/toolchains/nightly-aarch64-apple-darwin/lib/rustlib/riscv32imac-unknown-none-elf/lib/libcore-081fd8405fc18f2e.rlib(core-081fd8405fc18f2e.core.756fe54c-cgu.0.rcgu.o):(.rodata..Lanon.6576d0208e50a9ab262801bbdd388cb2.130)
3c0078e4     78e4        2     1                 .Lanon.6576d0208e50a9ab262801bbdd388cb2.130
3c0078e8     78e8        8     4         /Users/mabez/.rustup/toolchains/nightly-aarch64-apple-darwin/lib/rustlib/riscv32imac-unknown-none-elf/lib/libcore-081fd8405fc18f2e.rlib(core-081fd8405fc18f2e.core.756fe54c-cgu.0.rcgu.o):(.rodata..Lanon.6576d0208e50a9ab262801bbdd388cb2.131)
3c0078e8     78e8        8     1                 .Lanon.6576d0208e50a9ab262801bbdd388cb2.131
3c0078f0     78f0        3     1         /Users/mabez/.rustup/toolchains/nightly-aarch64-apple-darwin/lib/rustlib/riscv32imac-unknown-none-elf/lib/libcore-081fd8405fc18f2e.rlib(core-081fd8405fc18f2e.core.756fe54c-cgu.0.rcgu.o):(.rodata..Lanon.6576d0208e50a9ab262801bbdd388cb2.132)
3c0078f0     78f0        3     1                 .Lanon.6576d0208e50a9ab262801bbdd388cb2.132
3c0078f3     78f3       2b     1         /Users/mabez/.rustup/toolchains/nightly-aarch64-apple-darwin/lib/rustlib/riscv32imac-unknown-none-elf/lib/libcore-081fd8405fc18f2e.rlib(core-081fd8405fc18f2e.core.756fe54c-cgu.0.rcgu.o):(.rodata..Lanon.6576d0208e50a9ab262801bbdd388cb2.165)
3c0078f3     78f3       2b     1                 .Lanon.6576d0208e50a9ab262801bbdd388cb2.165
3c007920     7920       10     4         /Users/mabez/.rustup/toolchains/nightly-aarch64-apple-darwin/lib/rustlib/riscv32imac-unknown-none-elf/lib/libcore-081fd8405fc18f2e.rlib(core-081fd8405fc18f2e.core.756fe54c-cgu.0.rcgu.o):(.rodata..Lanon.6576d0208e50a9ab262801bbdd388cb2.168)
3c007920     7920       10     1                 .Lanon.6576d0208e50a9ab262801bbdd388cb2.168
3c007930     7930       12     1         /Users/mabez/.rustup/toolchains/nightly-aarch64-apple-darwin/lib/rustlib/riscv32imac-unknown-none-elf/lib/libcore-081fd8405fc18f2e.rlib(core-081fd8405fc18f2e.core.756fe54c-cgu.0.rcgu.o):(.rodata..Lanon.6576d0208e50a9ab262801bbdd388cb2.175)
3c007930     7930       12     1                 .Lanon.6576d0208e50a9ab262801bbdd388cb2.175
3c007944     7944       10     4         /Users/mabez/.rustup/toolchains/nightly-aarch64-apple-darwin/lib/rustlib/riscv32imac-unknown-none-elf/lib/libcore-081fd8405fc18f2e.rlib(core-081fd8405fc18f2e.core.756fe54c-cgu.0.rcgu.o):(.rodata..Lanon.6576d0208e50a9ab262801bbdd388cb2.176)
3c007944     7944       10     1                 .Lanon.6576d0208e50a9ab262801bbdd388cb2.176
3c007954     7954        1     1         /Users/mabez/.rustup/toolchains/nightly-aarch64-apple-darwin/lib/rustlib/riscv32imac-unknown-none-elf/lib/libcore-081fd8405fc18f2e.rlib(core-081fd8405fc18f2e.core.756fe54c-cgu.0.rcgu.o):(.rodata..Lanon.6576d0208e50a9ab262801bbdd388cb2.188)
3c007954     7954        1     1                 .Lanon.6576d0208e50a9ab262801bbdd388cb2.188
3c007955     7955        2     1         /Users/mabez/.rustup/toolchains/nightly-aarch64-apple-darwin/lib/rustlib/riscv32imac-unknown-none-elf/lib/libcore-081fd8405fc18f2e.rlib(core-081fd8405fc18f2e.core.756fe54c-cgu.0.rcgu.o):(.rodata..Lanon.6576d0208e50a9ab262801bbdd388cb2.190)
3c007955     7955        2     1                 .Lanon.6576d0208e50a9ab262801bbdd388cb2.190
3c007958     7958       10     4         /Users/mabez/.rustup/toolchains/nightly-aarch64-apple-darwin/lib/rustlib/riscv32imac-unknown-none-elf/lib/libcore-081fd8405fc18f2e.rlib(core-081fd8405fc18f2e.core.756fe54c-cgu.0.rcgu.o):(.rodata..Lanon.6576d0208e50a9ab262801bbdd388cb2.191)
3c007958     7958       10     1                 .Lanon.6576d0208e50a9ab262801bbdd388cb2.191
3c007968     7968       18     4         /Users/mabez/.rustup/toolchains/nightly-aarch64-apple-darwin/lib/rustlib/riscv32imac-unknown-none-elf/lib/libcore-081fd8405fc18f2e.rlib(core-081fd8405fc18f2e.core.756fe54c-cgu.0.rcgu.o):(.rodata..Lanon.6576d0208e50a9ab262801bbdd388cb2.192)
3c007968     7968       18     1                 .Lanon.6576d0208e50a9ab262801bbdd388cb2.192
3c007980     7980       10     4         /Users/mabez/.rustup/toolchains/nightly-aarch64-apple-darwin/lib/rustlib/riscv32imac-unknown-none-elf/lib/libcore-081fd8405fc18f2e.rlib(core-081fd8405fc18f2e.core.756fe54c-cgu.0.rcgu.o):(.rodata..Lanon.6576d0208e50a9ab262801bbdd388cb2.195)
3c007980     7980       10     1                 .Lanon.6576d0208e50a9ab262801bbdd388cb2.195
3c007990     7990       10     4         /Users/mabez/.rustup/toolchains/nightly-aarch64-apple-darwin/lib/rustlib/riscv32imac-unknown-none-elf/lib/libcore-081fd8405fc18f2e.rlib(core-081fd8405fc18f2e.core.756fe54c-cgu.0.rcgu.o):(.rodata..Lanon.6576d0208e50a9ab262801bbdd388cb2.196)
3c007990     7990       10     1                 .Lanon.6576d0208e50a9ab262801bbdd388cb2.196
3c0079a0     79a0        3     1         /Users/mabez/.rustup/toolchains/nightly-aarch64-apple-darwin/lib/rustlib/riscv32imac-unknown-none-elf/lib/libcore-081fd8405fc18f2e.rlib(core-081fd8405fc18f2e.core.756fe54c-cgu.0.rcgu.o):(.rodata..Lanon.6576d0208e50a9ab262801bbdd388cb2.197)
3c0079a0     79a0        3     1                 .Lanon.6576d0208e50a9ab262801bbdd388cb2.197
3c0079a3     79a3        2     1         /Users/mabez/.rustup/toolchains/nightly-aarch64-apple-darwin/lib/rustlib/riscv32imac-unknown-none-elf/lib/libcore-081fd8405fc18f2e.rlib(core-081fd8405fc18f2e.core.756fe54c-cgu.0.rcgu.o):(.rodata..Lanon.6576d0208e50a9ab262801bbdd388cb2.198)
3c0079a3     79a3        2     1                 .Lanon.6576d0208e50a9ab262801bbdd388cb2.198
3c0079a5     79a5        2     1         /Users/mabez/.rustup/toolchains/nightly-aarch64-apple-darwin/lib/rustlib/riscv32imac-unknown-none-elf/lib/libcore-081fd8405fc18f2e.rlib(core-081fd8405fc18f2e.core.756fe54c-cgu.0.rcgu.o):(.rodata..Lanon.6576d0208e50a9ab262801bbdd388cb2.199)
3c0079a5     79a5        2     1                 .Lanon.6576d0208e50a9ab262801bbdd388cb2.199
3c0079a7     79a7        3     1         /Users/mabez/.rustup/toolchains/nightly-aarch64-apple-darwin/lib/rustlib/riscv32imac-unknown-none-elf/lib/libcore-081fd8405fc18f2e.rlib(core-081fd8405fc18f2e.core.756fe54c-cgu.0.rcgu.o):(.rodata..Lanon.6576d0208e50a9ab262801bbdd388cb2.200)
3c0079a7     79a7        3     1                 .Lanon.6576d0208e50a9ab262801bbdd388cb2.200
3c0079aa     79aa        1     1         /Users/mabez/.rustup/toolchains/nightly-aarch64-apple-darwin/lib/rustlib/riscv32imac-unknown-none-elf/lib/libcore-081fd8405fc18f2e.rlib(core-081fd8405fc18f2e.core.756fe54c-cgu.0.rcgu.o):(.rodata..Lanon.6576d0208e50a9ab262801bbdd388cb2.202)
3c0079aa     79aa        1     1                 .Lanon.6576d0208e50a9ab262801bbdd388cb2.202
3c0079ab     79ab        7     1         /Users/mabez/.rustup/toolchains/nightly-aarch64-apple-darwin/lib/rustlib/riscv32imac-unknown-none-elf/lib/libcore-081fd8405fc18f2e.rlib(core-081fd8405fc18f2e.core.756fe54c-cgu.0.rcgu.o):(.rodata..Lanon.6576d0208e50a9ab262801bbdd388cb2.204)
3c0079ab     79ab        7     1                 .Lanon.6576d0208e50a9ab262801bbdd388cb2.204
3c0079b2     79b2        2     1         /Users/mabez/.rustup/toolchains/nightly-aarch64-apple-darwin/lib/rustlib/riscv32imac-unknown-none-elf/lib/libcore-081fd8405fc18f2e.rlib(core-081fd8405fc18f2e.core.756fe54c-cgu.0.rcgu.o):(.rodata..Lanon.6576d0208e50a9ab262801bbdd388cb2.205)
3c0079b2     79b2        2     1                 .Lanon.6576d0208e50a9ab262801bbdd388cb2.205
3c0079b4     79b4        2     1         /Users/mabez/.rustup/toolchains/nightly-aarch64-apple-darwin/lib/rustlib/riscv32imac-unknown-none-elf/lib/libcore-081fd8405fc18f2e.rlib(core-081fd8405fc18f2e.core.756fe54c-cgu.0.rcgu.o):(.rodata..Lanon.6576d0208e50a9ab262801bbdd388cb2.206)
3c0079b4     79b4        2     1                 .Lanon.6576d0208e50a9ab262801bbdd388cb2.206
3c0079b6     79b6        1     1         /Users/mabez/.rustup/toolchains/nightly-aarch64-apple-darwin/lib/rustlib/riscv32imac-unknown-none-elf/lib/libcore-081fd8405fc18f2e.rlib(core-081fd8405fc18f2e.core.756fe54c-cgu.0.rcgu.o):(.rodata..Lanon.6576d0208e50a9ab262801bbdd388cb2.207)
3c0079b6     79b6        1     1                 .Lanon.6576d0208e50a9ab262801bbdd388cb2.207
3c0079b7     79b7        1     1         /Users/mabez/.rustup/toolchains/nightly-aarch64-apple-darwin/lib/rustlib/riscv32imac-unknown-none-elf/lib/libcore-081fd8405fc18f2e.rlib(core-081fd8405fc18f2e.core.756fe54c-cgu.0.rcgu.o):(.rodata..Lanon.6576d0208e50a9ab262801bbdd388cb2.208)
3c0079b7     79b7        1     1                 .Lanon.6576d0208e50a9ab262801bbdd388cb2.208
3c0079b8     79b8        1     1         /Users/mabez/.rustup/toolchains/nightly-aarch64-apple-darwin/lib/rustlib/riscv32imac-unknown-none-elf/lib/libcore-081fd8405fc18f2e.rlib(core-081fd8405fc18f2e.core.756fe54c-cgu.0.rcgu.o):(.rodata..Lanon.6576d0208e50a9ab262801bbdd388cb2.209)
3c0079b8     79b8        1     1                 .Lanon.6576d0208e50a9ab262801bbdd388cb2.209
3c0079b9     79b9       1b     1         /Users/mabez/.rustup/toolchains/nightly-aarch64-apple-darwin/lib/rustlib/riscv32imac-unknown-none-elf/lib/libcore-081fd8405fc18f2e.rlib(core-081fd8405fc18f2e.core.756fe54c-cgu.0.rcgu.o):(.rodata..Lanon.6576d0208e50a9ab262801bbdd388cb2.223)
3c0079b9     79b9       1b     1                 .Lanon.6576d0208e50a9ab262801bbdd388cb2.223
3c0079d4     79d4       10     4         /Users/mabez/.rustup/toolchains/nightly-aarch64-apple-darwin/lib/rustlib/riscv32imac-unknown-none-elf/lib/libcore-081fd8405fc18f2e.rlib(core-081fd8405fc18f2e.core.756fe54c-cgu.0.rcgu.o):(.rodata..Lanon.6576d0208e50a9ab262801bbdd388cb2.224)
3c0079d4     79d4       10     1                 .Lanon.6576d0208e50a9ab262801bbdd388cb2.224
3c0079e4     79e4        2     1         /Users/mabez/.rustup/toolchains/nightly-aarch64-apple-darwin/lib/rustlib/riscv32imac-unknown-none-elf/lib/libcore-081fd8405fc18f2e.rlib(core-081fd8405fc18f2e.core.756fe54c-cgu.0.rcgu.o):(.rodata..Lanon.6576d0208e50a9ab262801bbdd388cb2.225)
3c0079e4     79e4        2     1                 .Lanon.6576d0208e50a9ab262801bbdd388cb2.225
3c0079e6     79e6       c8     1         /Users/mabez/.rustup/toolchains/nightly-aarch64-apple-darwin/lib/rustlib/riscv32imac-unknown-none-elf/lib/libcore-081fd8405fc18f2e.rlib(core-081fd8405fc18f2e.core.756fe54c-cgu.0.rcgu.o):(.rodata..Lanon.6576d0208e50a9ab262801bbdd388cb2.228)
3c0079e6     79e6       c8     1                 .Lanon.6576d0208e50a9ab262801bbdd388cb2.228
3c007ab0     7ab0       18     4         /Users/mabez/.rustup/toolchains/nightly-aarch64-apple-darwin/lib/rustlib/riscv32imac-unknown-none-elf/lib/libcore-081fd8405fc18f2e.rlib(core-081fd8405fc18f2e.core.756fe54c-cgu.0.rcgu.o):(.rodata..Lanon.6576d0208e50a9ab262801bbdd388cb2.231)
3c007ab0     7ab0       18     1                 .Lanon.6576d0208e50a9ab262801bbdd388cb2.231
3c007ac8     7ac8       1b     1         /Users/mabez/.rustup/toolchains/nightly-aarch64-apple-darwin/lib/rustlib/riscv32imac-unknown-none-elf/lib/libcore-081fd8405fc18f2e.rlib(core-081fd8405fc18f2e.core.756fe54c-cgu.0.rcgu.o):(.rodata..Lanon.6576d0208e50a9ab262801bbdd388cb2.232)
3c007ac8     7ac8       1b     1                 .Lanon.6576d0208e50a9ab262801bbdd388cb2.232
3c007ae4     7ae4       10     4         /Users/mabez/.rustup/toolchains/nightly-aarch64-apple-darwin/lib/rustlib/riscv32imac-unknown-none-elf/lib/libcore-081fd8405fc18f2e.rlib(core-081fd8405fc18f2e.core.756fe54c-cgu.0.rcgu.o):(.rodata..Lanon.6576d0208e50a9ab262801bbdd388cb2.239)
3c007ae4     7ae4       10     1                 .Lanon.6576d0208e50a9ab262801bbdd388cb2.239
3c007af4     7af4       10     4         /Users/mabez/.rustup/toolchains/nightly-aarch64-apple-darwin/lib/rustlib/riscv32imac-unknown-none-elf/lib/libcore-081fd8405fc18f2e.rlib(core-081fd8405fc18f2e.core.756fe54c-cgu.0.rcgu.o):(.rodata..Lanon.6576d0208e50a9ab262801bbdd388cb2.240)
3c007af4     7af4       10     1                 .Lanon.6576d0208e50a9ab262801bbdd388cb2.240
3c007b04     7b04       10     4         /Users/mabez/.rustup/toolchains/nightly-aarch64-apple-darwin/lib/rustlib/riscv32imac-unknown-none-elf/lib/libcore-081fd8405fc18f2e.rlib(core-081fd8405fc18f2e.core.756fe54c-cgu.0.rcgu.o):(.rodata..Lanon.6576d0208e50a9ab262801bbdd388cb2.245)
3c007b04     7b04       10     1                 .Lanon.6576d0208e50a9ab262801bbdd388cb2.245
3c007b14     7b14       12     1         /Users/mabez/.rustup/toolchains/nightly-aarch64-apple-darwin/lib/rustlib/riscv32imac-unknown-none-elf/lib/libcore-081fd8405fc18f2e.rlib(core-081fd8405fc18f2e.core.756fe54c-cgu.0.rcgu.o):(.rodata..Lanon.6576d0208e50a9ab262801bbdd388cb2.249)
3c007b14     7b14       12     1                 .Lanon.6576d0208e50a9ab262801bbdd388cb2.249
3c007b26     7b26       22     1         /Users/mabez/.rustup/toolchains/nightly-aarch64-apple-darwin/lib/rustlib/riscv32imac-unknown-none-elf/lib/libcore-081fd8405fc18f2e.rlib(core-081fd8405fc18f2e.core.756fe54c-cgu.0.rcgu.o):(.rodata..Lanon.6576d0208e50a9ab262801bbdd388cb2.250)
3c007b26     7b26       22     1                 .Lanon.6576d0208e50a9ab262801bbdd388cb2.250
3c007b48     7b48       10     4         /Users/mabez/.rustup/toolchains/nightly-aarch64-apple-darwin/lib/rustlib/riscv32imac-unknown-none-elf/lib/libcore-081fd8405fc18f2e.rlib(core-081fd8405fc18f2e.core.756fe54c-cgu.0.rcgu.o):(.rodata..Lanon.6576d0208e50a9ab262801bbdd388cb2.251)
3c007b48     7b48       10     1                 .Lanon.6576d0208e50a9ab262801bbdd388cb2.251
3c007b58     7b58       10     4         /Users/mabez/.rustup/toolchains/nightly-aarch64-apple-darwin/lib/rustlib/riscv32imac-unknown-none-elf/lib/libcore-081fd8405fc18f2e.rlib(core-081fd8405fc18f2e.core.756fe54c-cgu.0.rcgu.o):(.rodata..Lanon.6576d0208e50a9ab262801bbdd388cb2.253)
3c007b58     7b58       10     1                 .Lanon.6576d0208e50a9ab262801bbdd388cb2.253
3c007b68     7b68       16     1         /Users/mabez/.rustup/toolchains/nightly-aarch64-apple-darwin/lib/rustlib/riscv32imac-unknown-none-elf/lib/libcore-081fd8405fc18f2e.rlib(core-081fd8405fc18f2e.core.756fe54c-cgu.0.rcgu.o):(.rodata..Lanon.6576d0208e50a9ab262801bbdd388cb2.254)
3c007b68     7b68       16     1                 .Lanon.6576d0208e50a9ab262801bbdd388cb2.254
3c007b7e     7b7e        d     1         /Users/mabez/.rustup/toolchains/nightly-aarch64-apple-darwin/lib/rustlib/riscv32imac-unknown-none-elf/lib/libcore-081fd8405fc18f2e.rlib(core-081fd8405fc18f2e.core.756fe54c-cgu.0.rcgu.o):(.rodata..Lanon.6576d0208e50a9ab262801bbdd388cb2.255)
3c007b7e     7b7e        d     1                 .Lanon.6576d0208e50a9ab262801bbdd388cb2.255
3c007b8c     7b8c       10     4         /Users/mabez/.rustup/toolchains/nightly-aarch64-apple-darwin/lib/rustlib/riscv32imac-unknown-none-elf/lib/libcore-081fd8405fc18f2e.rlib(core-081fd8405fc18f2e.core.756fe54c-cgu.0.rcgu.o):(.rodata..Lanon.6576d0208e50a9ab262801bbdd388cb2.256)
3c007b8c     7b8c       10     1                 .Lanon.6576d0208e50a9ab262801bbdd388cb2.256
3c007b9c     7b9c       18     1         <internal>:(.rodata)
3c007bb4     7bb4       23     1         /Users/mabez/.rustup/toolchains/nightly-aarch64-apple-darwin/lib/rustlib/riscv32imac-unknown-none-elf/lib/libcore-081fd8405fc18f2e.rlib(core-081fd8405fc18f2e.core.756fe54c-cgu.0.rcgu.o):(.rodata..Lanon.6576d0208e50a9ab262801bbdd388cb2.290)
3c007bb4     7bb4       23     1                 .Lanon.6576d0208e50a9ab262801bbdd388cb2.290
3c007bd8     7bd8       10     4         /Users/mabez/.rustup/toolchains/nightly-aarch64-apple-darwin/lib/rustlib/riscv32imac-unknown-none-elf/lib/libcore-081fd8405fc18f2e.rlib(core-081fd8405fc18f2e.core.756fe54c-cgu.0.rcgu.o):(.rodata..Lanon.6576d0208e50a9ab262801bbdd388cb2.291)
3c007bd8     7bd8       10     1                 .Lanon.6576d0208e50a9ab262801bbdd388cb2.291
3c007be8     7be8        5     1         /Users/mabez/.rustup/toolchains/nightly-aarch64-apple-darwin/lib/rustlib/riscv32imac-unknown-none-elf/lib/libcore-081fd8405fc18f2e.rlib(core-081fd8405fc18f2e.core.756fe54c-cgu.0.rcgu.o):(.rodata..Lanon.6576d0208e50a9ab262801bbdd388cb2.319)
3c007be8     7be8        5     1                 .Lanon.6576d0208e50a9ab262801bbdd388cb2.319
3c007bed     7bed        b     1         /Users/mabez/.rustup/toolchains/nightly-aarch64-apple-darwin/lib/rustlib/riscv32imac-unknown-none-elf/lib/libcore-081fd8405fc18f2e.rlib(core-081fd8405fc18f2e.core.756fe54c-cgu.0.rcgu.o):(.rodata..Lanon.6576d0208e50a9ab262801bbdd388cb2.320)
3c007bed     7bed        b     1                 .Lanon.6576d0208e50a9ab262801bbdd388cb2.320
3c007bf8     7bf8       16     1         /Users/mabez/.rustup/toolchains/nightly-aarch64-apple-darwin/lib/rustlib/riscv32imac-unknown-none-elf/lib/libcore-081fd8405fc18f2e.rlib(core-081fd8405fc18f2e.core.756fe54c-cgu.0.rcgu.o):(.rodata..Lanon.6576d0208e50a9ab262801bbdd388cb2.321)
3c007bf8     7bf8       16     1                 .Lanon.6576d0208e50a9ab262801bbdd388cb2.321
3c007c10     7c10       18     4         /Users/mabez/.rustup/toolchains/nightly-aarch64-apple-darwin/lib/rustlib/riscv32imac-unknown-none-elf/lib/libcore-081fd8405fc18f2e.rlib(core-081fd8405fc18f2e.core.756fe54c-cgu.0.rcgu.o):(.rodata..Lanon.6576d0208e50a9ab262801bbdd388cb2.322)
3c007c10     7c10       18     1                 .Lanon.6576d0208e50a9ab262801bbdd388cb2.322
3c007c28     7c28        e     1         /Users/mabez/.rustup/toolchains/nightly-aarch64-apple-darwin/lib/rustlib/riscv32imac-unknown-none-elf/lib/libcore-081fd8405fc18f2e.rlib(core-081fd8405fc18f2e.core.756fe54c-cgu.0.rcgu.o):(.rodata..Lanon.6576d0208e50a9ab262801bbdd388cb2.323)
3c007c28     7c28        e     1                 .Lanon.6576d0208e50a9ab262801bbdd388cb2.323
3c007c38     7c38       20     4         /Users/mabez/.rustup/toolchains/nightly-aarch64-apple-darwin/lib/rustlib/riscv32imac-unknown-none-elf/lib/libcore-081fd8405fc18f2e.rlib(core-081fd8405fc18f2e.core.756fe54c-cgu.0.rcgu.o):(.rodata..Lanon.6576d0208e50a9ab262801bbdd388cb2.326)
3c007c38     7c38       20     1                 .Lanon.6576d0208e50a9ab262801bbdd388cb2.326
3c007c58     7c58       26     1         /Users/mabez/.rustup/toolchains/nightly-aarch64-apple-darwin/lib/rustlib/riscv32imac-unknown-none-elf/lib/libcore-081fd8405fc18f2e.rlib(core-081fd8405fc18f2e.core.756fe54c-cgu.0.rcgu.o):(.rodata..Lanon.6576d0208e50a9ab262801bbdd388cb2.327)
3c007c58     7c58       26     1                 .Lanon.6576d0208e50a9ab262801bbdd388cb2.327
3c007c7e     7c7e        6     1         /Users/mabez/.rustup/toolchains/nightly-aarch64-apple-darwin/lib/rustlib/riscv32imac-unknown-none-elf/lib/libcore-081fd8405fc18f2e.rlib(core-081fd8405fc18f2e.core.756fe54c-cgu.0.rcgu.o):(.rodata..Lanon.6576d0208e50a9ab262801bbdd388cb2.329)
3c007c7e     7c7e        6     1                 .Lanon.6576d0208e50a9ab262801bbdd388cb2.329
3c007c84     7c84       28     4         /Users/mabez/.rustup/toolchains/nightly-aarch64-apple-darwin/lib/rustlib/riscv32imac-unknown-none-elf/lib/libcore-081fd8405fc18f2e.rlib(core-081fd8405fc18f2e.core.756fe54c-cgu.0.rcgu.o):(.rodata..Lanon.6576d0208e50a9ab262801bbdd388cb2.330)
3c007c84     7c84       28     1                 .Lanon.6576d0208e50a9ab262801bbdd388cb2.330
3c007cac     7cac       25     1         /Users/mabez/.rustup/toolchains/nightly-aarch64-apple-darwin/lib/rustlib/riscv32imac-unknown-none-elf/lib/libcore-081fd8405fc18f2e.rlib(core-081fd8405fc18f2e.core.756fe54c-cgu.0.rcgu.o):(.rodata..Lanon.6576d0208e50a9ab262801bbdd388cb2.353)
3c007cac     7cac       25     1                 .Lanon.6576d0208e50a9ab262801bbdd388cb2.353
3c007cd4     7cd4       10     4         /Users/mabez/.rustup/toolchains/nightly-aarch64-apple-darwin/lib/rustlib/riscv32imac-unknown-none-elf/lib/libcore-081fd8405fc18f2e.rlib(core-081fd8405fc18f2e.core.756fe54c-cgu.0.rcgu.o):(.rodata..Lanon.6576d0208e50a9ab262801bbdd388cb2.354)
3c007cd4     7cd4       10     1                 .Lanon.6576d0208e50a9ab262801bbdd388cb2.354
3c007ce4     7ce4       10     4         /Users/mabez/.rustup/toolchains/nightly-aarch64-apple-darwin/lib/rustlib/riscv32imac-unknown-none-elf/lib/libcore-081fd8405fc18f2e.rlib(core-081fd8405fc18f2e.core.756fe54c-cgu.0.rcgu.o):(.rodata..Lanon.6576d0208e50a9ab262801bbdd388cb2.355)
3c007ce4     7ce4       10     1                 .Lanon.6576d0208e50a9ab262801bbdd388cb2.355
3c007cf4     7cf4       50     1         /Users/mabez/.rustup/toolchains/nightly-aarch64-apple-darwin/lib/rustlib/riscv32imac-unknown-none-elf/lib/libcore-081fd8405fc18f2e.rlib(core-081fd8405fc18f2e.core.756fe54c-cgu.0.rcgu.o):(.rodata..Lanon.6576d0208e50a9ab262801bbdd388cb2.356)
3c007cf4     7cf4       50     1                 .Lanon.6576d0208e50a9ab262801bbdd388cb2.356
3c007d44     7d44      120     1         /Users/mabez/.rustup/toolchains/nightly-aarch64-apple-darwin/lib/rustlib/riscv32imac-unknown-none-elf/lib/libcore-081fd8405fc18f2e.rlib(core-081fd8405fc18f2e.core.756fe54c-cgu.0.rcgu.o):(.rodata..Lanon.6576d0208e50a9ab262801bbdd388cb2.357)
3c007d44     7d44      120     1                 .Lanon.6576d0208e50a9ab262801bbdd388cb2.357
3c007e64     7e64      12f     1         /Users/mabez/.rustup/toolchains/nightly-aarch64-apple-darwin/lib/rustlib/riscv32imac-unknown-none-elf/lib/libcore-081fd8405fc18f2e.rlib(core-081fd8405fc18f2e.core.756fe54c-cgu.0.rcgu.o):(.rodata..Lanon.6576d0208e50a9ab262801bbdd388cb2.358)
3c007e64     7e64      12f     1                 .Lanon.6576d0208e50a9ab262801bbdd388cb2.358
3c007f93     7f93       54     1         /Users/mabez/.rustup/toolchains/nightly-aarch64-apple-darwin/lib/rustlib/riscv32imac-unknown-none-elf/lib/libcore-081fd8405fc18f2e.rlib(core-081fd8405fc18f2e.core.756fe54c-cgu.0.rcgu.o):(.rodata..Lanon.6576d0208e50a9ab262801bbdd388cb2.359)
3c007f93     7f93       54     1                 .Lanon.6576d0208e50a9ab262801bbdd388cb2.359
3c007fe7     7fe7       c0     1         /Users/mabez/.rustup/toolchains/nightly-aarch64-apple-darwin/lib/rustlib/riscv32imac-unknown-none-elf/lib/libcore-081fd8405fc18f2e.rlib(core-081fd8405fc18f2e.core.756fe54c-cgu.0.rcgu.o):(.rodata..Lanon.6576d0208e50a9ab262801bbdd388cb2.360)
3c007fe7     7fe7       c0     1                 .Lanon.6576d0208e50a9ab262801bbdd388cb2.360
3c0080a7     80a7      1b6     1         /Users/mabez/.rustup/toolchains/nightly-aarch64-apple-darwin/lib/rustlib/riscv32imac-unknown-none-elf/lib/libcore-081fd8405fc18f2e.rlib(core-081fd8405fc18f2e.core.756fe54c-cgu.0.rcgu.o):(.rodata..Lanon.6576d0208e50a9ab262801bbdd388cb2.361)
3c0080a7     80a7      1b6     1                 .Lanon.6576d0208e50a9ab262801bbdd388cb2.361
3c00825d     825d       28     1         /Users/mabez/.rustup/toolchains/nightly-aarch64-apple-darwin/lib/rustlib/riscv32imac-unknown-none-elf/lib/libcore-081fd8405fc18f2e.rlib(core-081fd8405fc18f2e.core.756fe54c-cgu.0.rcgu.o):(.rodata..Lanon.6576d0208e50a9ab262801bbdd388cb2.362)
3c00825d     825d       28     1                 .Lanon.6576d0208e50a9ab262801bbdd388cb2.362
3c008288     8288       10     4         /Users/mabez/.rustup/toolchains/nightly-aarch64-apple-darwin/lib/rustlib/riscv32imac-unknown-none-elf/lib/libcore-081fd8405fc18f2e.rlib(core-081fd8405fc18f2e.core.756fe54c-cgu.0.rcgu.o):(.rodata..Lanon.6576d0208e50a9ab262801bbdd388cb2.366)
3c008288     8288       10     1                 .Lanon.6576d0208e50a9ab262801bbdd388cb2.366
3c008298     8298       10     4         /Users/mabez/.rustup/toolchains/nightly-aarch64-apple-darwin/lib/rustlib/riscv32imac-unknown-none-elf/lib/libcore-081fd8405fc18f2e.rlib(core-081fd8405fc18f2e.core.756fe54c-cgu.0.rcgu.o):(.rodata..Lanon.6576d0208e50a9ab262801bbdd388cb2.367)
3c008298     8298       10     1                 .Lanon.6576d0208e50a9ab262801bbdd388cb2.367
3c0082a8     82a8       10     4         /Users/mabez/.rustup/toolchains/nightly-aarch64-apple-darwin/lib/rustlib/riscv32imac-unknown-none-elf/lib/libcore-081fd8405fc18f2e.rlib(core-081fd8405fc18f2e.core.756fe54c-cgu.0.rcgu.o):(.rodata..Lanon.6576d0208e50a9ab262801bbdd388cb2.368)
3c0082a8     82a8       10     1                 .Lanon.6576d0208e50a9ab262801bbdd388cb2.368
3c0082b8     82b8       10     4         /Users/mabez/.rustup/toolchains/nightly-aarch64-apple-darwin/lib/rustlib/riscv32imac-unknown-none-elf/lib/libcore-081fd8405fc18f2e.rlib(core-081fd8405fc18f2e.core.756fe54c-cgu.0.rcgu.o):(.rodata..Lanon.6576d0208e50a9ab262801bbdd388cb2.504)
3c0082b8     82b8       10     1                 .Lanon.6576d0208e50a9ab262801bbdd388cb2.504
3c0082c8     82c8       10     4         /Users/mabez/.rustup/toolchains/nightly-aarch64-apple-darwin/lib/rustlib/riscv32imac-unknown-none-elf/lib/libcore-081fd8405fc18f2e.rlib(core-081fd8405fc18f2e.core.756fe54c-cgu.0.rcgu.o):(.rodata..Lanon.6576d0208e50a9ab262801bbdd388cb2.515)
3c0082c8     82c8       10     1                 .Lanon.6576d0208e50a9ab262801bbdd388cb2.515
3c0082d8     82d8       10     4         /Users/mabez/.rustup/toolchains/nightly-aarch64-apple-darwin/lib/rustlib/riscv32imac-unknown-none-elf/lib/libcore-081fd8405fc18f2e.rlib(core-081fd8405fc18f2e.core.756fe54c-cgu.0.rcgu.o):(.rodata..Lanon.6576d0208e50a9ab262801bbdd388cb2.517)
3c0082d8     82d8       10     1                 .Lanon.6576d0208e50a9ab262801bbdd388cb2.517
3c0082e8     82e8        3     1         /Users/mabez/.rustup/toolchains/nightly-aarch64-apple-darwin/lib/rustlib/riscv32imac-unknown-none-elf/lib/libcore-081fd8405fc18f2e.rlib(core-081fd8405fc18f2e.core.756fe54c-cgu.0.rcgu.o):(.rodata..Lanon.6576d0208e50a9ab262801bbdd388cb2.518)
3c0082e8     82e8        3     1                 .Lanon.6576d0208e50a9ab262801bbdd388cb2.518
3c0082eb     82eb        9     1         /Users/mabez/.rustup/toolchains/nightly-aarch64-apple-darwin/lib/rustlib/riscv32imac-unknown-none-elf/lib/libcore-081fd8405fc18f2e.rlib(core-081fd8405fc18f2e.core.756fe54c-cgu.0.rcgu.o):(.rodata..Lanon.6576d0208e50a9ab262801bbdd388cb2.519)
3c0082eb     82eb        9     1                 .Lanon.6576d0208e50a9ab262801bbdd388cb2.519
3c0082f4     82f4        7     1         /Users/mabez/.rustup/toolchains/nightly-aarch64-apple-darwin/lib/rustlib/riscv32imac-unknown-none-elf/lib/libcore-081fd8405fc18f2e.rlib(core-081fd8405fc18f2e.core.756fe54c-cgu.0.rcgu.o):(.rodata..Lanon.6576d0208e50a9ab262801bbdd388cb2.520)
3c0082f4     82f4        7     1                 .Lanon.6576d0208e50a9ab262801bbdd388cb2.520
3c0082fc     82fc       10     4         /Users/mabez/.rustup/toolchains/nightly-aarch64-apple-darwin/lib/rustlib/riscv32imac-unknown-none-elf/lib/libcore-081fd8405fc18f2e.rlib(core-081fd8405fc18f2e.core.756fe54c-cgu.0.rcgu.o):(.rodata..Lanon.6576d0208e50a9ab262801bbdd388cb2.521)
3c0082fc     82fc       10     1                 .Lanon.6576d0208e50a9ab262801bbdd388cb2.521
3c00830c     830c        7     1         /Users/mabez/.rustup/toolchains/nightly-aarch64-apple-darwin/lib/rustlib/riscv32imac-unknown-none-elf/lib/libcore-081fd8405fc18f2e.rlib(core-081fd8405fc18f2e.core.756fe54c-cgu.0.rcgu.o):(.rodata..Lanon.6576d0208e50a9ab262801bbdd388cb2.522)
3c00830c     830c        7     1                 .Lanon.6576d0208e50a9ab262801bbdd388cb2.522
3c008314     8314       10     4         /Users/mabez/.rustup/toolchains/nightly-aarch64-apple-darwin/lib/rustlib/riscv32imac-unknown-none-elf/lib/libcore-081fd8405fc18f2e.rlib(core-081fd8405fc18f2e.core.756fe54c-cgu.0.rcgu.o):(.rodata..Lanon.6576d0208e50a9ab262801bbdd388cb2.523)
3c008314     8314       10     1                 .Lanon.6576d0208e50a9ab262801bbdd388cb2.523
3c008324     8324       10     4         /Users/mabez/.rustup/toolchains/nightly-aarch64-apple-darwin/lib/rustlib/riscv32imac-unknown-none-elf/lib/libcore-081fd8405fc18f2e.rlib(core-081fd8405fc18f2e.core.756fe54c-cgu.0.rcgu.o):(.rodata..Lanon.6576d0208e50a9ab262801bbdd388cb2.525)
3c008324     8324       10     1                 .Lanon.6576d0208e50a9ab262801bbdd388cb2.525
3c008334     8334        5     1         /Users/mabez/.rustup/toolchains/nightly-aarch64-apple-darwin/lib/rustlib/riscv32imac-unknown-none-elf/lib/libcore-081fd8405fc18f2e.rlib(core-081fd8405fc18f2e.core.756fe54c-cgu.0.rcgu.o):(.rodata..Lanon.6576d0208e50a9ab262801bbdd388cb2.545)
3c008334     8334        5     1                 .Lanon.6576d0208e50a9ab262801bbdd388cb2.545
3c00833c     833c       80     4         /Users/mabez/.rustup/toolchains/nightly-aarch64-apple-darwin/lib/rustlib/riscv32imac-unknown-none-elf/lib/libcore-081fd8405fc18f2e.rlib(core-081fd8405fc18f2e.core.756fe54c-cgu.0.rcgu.o):(.rodata._ZN4core7unicode12unicode_data15grapheme_extend17SHORT_OFFSET_RUNS17hddefd0be4ce83000E)
3c00833c     833c       80     1                 core::unicode::unicode_data::grapheme_extend::SHORT_OFFSET_RUNS::hddefd0be4ce83000
3c0083bc     83bc      2c3     1         /Users/mabez/.rustup/toolchains/nightly-aarch64-apple-darwin/lib/rustlib/riscv32imac-unknown-none-elf/lib/libcore-081fd8405fc18f2e.rlib(core-081fd8405fc18f2e.core.756fe54c-cgu.0.rcgu.o):(.rodata._ZN4core7unicode12unicode_data15grapheme_extend7OFFSETS17h23e67a771568ea8eE)
3c0083bc     83bc      2c3     1                 core::unicode::unicode_data::grapheme_extend::OFFSETS::h23e67a771568ea8e
3c008680     8680       30     4         /Users/mabez/Development/rust/embedded/experiments/esp32c3-experiments/target/riscv32imac-unknown-none-elf/debug/deps/libriscv_rt-792395b706c7e295.rlib(riscv_rt-792395b706c7e295.n23zmh27zi56vj2.rcgu.o):(.rodata.__INTERRUPTS)
3c008680     8680       30     1                 __INTERRUPTS
3c0086b0     86b0       74     4         /Users/mabez/Development/rust/embedded/experiments/esp32c3-experiments/target/riscv32imac-unknown-none-elf/debug/deps/libriscv_atomic_emulation_trap-36c6147cf3a7da2f.rlib(riscv_atomic_emulation_trap-36c6147cf3a7da2f.192heijy3m9d29qe.rcgu.o):(.rodata._ZN27riscv_atomic_emulation_trap16atomic_emulation17hed680e9af9b9e70bE)
3c0086b0     86b0        0     1                 .LJTI2_0
3c008724     8724       56     1         /Users/mabez/Development/rust/embedded/experiments/esp32c3-experiments/target/riscv32imac-unknown-none-elf/debug/deps/libriscv_atomic_emulation_trap-36c6147cf3a7da2f.rlib(riscv_atomic_emulation_trap-36c6147cf3a7da2f.192heijy3m9d29qe.rcgu.o):(.rodata..L__unnamed_54)
3c008724     8724       56     1                 .L__unnamed_54
3c00877c     877c       10     4         /Users/mabez/Development/rust/embedded/experiments/esp32c3-experiments/target/riscv32imac-unknown-none-elf/debug/deps/libriscv_atomic_emulation_trap-36c6147cf3a7da2f.rlib(riscv_atomic_emulation_trap-36c6147cf3a7da2f.192heijy3m9d29qe.rcgu.o):(.rodata..L__unnamed_2)
3c00877c     877c       10     1                 .L__unnamed_2
3c008790     8790       19    16         /Users/mabez/Development/rust/embedded/experiments/esp32c3-experiments/target/riscv32imac-unknown-none-elf/debug/deps/libriscv_atomic_emulation_trap-36c6147cf3a7da2f.rlib(riscv_atomic_emulation_trap-36c6147cf3a7da2f.192heijy3m9d29qe.rcgu.o):(.rodata.str.0)
3c008790     8790       19     1                 str.0
3c0087ac     87ac       10     4         /Users/mabez/Development/rust/embedded/experiments/esp32c3-experiments/target/riscv32imac-unknown-none-elf/debug/deps/libriscv_atomic_emulation_trap-36c6147cf3a7da2f.rlib(riscv_atomic_emulation_trap-36c6147cf3a7da2f.192heijy3m9d29qe.rcgu.o):(.rodata..L__unnamed_3)
3c0087ac     87ac       10     1                 .L__unnamed_3
3c0087bc     87bc        0     1         /Users/mabez/Development/rust/embedded/experiments/esp32c3-experiments/target/riscv32imac-unknown-none-elf/debug/deps/libriscv_atomic_emulation_trap-36c6147cf3a7da2f.rlib(riscv_atomic_emulation_trap-36c6147cf3a7da2f.192heijy3m9d29qe.rcgu.o):(.rodata..L__unnamed_4)
3c0087bc     87bc        0     1                 .L__unnamed_4
3c0087bc     87bc       10     4         /Users/mabez/Development/rust/embedded/experiments/esp32c3-experiments/target/riscv32imac-unknown-none-elf/debug/deps/libriscv_atomic_emulation_trap-36c6147cf3a7da2f.rlib(riscv_atomic_emulation_trap-36c6147cf3a7da2f.192heijy3m9d29qe.rcgu.o):(.rodata..L__unnamed_5)
3c0087bc     87bc       10     1                 .L__unnamed_5
3c0087cc     87cc       10     4         /Users/mabez/Development/rust/embedded/experiments/esp32c3-experiments/target/riscv32imac-unknown-none-elf/debug/deps/libriscv_atomic_emulation_trap-36c6147cf3a7da2f.rlib(riscv_atomic_emulation_trap-36c6147cf3a7da2f.192heijy3m9d29qe.rcgu.o):(.rodata..L__unnamed_6)
3c0087cc     87cc       10     1                 .L__unnamed_6
3c0087dc     87dc       10     4         /Users/mabez/Development/rust/embedded/experiments/esp32c3-experiments/target/riscv32imac-unknown-none-elf/debug/deps/libriscv_atomic_emulation_trap-36c6147cf3a7da2f.rlib(riscv_atomic_emulation_trap-36c6147cf3a7da2f.192heijy3m9d29qe.rcgu.o):(.rodata..L__unnamed_7)
3c0087dc     87dc       10     1                 .L__unnamed_7
3c0087ec     87ec       10     4         /Users/mabez/Development/rust/embedded/experiments/esp32c3-experiments/target/riscv32imac-unknown-none-elf/debug/deps/libriscv_atomic_emulation_trap-36c6147cf3a7da2f.rlib(riscv_atomic_emulation_trap-36c6147cf3a7da2f.192heijy3m9d29qe.rcgu.o):(.rodata..L__unnamed_8)
3c0087ec     87ec       10     1                 .L__unnamed_8
3c0087fc     87fc       10     4         /Users/mabez/Development/rust/embedded/experiments/esp32c3-experiments/target/riscv32imac-unknown-none-elf/debug/deps/libriscv_atomic_emulation_trap-36c6147cf3a7da2f.rlib(riscv_atomic_emulation_trap-36c6147cf3a7da2f.192heijy3m9d29qe.rcgu.o):(.rodata..L__unnamed_9)
3c0087fc     87fc       10     1                 .L__unnamed_9
3c00880c     880c       10     4         /Users/mabez/Development/rust/embedded/experiments/esp32c3-experiments/target/riscv32imac-unknown-none-elf/debug/deps/libriscv_atomic_emulation_trap-36c6147cf3a7da2f.rlib(riscv_atomic_emulation_trap-36c6147cf3a7da2f.192heijy3m9d29qe.rcgu.o):(.rodata..L__unnamed_10)
3c00880c     880c       10     1                 .L__unnamed_10
3c00881c     881c       10     4         /Users/mabez/Development/rust/embedded/experiments/esp32c3-experiments/target/riscv32imac-unknown-none-elf/debug/deps/libriscv_atomic_emulation_trap-36c6147cf3a7da2f.rlib(riscv_atomic_emulation_trap-36c6147cf3a7da2f.192heijy3m9d29qe.rcgu.o):(.rodata..L__unnamed_11)
3c00881c     881c       10     1                 .L__unnamed_11
3c00882c     882c       10     4         /Users/mabez/Development/rust/embedded/experiments/esp32c3-experiments/target/riscv32imac-unknown-none-elf/debug/deps/libriscv_atomic_emulation_trap-36c6147cf3a7da2f.rlib(riscv_atomic_emulation_trap-36c6147cf3a7da2f.192heijy3m9d29qe.rcgu.o):(.rodata..L__unnamed_12)
3c00882c     882c       10     1                 .L__unnamed_12
3c00883c     883c       10     4         /Users/mabez/Development/rust/embedded/experiments/esp32c3-experiments/target/riscv32imac-unknown-none-elf/debug/deps/libriscv_atomic_emulation_trap-36c6147cf3a7da2f.rlib(riscv_atomic_emulation_trap-36c6147cf3a7da2f.192heijy3m9d29qe.rcgu.o):(.rodata..L__unnamed_13)
3c00883c     883c       10     1                 .L__unnamed_13
3c00884c     884c       10     4         /Users/mabez/Development/rust/embedded/experiments/esp32c3-experiments/target/riscv32imac-unknown-none-elf/debug/deps/libriscv_atomic_emulation_trap-36c6147cf3a7da2f.rlib(riscv_atomic_emulation_trap-36c6147cf3a7da2f.192heijy3m9d29qe.rcgu.o):(.rodata..L__unnamed_14)
3c00884c     884c       10     1                 .L__unnamed_14
3c00885c     885c       10     4         /Users/mabez/Development/rust/embedded/experiments/esp32c3-experiments/target/riscv32imac-unknown-none-elf/debug/deps/libriscv_atomic_emulation_trap-36c6147cf3a7da2f.rlib(riscv_atomic_emulation_trap-36c6147cf3a7da2f.192heijy3m9d29qe.rcgu.o):(.rodata..L__unnamed_15)
3c00885c     885c       10     1                 .L__unnamed_15
3c00886c     886c       10     4         /Users/mabez/Development/rust/embedded/experiments/esp32c3-experiments/target/riscv32imac-unknown-none-elf/debug/deps/libriscv_atomic_emulation_trap-36c6147cf3a7da2f.rlib(riscv_atomic_emulation_trap-36c6147cf3a7da2f.192heijy3m9d29qe.rcgu.o):(.rodata..L__unnamed_16)
3c00886c     886c       10     1                 .L__unnamed_16
3c00887c     887c       10     4         /Users/mabez/Development/rust/embedded/experiments/esp32c3-experiments/target/riscv32imac-unknown-none-elf/debug/deps/libriscv_atomic_emulation_trap-36c6147cf3a7da2f.rlib(riscv_atomic_emulation_trap-36c6147cf3a7da2f.192heijy3m9d29qe.rcgu.o):(.rodata..L__unnamed_17)
3c00887c     887c       10     1                 .L__unnamed_17
3c00888c     888c       10     4         /Users/mabez/Development/rust/embedded/experiments/esp32c3-experiments/target/riscv32imac-unknown-none-elf/debug/deps/libriscv_atomic_emulation_trap-36c6147cf3a7da2f.rlib(riscv_atomic_emulation_trap-36c6147cf3a7da2f.192heijy3m9d29qe.rcgu.o):(.rodata..L__unnamed_18)
3c00888c     888c       10     1                 .L__unnamed_18
3c00889c     889c       10     4         /Users/mabez/Development/rust/embedded/experiments/esp32c3-experiments/target/riscv32imac-unknown-none-elf/debug/deps/libriscv_atomic_emulation_trap-36c6147cf3a7da2f.rlib(riscv_atomic_emulation_trap-36c6147cf3a7da2f.192heijy3m9d29qe.rcgu.o):(.rodata..L__unnamed_19)
3c00889c     889c       10     1                 .L__unnamed_19
3c0088b0     88b0       1c    16         /Users/mabez/Development/rust/embedded/experiments/esp32c3-experiments/target/riscv32imac-unknown-none-elf/debug/deps/libriscv_atomic_emulation_trap-36c6147cf3a7da2f.rlib(riscv_atomic_emulation_trap-36c6147cf3a7da2f.192heijy3m9d29qe.rcgu.o):(.rodata.str.1)
3c0088b0     88b0       1c     1                 str.1
3c0088cc     88cc       10     4         /Users/mabez/Development/rust/embedded/experiments/esp32c3-experiments/target/riscv32imac-unknown-none-elf/debug/deps/libriscv_atomic_emulation_trap-36c6147cf3a7da2f.rlib(riscv_atomic_emulation_trap-36c6147cf3a7da2f.192heijy3m9d29qe.rcgu.o):(.rodata..L__unnamed_20)
3c0088cc     88cc       10     1                 .L__unnamed_20
3c0088dc     88dc       56     1         /Users/mabez/Development/rust/embedded/experiments/esp32c3-experiments/target/riscv32imac-unknown-none-elf/debug/deps/libriscv_atomic_emulation_trap-36c6147cf3a7da2f.rlib(riscv_atomic_emulation_trap-36c6147cf3a7da2f.4l7k26w2j1wwfghy.rcgu.o):(.rodata..L__unnamed_2)
3c0088dc     88dc       56     1                 .L__unnamed_2
3c008934     8934       10     4         /Users/mabez/Development/rust/embedded/experiments/esp32c3-experiments/target/riscv32imac-unknown-none-elf/debug/deps/libriscv_atomic_emulation_trap-36c6147cf3a7da2f.rlib(riscv_atomic_emulation_trap-36c6147cf3a7da2f.4l7k26w2j1wwfghy.rcgu.o):(.rodata..L__unnamed_1)
3c008934     8934       10     1                 .L__unnamed_1
3c008950     8950       1c    16         /Users/mabez/Development/rust/embedded/experiments/esp32c3-experiments/target/riscv32imac-unknown-none-elf/debug/deps/libriscv_atomic_emulation_trap-36c6147cf3a7da2f.rlib(riscv_atomic_emulation_trap-36c6147cf3a7da2f.4l7k26w2j1wwfghy.rcgu.o):(.rodata.str.0)
3c008950     8950       1c     1                 str.0
3c00896c     896c       30     4         /Users/mabez/Development/rust/embedded/experiments/esp32c3-experiments/target/riscv32imac-unknown-none-elf/debug/deps/libriscv-e6570dc03e37c02b.rlib(riscv-e6570dc03e37c02b.riscv.6a3f384f-cgu.0.rcgu.o):(.rodata._ZN5riscv8register6mcause9Interrupt4from17h49c27c9cfc30d674E)
3c00896c     896c        0     1                 .LJTI2_0
3c00899c     899c       40     4         /Users/mabez/Development/rust/embedded/experiments/esp32c3-experiments/target/riscv32imac-unknown-none-elf/debug/deps/libriscv-e6570dc03e37c02b.rlib(riscv-e6570dc03e37c02b.riscv.6a3f384f-cgu.0.rcgu.o):(.rodata._ZN5riscv8register6mcause9Exception4from17h278da2cde5b275f4E)
3c00899c     899c        0     1                 .LJTI3_0
3c0089dc     89dc        0     1         . = ALIGN ( 4 )
3c0089dc     89dc        0     1         _erodata = .
3c0089dc     89dc        0     1 _rodata_size = _erodata - _srodata + 8
3fc80000 3fc80000        0     1 .data
3fc80000 3fc80000        0     1         _sidata = LOADADDR ( .data )
3fc80000 3fc80000        0     1         _sdata = .
3fc80000 3fc80000        0     1         PROVIDE ( __global_pointer$ = . + 0x800 )
3fc80000 3fc80000        0     1         . = ALIGN ( 4 )
3fc80000 3fc80000        0     1         _edata = .
3fc80000     89e4      440     4 .bss
3fc80000     89e4        0     1         _sbss = .
3fc80000     89e4       30     4         /Users/mabez/Development/rust/embedded/experiments/esp32c3-experiments/target/riscv32imac-unknown-none-elf/debug/deps/esp32c3-0792fe58911f872d.346chqw3v9dutnx9.rcgu.o:(.bss._SEGGER_RTT)
3fc80000     89e4       30     1                 _SEGGER_RTT
3fc80030     8a14      400     1         /Users/mabez/Development/rust/embedded/experiments/esp32c3-experiments/target/riscv32imac-unknown-none-elf/debug/deps/esp32c3-0792fe58911f872d.346chqw3v9dutnx9.rcgu.o:(.bss._ZN7esp32c316wsk9o82v5cw2j74519_RTT_CHANNEL_BUFFER17h18da2a745b05ae94E)
3fc80030     8a14      400     1                 esp32c3::wsk9o82v5cw2j745::_RTT_CHANNEL_BUFFER::h18da2a745b05ae94
3fc80430     8e14        c     4         /Users/mabez/Development/rust/embedded/experiments/esp32c3-experiments/target/riscv32imac-unknown-none-elf/debug/deps/librtt_target-c8a503ffaa8773f6.rlib(rtt_target-c8a503ffaa8773f6.rtt_target.49ad93cd-cgu.12.rcgu.o):(.sbss)
3fc80430     8e14        4     1                 rtt_target::print::CRITICAL_SECTION::h487bd9420cf3e27a
3fc80434     8e18        8     1                 rtt_target::print::PRINT_TERMINAL::h3bc4a3459eaa65dc
3fc8043c     8e20        4     4         /Users/mabez/Development/rust/embedded/experiments/esp32c3-experiments/target/riscv32imac-unknown-none-elf/debug/deps/libriscv_atomic_emulation_trap-36c6147cf3a7da2f.rlib(riscv_atomic_emulation_trap-36c6147cf3a7da2f.192heijy3m9d29qe.rcgu.o):(.sbss)
3fc8043c     8e20        4     1                 riscv_atomic_emulation_trap::atomic_emulation::S_LR_ADDR::h03d24f4d5760672a
3fc80440     8e24        0     1         . = ALIGN ( 4 )
3fc80440     8e24        0     1         _ebss = .
3fc80440     8e24        0     1 .heap
3fc80440     8e24        0     1         _sheap = .
3fc80440     8e24        0     1         . += _heap_size
3fc80440     8e24        0     1         . = ALIGN ( 4 )
3fc80440     8e24        0     1         _eheap = .
3fc80440     8e24    4fbc0     1 .stack
3fc80440     8e24        0     1         _estack = .
3fc80440     8e24    4fbc0     1         . = ABSOLUTE ( _stack_start )
3fcd0000    589e4        0     1         _sstack = .
       0        0      578     4 .eh_frame
       0        0       3c     1         /Users/mabez/.rustup/toolchains/nightly-aarch64-apple-darwin/lib/rustlib/riscv32imac-unknown-none-elf/lib/libcore-081fd8405fc18f2e.rlib(core-081fd8405fc18f2e.core.756fe54c-cgu.0.rcgu.o):(.eh_frame+0x0)
      3c       3c       30     1         /Users/mabez/.rustup/toolchains/nightly-aarch64-apple-darwin/lib/rustlib/riscv32imac-unknown-none-elf/lib/libcore-081fd8405fc18f2e.rlib(core-081fd8405fc18f2e.core.756fe54c-cgu.0.rcgu.o):(.eh_frame+0x754)
      6c       6c       18     1         /Users/mabez/.rustup/toolchains/nightly-aarch64-apple-darwin/lib/rustlib/riscv32imac-unknown-none-elf/lib/libcore-081fd8405fc18f2e.rlib(core-081fd8405fc18f2e.core.756fe54c-cgu.0.rcgu.o):(.eh_frame+0xc00)
      84       84       30     1         /Users/mabez/.rustup/toolchains/nightly-aarch64-apple-darwin/lib/rustlib/riscv32imac-unknown-none-elf/lib/libcore-081fd8405fc18f2e.rlib(core-081fd8405fc18f2e.core.756fe54c-cgu.0.rcgu.o):(.eh_frame+0xc48)
      b4       b4       18     1         /Users/mabez/.rustup/toolchains/nightly-aarch64-apple-darwin/lib/rustlib/riscv32imac-unknown-none-elf/lib/libcore-081fd8405fc18f2e.rlib(core-081fd8405fc18f2e.core.756fe54c-cgu.0.rcgu.o):(.eh_frame+0xcd4)
      cc       cc       58     1         /Users/mabez/.rustup/toolchains/nightly-aarch64-apple-darwin/lib/rustlib/riscv32imac-unknown-none-elf/lib/libcore-081fd8405fc18f2e.rlib(core-081fd8405fc18f2e.core.756fe54c-cgu.0.rcgu.o):(.eh_frame+0xd00)
     124      124       24     1         /Users/mabez/.rustup/toolchains/nightly-aarch64-apple-darwin/lib/rustlib/riscv32imac-unknown-none-elf/lib/libcore-081fd8405fc18f2e.rlib(core-081fd8405fc18f2e.core.756fe54c-cgu.0.rcgu.o):(.eh_frame+0xd94)
     148      148       74     1         /Users/mabez/.rustup/toolchains/nightly-aarch64-apple-darwin/lib/rustlib/riscv32imac-unknown-none-elf/lib/libcore-081fd8405fc18f2e.rlib(core-081fd8405fc18f2e.core.756fe54c-cgu.0.rcgu.o):(.eh_frame+0x1054)
     1bc      1bc       a0     1         /Users/mabez/.rustup/toolchains/nightly-aarch64-apple-darwin/lib/rustlib/riscv32imac-unknown-none-elf/lib/libcore-081fd8405fc18f2e.rlib(core-081fd8405fc18f2e.core.756fe54c-cgu.0.rcgu.o):(.eh_frame+0x1120)
     25c      25c       28     1         /Users/mabez/.rustup/toolchains/nightly-aarch64-apple-darwin/lib/rustlib/riscv32imac-unknown-none-elf/lib/libcore-081fd8405fc18f2e.rlib(core-081fd8405fc18f2e.core.756fe54c-cgu.0.rcgu.o):(.eh_frame+0x12fc)
     284      284       74     1         /Users/mabez/.rustup/toolchains/nightly-aarch64-apple-darwin/lib/rustlib/riscv32imac-unknown-none-elf/lib/libcore-081fd8405fc18f2e.rlib(core-081fd8405fc18f2e.core.756fe54c-cgu.0.rcgu.o):(.eh_frame+0x1418)
     2f8      2f8       48     1         /Users/mabez/.rustup/toolchains/nightly-aarch64-apple-darwin/lib/rustlib/riscv32imac-unknown-none-elf/lib/libcore-081fd8405fc18f2e.rlib(core-081fd8405fc18f2e.core.756fe54c-cgu.0.rcgu.o):(.eh_frame+0x15cc)
     340      340       18     1         /Users/mabez/.rustup/toolchains/nightly-aarch64-apple-darwin/lib/rustlib/riscv32imac-unknown-none-elf/lib/libcore-081fd8405fc18f2e.rlib(core-081fd8405fc18f2e.core.756fe54c-cgu.0.rcgu.o):(.eh_frame+0x18e0)
     358      358       18     1         /Users/mabez/.rustup/toolchains/nightly-aarch64-apple-darwin/lib/rustlib/riscv32imac-unknown-none-elf/lib/libcore-081fd8405fc18f2e.rlib(core-081fd8405fc18f2e.core.756fe54c-cgu.0.rcgu.o):(.eh_frame+0x1af8)
     370      370       40     1         /Users/mabez/.rustup/toolchains/nightly-aarch64-apple-darwin/lib/rustlib/riscv32imac-unknown-none-elf/lib/libcore-081fd8405fc18f2e.rlib(core-081fd8405fc18f2e.core.756fe54c-cgu.0.rcgu.o):(.eh_frame+0x2830)
     3b0      3b0       30     1         /Users/mabez/.rustup/toolchains/nightly-aarch64-apple-darwin/lib/rustlib/riscv32imac-unknown-none-elf/lib/libcore-081fd8405fc18f2e.rlib(core-081fd8405fc18f2e.core.756fe54c-cgu.0.rcgu.o):(.eh_frame+0x2efc)
     3e0      3e0       34     1         /Users/mabez/.rustup/toolchains/nightly-aarch64-apple-darwin/lib/rustlib/riscv32imac-unknown-none-elf/lib/libcore-081fd8405fc18f2e.rlib(core-081fd8405fc18f2e.core.756fe54c-cgu.0.rcgu.o):(.eh_frame+0x2fec)
     414      414       28     1         /Users/mabez/.rustup/toolchains/nightly-aarch64-apple-darwin/lib/rustlib/riscv32imac-unknown-none-elf/lib/libcore-081fd8405fc18f2e.rlib(core-081fd8405fc18f2e.core.756fe54c-cgu.0.rcgu.o):(.eh_frame+0x3070)
     43c      43c       14     1         /Users/mabez/.rustup/toolchains/nightly-aarch64-apple-darwin/lib/rustlib/riscv32imac-unknown-none-elf/lib/libcore-081fd8405fc18f2e.rlib(core-081fd8405fc18f2e.core.756fe54c-cgu.0.rcgu.o):(.eh_frame+0x3310)
     450      450       14     1         /Users/mabez/.rustup/toolchains/nightly-aarch64-apple-darwin/lib/rustlib/riscv32imac-unknown-none-elf/lib/libcore-081fd8405fc18f2e.rlib(core-081fd8405fc18f2e.core.756fe54c-cgu.0.rcgu.o):(.eh_frame+0x33b4)
     464      464       14     1         /Users/mabez/.rustup/toolchains/nightly-aarch64-apple-darwin/lib/rustlib/riscv32imac-unknown-none-elf/lib/libcore-081fd8405fc18f2e.rlib(core-081fd8405fc18f2e.core.756fe54c-cgu.0.rcgu.o):(.eh_frame+0x3438)
     478      478       18     1         /Users/mabez/.rustup/toolchains/nightly-aarch64-apple-darwin/lib/rustlib/riscv32imac-unknown-none-elf/lib/libcore-081fd8405fc18f2e.rlib(core-081fd8405fc18f2e.core.756fe54c-cgu.0.rcgu.o):(.eh_frame+0x34e0)
     490      490       1c     1         /Users/mabez/.rustup/toolchains/nightly-aarch64-apple-darwin/lib/rustlib/riscv32imac-unknown-none-elf/lib/libcore-081fd8405fc18f2e.rlib(core-081fd8405fc18f2e.core.756fe54c-cgu.0.rcgu.o):(.eh_frame+0x35a4)
     4ac      4ac       14     1         /Users/mabez/.rustup/toolchains/nightly-aarch64-apple-darwin/lib/rustlib/riscv32imac-unknown-none-elf/lib/libcore-081fd8405fc18f2e.rlib(core-081fd8405fc18f2e.core.756fe54c-cgu.0.rcgu.o):(.eh_frame+0x35f8)
     4c0      4c0       18     1         /Users/mabez/.rustup/toolchains/nightly-aarch64-apple-darwin/lib/rustlib/riscv32imac-unknown-none-elf/lib/libcore-081fd8405fc18f2e.rlib(core-081fd8405fc18f2e.core.756fe54c-cgu.0.rcgu.o):(.eh_frame+0x365c)
     4d8      4d8       1c     1         /Users/mabez/.rustup/toolchains/nightly-aarch64-apple-darwin/lib/rustlib/riscv32imac-unknown-none-elf/lib/libcore-081fd8405fc18f2e.rlib(core-081fd8405fc18f2e.core.756fe54c-cgu.0.rcgu.o):(.eh_frame+0x391c)
     4f4      4f4       14     1         /Users/mabez/.rustup/toolchains/nightly-aarch64-apple-darwin/lib/rustlib/riscv32imac-unknown-none-elf/lib/libcore-081fd8405fc18f2e.rlib(core-081fd8405fc18f2e.core.756fe54c-cgu.0.rcgu.o):(.eh_frame+0x3bb8)
     508      508       18     1         /Users/mabez/.rustup/toolchains/nightly-aarch64-apple-darwin/lib/rustlib/riscv32imac-unknown-none-elf/lib/libcore-081fd8405fc18f2e.rlib(core-081fd8405fc18f2e.core.756fe54c-cgu.0.rcgu.o):(.eh_frame+0x4004)
     520      520       14     1         /Users/mabez/.rustup/toolchains/nightly-aarch64-apple-darwin/lib/rustlib/riscv32imac-unknown-none-elf/lib/libcompiler_builtins-1e32d751d3fb162c.rlib(compiler_builtins-1e32d751d3fb162c.compiler_builtins.864c03ce-cgu.20.rcgu.o):(.eh_frame+0x14)
     534      534       14     1         /Users/mabez/.rustup/toolchains/nightly-aarch64-apple-darwin/lib/rustlib/riscv32imac-unknown-none-elf/lib/libcompiler_builtins-1e32d751d3fb162c.rlib(compiler_builtins-1e32d751d3fb162c.compiler_builtins.864c03ce-cgu.20.rcgu.o):(.eh_frame+0x3c)
     548      548       2c     1         /Users/mabez/Development/rust/embedded/experiments/esp32c3-experiments/target/riscv32imac-unknown-none-elf/debug/deps/libriscv_rt-792395b706c7e295.rlib(riscv-rt.o):(.eh_frame+0x0)
3fcd0000 3fcd0000        0     1 
3fcd0000 3fcd0000        0     1 
3fcd0000 3fcd0000        0     1 
3fcd0000 3fcd0000        0     1 
3fcd0000 3fcd0000        0     1 
3fcd0000 3fcd0000        0     1 
3fcd0000 3fcd0000        0     1 
3fcd0000 3fcd0000        0     1 
3fcd0000 3fcd0000        0     1 
3fcd0000 3fcd0000        0     1 
3fcd0000 3fcd0000        0     1 
3fcd0000 3fcd0000        0     1 
3fcd0000 3fcd0000        0     1 
3fcd0000 3fcd0000        0     1 
3fcd0000 3fcd0000        0     1 uart_tx_one_char = 0x40000068
3fcd0000 3fcd0000        0     1 ets_delay_us = 0x40000050
       0        0     43d7     1 .debug_abbrev
       0        0      11e     1         /Users/mabez/Development/rust/embedded/experiments/esp32c3-experiments/target/riscv32imac-unknown-none-elf/debug/deps/esp32c3-0792fe58911f872d.1e78zwiugb76rjx.rcgu.o:(.debug_abbrev)
     11e      11e       3e     1         /Users/mabez/Development/rust/embedded/experiments/esp32c3-experiments/target/riscv32imac-unknown-none-elf/debug/deps/esp32c3-0792fe58911f872d.1gcjs714mi186sn9.rcgu.o:(.debug_abbrev)
     15c      15c       c6     1         /Users/mabez/Development/rust/embedded/experiments/esp32c3-experiments/target/riscv32imac-unknown-none-elf/debug/deps/esp32c3-0792fe58911f872d.1nerp55l46tnskb3.rcgu.o:(.debug_abbrev)
     222      222       fc     1         /Users/mabez/Development/rust/embedded/experiments/esp32c3-experiments/target/riscv32imac-unknown-none-elf/debug/deps/esp32c3-0792fe58911f872d.297xt9owoyeiose3.rcgu.o:(.debug_abbrev)
     31e      31e      116     1         /Users/mabez/Development/rust/embedded/experiments/esp32c3-experiments/target/riscv32imac-unknown-none-elf/debug/deps/esp32c3-0792fe58911f872d.31cobsrxn8v7n7js.rcgu.o:(.debug_abbrev)
     434      434      1cb     1         /Users/mabez/Development/rust/embedded/experiments/esp32c3-experiments/target/riscv32imac-unknown-none-elf/debug/deps/esp32c3-0792fe58911f872d.346chqw3v9dutnx9.rcgu.o:(.debug_abbrev)
     5ff      5ff       91     1         /Users/mabez/Development/rust/embedded/experiments/esp32c3-experiments/target/riscv32imac-unknown-none-elf/debug/deps/esp32c3-0792fe58911f872d.3xtnx60qzz8qc3n4.rcgu.o:(.debug_abbrev)
     690      690       96     1         /Users/mabez/Development/rust/embedded/experiments/esp32c3-experiments/target/riscv32imac-unknown-none-elf/debug/deps/esp32c3-0792fe58911f872d.4iv9b3d8r40y3mky.rcgu.o:(.debug_abbrev)
     726      726       7a     1         /Users/mabez/Development/rust/embedded/experiments/esp32c3-experiments/target/riscv32imac-unknown-none-elf/debug/deps/esp32c3-0792fe58911f872d.4kaxk1bfd3ykn70p.rcgu.o:(.debug_abbrev)
     7a0      7a0       e8     1         /Users/mabez/Development/rust/embedded/experiments/esp32c3-experiments/target/riscv32imac-unknown-none-elf/debug/deps/esp32c3-0792fe58911f872d.4mcsimr84tlfxm5.rcgu.o:(.debug_abbrev)
     888      888       dd     1         /Users/mabez/Development/rust/embedded/experiments/esp32c3-experiments/target/riscv32imac-unknown-none-elf/debug/deps/esp32c3-0792fe58911f872d.4zdnir3iq20zjvph.rcgu.o:(.debug_abbrev)
     965      965      105     1         /Users/mabez/Development/rust/embedded/experiments/esp32c3-experiments/target/riscv32imac-unknown-none-elf/debug/deps/esp32c3-0792fe58911f872d.52qxoexx5thxmllb.rcgu.o:(.debug_abbrev)
     a6a      a6a       fc     1         /Users/mabez/Development/rust/embedded/experiments/esp32c3-experiments/target/riscv32imac-unknown-none-elf/debug/deps/esp32c3-0792fe58911f872d.rcp7xlzvmfzbh1y.rcgu.o:(.debug_abbrev)
     b66      b66       72     1         /Users/mabez/Development/rust/embedded/experiments/esp32c3-experiments/target/riscv32imac-unknown-none-elf/debug/deps/esp32c3-0792fe58911f872d.zm6375jlykl6cny.rcgu.o:(.debug_abbrev)
     bd8      bd8      22f     1         /Users/mabez/Development/rust/embedded/experiments/esp32c3-experiments/target/riscv32imac-unknown-none-elf/debug/deps/librtt_target-c8a503ffaa8773f6.rlib(rtt_target-c8a503ffaa8773f6.rtt_target.49ad93cd-cgu.0.rcgu.o):(.debug_abbrev)
     e07      e07       91     1         /Users/mabez/Development/rust/embedded/experiments/esp32c3-experiments/target/riscv32imac-unknown-none-elf/debug/deps/librtt_target-c8a503ffaa8773f6.rlib(rtt_target-c8a503ffaa8773f6.rtt_target.49ad93cd-cgu.1.rcgu.o):(.debug_abbrev)
     e98      e98       87     1         /Users/mabez/Development/rust/embedded/experiments/esp32c3-experiments/target/riscv32imac-unknown-none-elf/debug/deps/librtt_target-c8a503ffaa8773f6.rlib(rtt_target-c8a503ffaa8773f6.rtt_target.49ad93cd-cgu.10.rcgu.o):(.debug_abbrev)
     f1f      f1f       d8     1         /Users/mabez/Development/rust/embedded/experiments/esp32c3-experiments/target/riscv32imac-unknown-none-elf/debug/deps/librtt_target-c8a503ffaa8773f6.rlib(rtt_target-c8a503ffaa8773f6.rtt_target.49ad93cd-cgu.11.rcgu.o):(.debug_abbrev)
     ff7      ff7       df     1         /Users/mabez/Development/rust/embedded/experiments/esp32c3-experiments/target/riscv32imac-unknown-none-elf/debug/deps/librtt_target-c8a503ffaa8773f6.rlib(rtt_target-c8a503ffaa8773f6.rtt_target.49ad93cd-cgu.12.rcgu.o):(.debug_abbrev)
    10d6     10d6       dc     1         /Users/mabez/Development/rust/embedded/experiments/esp32c3-experiments/target/riscv32imac-unknown-none-elf/debug/deps/librtt_target-c8a503ffaa8773f6.rlib(rtt_target-c8a503ffaa8773f6.rtt_target.49ad93cd-cgu.14.rcgu.o):(.debug_abbrev)
    11b2     11b2       e7     1         /Users/mabez/Development/rust/embedded/experiments/esp32c3-experiments/target/riscv32imac-unknown-none-elf/debug/deps/librtt_target-c8a503ffaa8773f6.rlib(rtt_target-c8a503ffaa8773f6.rtt_target.49ad93cd-cgu.15.rcgu.o):(.debug_abbrev)
    1299     1299      227     1         /Users/mabez/Development/rust/embedded/experiments/esp32c3-experiments/target/riscv32imac-unknown-none-elf/debug/deps/librtt_target-c8a503ffaa8773f6.rlib(rtt_target-c8a503ffaa8773f6.rtt_target.49ad93cd-cgu.2.rcgu.o):(.debug_abbrev)
    14c0     14c0      112     1         /Users/mabez/Development/rust/embedded/experiments/esp32c3-experiments/target/riscv32imac-unknown-none-elf/debug/deps/librtt_target-c8a503ffaa8773f6.rlib(rtt_target-c8a503ffaa8773f6.rtt_target.49ad93cd-cgu.3.rcgu.o):(.debug_abbrev)
    15d2     15d2       96     1         /Users/mabez/Development/rust/embedded/experiments/esp32c3-experiments/target/riscv32imac-unknown-none-elf/debug/deps/librtt_target-c8a503ffaa8773f6.rlib(rtt_target-c8a503ffaa8773f6.rtt_target.49ad93cd-cgu.13.rcgu.o):(.debug_abbrev)
    1668     1668       b3     1         /Users/mabez/Development/rust/embedded/experiments/esp32c3-experiments/target/riscv32imac-unknown-none-elf/debug/deps/librtt_target-c8a503ffaa8773f6.rlib(rtt_target-c8a503ffaa8773f6.rtt_target.49ad93cd-cgu.4.rcgu.o):(.debug_abbrev)
    171b     171b      14f     1         /Users/mabez/Development/rust/embedded/experiments/esp32c3-experiments/target/riscv32imac-unknown-none-elf/debug/deps/librtt_target-c8a503ffaa8773f6.rlib(rtt_target-c8a503ffaa8773f6.rtt_target.49ad93cd-cgu.5.rcgu.o):(.debug_abbrev)
    186a     186a       fc     1         /Users/mabez/Development/rust/embedded/experiments/esp32c3-experiments/target/riscv32imac-unknown-none-elf/debug/deps/librtt_target-c8a503ffaa8773f6.rlib(rtt_target-c8a503ffaa8773f6.rtt_target.49ad93cd-cgu.6.rcgu.o):(.debug_abbrev)
    1966     1966       8e     1         /Users/mabez/Development/rust/embedded/experiments/esp32c3-experiments/target/riscv32imac-unknown-none-elf/debug/deps/librtt_target-c8a503ffaa8773f6.rlib(rtt_target-c8a503ffaa8773f6.rtt_target.49ad93cd-cgu.7.rcgu.o):(.debug_abbrev)
    19f4     19f4      100     1         /Users/mabez/Development/rust/embedded/experiments/esp32c3-experiments/target/riscv32imac-unknown-none-elf/debug/deps/librtt_target-c8a503ffaa8773f6.rlib(rtt_target-c8a503ffaa8773f6.rtt_target.49ad93cd-cgu.8.rcgu.o):(.debug_abbrev)
    1af4     1af4       88     1         /Users/mabez/Development/rust/embedded/experiments/esp32c3-experiments/target/riscv32imac-unknown-none-elf/debug/deps/librtt_target-c8a503ffaa8773f6.rlib(rtt_target-c8a503ffaa8773f6.rtt_target.49ad93cd-cgu.9.rcgu.o):(.debug_abbrev)
    1b7c     1b7c      10e     1         /Users/mabez/Development/rust/embedded/experiments/esp32c3-experiments/target/riscv32imac-unknown-none-elf/debug/deps/libesp32c3_lib-9b353d7564fdb320.rlib(esp32c3_lib-9b353d7564fdb320.4sht8tb4vhhjrf1k.rcgu.o):(.debug_abbrev)
    1c8a     1c8a       74     1         /Users/mabez/Development/rust/embedded/experiments/esp32c3-experiments/target/riscv32imac-unknown-none-elf/debug/deps/libesp32c3_lib-9b353d7564fdb320.rlib(esp32c3_lib-9b353d7564fdb320.5etuwwf3di4agecu.rcgu.o):(.debug_abbrev)
    1cfe     1cfe      13d     1         /Users/mabez/Development/rust/embedded/experiments/esp32c3-experiments/target/riscv32imac-unknown-none-elf/debug/deps/libesp32c3_lib-9b353d7564fdb320.rlib(esp32c3_lib-9b353d7564fdb320.l5295fvly9urzze.rcgu.o):(.debug_abbrev)
    1e3b     1e3b       7b     1         /Users/mabez/Development/rust/embedded/experiments/esp32c3-experiments/target/riscv32imac-unknown-none-elf/debug/deps/libesp32c3_lib-9b353d7564fdb320.rlib(esp32c3_lib-9b353d7564fdb320.1021wqjltvlv5j9j.rcgu.o):(.debug_abbrev)
    1eb6     1eb6       85     1         /Users/mabez/Development/rust/embedded/experiments/esp32c3-experiments/target/riscv32imac-unknown-none-elf/debug/deps/libesp32c3_lib-9b353d7564fdb320.rlib(esp32c3_lib-9b353d7564fdb320.4egfjjip1nd9anee.rcgu.o):(.debug_abbrev)
    1f3b     1f3b       9f     1         /Users/mabez/Development/rust/embedded/experiments/esp32c3-experiments/target/riscv32imac-unknown-none-elf/debug/deps/libesp32c3_lib-9b353d7564fdb320.rlib(esp32c3_lib-9b353d7564fdb320.32gpmocjzndmv0ky.rcgu.o):(.debug_abbrev)
    1fda     1fda       85     1         /Users/mabez/Development/rust/embedded/experiments/esp32c3-experiments/target/riscv32imac-unknown-none-elf/debug/deps/libesp32c3_lib-9b353d7564fdb320.rlib(esp32c3_lib-9b353d7564fdb320.47yjv4rnqkji4yx9.rcgu.o):(.debug_abbrev)
    205f     205f       58     1         /Users/mabez/Development/rust/embedded/experiments/esp32c3-experiments/target/riscv32imac-unknown-none-elf/debug/deps/libbare_metal-82dbc08a019da008.rlib(bare_metal-82dbc08a019da008.bare_metal.233bcc8d-cgu.0.rcgu.o):(.debug_abbrev)
    20b7     20b7      139     1         /Users/mabez/Development/rust/embedded/experiments/esp32c3-experiments/target/riscv32imac-unknown-none-elf/debug/deps/libvoid-d8bfa8eb72c6fce6.rlib(void-d8bfa8eb72c6fce6.void.0c48974b-cgu.0.rcgu.o):(.debug_abbrev)
    21f0     21f0      224     1         /Users/mabez/.rustup/toolchains/nightly-aarch64-apple-darwin/lib/rustlib/riscv32imac-unknown-none-elf/lib/libcore-081fd8405fc18f2e.rlib(core-081fd8405fc18f2e.core.756fe54c-cgu.0.rcgu.o):(.debug_abbrev)
    2414     2414       8f     1         /Users/mabez/.rustup/toolchains/nightly-aarch64-apple-darwin/lib/rustlib/riscv32imac-unknown-none-elf/lib/libcompiler_builtins-1e32d751d3fb162c.rlib(compiler_builtins-1e32d751d3fb162c.compiler_builtins.864c03ce-cgu.104.rcgu.o):(.debug_abbrev)
    24a3     24a3       c0     1         /Users/mabez/.rustup/toolchains/nightly-aarch64-apple-darwin/lib/rustlib/riscv32imac-unknown-none-elf/lib/libcompiler_builtins-1e32d751d3fb162c.rlib(compiler_builtins-1e32d751d3fb162c.compiler_builtins.864c03ce-cgu.106.rcgu.o):(.debug_abbrev)
    2563     2563       b5     1         /Users/mabez/.rustup/toolchains/nightly-aarch64-apple-darwin/lib/rustlib/riscv32imac-unknown-none-elf/lib/libcompiler_builtins-1e32d751d3fb162c.rlib(compiler_builtins-1e32d751d3fb162c.compiler_builtins.864c03ce-cgu.11.rcgu.o):(.debug_abbrev)
    2618     2618       ed     1         /Users/mabez/.rustup/toolchains/nightly-aarch64-apple-darwin/lib/rustlib/riscv32imac-unknown-none-elf/lib/libcompiler_builtins-1e32d751d3fb162c.rlib(compiler_builtins-1e32d751d3fb162c.compiler_builtins.864c03ce-cgu.111.rcgu.o):(.debug_abbrev)
    2705     2705       8f     1         /Users/mabez/.rustup/toolchains/nightly-aarch64-apple-darwin/lib/rustlib/riscv32imac-unknown-none-elf/lib/libcompiler_builtins-1e32d751d3fb162c.rlib(compiler_builtins-1e32d751d3fb162c.compiler_builtins.864c03ce-cgu.2.rcgu.o):(.debug_abbrev)
    2794     2794       aa     1         /Users/mabez/.rustup/toolchains/nightly-aarch64-apple-darwin/lib/rustlib/riscv32imac-unknown-none-elf/lib/libcompiler_builtins-1e32d751d3fb162c.rlib(compiler_builtins-1e32d751d3fb162c.compiler_builtins.864c03ce-cgu.20.rcgu.o):(.debug_abbrev)
    283e     283e       53     1         /Users/mabez/.rustup/toolchains/nightly-aarch64-apple-darwin/lib/rustlib/riscv32imac-unknown-none-elf/lib/libcompiler_builtins-1e32d751d3fb162c.rlib(compiler_builtins-1e32d751d3fb162c.compiler_builtins.864c03ce-cgu.21.rcgu.o):(.debug_abbrev)
    2891     2891       c2     1         /Users/mabez/.rustup/toolchains/nightly-aarch64-apple-darwin/lib/rustlib/riscv32imac-unknown-none-elf/lib/libcompiler_builtins-1e32d751d3fb162c.rlib(compiler_builtins-1e32d751d3fb162c.compiler_builtins.864c03ce-cgu.27.rcgu.o):(.debug_abbrev)
    2953     2953       53     1         /Users/mabez/.rustup/toolchains/nightly-aarch64-apple-darwin/lib/rustlib/riscv32imac-unknown-none-elf/lib/libcompiler_builtins-1e32d751d3fb162c.rlib(compiler_builtins-1e32d751d3fb162c.compiler_builtins.864c03ce-cgu.28.rcgu.o):(.debug_abbrev)
    29a6     29a6       8f     1         /Users/mabez/.rustup/toolchains/nightly-aarch64-apple-darwin/lib/rustlib/riscv32imac-unknown-none-elf/lib/libcompiler_builtins-1e32d751d3fb162c.rlib(compiler_builtins-1e32d751d3fb162c.compiler_builtins.864c03ce-cgu.69.rcgu.o):(.debug_abbrev)
    2a35     2a35       e2     1         /Users/mabez/.rustup/toolchains/nightly-aarch64-apple-darwin/lib/rustlib/riscv32imac-unknown-none-elf/lib/libcompiler_builtins-1e32d751d3fb162c.rlib(compiler_builtins-1e32d751d3fb162c.compiler_builtins.864c03ce-cgu.7.rcgu.o):(.debug_abbrev)
    2b17     2b17       53     1         /Users/mabez/.rustup/toolchains/nightly-aarch64-apple-darwin/lib/rustlib/riscv32imac-unknown-none-elf/lib/libcompiler_builtins-1e32d751d3fb162c.rlib(compiler_builtins-1e32d751d3fb162c.compiler_builtins.864c03ce-cgu.70.rcgu.o):(.debug_abbrev)
    2b6a     2b6a       8f     1         /Users/mabez/.rustup/toolchains/nightly-aarch64-apple-darwin/lib/rustlib/riscv32imac-unknown-none-elf/lib/libcompiler_builtins-1e32d751d3fb162c.rlib(compiler_builtins-1e32d751d3fb162c.compiler_builtins.864c03ce-cgu.71.rcgu.o):(.debug_abbrev)
    2bf9     2bf9       8f     1         /Users/mabez/.rustup/toolchains/nightly-aarch64-apple-darwin/lib/rustlib/riscv32imac-unknown-none-elf/lib/libcompiler_builtins-1e32d751d3fb162c.rlib(compiler_builtins-1e32d751d3fb162c.compiler_builtins.864c03ce-cgu.79.rcgu.o):(.debug_abbrev)
    2c88     2c88       c0     1         /Users/mabez/.rustup/toolchains/nightly-aarch64-apple-darwin/lib/rustlib/riscv32imac-unknown-none-elf/lib/libcompiler_builtins-1e32d751d3fb162c.rlib(compiler_builtins-1e32d751d3fb162c.compiler_builtins.864c03ce-cgu.8.rcgu.o):(.debug_abbrev)
    2d48     2d48       91     1         /Users/mabez/.rustup/toolchains/nightly-aarch64-apple-darwin/lib/rustlib/riscv32imac-unknown-none-elf/lib/libcompiler_builtins-1e32d751d3fb162c.rlib(compiler_builtins-1e32d751d3fb162c.compiler_builtins.864c03ce-cgu.82.rcgu.o):(.debug_abbrev)
    2dd9     2dd9       c2     1         /Users/mabez/.rustup/toolchains/nightly-aarch64-apple-darwin/lib/rustlib/riscv32imac-unknown-none-elf/lib/libcompiler_builtins-1e32d751d3fb162c.rlib(compiler_builtins-1e32d751d3fb162c.compiler_builtins.864c03ce-cgu.120.rcgu.o):(.debug_abbrev)
    2e9b     2e9b       8f     1         /Users/mabez/.rustup/toolchains/nightly-aarch64-apple-darwin/lib/rustlib/riscv32imac-unknown-none-elf/lib/libcompiler_builtins-1e32d751d3fb162c.rlib(compiler_builtins-1e32d751d3fb162c.compiler_builtins.864c03ce-cgu.92.rcgu.o):(.debug_abbrev)
    2f2a     2f2a      1b8     1         /Users/mabez/Development/rust/embedded/experiments/esp32c3-experiments/target/riscv32imac-unknown-none-elf/debug/deps/libriscv_rt-792395b706c7e295.rlib(riscv_rt-792395b706c7e295.n23zmh27zi56vj2.rcgu.o):(.debug_abbrev)
    30e2     30e2       b9     1         /Users/mabez/Development/rust/embedded/experiments/esp32c3-experiments/target/riscv32imac-unknown-none-elf/debug/deps/libriscv_rt-792395b706c7e295.rlib(riscv_rt-792395b706c7e295.2si3iiyx4w55gh9p.rcgu.o):(.debug_abbrev)
    319b     319b       e8     1         /Users/mabez/Development/rust/embedded/experiments/esp32c3-experiments/target/riscv32imac-unknown-none-elf/debug/deps/libriscv_rt-792395b706c7e295.rlib(riscv_rt-792395b706c7e295.nu58l7xx5z184oa.rcgu.o):(.debug_abbrev)
    3283     3283       5f     1         /Users/mabez/Development/rust/embedded/experiments/esp32c3-experiments/target/riscv32imac-unknown-none-elf/debug/deps/libriscv_rt-792395b706c7e295.rlib(riscv_rt-792395b706c7e295.40ecbdq24jylbsk0.rcgu.o):(.debug_abbrev)
    32e2     32e2       d4     1         /Users/mabez/Development/rust/embedded/experiments/esp32c3-experiments/target/riscv32imac-unknown-none-elf/debug/deps/libriscv_rt-792395b706c7e295.rlib(riscv_rt-792395b706c7e295.4l8nnv0gz5uboi7y.rcgu.o):(.debug_abbrev)
    33b6     33b6       87     1         /Users/mabez/Development/rust/embedded/experiments/esp32c3-experiments/target/riscv32imac-unknown-none-elf/debug/deps/libriscv_rt-792395b706c7e295.rlib(riscv_rt-792395b706c7e295.a1pdmtq419pk4l9.rcgu.o):(.debug_abbrev)
    343d     343d      12d     1         /Users/mabez/Development/rust/embedded/experiments/esp32c3-experiments/target/riscv32imac-unknown-none-elf/debug/deps/libriscv-58bee4c49f9f92ec.rlib(riscv-58bee4c49f9f92ec.riscv.8be94b29-cgu.0.rcgu.o):(.debug_abbrev)
    356a     356a      146     1         /Users/mabez/Development/rust/embedded/experiments/esp32c3-experiments/target/riscv32imac-unknown-none-elf/debug/deps/libriscv-58bee4c49f9f92ec.rlib(riscv-58bee4c49f9f92ec.riscv.8be94b29-cgu.9.rcgu.o):(.debug_abbrev)
    36b0     36b0       dd     1         /Users/mabez/Development/rust/embedded/experiments/esp32c3-experiments/target/riscv32imac-unknown-none-elf/debug/deps/libriscv-58bee4c49f9f92ec.rlib(riscv-58bee4c49f9f92ec.riscv.8be94b29-cgu.4.rcgu.o):(.debug_abbrev)
    378d     378d       3e     1         /Users/mabez/Development/rust/embedded/experiments/esp32c3-experiments/target/riscv32imac-unknown-none-elf/debug/deps/libriscv_rt-792395b706c7e295.rlib(riscv_rt-792395b706c7e295.2fig4fon7wqsswts.rcgu.o):(.debug_abbrev)
    37cb     37cb       31     1         /Users/mabez/Development/rust/embedded/experiments/esp32c3-experiments/target/riscv32imac-unknown-none-elf/debug/deps/libriscv_rt-792395b706c7e295.rlib(riscv_rt-792395b706c7e295.53lukflzfjg86k6f.rcgu.o):(.debug_abbrev)
    37fc     37fc       5d     1         /Users/mabez/Development/rust/embedded/experiments/esp32c3-experiments/target/riscv32imac-unknown-none-elf/debug/deps/libriscv_rt-792395b706c7e295.rlib(riscv_rt-792395b706c7e295.2h85xx65g8aqsgk3.rcgu.o):(.debug_abbrev)
    3859     3859       12     1         /Users/mabez/Development/rust/embedded/experiments/esp32c3-experiments/target/riscv32imac-unknown-none-elf/debug/deps/libriscv_rt-792395b706c7e295.rlib(riscv-rt.o):(.debug_abbrev)
    386b     386b       14     1         /Users/mabez/Development/rust/embedded/experiments/esp32c3-experiments/target/riscv32imac-unknown-none-elf/debug/deps/libriscv_atomic_emulation_trap-36c6147cf3a7da2f.rlib(riscv-atomic-emulation-trap.o):(.debug_abbrev)
    387f     387f      153     1         /Users/mabez/Development/rust/embedded/experiments/esp32c3-experiments/target/riscv32imac-unknown-none-elf/debug/deps/libriscv_atomic_emulation_trap-36c6147cf3a7da2f.rlib(riscv_atomic_emulation_trap-36c6147cf3a7da2f.192heijy3m9d29qe.rcgu.o):(.debug_abbrev)
    39d2     39d2       8e     1         /Users/mabez/Development/rust/embedded/experiments/esp32c3-experiments/target/riscv32imac-unknown-none-elf/debug/deps/libriscv_atomic_emulation_trap-36c6147cf3a7da2f.rlib(riscv_atomic_emulation_trap-36c6147cf3a7da2f.4wwaujsdloo4dvp5.rcgu.o):(.debug_abbrev)
    3a60     3a60       7b     1         /Users/mabez/Development/rust/embedded/experiments/esp32c3-experiments/target/riscv32imac-unknown-none-elf/debug/deps/libriscv_atomic_emulation_trap-36c6147cf3a7da2f.rlib(riscv_atomic_emulation_trap-36c6147cf3a7da2f.1mk8bwfvrfakb4yc.rcgu.o):(.debug_abbrev)
    3adb     3adb       96     1         /Users/mabez/Development/rust/embedded/experiments/esp32c3-experiments/target/riscv32imac-unknown-none-elf/debug/deps/libriscv_atomic_emulation_trap-36c6147cf3a7da2f.rlib(riscv_atomic_emulation_trap-36c6147cf3a7da2f.3grzare3werdor3q.rcgu.o):(.debug_abbrev)
    3b71     3b71       71     1         /Users/mabez/Development/rust/embedded/experiments/esp32c3-experiments/target/riscv32imac-unknown-none-elf/debug/deps/libriscv_atomic_emulation_trap-36c6147cf3a7da2f.rlib(riscv_atomic_emulation_trap-36c6147cf3a7da2f.4l7k26w2j1wwfghy.rcgu.o):(.debug_abbrev)
    3be2     3be2       88     1         /Users/mabez/Development/rust/embedded/experiments/esp32c3-experiments/target/riscv32imac-unknown-none-elf/debug/deps/libriscv_atomic_emulation_trap-36c6147cf3a7da2f.rlib(riscv_atomic_emulation_trap-36c6147cf3a7da2f.be49seve1qmvobv.rcgu.o):(.debug_abbrev)
    3c6a     3c6a       b3     1         /Users/mabez/Development/rust/embedded/experiments/esp32c3-experiments/target/riscv32imac-unknown-none-elf/debug/deps/libriscv_atomic_emulation_trap-36c6147cf3a7da2f.rlib(riscv_atomic_emulation_trap-36c6147cf3a7da2f.431el3q0783r85py.rcgu.o):(.debug_abbrev)
    3d1d     3d1d       71     1         /Users/mabez/Development/rust/embedded/experiments/esp32c3-experiments/target/riscv32imac-unknown-none-elf/debug/deps/libriscv_atomic_emulation_trap-36c6147cf3a7da2f.rlib(riscv_atomic_emulation_trap-36c6147cf3a7da2f.4q0r5d249n6epd3q.rcgu.o):(.debug_abbrev)
    3d8e     3d8e       bc     1         /Users/mabez/Development/rust/embedded/experiments/esp32c3-experiments/target/riscv32imac-unknown-none-elf/debug/deps/libriscv_atomic_emulation_trap-36c6147cf3a7da2f.rlib(riscv_atomic_emulation_trap-36c6147cf3a7da2f.4z6enr9b9fac5dau.rcgu.o):(.debug_abbrev)
    3e4a     3e4a      12d     1         /Users/mabez/Development/rust/embedded/experiments/esp32c3-experiments/target/riscv32imac-unknown-none-elf/debug/deps/libriscv-e6570dc03e37c02b.rlib(riscv-e6570dc03e37c02b.riscv.6a3f384f-cgu.0.rcgu.o):(.debug_abbrev)
    3f77     3f77      122     1         /Users/mabez/Development/rust/embedded/experiments/esp32c3-experiments/target/riscv32imac-unknown-none-elf/debug/deps/libriscv-e6570dc03e37c02b.rlib(riscv-e6570dc03e37c02b.riscv.6a3f384f-cgu.10.rcgu.o):(.debug_abbrev)
    4099     4099      13b     1         /Users/mabez/Development/rust/embedded/experiments/esp32c3-experiments/target/riscv32imac-unknown-none-elf/debug/deps/libriscv-e6570dc03e37c02b.rlib(riscv-e6570dc03e37c02b.riscv.6a3f384f-cgu.8.rcgu.o):(.debug_abbrev)
    41d4     41d4       dd     1         /Users/mabez/Development/rust/embedded/experiments/esp32c3-experiments/target/riscv32imac-unknown-none-elf/debug/deps/libriscv-e6570dc03e37c02b.rlib(riscv-e6570dc03e37c02b.riscv.6a3f384f-cgu.4.rcgu.o):(.debug_abbrev)
    42b1     42b1      126     1         /Users/mabez/Development/rust/embedded/experiments/esp32c3-experiments/target/riscv32imac-unknown-none-elf/debug/deps/libriscv-e6570dc03e37c02b.rlib(riscv-e6570dc03e37c02b.riscv.6a3f384f-cgu.11.rcgu.o):(.debug_abbrev)
       0        0    2f859     1 .debug_info
       0        0      2df     1         /Users/mabez/Development/rust/embedded/experiments/esp32c3-experiments/target/riscv32imac-unknown-none-elf/debug/deps/esp32c3-0792fe58911f872d.1e78zwiugb76rjx.rcgu.o:(.debug_info)
       0        0        0     1                 
     2df      2df       72     1         /Users/mabez/Development/rust/embedded/experiments/esp32c3-experiments/target/riscv32imac-unknown-none-elf/debug/deps/esp32c3-0792fe58911f872d.1gcjs714mi186sn9.rcgu.o:(.debug_info)
     2df      2df        0     1                 
     351      351      1f8     1         /Users/mabez/Development/rust/embedded/experiments/esp32c3-experiments/target/riscv32imac-unknown-none-elf/debug/deps/esp32c3-0792fe58911f872d.1nerp55l46tnskb3.rcgu.o:(.debug_info)
     351      351        0     1                 
     549      549      4e4     1         /Users/mabez/Development/rust/embedded/experiments/esp32c3-experiments/target/riscv32imac-unknown-none-elf/debug/deps/esp32c3-0792fe58911f872d.297xt9owoyeiose3.rcgu.o:(.debug_info)
     549      549        0     1                 
     a2d      a2d      58e     1         /Users/mabez/Development/rust/embedded/experiments/esp32c3-experiments/target/riscv32imac-unknown-none-elf/debug/deps/esp32c3-0792fe58911f872d.31cobsrxn8v7n7js.rcgu.o:(.debug_info)
     a2d      a2d        0     1                 
     fbb      fbb      b8b     1         /Users/mabez/Development/rust/embedded/experiments/esp32c3-experiments/target/riscv32imac-unknown-none-elf/debug/deps/esp32c3-0792fe58911f872d.346chqw3v9dutnx9.rcgu.o:(.debug_info)
     fbb      fbb        0     1                 
    1b46     1b46      27d     1         /Users/mabez/Development/rust/embedded/experiments/esp32c3-experiments/target/riscv32imac-unknown-none-elf/debug/deps/esp32c3-0792fe58911f872d.3xtnx60qzz8qc3n4.rcgu.o:(.debug_info)
    1b46     1b46        0     1                 
    1dc3     1dc3      1d8     1         /Users/mabez/Development/rust/embedded/experiments/esp32c3-experiments/target/riscv32imac-unknown-none-elf/debug/deps/esp32c3-0792fe58911f872d.4iv9b3d8r40y3mky.rcgu.o:(.debug_info)
    1dc3     1dc3        0     1                 
    1f9b     1f9b      185     1         /Users/mabez/Development/rust/embedded/experiments/esp32c3-experiments/target/riscv32imac-unknown-none-elf/debug/deps/esp32c3-0792fe58911f872d.4kaxk1bfd3ykn70p.rcgu.o:(.debug_info)
    1f9b     1f9b        0     1                 
    2120     2120      28d     1         /Users/mabez/Development/rust/embedded/experiments/esp32c3-experiments/target/riscv32imac-unknown-none-elf/debug/deps/esp32c3-0792fe58911f872d.4mcsimr84tlfxm5.rcgu.o:(.debug_info)
    2120     2120        0     1                 
    23ad     23ad      1f3     1         /Users/mabez/Development/rust/embedded/experiments/esp32c3-experiments/target/riscv32imac-unknown-none-elf/debug/deps/esp32c3-0792fe58911f872d.4zdnir3iq20zjvph.rcgu.o:(.debug_info)
    23ad     23ad        0     1                 
    25a0     25a0      69a     1         /Users/mabez/Development/rust/embedded/experiments/esp32c3-experiments/target/riscv32imac-unknown-none-elf/debug/deps/esp32c3-0792fe58911f872d.52qxoexx5thxmllb.rcgu.o:(.debug_info)
    25a0     25a0        0     1                 
    2c3a     2c3a      549     1         /Users/mabez/Development/rust/embedded/experiments/esp32c3-experiments/target/riscv32imac-unknown-none-elf/debug/deps/esp32c3-0792fe58911f872d.rcp7xlzvmfzbh1y.rcgu.o:(.debug_info)
    2c3a     2c3a        0     1                 
    3183     3183       b8     1         /Users/mabez/Development/rust/embedded/experiments/esp32c3-experiments/target/riscv32imac-unknown-none-elf/debug/deps/esp32c3-0792fe58911f872d.zm6375jlykl6cny.rcgu.o:(.debug_info)
    3183     3183        0     1                 
    323b     323b      d84     1         /Users/mabez/Development/rust/embedded/experiments/esp32c3-experiments/target/riscv32imac-unknown-none-elf/debug/deps/librtt_target-c8a503ffaa8773f6.rlib(rtt_target-c8a503ffaa8773f6.rtt_target.49ad93cd-cgu.0.rcgu.o):(.debug_info)
    323b     323b        0     1                 
    3fbf     3fbf      27d     1         /Users/mabez/Development/rust/embedded/experiments/esp32c3-experiments/target/riscv32imac-unknown-none-elf/debug/deps/librtt_target-c8a503ffaa8773f6.rlib(rtt_target-c8a503ffaa8773f6.rtt_target.49ad93cd-cgu.1.rcgu.o):(.debug_info)
    3fbf     3fbf        0     1                 
    423c     423c      207     1         /Users/mabez/Development/rust/embedded/experiments/esp32c3-experiments/target/riscv32imac-unknown-none-elf/debug/deps/librtt_target-c8a503ffaa8773f6.rlib(rtt_target-c8a503ffaa8773f6.rtt_target.49ad93cd-cgu.10.rcgu.o):(.debug_info)
    423c     423c        0     1                 
    4443     4443      1fc     1         /Users/mabez/Development/rust/embedded/experiments/esp32c3-experiments/target/riscv32imac-unknown-none-elf/debug/deps/librtt_target-c8a503ffaa8773f6.rlib(rtt_target-c8a503ffaa8773f6.rtt_target.49ad93cd-cgu.11.rcgu.o):(.debug_info)
    4443     4443        0     1                 
    463f     463f      3a2     1         /Users/mabez/Development/rust/embedded/experiments/esp32c3-experiments/target/riscv32imac-unknown-none-elf/debug/deps/librtt_target-c8a503ffaa8773f6.rlib(rtt_target-c8a503ffaa8773f6.rtt_target.49ad93cd-cgu.12.rcgu.o):(.debug_info)
    463f     463f        0     1                 
    49e1     49e1      1e0     1         /Users/mabez/Development/rust/embedded/experiments/esp32c3-experiments/target/riscv32imac-unknown-none-elf/debug/deps/librtt_target-c8a503ffaa8773f6.rlib(rtt_target-c8a503ffaa8773f6.rtt_target.49ad93cd-cgu.14.rcgu.o):(.debug_info)
    49e1     49e1        0     1                 
    4bc1     4bc1      2a2     1         /Users/mabez/Development/rust/embedded/experiments/esp32c3-experiments/target/riscv32imac-unknown-none-elf/debug/deps/librtt_target-c8a503ffaa8773f6.rlib(rtt_target-c8a503ffaa8773f6.rtt_target.49ad93cd-cgu.15.rcgu.o):(.debug_info)
    4bc1     4bc1        0     1                 
    4e63     4e63      f39     1         /Users/mabez/Development/rust/embedded/experiments/esp32c3-experiments/target/riscv32imac-unknown-none-elf/debug/deps/librtt_target-c8a503ffaa8773f6.rlib(rtt_target-c8a503ffaa8773f6.rtt_target.49ad93cd-cgu.2.rcgu.o):(.debug_info)
    4e63     4e63        0     1                 
    5d9c     5d9c      566     1         /Users/mabez/Development/rust/embedded/experiments/esp32c3-experiments/target/riscv32imac-unknown-none-elf/debug/deps/librtt_target-c8a503ffaa8773f6.rlib(rtt_target-c8a503ffaa8773f6.rtt_target.49ad93cd-cgu.3.rcgu.o):(.debug_info)
    5d9c     5d9c        0     1                 
    6302     6302      173     1         /Users/mabez/Development/rust/embedded/experiments/esp32c3-experiments/target/riscv32imac-unknown-none-elf/debug/deps/librtt_target-c8a503ffaa8773f6.rlib(rtt_target-c8a503ffaa8773f6.rtt_target.49ad93cd-cgu.13.rcgu.o):(.debug_info)
    6302     6302        0     1                 
    6475     6475      3ca     1         /Users/mabez/Development/rust/embedded/experiments/esp32c3-experiments/target/riscv32imac-unknown-none-elf/debug/deps/librtt_target-c8a503ffaa8773f6.rlib(rtt_target-c8a503ffaa8773f6.rtt_target.49ad93cd-cgu.4.rcgu.o):(.debug_info)
    6475     6475        0     1                 
    683f     683f      8fe     1         /Users/mabez/Development/rust/embedded/experiments/esp32c3-experiments/target/riscv32imac-unknown-none-elf/debug/deps/librtt_target-c8a503ffaa8773f6.rlib(rtt_target-c8a503ffaa8773f6.rtt_target.49ad93cd-cgu.5.rcgu.o):(.debug_info)
    683f     683f        0     1                 
    713d     713d      4ff     1         /Users/mabez/Development/rust/embedded/experiments/esp32c3-experiments/target/riscv32imac-unknown-none-elf/debug/deps/librtt_target-c8a503ffaa8773f6.rlib(rtt_target-c8a503ffaa8773f6.rtt_target.49ad93cd-cgu.6.rcgu.o):(.debug_info)
    713d     713d        0     1                 
    763c     763c      31c     1         /Users/mabez/Development/rust/embedded/experiments/esp32c3-experiments/target/riscv32imac-unknown-none-elf/debug/deps/librtt_target-c8a503ffaa8773f6.rlib(rtt_target-c8a503ffaa8773f6.rtt_target.49ad93cd-cgu.7.rcgu.o):(.debug_info)
    763c     763c        0     1                 
    7958     7958      5e4     1         /Users/mabez/Development/rust/embedded/experiments/esp32c3-experiments/target/riscv32imac-unknown-none-elf/debug/deps/librtt_target-c8a503ffaa8773f6.rlib(rtt_target-c8a503ffaa8773f6.rtt_target.49ad93cd-cgu.8.rcgu.o):(.debug_info)
    7958     7958        0     1                 
    7f3c     7f3c      16e     1         /Users/mabez/Development/rust/embedded/experiments/esp32c3-experiments/target/riscv32imac-unknown-none-elf/debug/deps/librtt_target-c8a503ffaa8773f6.rlib(rtt_target-c8a503ffaa8773f6.rtt_target.49ad93cd-cgu.9.rcgu.o):(.debug_info)
    7f3c     7f3c        0     1                 
    80aa     80aa      362     1         /Users/mabez/Development/rust/embedded/experiments/esp32c3-experiments/target/riscv32imac-unknown-none-elf/debug/deps/libesp32c3_lib-9b353d7564fdb320.rlib(esp32c3_lib-9b353d7564fdb320.4sht8tb4vhhjrf1k.rcgu.o):(.debug_info)
    80aa     80aa        0     1                 
    840c     840c      117     1         /Users/mabez/Development/rust/embedded/experiments/esp32c3-experiments/target/riscv32imac-unknown-none-elf/debug/deps/libesp32c3_lib-9b353d7564fdb320.rlib(esp32c3_lib-9b353d7564fdb320.5etuwwf3di4agecu.rcgu.o):(.debug_info)
    840c     840c        0     1                 
    8523     8523      473     1         /Users/mabez/Development/rust/embedded/experiments/esp32c3-experiments/target/riscv32imac-unknown-none-elf/debug/deps/libesp32c3_lib-9b353d7564fdb320.rlib(esp32c3_lib-9b353d7564fdb320.l5295fvly9urzze.rcgu.o):(.debug_info)
    8523     8523        0     1                 
    8996     8996      15c     1         /Users/mabez/Development/rust/embedded/experiments/esp32c3-experiments/target/riscv32imac-unknown-none-elf/debug/deps/libesp32c3_lib-9b353d7564fdb320.rlib(esp32c3_lib-9b353d7564fdb320.1021wqjltvlv5j9j.rcgu.o):(.debug_info)
    8996     8996        0     1                 
    8af2     8af2       cd     1         /Users/mabez/Development/rust/embedded/experiments/esp32c3-experiments/target/riscv32imac-unknown-none-elf/debug/deps/libesp32c3_lib-9b353d7564fdb320.rlib(esp32c3_lib-9b353d7564fdb320.4egfjjip1nd9anee.rcgu.o):(.debug_info)
    8af2     8af2        0     1                 
    8bbf     8bbf       da     1         /Users/mabez/Development/rust/embedded/experiments/esp32c3-experiments/target/riscv32imac-unknown-none-elf/debug/deps/libesp32c3_lib-9b353d7564fdb320.rlib(esp32c3_lib-9b353d7564fdb320.32gpmocjzndmv0ky.rcgu.o):(.debug_info)
    8bbf     8bbf        0     1                 
    8c99     8c99       cd     1         /Users/mabez/Development/rust/embedded/experiments/esp32c3-experiments/target/riscv32imac-unknown-none-elf/debug/deps/libesp32c3_lib-9b353d7564fdb320.rlib(esp32c3_lib-9b353d7564fdb320.47yjv4rnqkji4yx9.rcgu.o):(.debug_info)
    8c99     8c99        0     1                 
    8d66     8d66       5c     1         /Users/mabez/Development/rust/embedded/experiments/esp32c3-experiments/target/riscv32imac-unknown-none-elf/debug/deps/libbare_metal-82dbc08a019da008.rlib(bare_metal-82dbc08a019da008.bare_metal.233bcc8d-cgu.0.rcgu.o):(.debug_info)
    8d66     8d66        0     1                 
    8dc2     8dc2      2a2     1         /Users/mabez/Development/rust/embedded/experiments/esp32c3-experiments/target/riscv32imac-unknown-none-elf/debug/deps/libvoid-d8bfa8eb72c6fce6.rlib(void-d8bfa8eb72c6fce6.void.0c48974b-cgu.0.rcgu.o):(.debug_info)
    8dc2     8dc2        0     1                 
    9064     9064    1faa5     1         /Users/mabez/.rustup/toolchains/nightly-aarch64-apple-darwin/lib/rustlib/riscv32imac-unknown-none-elf/lib/libcore-081fd8405fc18f2e.rlib(core-081fd8405fc18f2e.core.756fe54c-cgu.0.rcgu.o):(.debug_info)
    9064     9064        0     1                 
   28b09    28b09      13e     1         /Users/mabez/.rustup/toolchains/nightly-aarch64-apple-darwin/lib/rustlib/riscv32imac-unknown-none-elf/lib/libcompiler_builtins-1e32d751d3fb162c.rlib(compiler_builtins-1e32d751d3fb162c.compiler_builtins.864c03ce-cgu.104.rcgu.o):(.debug_info)
   28b09    28b09        0     1                 
   28c47    28c47      287     1         /Users/mabez/.rustup/toolchains/nightly-aarch64-apple-darwin/lib/rustlib/riscv32imac-unknown-none-elf/lib/libcompiler_builtins-1e32d751d3fb162c.rlib(compiler_builtins-1e32d751d3fb162c.compiler_builtins.864c03ce-cgu.106.rcgu.o):(.debug_info)
   28c47    28c47        0     1                 
   28ece    28ece      209     1         /Users/mabez/.rustup/toolchains/nightly-aarch64-apple-darwin/lib/rustlib/riscv32imac-unknown-none-elf/lib/libcompiler_builtins-1e32d751d3fb162c.rlib(compiler_builtins-1e32d751d3fb162c.compiler_builtins.864c03ce-cgu.11.rcgu.o):(.debug_info)
   28ece    28ece        0     1                 
   290d7    290d7      244     1         /Users/mabez/.rustup/toolchains/nightly-aarch64-apple-darwin/lib/rustlib/riscv32imac-unknown-none-elf/lib/libcompiler_builtins-1e32d751d3fb162c.rlib(compiler_builtins-1e32d751d3fb162c.compiler_builtins.864c03ce-cgu.111.rcgu.o):(.debug_info)
   290d7    290d7        0     1                 
   2931b    2931b      1a1     1         /Users/mabez/.rustup/toolchains/nightly-aarch64-apple-darwin/lib/rustlib/riscv32imac-unknown-none-elf/lib/libcompiler_builtins-1e32d751d3fb162c.rlib(compiler_builtins-1e32d751d3fb162c.compiler_builtins.864c03ce-cgu.2.rcgu.o):(.debug_info)
   2931b    2931b        0     1                 
   294bc    294bc      33d     1         /Users/mabez/.rustup/toolchains/nightly-aarch64-apple-darwin/lib/rustlib/riscv32imac-unknown-none-elf/lib/libcompiler_builtins-1e32d751d3fb162c.rlib(compiler_builtins-1e32d751d3fb162c.compiler_builtins.864c03ce-cgu.20.rcgu.o):(.debug_info)
   294bc    294bc        0     1                 
   297f9    297f9       70     1         /Users/mabez/.rustup/toolchains/nightly-aarch64-apple-darwin/lib/rustlib/riscv32imac-unknown-none-elf/lib/libcompiler_builtins-1e32d751d3fb162c.rlib(compiler_builtins-1e32d751d3fb162c.compiler_builtins.864c03ce-cgu.21.rcgu.o):(.debug_info)
   297f9    297f9        0     1                 
   29869    29869      164     1         /Users/mabez/.rustup/toolchains/nightly-aarch64-apple-darwin/lib/rustlib/riscv32imac-unknown-none-elf/lib/libcompiler_builtins-1e32d751d3fb162c.rlib(compiler_builtins-1e32d751d3fb162c.compiler_builtins.864c03ce-cgu.27.rcgu.o):(.debug_info)
   29869    29869        0     1                 
   299cd    299cd       70     1         /Users/mabez/.rustup/toolchains/nightly-aarch64-apple-darwin/lib/rustlib/riscv32imac-unknown-none-elf/lib/libcompiler_builtins-1e32d751d3fb162c.rlib(compiler_builtins-1e32d751d3fb162c.compiler_builtins.864c03ce-cgu.28.rcgu.o):(.debug_info)
   299cd    299cd        0     1                 
   29a3d    29a3d      1a1     1         /Users/mabez/.rustup/toolchains/nightly-aarch64-apple-darwin/lib/rustlib/riscv32imac-unknown-none-elf/lib/libcompiler_builtins-1e32d751d3fb162c.rlib(compiler_builtins-1e32d751d3fb162c.compiler_builtins.864c03ce-cgu.69.rcgu.o):(.debug_info)
   29a3d    29a3d        0     1                 
   29bde    29bde      264     1         /Users/mabez/.rustup/toolchains/nightly-aarch64-apple-darwin/lib/rustlib/riscv32imac-unknown-none-elf/lib/libcompiler_builtins-1e32d751d3fb162c.rlib(compiler_builtins-1e32d751d3fb162c.compiler_builtins.864c03ce-cgu.7.rcgu.o):(.debug_info)
   29bde    29bde        0     1                 
   29e42    29e42       70     1         /Users/mabez/.rustup/toolchains/nightly-aarch64-apple-darwin/lib/rustlib/riscv32imac-unknown-none-elf/lib/libcompiler_builtins-1e32d751d3fb162c.rlib(compiler_builtins-1e32d751d3fb162c.compiler_builtins.864c03ce-cgu.70.rcgu.o):(.debug_info)
   29e42    29e42        0     1                 
   29eb2    29eb2      1a1     1         /Users/mabez/.rustup/toolchains/nightly-aarch64-apple-darwin/lib/rustlib/riscv32imac-unknown-none-elf/lib/libcompiler_builtins-1e32d751d3fb162c.rlib(compiler_builtins-1e32d751d3fb162c.compiler_builtins.864c03ce-cgu.71.rcgu.o):(.debug_info)
   29eb2    29eb2        0     1                 
   2a053    2a053      13e     1         /Users/mabez/.rustup/toolchains/nightly-aarch64-apple-darwin/lib/rustlib/riscv32imac-unknown-none-elf/lib/libcompiler_builtins-1e32d751d3fb162c.rlib(compiler_builtins-1e32d751d3fb162c.compiler_builtins.864c03ce-cgu.79.rcgu.o):(.debug_info)
   2a053    2a053        0     1                 
   2a191    2a191      287     1         /Users/mabez/.rustup/toolchains/nightly-aarch64-apple-darwin/lib/rustlib/riscv32imac-unknown-none-elf/lib/libcompiler_builtins-1e32d751d3fb162c.rlib(compiler_builtins-1e32d751d3fb162c.compiler_builtins.864c03ce-cgu.8.rcgu.o):(.debug_info)
   2a191    2a191        0     1                 
   2a418    2a418      390     1         /Users/mabez/.rustup/toolchains/nightly-aarch64-apple-darwin/lib/rustlib/riscv32imac-unknown-none-elf/lib/libcompiler_builtins-1e32d751d3fb162c.rlib(compiler_builtins-1e32d751d3fb162c.compiler_builtins.864c03ce-cgu.82.rcgu.o):(.debug_info)
   2a418    2a418        0     1                 
   2a7a8    2a7a8      17d     1         /Users/mabez/.rustup/toolchains/nightly-aarch64-apple-darwin/lib/rustlib/riscv32imac-unknown-none-elf/lib/libcompiler_builtins-1e32d751d3fb162c.rlib(compiler_builtins-1e32d751d3fb162c.compiler_builtins.864c03ce-cgu.120.rcgu.o):(.debug_info)
   2a7a8    2a7a8        0     1                 
   2a925    2a925      13e     1         /Users/mabez/.rustup/toolchains/nightly-aarch64-apple-darwin/lib/rustlib/riscv32imac-unknown-none-elf/lib/libcompiler_builtins-1e32d751d3fb162c.rlib(compiler_builtins-1e32d751d3fb162c.compiler_builtins.864c03ce-cgu.92.rcgu.o):(.debug_info)
   2a925    2a925        0     1                 
   2aa63    2aa63      5ce     1         /Users/mabez/Development/rust/embedded/experiments/esp32c3-experiments/target/riscv32imac-unknown-none-elf/debug/deps/libriscv_rt-792395b706c7e295.rlib(riscv_rt-792395b706c7e295.n23zmh27zi56vj2.rcgu.o):(.debug_info)
   2aa63    2aa63        0     1                 
   2b031    2b031      1f1     1         /Users/mabez/Development/rust/embedded/experiments/esp32c3-experiments/target/riscv32imac-unknown-none-elf/debug/deps/libriscv_rt-792395b706c7e295.rlib(riscv_rt-792395b706c7e295.2si3iiyx4w55gh9p.rcgu.o):(.debug_info)
   2b031    2b031        0     1                 
   2b222    2b222      18b     1         /Users/mabez/Development/rust/embedded/experiments/esp32c3-experiments/target/riscv32imac-unknown-none-elf/debug/deps/libriscv_rt-792395b706c7e295.rlib(riscv_rt-792395b706c7e295.nu58l7xx5z184oa.rcgu.o):(.debug_info)
   2b222    2b222        0     1                 
   2b3ad    2b3ad       a2     1         /Users/mabez/Development/rust/embedded/experiments/esp32c3-experiments/target/riscv32imac-unknown-none-elf/debug/deps/libriscv_rt-792395b706c7e295.rlib(riscv_rt-792395b706c7e295.40ecbdq24jylbsk0.rcgu.o):(.debug_info)
   2b3ad    2b3ad        0     1                 
   2b44f    2b44f      1a4     1         /Users/mabez/Development/rust/embedded/experiments/esp32c3-experiments/target/riscv32imac-unknown-none-elf/debug/deps/libriscv_rt-792395b706c7e295.rlib(riscv_rt-792395b706c7e295.4l8nnv0gz5uboi7y.rcgu.o):(.debug_info)
   2b44f    2b44f        0     1                 
   2b5f3    2b5f3       e9     1         /Users/mabez/Development/rust/embedded/experiments/esp32c3-experiments/target/riscv32imac-unknown-none-elf/debug/deps/libriscv_rt-792395b706c7e295.rlib(riscv_rt-792395b706c7e295.a1pdmtq419pk4l9.rcgu.o):(.debug_info)
   2b5f3    2b5f3        0     1                 
   2b6dc    2b6dc      67f     1         /Users/mabez/Development/rust/embedded/experiments/esp32c3-experiments/target/riscv32imac-unknown-none-elf/debug/deps/libriscv-58bee4c49f9f92ec.rlib(riscv-58bee4c49f9f92ec.riscv.8be94b29-cgu.0.rcgu.o):(.debug_info)
   2b6dc    2b6dc        0     1                 
   2bd5b    2bd5b      697     1         /Users/mabez/Development/rust/embedded/experiments/esp32c3-experiments/target/riscv32imac-unknown-none-elf/debug/deps/libriscv-58bee4c49f9f92ec.rlib(riscv-58bee4c49f9f92ec.riscv.8be94b29-cgu.9.rcgu.o):(.debug_info)
   2bd5b    2bd5b        0     1                 
   2c3f2    2c3f2      23c     1         /Users/mabez/Development/rust/embedded/experiments/esp32c3-experiments/target/riscv32imac-unknown-none-elf/debug/deps/libriscv-58bee4c49f9f92ec.rlib(riscv-58bee4c49f9f92ec.riscv.8be94b29-cgu.4.rcgu.o):(.debug_info)
   2c3f2    2c3f2        0     1                 
   2c62e    2c62e       72     1         /Users/mabez/Development/rust/embedded/experiments/esp32c3-experiments/target/riscv32imac-unknown-none-elf/debug/deps/libriscv_rt-792395b706c7e295.rlib(riscv_rt-792395b706c7e295.2fig4fon7wqsswts.rcgu.o):(.debug_info)
   2c62e    2c62e        0     1                 
   2c6a0    2c6a0       48     1         /Users/mabez/Development/rust/embedded/experiments/esp32c3-experiments/target/riscv32imac-unknown-none-elf/debug/deps/libriscv_rt-792395b706c7e295.rlib(riscv_rt-792395b706c7e295.53lukflzfjg86k6f.rcgu.o):(.debug_info)
   2c6a0    2c6a0        0     1                 
   2c6e8    2c6e8       7d     1         /Users/mabez/Development/rust/embedded/experiments/esp32c3-experiments/target/riscv32imac-unknown-none-elf/debug/deps/libriscv_rt-792395b706c7e295.rlib(riscv_rt-792395b706c7e295.2h85xx65g8aqsgk3.rcgu.o):(.debug_info)
   2c6e8    2c6e8        0     1                 
   2c765    2c765       23     1         /Users/mabez/Development/rust/embedded/experiments/esp32c3-experiments/target/riscv32imac-unknown-none-elf/debug/deps/libriscv_rt-792395b706c7e295.rlib(riscv-rt.o):(.debug_info)
   2c788    2c788       25     1         /Users/mabez/Development/rust/embedded/experiments/esp32c3-experiments/target/riscv32imac-unknown-none-elf/debug/deps/libriscv_atomic_emulation_trap-36c6147cf3a7da2f.rlib(riscv-atomic-emulation-trap.o):(.debug_info)
   2c7ad    2c7ad      ba6     1         /Users/mabez/Development/rust/embedded/experiments/esp32c3-experiments/target/riscv32imac-unknown-none-elf/debug/deps/libriscv_atomic_emulation_trap-36c6147cf3a7da2f.rlib(riscv_atomic_emulation_trap-36c6147cf3a7da2f.192heijy3m9d29qe.rcgu.o):(.debug_info)
   2c7ad    2c7ad        0     1                 
   2d353    2d353       f2     1         /Users/mabez/Development/rust/embedded/experiments/esp32c3-experiments/target/riscv32imac-unknown-none-elf/debug/deps/libriscv_atomic_emulation_trap-36c6147cf3a7da2f.rlib(riscv_atomic_emulation_trap-36c6147cf3a7da2f.4wwaujsdloo4dvp5.rcgu.o):(.debug_info)
   2d353    2d353        0     1                 
   2d445    2d445       b4     1         /Users/mabez/Development/rust/embedded/experiments/esp32c3-experiments/target/riscv32imac-unknown-none-elf/debug/deps/libriscv_atomic_emulation_trap-36c6147cf3a7da2f.rlib(riscv_atomic_emulation_trap-36c6147cf3a7da2f.1mk8bwfvrfakb4yc.rcgu.o):(.debug_info)
   2d445    2d445        0     1                 
   2d4f9    2d4f9       d1     1         /Users/mabez/Development/rust/embedded/experiments/esp32c3-experiments/target/riscv32imac-unknown-none-elf/debug/deps/libriscv_atomic_emulation_trap-36c6147cf3a7da2f.rlib(riscv_atomic_emulation_trap-36c6147cf3a7da2f.3grzare3werdor3q.rcgu.o):(.debug_info)
   2d4f9    2d4f9        0     1                 
   2d5ca    2d5ca      331     1         /Users/mabez/Development/rust/embedded/experiments/esp32c3-experiments/target/riscv32imac-unknown-none-elf/debug/deps/libriscv_atomic_emulation_trap-36c6147cf3a7da2f.rlib(riscv_atomic_emulation_trap-36c6147cf3a7da2f.4l7k26w2j1wwfghy.rcgu.o):(.debug_info)
   2d5ca    2d5ca        0     1                 
   2d8fb    2d8fb      331     1         /Users/mabez/Development/rust/embedded/experiments/esp32c3-experiments/target/riscv32imac-unknown-none-elf/debug/deps/libriscv_atomic_emulation_trap-36c6147cf3a7da2f.rlib(riscv_atomic_emulation_trap-36c6147cf3a7da2f.be49seve1qmvobv.rcgu.o):(.debug_info)
   2d8fb    2d8fb        0     1                 
   2dc2c    2dc2c      1c5     1         /Users/mabez/Development/rust/embedded/experiments/esp32c3-experiments/target/riscv32imac-unknown-none-elf/debug/deps/libriscv_atomic_emulation_trap-36c6147cf3a7da2f.rlib(riscv_atomic_emulation_trap-36c6147cf3a7da2f.431el3q0783r85py.rcgu.o):(.debug_info)
   2dc2c    2dc2c        0     1                 
   2ddf1    2ddf1      105     1         /Users/mabez/Development/rust/embedded/experiments/esp32c3-experiments/target/riscv32imac-unknown-none-elf/debug/deps/libriscv_atomic_emulation_trap-36c6147cf3a7da2f.rlib(riscv_atomic_emulation_trap-36c6147cf3a7da2f.4q0r5d249n6epd3q.rcgu.o):(.debug_info)
   2ddf1    2ddf1        0     1                 
   2def6    2def6      1f5     1         /Users/mabez/Development/rust/embedded/experiments/esp32c3-experiments/target/riscv32imac-unknown-none-elf/debug/deps/libriscv_atomic_emulation_trap-36c6147cf3a7da2f.rlib(riscv_atomic_emulation_trap-36c6147cf3a7da2f.4z6enr9b9fac5dau.rcgu.o):(.debug_info)
   2def6    2def6        0     1                 
   2e0eb    2e0eb      67f     1         /Users/mabez/Development/rust/embedded/experiments/esp32c3-experiments/target/riscv32imac-unknown-none-elf/debug/deps/libriscv-e6570dc03e37c02b.rlib(riscv-e6570dc03e37c02b.riscv.6a3f384f-cgu.0.rcgu.o):(.debug_info)
   2e0eb    2e0eb        0     1                 
   2e76a    2e76a      6e4     1         /Users/mabez/Development/rust/embedded/experiments/esp32c3-experiments/target/riscv32imac-unknown-none-elf/debug/deps/libriscv-e6570dc03e37c02b.rlib(riscv-e6570dc03e37c02b.riscv.6a3f384f-cgu.10.rcgu.o):(.debug_info)
   2e76a    2e76a        0     1                 
   2ee4e    2ee4e      408     1         /Users/mabez/Development/rust/embedded/experiments/esp32c3-experiments/target/riscv32imac-unknown-none-elf/debug/deps/libriscv-e6570dc03e37c02b.rlib(riscv-e6570dc03e37c02b.riscv.6a3f384f-cgu.8.rcgu.o):(.debug_info)
   2ee4e    2ee4e        0     1                 
   2f256    2f256      23c     1         /Users/mabez/Development/rust/embedded/experiments/esp32c3-experiments/target/riscv32imac-unknown-none-elf/debug/deps/libriscv-e6570dc03e37c02b.rlib(riscv-e6570dc03e37c02b.riscv.6a3f384f-cgu.4.rcgu.o):(.debug_info)
   2f256    2f256        0     1                 
   2f492    2f492      3c7     1         /Users/mabez/Development/rust/embedded/experiments/esp32c3-experiments/target/riscv32imac-unknown-none-elf/debug/deps/libriscv-e6570dc03e37c02b.rlib(riscv-e6570dc03e37c02b.riscv.6a3f384f-cgu.11.rcgu.o):(.debug_info)
   2f492    2f492        0     1                 
       0        0     2990     8 .debug_aranges
       0        0       58     1         /Users/mabez/Development/rust/embedded/experiments/esp32c3-experiments/target/riscv32imac-unknown-none-elf/debug/deps/esp32c3-0792fe58911f872d.1e78zwiugb76rjx.rcgu.o:(.debug_aranges)
      58       58       28     1         /Users/mabez/Development/rust/embedded/experiments/esp32c3-experiments/target/riscv32imac-unknown-none-elf/debug/deps/esp32c3-0792fe58911f872d.1gcjs714mi186sn9.rcgu.o:(.debug_aranges)
      80       80       28     1         /Users/mabez/Development/rust/embedded/experiments/esp32c3-experiments/target/riscv32imac-unknown-none-elf/debug/deps/esp32c3-0792fe58911f872d.1nerp55l46tnskb3.rcgu.o:(.debug_aranges)
      a8       a8       30     1         /Users/mabez/Development/rust/embedded/experiments/esp32c3-experiments/target/riscv32imac-unknown-none-elf/debug/deps/esp32c3-0792fe58911f872d.297xt9owoyeiose3.rcgu.o:(.debug_aranges)
      d8       d8       48     1         /Users/mabez/Development/rust/embedded/experiments/esp32c3-experiments/target/riscv32imac-unknown-none-elf/debug/deps/esp32c3-0792fe58911f872d.31cobsrxn8v7n7js.rcgu.o:(.debug_aranges)
     120      120       50     1         /Users/mabez/Development/rust/embedded/experiments/esp32c3-experiments/target/riscv32imac-unknown-none-elf/debug/deps/esp32c3-0792fe58911f872d.346chqw3v9dutnx9.rcgu.o:(.debug_aranges)
     170      170       30     1         /Users/mabez/Development/rust/embedded/experiments/esp32c3-experiments/target/riscv32imac-unknown-none-elf/debug/deps/esp32c3-0792fe58911f872d.3xtnx60qzz8qc3n4.rcgu.o:(.debug_aranges)
     1a0      1a0       20     1         /Users/mabez/Development/rust/embedded/experiments/esp32c3-experiments/target/riscv32imac-unknown-none-elf/debug/deps/esp32c3-0792fe58911f872d.4iv9b3d8r40y3mky.rcgu.o:(.debug_aranges)
     1c0      1c0       40     1         /Users/mabez/Development/rust/embedded/experiments/esp32c3-experiments/target/riscv32imac-unknown-none-elf/debug/deps/esp32c3-0792fe58911f872d.4kaxk1bfd3ykn70p.rcgu.o:(.debug_aranges)
     200      200       38     1         /Users/mabez/Development/rust/embedded/experiments/esp32c3-experiments/target/riscv32imac-unknown-none-elf/debug/deps/esp32c3-0792fe58911f872d.4mcsimr84tlfxm5.rcgu.o:(.debug_aranges)
     238      238       20     1         /Users/mabez/Development/rust/embedded/experiments/esp32c3-experiments/target/riscv32imac-unknown-none-elf/debug/deps/esp32c3-0792fe58911f872d.4zdnir3iq20zjvph.rcgu.o:(.debug_aranges)
     258      258       38     1         /Users/mabez/Development/rust/embedded/experiments/esp32c3-experiments/target/riscv32imac-unknown-none-elf/debug/deps/esp32c3-0792fe58911f872d.52qxoexx5thxmllb.rcgu.o:(.debug_aranges)
     290      290       20     1         /Users/mabez/Development/rust/embedded/experiments/esp32c3-experiments/target/riscv32imac-unknown-none-elf/debug/deps/esp32c3-0792fe58911f872d.rcp7xlzvmfzbh1y.rcgu.o:(.debug_aranges)
     2b0      2b0       20     1         /Users/mabez/Development/rust/embedded/experiments/esp32c3-experiments/target/riscv32imac-unknown-none-elf/debug/deps/esp32c3-0792fe58911f872d.zm6375jlykl6cny.rcgu.o:(.debug_aranges)
     2d0      2d0       e8     1         /Users/mabez/Development/rust/embedded/experiments/esp32c3-experiments/target/riscv32imac-unknown-none-elf/debug/deps/librtt_target-c8a503ffaa8773f6.rlib(rtt_target-c8a503ffaa8773f6.rtt_target.49ad93cd-cgu.0.rcgu.o):(.debug_aranges)
     3b8      3b8       30     1         /Users/mabez/Development/rust/embedded/experiments/esp32c3-experiments/target/riscv32imac-unknown-none-elf/debug/deps/librtt_target-c8a503ffaa8773f6.rlib(rtt_target-c8a503ffaa8773f6.rtt_target.49ad93cd-cgu.1.rcgu.o):(.debug_aranges)
     3e8      3e8       38     1         /Users/mabez/Development/rust/embedded/experiments/esp32c3-experiments/target/riscv32imac-unknown-none-elf/debug/deps/librtt_target-c8a503ffaa8773f6.rlib(rtt_target-c8a503ffaa8773f6.rtt_target.49ad93cd-cgu.10.rcgu.o):(.debug_aranges)
     420      420       60     1         /Users/mabez/Development/rust/embedded/experiments/esp32c3-experiments/target/riscv32imac-unknown-none-elf/debug/deps/librtt_target-c8a503ffaa8773f6.rlib(rtt_target-c8a503ffaa8773f6.rtt_target.49ad93cd-cgu.11.rcgu.o):(.debug_aranges)
     480      480       48     1         /Users/mabez/Development/rust/embedded/experiments/esp32c3-experiments/target/riscv32imac-unknown-none-elf/debug/deps/librtt_target-c8a503ffaa8773f6.rlib(rtt_target-c8a503ffaa8773f6.rtt_target.49ad93cd-cgu.12.rcgu.o):(.debug_aranges)
     4c8      4c8       38     1         /Users/mabez/Development/rust/embedded/experiments/esp32c3-experiments/target/riscv32imac-unknown-none-elf/debug/deps/librtt_target-c8a503ffaa8773f6.rlib(rtt_target-c8a503ffaa8773f6.rtt_target.49ad93cd-cgu.14.rcgu.o):(.debug_aranges)
     500      500       48     1         /Users/mabez/Development/rust/embedded/experiments/esp32c3-experiments/target/riscv32imac-unknown-none-elf/debug/deps/librtt_target-c8a503ffaa8773f6.rlib(rtt_target-c8a503ffaa8773f6.rtt_target.49ad93cd-cgu.15.rcgu.o):(.debug_aranges)
     548      548       f8     1         /Users/mabez/Development/rust/embedded/experiments/esp32c3-experiments/target/riscv32imac-unknown-none-elf/debug/deps/librtt_target-c8a503ffaa8773f6.rlib(rtt_target-c8a503ffaa8773f6.rtt_target.49ad93cd-cgu.2.rcgu.o):(.debug_aranges)
     640      640       60     1         /Users/mabez/Development/rust/embedded/experiments/esp32c3-experiments/target/riscv32imac-unknown-none-elf/debug/deps/librtt_target-c8a503ffaa8773f6.rlib(rtt_target-c8a503ffaa8773f6.rtt_target.49ad93cd-cgu.3.rcgu.o):(.debug_aranges)
     6a0      6a0       30     1         /Users/mabez/Development/rust/embedded/experiments/esp32c3-experiments/target/riscv32imac-unknown-none-elf/debug/deps/librtt_target-c8a503ffaa8773f6.rlib(rtt_target-c8a503ffaa8773f6.rtt_target.49ad93cd-cgu.13.rcgu.o):(.debug_aranges)
     6d0      6d0       60     1         /Users/mabez/Development/rust/embedded/experiments/esp32c3-experiments/target/riscv32imac-unknown-none-elf/debug/deps/librtt_target-c8a503ffaa8773f6.rlib(rtt_target-c8a503ffaa8773f6.rtt_target.49ad93cd-cgu.4.rcgu.o):(.debug_aranges)
     730      730       58     1         /Users/mabez/Development/rust/embedded/experiments/esp32c3-experiments/target/riscv32imac-unknown-none-elf/debug/deps/librtt_target-c8a503ffaa8773f6.rlib(rtt_target-c8a503ffaa8773f6.rtt_target.49ad93cd-cgu.5.rcgu.o):(.debug_aranges)
     788      788       30     1         /Users/mabez/Development/rust/embedded/experiments/esp32c3-experiments/target/riscv32imac-unknown-none-elf/debug/deps/librtt_target-c8a503ffaa8773f6.rlib(rtt_target-c8a503ffaa8773f6.rtt_target.49ad93cd-cgu.6.rcgu.o):(.debug_aranges)
     7b8      7b8       48     1         /Users/mabez/Development/rust/embedded/experiments/esp32c3-experiments/target/riscv32imac-unknown-none-elf/debug/deps/librtt_target-c8a503ffaa8773f6.rlib(rtt_target-c8a503ffaa8773f6.rtt_target.49ad93cd-cgu.7.rcgu.o):(.debug_aranges)
     800      800       80     1         /Users/mabez/Development/rust/embedded/experiments/esp32c3-experiments/target/riscv32imac-unknown-none-elf/debug/deps/librtt_target-c8a503ffaa8773f6.rlib(rtt_target-c8a503ffaa8773f6.rtt_target.49ad93cd-cgu.8.rcgu.o):(.debug_aranges)
     880      880       30     1         /Users/mabez/Development/rust/embedded/experiments/esp32c3-experiments/target/riscv32imac-unknown-none-elf/debug/deps/librtt_target-c8a503ffaa8773f6.rlib(rtt_target-c8a503ffaa8773f6.rtt_target.49ad93cd-cgu.9.rcgu.o):(.debug_aranges)
     8b0      8b0       50     1         /Users/mabez/Development/rust/embedded/experiments/esp32c3-experiments/target/riscv32imac-unknown-none-elf/debug/deps/libesp32c3_lib-9b353d7564fdb320.rlib(esp32c3_lib-9b353d7564fdb320.4sht8tb4vhhjrf1k.rcgu.o):(.debug_aranges)
     900      900       30     1         /Users/mabez/Development/rust/embedded/experiments/esp32c3-experiments/target/riscv32imac-unknown-none-elf/debug/deps/libesp32c3_lib-9b353d7564fdb320.rlib(esp32c3_lib-9b353d7564fdb320.5etuwwf3di4agecu.rcgu.o):(.debug_aranges)
     930      930       30     1         /Users/mabez/Development/rust/embedded/experiments/esp32c3-experiments/target/riscv32imac-unknown-none-elf/debug/deps/libesp32c3_lib-9b353d7564fdb320.rlib(esp32c3_lib-9b353d7564fdb320.l5295fvly9urzze.rcgu.o):(.debug_aranges)
     960      960       28     1         /Users/mabez/Development/rust/embedded/experiments/esp32c3-experiments/target/riscv32imac-unknown-none-elf/debug/deps/libesp32c3_lib-9b353d7564fdb320.rlib(esp32c3_lib-9b353d7564fdb320.1021wqjltvlv5j9j.rcgu.o):(.debug_aranges)
     988      988       28     1         /Users/mabez/Development/rust/embedded/experiments/esp32c3-experiments/target/riscv32imac-unknown-none-elf/debug/deps/libesp32c3_lib-9b353d7564fdb320.rlib(esp32c3_lib-9b353d7564fdb320.4egfjjip1nd9anee.rcgu.o):(.debug_aranges)
     9b0      9b0       28     1         /Users/mabez/Development/rust/embedded/experiments/esp32c3-experiments/target/riscv32imac-unknown-none-elf/debug/deps/libesp32c3_lib-9b353d7564fdb320.rlib(esp32c3_lib-9b353d7564fdb320.32gpmocjzndmv0ky.rcgu.o):(.debug_aranges)
     9d8      9d8       28     1         /Users/mabez/Development/rust/embedded/experiments/esp32c3-experiments/target/riscv32imac-unknown-none-elf/debug/deps/libesp32c3_lib-9b353d7564fdb320.rlib(esp32c3_lib-9b353d7564fdb320.47yjv4rnqkji4yx9.rcgu.o):(.debug_aranges)
     a00      a00       20     1         /Users/mabez/Development/rust/embedded/experiments/esp32c3-experiments/target/riscv32imac-unknown-none-elf/debug/deps/libbare_metal-82dbc08a019da008.rlib(bare_metal-82dbc08a019da008.bare_metal.233bcc8d-cgu.0.rcgu.o):(.debug_aranges)
     a20      a20       30     1         /Users/mabez/Development/rust/embedded/experiments/esp32c3-experiments/target/riscv32imac-unknown-none-elf/debug/deps/libvoid-d8bfa8eb72c6fce6.rlib(void-d8bfa8eb72c6fce6.void.0c48974b-cgu.0.rcgu.o):(.debug_aranges)
     a50      a50     15e0     1         /Users/mabez/.rustup/toolchains/nightly-aarch64-apple-darwin/lib/rustlib/riscv32imac-unknown-none-elf/lib/libcore-081fd8405fc18f2e.rlib(core-081fd8405fc18f2e.core.756fe54c-cgu.0.rcgu.o):(.debug_aranges)
    2030     2030       20     1         /Users/mabez/.rustup/toolchains/nightly-aarch64-apple-darwin/lib/rustlib/riscv32imac-unknown-none-elf/lib/libcompiler_builtins-1e32d751d3fb162c.rlib(compiler_builtins-1e32d751d3fb162c.compiler_builtins.864c03ce-cgu.104.rcgu.o):(.debug_aranges)
    2050     2050       20     1         /Users/mabez/.rustup/toolchains/nightly-aarch64-apple-darwin/lib/rustlib/riscv32imac-unknown-none-elf/lib/libcompiler_builtins-1e32d751d3fb162c.rlib(compiler_builtins-1e32d751d3fb162c.compiler_builtins.864c03ce-cgu.106.rcgu.o):(.debug_aranges)
    2070     2070       20     1         /Users/mabez/.rustup/toolchains/nightly-aarch64-apple-darwin/lib/rustlib/riscv32imac-unknown-none-elf/lib/libcompiler_builtins-1e32d751d3fb162c.rlib(compiler_builtins-1e32d751d3fb162c.compiler_builtins.864c03ce-cgu.11.rcgu.o):(.debug_aranges)
    2090     2090       20     1         /Users/mabez/.rustup/toolchains/nightly-aarch64-apple-darwin/lib/rustlib/riscv32imac-unknown-none-elf/lib/libcompiler_builtins-1e32d751d3fb162c.rlib(compiler_builtins-1e32d751d3fb162c.compiler_builtins.864c03ce-cgu.111.rcgu.o):(.debug_aranges)
    20b0     20b0       20     1         /Users/mabez/.rustup/toolchains/nightly-aarch64-apple-darwin/lib/rustlib/riscv32imac-unknown-none-elf/lib/libcompiler_builtins-1e32d751d3fb162c.rlib(compiler_builtins-1e32d751d3fb162c.compiler_builtins.864c03ce-cgu.2.rcgu.o):(.debug_aranges)
    20d0     20d0       88     1         /Users/mabez/.rustup/toolchains/nightly-aarch64-apple-darwin/lib/rustlib/riscv32imac-unknown-none-elf/lib/libcompiler_builtins-1e32d751d3fb162c.rlib(compiler_builtins-1e32d751d3fb162c.compiler_builtins.864c03ce-cgu.20.rcgu.o):(.debug_aranges)
    2158     2158       20     1         /Users/mabez/.rustup/toolchains/nightly-aarch64-apple-darwin/lib/rustlib/riscv32imac-unknown-none-elf/lib/libcompiler_builtins-1e32d751d3fb162c.rlib(compiler_builtins-1e32d751d3fb162c.compiler_builtins.864c03ce-cgu.21.rcgu.o):(.debug_aranges)
    2178     2178       20     1         /Users/mabez/.rustup/toolchains/nightly-aarch64-apple-darwin/lib/rustlib/riscv32imac-unknown-none-elf/lib/libcompiler_builtins-1e32d751d3fb162c.rlib(compiler_builtins-1e32d751d3fb162c.compiler_builtins.864c03ce-cgu.27.rcgu.o):(.debug_aranges)
    2198     2198       20     1         /Users/mabez/.rustup/toolchains/nightly-aarch64-apple-darwin/lib/rustlib/riscv32imac-unknown-none-elf/lib/libcompiler_builtins-1e32d751d3fb162c.rlib(compiler_builtins-1e32d751d3fb162c.compiler_builtins.864c03ce-cgu.28.rcgu.o):(.debug_aranges)
    21b8     21b8       20     1         /Users/mabez/.rustup/toolchains/nightly-aarch64-apple-darwin/lib/rustlib/riscv32imac-unknown-none-elf/lib/libcompiler_builtins-1e32d751d3fb162c.rlib(compiler_builtins-1e32d751d3fb162c.compiler_builtins.864c03ce-cgu.69.rcgu.o):(.debug_aranges)
    21d8     21d8       20     1         /Users/mabez/.rustup/toolchains/nightly-aarch64-apple-darwin/lib/rustlib/riscv32imac-unknown-none-elf/lib/libcompiler_builtins-1e32d751d3fb162c.rlib(compiler_builtins-1e32d751d3fb162c.compiler_builtins.864c03ce-cgu.7.rcgu.o):(.debug_aranges)
    21f8     21f8       20     1         /Users/mabez/.rustup/toolchains/nightly-aarch64-apple-darwin/lib/rustlib/riscv32imac-unknown-none-elf/lib/libcompiler_builtins-1e32d751d3fb162c.rlib(compiler_builtins-1e32d751d3fb162c.compiler_builtins.864c03ce-cgu.70.rcgu.o):(.debug_aranges)
    2218     2218       20     1         /Users/mabez/.rustup/toolchains/nightly-aarch64-apple-darwin/lib/rustlib/riscv32imac-unknown-none-elf/lib/libcompiler_builtins-1e32d751d3fb162c.rlib(compiler_builtins-1e32d751d3fb162c.compiler_builtins.864c03ce-cgu.71.rcgu.o):(.debug_aranges)
    2238     2238       20     1         /Users/mabez/.rustup/toolchains/nightly-aarch64-apple-darwin/lib/rustlib/riscv32imac-unknown-none-elf/lib/libcompiler_builtins-1e32d751d3fb162c.rlib(compiler_builtins-1e32d751d3fb162c.compiler_builtins.864c03ce-cgu.79.rcgu.o):(.debug_aranges)
    2258     2258       20     1         /Users/mabez/.rustup/toolchains/nightly-aarch64-apple-darwin/lib/rustlib/riscv32imac-unknown-none-elf/lib/libcompiler_builtins-1e32d751d3fb162c.rlib(compiler_builtins-1e32d751d3fb162c.compiler_builtins.864c03ce-cgu.8.rcgu.o):(.debug_aranges)
    2278     2278       30     1         /Users/mabez/.rustup/toolchains/nightly-aarch64-apple-darwin/lib/rustlib/riscv32imac-unknown-none-elf/lib/libcompiler_builtins-1e32d751d3fb162c.rlib(compiler_builtins-1e32d751d3fb162c.compiler_builtins.864c03ce-cgu.82.rcgu.o):(.debug_aranges)
    22a8     22a8       20     1         /Users/mabez/.rustup/toolchains/nightly-aarch64-apple-darwin/lib/rustlib/riscv32imac-unknown-none-elf/lib/libcompiler_builtins-1e32d751d3fb162c.rlib(compiler_builtins-1e32d751d3fb162c.compiler_builtins.864c03ce-cgu.120.rcgu.o):(.debug_aranges)
    22c8     22c8       20     1         /Users/mabez/.rustup/toolchains/nightly-aarch64-apple-darwin/lib/rustlib/riscv32imac-unknown-none-elf/lib/libcompiler_builtins-1e32d751d3fb162c.rlib(compiler_builtins-1e32d751d3fb162c.compiler_builtins.864c03ce-cgu.92.rcgu.o):(.debug_aranges)
    22e8     22e8       68     1         /Users/mabez/Development/rust/embedded/experiments/esp32c3-experiments/target/riscv32imac-unknown-none-elf/debug/deps/libriscv_rt-792395b706c7e295.rlib(riscv_rt-792395b706c7e295.n23zmh27zi56vj2.rcgu.o):(.debug_aranges)
    2350     2350       28     1         /Users/mabez/Development/rust/embedded/experiments/esp32c3-experiments/target/riscv32imac-unknown-none-elf/debug/deps/libriscv_rt-792395b706c7e295.rlib(riscv_rt-792395b706c7e295.2si3iiyx4w55gh9p.rcgu.o):(.debug_aranges)
    2378     2378       20     1         /Users/mabez/Development/rust/embedded/experiments/esp32c3-experiments/target/riscv32imac-unknown-none-elf/debug/deps/libriscv_rt-792395b706c7e295.rlib(riscv_rt-792395b706c7e295.nu58l7xx5z184oa.rcgu.o):(.debug_aranges)
    2398     2398       20     1         /Users/mabez/Development/rust/embedded/experiments/esp32c3-experiments/target/riscv32imac-unknown-none-elf/debug/deps/libriscv_rt-792395b706c7e295.rlib(riscv_rt-792395b706c7e295.40ecbdq24jylbsk0.rcgu.o):(.debug_aranges)
    23b8     23b8       30     1         /Users/mabez/Development/rust/embedded/experiments/esp32c3-experiments/target/riscv32imac-unknown-none-elf/debug/deps/libriscv_rt-792395b706c7e295.rlib(riscv_rt-792395b706c7e295.4l8nnv0gz5uboi7y.rcgu.o):(.debug_aranges)
    23e8     23e8       38     1         /Users/mabez/Development/rust/embedded/experiments/esp32c3-experiments/target/riscv32imac-unknown-none-elf/debug/deps/libriscv_rt-792395b706c7e295.rlib(riscv_rt-792395b706c7e295.a1pdmtq419pk4l9.rcgu.o):(.debug_aranges)
    2420     2420       78     1         /Users/mabez/Development/rust/embedded/experiments/esp32c3-experiments/target/riscv32imac-unknown-none-elf/debug/deps/libriscv-58bee4c49f9f92ec.rlib(riscv-58bee4c49f9f92ec.riscv.8be94b29-cgu.0.rcgu.o):(.debug_aranges)
    2498     2498       70     1         /Users/mabez/Development/rust/embedded/experiments/esp32c3-experiments/target/riscv32imac-unknown-none-elf/debug/deps/libriscv-58bee4c49f9f92ec.rlib(riscv-58bee4c49f9f92ec.riscv.8be94b29-cgu.9.rcgu.o):(.debug_aranges)
    2508     2508       28     1         /Users/mabez/Development/rust/embedded/experiments/esp32c3-experiments/target/riscv32imac-unknown-none-elf/debug/deps/libriscv-58bee4c49f9f92ec.rlib(riscv-58bee4c49f9f92ec.riscv.8be94b29-cgu.4.rcgu.o):(.debug_aranges)
    2530     2530       28     1         /Users/mabez/Development/rust/embedded/experiments/esp32c3-experiments/target/riscv32imac-unknown-none-elf/debug/deps/libriscv_rt-792395b706c7e295.rlib(riscv_rt-792395b706c7e295.2fig4fon7wqsswts.rcgu.o):(.debug_aranges)
    2558     2558       20     1         /Users/mabez/Development/rust/embedded/experiments/esp32c3-experiments/target/riscv32imac-unknown-none-elf/debug/deps/libriscv_rt-792395b706c7e295.rlib(riscv_rt-792395b706c7e295.53lukflzfjg86k6f.rcgu.o):(.debug_aranges)
    2578     2578       20     1         /Users/mabez/Development/rust/embedded/experiments/esp32c3-experiments/target/riscv32imac-unknown-none-elf/debug/deps/libriscv_rt-792395b706c7e295.rlib(riscv_rt-792395b706c7e295.2h85xx65g8aqsgk3.rcgu.o):(.debug_aranges)
    2598     2598       30     8         /Users/mabez/Development/rust/embedded/experiments/esp32c3-experiments/target/riscv32imac-unknown-none-elf/debug/deps/libriscv_rt-792395b706c7e295.rlib(riscv-rt.o):(.debug_aranges)
    25c8     25c8       20     8         /Users/mabez/Development/rust/embedded/experiments/esp32c3-experiments/target/riscv32imac-unknown-none-elf/debug/deps/libriscv_atomic_emulation_trap-36c6147cf3a7da2f.rlib(riscv-atomic-emulation-trap.o):(.debug_aranges)
    25e8     25e8       50     1         /Users/mabez/Development/rust/embedded/experiments/esp32c3-experiments/target/riscv32imac-unknown-none-elf/debug/deps/libriscv_atomic_emulation_trap-36c6147cf3a7da2f.rlib(riscv_atomic_emulation_trap-36c6147cf3a7da2f.192heijy3m9d29qe.rcgu.o):(.debug_aranges)
    2638     2638       28     1         /Users/mabez/Development/rust/embedded/experiments/esp32c3-experiments/target/riscv32imac-unknown-none-elf/debug/deps/libriscv_atomic_emulation_trap-36c6147cf3a7da2f.rlib(riscv_atomic_emulation_trap-36c6147cf3a7da2f.4wwaujsdloo4dvp5.rcgu.o):(.debug_aranges)
    2660     2660       20     1         /Users/mabez/Development/rust/embedded/experiments/esp32c3-experiments/target/riscv32imac-unknown-none-elf/debug/deps/libriscv_atomic_emulation_trap-36c6147cf3a7da2f.rlib(riscv_atomic_emulation_trap-36c6147cf3a7da2f.1mk8bwfvrfakb4yc.rcgu.o):(.debug_aranges)
    2680     2680       20     1         /Users/mabez/Development/rust/embedded/experiments/esp32c3-experiments/target/riscv32imac-unknown-none-elf/debug/deps/libriscv_atomic_emulation_trap-36c6147cf3a7da2f.rlib(riscv_atomic_emulation_trap-36c6147cf3a7da2f.3grzare3werdor3q.rcgu.o):(.debug_aranges)
    26a0     26a0       60     1         /Users/mabez/Development/rust/embedded/experiments/esp32c3-experiments/target/riscv32imac-unknown-none-elf/debug/deps/libriscv_atomic_emulation_trap-36c6147cf3a7da2f.rlib(riscv_atomic_emulation_trap-36c6147cf3a7da2f.4l7k26w2j1wwfghy.rcgu.o):(.debug_aranges)
    2700     2700       58     1         /Users/mabez/Development/rust/embedded/experiments/esp32c3-experiments/target/riscv32imac-unknown-none-elf/debug/deps/libriscv_atomic_emulation_trap-36c6147cf3a7da2f.rlib(riscv_atomic_emulation_trap-36c6147cf3a7da2f.be49seve1qmvobv.rcgu.o):(.debug_aranges)
    2758     2758       30     1         /Users/mabez/Development/rust/embedded/experiments/esp32c3-experiments/target/riscv32imac-unknown-none-elf/debug/deps/libriscv_atomic_emulation_trap-36c6147cf3a7da2f.rlib(riscv_atomic_emulation_trap-36c6147cf3a7da2f.431el3q0783r85py.rcgu.o):(.debug_aranges)
    2788     2788       28     1         /Users/mabez/Development/rust/embedded/experiments/esp32c3-experiments/target/riscv32imac-unknown-none-elf/debug/deps/libriscv_atomic_emulation_trap-36c6147cf3a7da2f.rlib(riscv_atomic_emulation_trap-36c6147cf3a7da2f.4q0r5d249n6epd3q.rcgu.o):(.debug_aranges)
    27b0     27b0       38     1         /Users/mabez/Development/rust/embedded/experiments/esp32c3-experiments/target/riscv32imac-unknown-none-elf/debug/deps/libriscv_atomic_emulation_trap-36c6147cf3a7da2f.rlib(riscv_atomic_emulation_trap-36c6147cf3a7da2f.4z6enr9b9fac5dau.rcgu.o):(.debug_aranges)
    27e8     27e8       78     1         /Users/mabez/Development/rust/embedded/experiments/esp32c3-experiments/target/riscv32imac-unknown-none-elf/debug/deps/libriscv-e6570dc03e37c02b.rlib(riscv-e6570dc03e37c02b.riscv.6a3f384f-cgu.0.rcgu.o):(.debug_aranges)
    2860     2860       80     1         /Users/mabez/Development/rust/embedded/experiments/esp32c3-experiments/target/riscv32imac-unknown-none-elf/debug/deps/libriscv-e6570dc03e37c02b.rlib(riscv-e6570dc03e37c02b.riscv.6a3f384f-cgu.10.rcgu.o):(.debug_aranges)
    28e0     28e0       48     1         /Users/mabez/Development/rust/embedded/experiments/esp32c3-experiments/target/riscv32imac-unknown-none-elf/debug/deps/libriscv-e6570dc03e37c02b.rlib(riscv-e6570dc03e37c02b.riscv.6a3f384f-cgu.8.rcgu.o):(.debug_aranges)
    2928     2928       28     1         /Users/mabez/Development/rust/embedded/experiments/esp32c3-experiments/target/riscv32imac-unknown-none-elf/debug/deps/libriscv-e6570dc03e37c02b.rlib(riscv-e6570dc03e37c02b.riscv.6a3f384f-cgu.4.rcgu.o):(.debug_aranges)
    2950     2950       40     1         /Users/mabez/Development/rust/embedded/experiments/esp32c3-experiments/target/riscv32imac-unknown-none-elf/debug/deps/libriscv-e6570dc03e37c02b.rlib(riscv-e6570dc03e37c02b.riscv.6a3f384f-cgu.11.rcgu.o):(.debug_aranges)
       0        0     f1c8     1 .debug_ranges
       0        0       28     1         /Users/mabez/Development/rust/embedded/experiments/esp32c3-experiments/target/riscv32imac-unknown-none-elf/debug/deps/esp32c3-0792fe58911f872d.1e78zwiugb76rjx.rcgu.o:(.debug_ranges)
       0        0        0     1                 
      28       28       18     1         /Users/mabez/Development/rust/embedded/experiments/esp32c3-experiments/target/riscv32imac-unknown-none-elf/debug/deps/esp32c3-0792fe58911f872d.1gcjs714mi186sn9.rcgu.o:(.debug_ranges)
      28       28        0     1                 
      40       40       30     1         /Users/mabez/Development/rust/embedded/experiments/esp32c3-experiments/target/riscv32imac-unknown-none-elf/debug/deps/esp32c3-0792fe58911f872d.1nerp55l46tnskb3.rcgu.o:(.debug_ranges)
      40       40        0     1                 
      58       58        0     1                 
      70       70       20     1         /Users/mabez/Development/rust/embedded/experiments/esp32c3-experiments/target/riscv32imac-unknown-none-elf/debug/deps/esp32c3-0792fe58911f872d.297xt9owoyeiose3.rcgu.o:(.debug_ranges)
      70       70        0     1                 
      90       90       30     1         /Users/mabez/Development/rust/embedded/experiments/esp32c3-experiments/target/riscv32imac-unknown-none-elf/debug/deps/esp32c3-0792fe58911f872d.31cobsrxn8v7n7js.rcgu.o:(.debug_ranges)
      90       90        0     1                 
      c0       c0       20     1         /Users/mabez/Development/rust/embedded/experiments/esp32c3-experiments/target/riscv32imac-unknown-none-elf/debug/deps/esp32c3-0792fe58911f872d.346chqw3v9dutnx9.rcgu.o:(.debug_ranges)
      c0       c0        0     1                 
      e0       e0       50     1         /Users/mabez/Development/rust/embedded/experiments/esp32c3-experiments/target/riscv32imac-unknown-none-elf/debug/deps/esp32c3-0792fe58911f872d.3xtnx60qzz8qc3n4.rcgu.o:(.debug_ranges)
      e0       e0        0     1                 
      f8       f8        0     1                 
     110      110        0     1                 
     130      130       30     1         /Users/mabez/Development/rust/embedded/experiments/esp32c3-experiments/target/riscv32imac-unknown-none-elf/debug/deps/esp32c3-0792fe58911f872d.4kaxk1bfd3ykn70p.rcgu.o:(.debug_ranges)
     130      130        0     1                 
     160      160       28     1         /Users/mabez/Development/rust/embedded/experiments/esp32c3-experiments/target/riscv32imac-unknown-none-elf/debug/deps/esp32c3-0792fe58911f872d.4mcsimr84tlfxm5.rcgu.o:(.debug_ranges)
     160      160        0     1                 
     188      188       28     1         /Users/mabez/Development/rust/embedded/experiments/esp32c3-experiments/target/riscv32imac-unknown-none-elf/debug/deps/esp32c3-0792fe58911f872d.52qxoexx5thxmllb.rcgu.o:(.debug_ranges)
     188      188        0     1                 
     1b0      1b0      130     1         /Users/mabez/Development/rust/embedded/experiments/esp32c3-experiments/target/riscv32imac-unknown-none-elf/debug/deps/librtt_target-c8a503ffaa8773f6.rlib(rtt_target-c8a503ffaa8773f6.rtt_target.49ad93cd-cgu.0.rcgu.o):(.debug_ranges)
     1b0      1b0        0     1                 
     1c8      1c8        0     1                 
     1e0      1e0        0     1                 
     1f8      1f8        0     1                 
     210      210        0     1                 
     2e0      2e0       50     1         /Users/mabez/Development/rust/embedded/experiments/esp32c3-experiments/target/riscv32imac-unknown-none-elf/debug/deps/librtt_target-c8a503ffaa8773f6.rlib(rtt_target-c8a503ffaa8773f6.rtt_target.49ad93cd-cgu.1.rcgu.o):(.debug_ranges)
     2e0      2e0        0     1                 
     2f8      2f8        0     1                 
     310      310        0     1                 
     330      330       28     1         /Users/mabez/Development/rust/embedded/experiments/esp32c3-experiments/target/riscv32imac-unknown-none-elf/debug/deps/librtt_target-c8a503ffaa8773f6.rlib(rtt_target-c8a503ffaa8773f6.rtt_target.49ad93cd-cgu.10.rcgu.o):(.debug_ranges)
     330      330        0     1                 
     358      358       50     1         /Users/mabez/Development/rust/embedded/experiments/esp32c3-experiments/target/riscv32imac-unknown-none-elf/debug/deps/librtt_target-c8a503ffaa8773f6.rlib(rtt_target-c8a503ffaa8773f6.rtt_target.49ad93cd-cgu.11.rcgu.o):(.debug_ranges)
     358      358        0     1                 
     3a8      3a8       30     1         /Users/mabez/Development/rust/embedded/experiments/esp32c3-experiments/target/riscv32imac-unknown-none-elf/debug/deps/librtt_target-c8a503ffaa8773f6.rlib(rtt_target-c8a503ffaa8773f6.rtt_target.49ad93cd-cgu.12.rcgu.o):(.debug_ranges)
     3a8      3a8        0     1                 
     3d8      3d8       28     1         /Users/mabez/Development/rust/embedded/experiments/esp32c3-experiments/target/riscv32imac-unknown-none-elf/debug/deps/librtt_target-c8a503ffaa8773f6.rlib(rtt_target-c8a503ffaa8773f6.rtt_target.49ad93cd-cgu.14.rcgu.o):(.debug_ranges)
     3d8      3d8        0     1                 
     400      400       68     1         /Users/mabez/Development/rust/embedded/experiments/esp32c3-experiments/target/riscv32imac-unknown-none-elf/debug/deps/librtt_target-c8a503ffaa8773f6.rlib(rtt_target-c8a503ffaa8773f6.rtt_target.49ad93cd-cgu.15.rcgu.o):(.debug_ranges)
     400      400        0     1                 
     418      418        0     1                 
     430      430        0     1                 
     468      468      110     1         /Users/mabez/Development/rust/embedded/experiments/esp32c3-experiments/target/riscv32imac-unknown-none-elf/debug/deps/librtt_target-c8a503ffaa8773f6.rlib(rtt_target-c8a503ffaa8773f6.rtt_target.49ad93cd-cgu.2.rcgu.o):(.debug_ranges)
     468      468        0     1                 
     480      480        0     1                 
     498      498        0     1                 
     578      578       50     1         /Users/mabez/Development/rust/embedded/experiments/esp32c3-experiments/target/riscv32imac-unknown-none-elf/debug/deps/librtt_target-c8a503ffaa8773f6.rlib(rtt_target-c8a503ffaa8773f6.rtt_target.49ad93cd-cgu.3.rcgu.o):(.debug_ranges)
     578      578        0     1                 
     5c8      5c8       20     1         /Users/mabez/Development/rust/embedded/experiments/esp32c3-experiments/target/riscv32imac-unknown-none-elf/debug/deps/librtt_target-c8a503ffaa8773f6.rlib(rtt_target-c8a503ffaa8773f6.rtt_target.49ad93cd-cgu.13.rcgu.o):(.debug_ranges)
     5c8      5c8        0     1                 
     5e8      5e8       50     1         /Users/mabez/Development/rust/embedded/experiments/esp32c3-experiments/target/riscv32imac-unknown-none-elf/debug/deps/librtt_target-c8a503ffaa8773f6.rlib(rtt_target-c8a503ffaa8773f6.rtt_target.49ad93cd-cgu.4.rcgu.o):(.debug_ranges)
     5e8      5e8        0     1                 
     638      638       78     1         /Users/mabez/Development/rust/embedded/experiments/esp32c3-experiments/target/riscv32imac-unknown-none-elf/debug/deps/librtt_target-c8a503ffaa8773f6.rlib(rtt_target-c8a503ffaa8773f6.rtt_target.49ad93cd-cgu.5.rcgu.o):(.debug_ranges)
     638      638        0     1                 
     650      650        0     1                 
     668      668        0     1                 
     6b0      6b0       20     1         /Users/mabez/Development/rust/embedded/experiments/esp32c3-experiments/target/riscv32imac-unknown-none-elf/debug/deps/librtt_target-c8a503ffaa8773f6.rlib(rtt_target-c8a503ffaa8773f6.rtt_target.49ad93cd-cgu.6.rcgu.o):(.debug_ranges)
     6b0      6b0        0     1                 
     6d0      6d0       38     1         /Users/mabez/Development/rust/embedded/experiments/esp32c3-experiments/target/riscv32imac-unknown-none-elf/debug/deps/librtt_target-c8a503ffaa8773f6.rlib(rtt_target-c8a503ffaa8773f6.rtt_target.49ad93cd-cgu.7.rcgu.o):(.debug_ranges)
     6d0      6d0        0     1                 
     708      708       70     1         /Users/mabez/Development/rust/embedded/experiments/esp32c3-experiments/target/riscv32imac-unknown-none-elf/debug/deps/librtt_target-c8a503ffaa8773f6.rlib(rtt_target-c8a503ffaa8773f6.rtt_target.49ad93cd-cgu.8.rcgu.o):(.debug_ranges)
     708      708        0     1                 
     778      778       20     1         /Users/mabez/Development/rust/embedded/experiments/esp32c3-experiments/target/riscv32imac-unknown-none-elf/debug/deps/librtt_target-c8a503ffaa8773f6.rlib(rtt_target-c8a503ffaa8773f6.rtt_target.49ad93cd-cgu.9.rcgu.o):(.debug_ranges)
     778      778        0     1                 
     798      798       88     1         /Users/mabez/Development/rust/embedded/experiments/esp32c3-experiments/target/riscv32imac-unknown-none-elf/debug/deps/libesp32c3_lib-9b353d7564fdb320.rlib(esp32c3_lib-9b353d7564fdb320.4sht8tb4vhhjrf1k.rcgu.o):(.debug_ranges)
     798      798        0     1                 
     7b0      7b0        0     1                 
     7c8      7c8        0     1                 
     7e0      7e0        0     1                 
     820      820       20     1         /Users/mabez/Development/rust/embedded/experiments/esp32c3-experiments/target/riscv32imac-unknown-none-elf/debug/deps/libesp32c3_lib-9b353d7564fdb320.rlib(esp32c3_lib-9b353d7564fdb320.5etuwwf3di4agecu.rcgu.o):(.debug_ranges)
     820      820        0     1                 
     840      840       38     1         /Users/mabez/Development/rust/embedded/experiments/esp32c3-experiments/target/riscv32imac-unknown-none-elf/debug/deps/libesp32c3_lib-9b353d7564fdb320.rlib(esp32c3_lib-9b353d7564fdb320.l5295fvly9urzze.rcgu.o):(.debug_ranges)
     840      840        0     1                 
     858      858        0     1                 
     878      878       18     1         /Users/mabez/Development/rust/embedded/experiments/esp32c3-experiments/target/riscv32imac-unknown-none-elf/debug/deps/libesp32c3_lib-9b353d7564fdb320.rlib(esp32c3_lib-9b353d7564fdb320.1021wqjltvlv5j9j.rcgu.o):(.debug_ranges)
     878      878        0     1                 
     890      890       18     1         /Users/mabez/Development/rust/embedded/experiments/esp32c3-experiments/target/riscv32imac-unknown-none-elf/debug/deps/libesp32c3_lib-9b353d7564fdb320.rlib(esp32c3_lib-9b353d7564fdb320.4egfjjip1nd9anee.rcgu.o):(.debug_ranges)
     890      890        0     1                 
     8a8      8a8       18     1         /Users/mabez/Development/rust/embedded/experiments/esp32c3-experiments/target/riscv32imac-unknown-none-elf/debug/deps/libesp32c3_lib-9b353d7564fdb320.rlib(esp32c3_lib-9b353d7564fdb320.32gpmocjzndmv0ky.rcgu.o):(.debug_ranges)
     8a8      8a8        0     1                 
     8c0      8c0       18     1         /Users/mabez/Development/rust/embedded/experiments/esp32c3-experiments/target/riscv32imac-unknown-none-elf/debug/deps/libesp32c3_lib-9b353d7564fdb320.rlib(esp32c3_lib-9b353d7564fdb320.47yjv4rnqkji4yx9.rcgu.o):(.debug_ranges)
     8c0      8c0        0     1                 
     8d8      8d8       20     1         /Users/mabez/Development/rust/embedded/experiments/esp32c3-experiments/target/riscv32imac-unknown-none-elf/debug/deps/libvoid-d8bfa8eb72c6fce6.rlib(void-d8bfa8eb72c6fce6.void.0c48974b-cgu.0.rcgu.o):(.debug_ranges)
     8d8      8d8        0     1                 
     8f8      8f8     dbd8     1         /Users/mabez/.rustup/toolchains/nightly-aarch64-apple-darwin/lib/rustlib/riscv32imac-unknown-none-elf/lib/libcore-081fd8405fc18f2e.rlib(core-081fd8405fc18f2e.core.756fe54c-cgu.0.rcgu.o):(.debug_ranges)
     8f8      8f8        0     1                 
     910      910        0     1                 
     928      928        0     1                 
     940      940        0     1                 
     958      958        0     1                 
     970      970        0     1                 
     988      988        0     1                 
     9a0      9a0        0     1                 
     9b8      9b8        0     1                 
     9d0      9d0        0     1                 
     9f0      9f0        0     1                 
     a10      a10        0     1                 
     a28      a28        0     1                 
     a40      a40        0     1                 
     a58      a58        0     1                 
     a70      a70        0     1                 
     a88      a88        0     1                 
     aa0      aa0        0     1                 
     ab8      ab8        0     1                 
     ad0      ad0        0     1                 
     ae8      ae8        0     1                 
     b00      b00        0     1                 
     b18      b18        0     1                 
     b30      b30        0     1                 
     b48      b48        0     1                 
     b60      b60        0     1                 
     b78      b78        0     1                 
     b90      b90        0     1                 
     ba8      ba8        0     1                 
     bc0      bc0        0     1                 
     be0      be0        0     1                 
     c00      c00        0     1                 
     c18      c18        0     1                 
     c30      c30        0     1                 
     c48      c48        0     1                 
     c60      c60        0     1                 
     c78      c78        0     1                 
     c90      c90        0     1                 
     ca8      ca8        0     1                 
     cc0      cc0        0     1                 
     cd8      cd8        0     1                 
     d00      d00        0     1                 
     d18      d18        0     1                 
     d40      d40        0     1                 
     d60      d60        0     1                 
     d80      d80        0     1                 
     da0      da0        0     1                 
     db8      db8        0     1                 
     dd0      dd0        0     1                 
     de8      de8        0     1                 
     e00      e00        0     1                 
     e18      e18        0     1                 
     e38      e38        0     1                 
     e50      e50        0     1                 
     e68      e68        0     1                 
     e98      e98        0     1                 
     eb0      eb0        0     1                 
     ec8      ec8        0     1                 
     ee0      ee0        0     1                 
     ef8      ef8        0     1                 
     f50      f50        0     1                 
     f68      f68        0     1                 
     f80      f80        0     1                 
     f98      f98        0     1                 
     fb0      fb0        0     1                 
     fc8      fc8        0     1                 
     fe0      fe0        0     1                 
     ff8      ff8        0     1                 
    1020     1020        0     1                 
    1038     1038        0     1                 
    1050     1050        0     1                 
    1078     1078        0     1                 
    1090     1090        0     1                 
    10a8     10a8        0     1                 
    10c0     10c0        0     1                 
    10e8     10e8        0     1                 
    1100     1100        0     1                 
    1118     1118        0     1                 
    1130     1130        0     1                 
    1148     1148        0     1                 
    1170     1170        0     1                 
    1190     1190        0     1                 
    11b0     11b0        0     1                 
    11d8     11d8        0     1                 
    11f8     11f8        0     1                 
    1220     1220        0     1                 
    1240     1240        0     1                 
    1268     1268        0     1                 
    1288     1288        0     1                 
    12a8     12a8        0     1                 
    12c8     12c8        0     1                 
    12e8     12e8        0     1                 
    1308     1308        0     1                 
    1328     1328        0     1                 
    1340     1340        0     1                 
    1358     1358        0     1                 
    1370     1370        0     1                 
    1388     1388        0     1                 
    13a0     13a0        0     1                 
    13b8     13b8        0     1                 
    13d0     13d0        0     1                 
    13e8     13e8        0     1                 
    1408     1408        0     1                 
    1420     1420        0     1                 
    1440     1440        0     1                 
    1458     1458        0     1                 
    1470     1470        0     1                 
    1488     1488        0     1                 
    14a0     14a0        0     1                 
    14b8     14b8        0     1                 
    14d0     14d0        0     1                 
    14f0     14f0        0     1                 
    1518     1518        0     1                 
    1538     1538        0     1                 
    1558     1558        0     1                 
    1570     1570        0     1                 
    1588     1588        0     1                 
    15a0     15a0        0     1                 
    15b8     15b8        0     1                 
    15e0     15e0        0     1                 
    1600     1600        0     1                 
    1618     1618        0     1                 
    1640     1640        0     1                 
    1660     1660        0     1                 
    1678     1678        0     1                 
    1690     1690        0     1                 
    16a8     16a8        0     1                 
    16c0     16c0        0     1                 
    16d8     16d8        0     1                 
    16f0     16f0        0     1                 
    1708     1708        0     1                 
    1720     1720        0     1                 
    1740     1740        0     1                 
    1758     1758        0     1                 
    1770     1770        0     1                 
    1788     1788        0     1                 
    17a0     17a0        0     1                 
    17b8     17b8        0     1                 
    17d8     17d8        0     1                 
    17f8     17f8        0     1                 
    1810     1810        0     1                 
    1830     1830        0     1                 
    1850     1850        0     1                 
    1870     1870        0     1                 
    1888     1888        0     1                 
    18a0     18a0        0     1                 
    18b8     18b8        0     1                 
    18d0     18d0        0     1                 
    18e8     18e8        0     1                 
    1900     1900        0     1                 
    1918     1918        0     1                 
    1930     1930        0     1                 
    1948     1948        0     1                 
    1960     1960        0     1                 
    1978     1978        0     1                 
    1998     1998        0     1                 
    19c0     19c0        0     1                 
    19e0     19e0        0     1                 
    19f8     19f8        0     1                 
    1a10     1a10        0     1                 
    1a28     1a28        0     1                 
    1a40     1a40        0     1                 
    1a58     1a58        0     1                 
    1a70     1a70        0     1                 
    1a88     1a88        0     1                 
    1aa0     1aa0        0     1                 
    1ab8     1ab8        0     1                 
    1ad0     1ad0        0     1                 
    1af0     1af0        0     1                 
    1b18     1b18        0     1                 
    1b38     1b38        0     1                 
    1b50     1b50        0     1                 
    1b68     1b68        0     1                 
    1b80     1b80        0     1                 
    1b98     1b98        0     1                 
    1bc8     1bc8        0     1                 
    1be0     1be0        0     1                 
    1bf8     1bf8        0     1                 
    1c10     1c10        0     1                 
    1c28     1c28        0     1                 
    1c50     1c50        0     1                 
    1c70     1c70        0     1                 
    1c98     1c98        0     1                 
    1cb0     1cb0        0     1                 
    1cc8     1cc8        0     1                 
    1ce0     1ce0        0     1                 
    1cf8     1cf8        0     1                 
    1d10     1d10        0     1                 
    1d28     1d28        0     1                 
    1d40     1d40        0     1                 
    1d58     1d58        0     1                 
    1d70     1d70        0     1                 
    1d88     1d88        0     1                 
    1db0     1db0        0     1                 
    1dc8     1dc8        0     1                 
    1de0     1de0        0     1                 
    1df8     1df8        0     1                 
    1e10     1e10        0     1                 
    1e28     1e28        0     1                 
    1e40     1e40        0     1                 
    1e58     1e58        0     1                 
    1e88     1e88        0     1                 
    1ea0     1ea0        0     1                 
    1eb8     1eb8        0     1                 
    1ed0     1ed0        0     1                 
    1ee8     1ee8        0     1                 
    1f00     1f00        0     1                 
    1f28     1f28        0     1                 
    1f40     1f40        0     1                 
    1f58     1f58        0     1                 
    1f70     1f70        0     1                 
    1f88     1f88        0     1                 
    1fa0     1fa0        0     1                 
    1fb8     1fb8        0     1                 
    1fd0     1fd0        0     1                 
    1fe8     1fe8        0     1                 
    2000     2000        0     1                 
    2020     2020        0     1                 
    2038     2038        0     1                 
    2050     2050        0     1                 
    2068     2068        0     1                 
    2080     2080        0     1                 
    2098     2098        0     1                 
    20b0     20b0        0     1                 
    20c8     20c8        0     1                 
    20e0     20e0        0     1                 
    20f8     20f8        0     1                 
    2110     2110        0     1                 
    2130     2130        0     1                 
    2148     2148        0     1                 
    2160     2160        0     1                 
    2178     2178        0     1                 
    2190     2190        0     1                 
    21a8     21a8        0     1                 
    21c0     21c0        0     1                 
    21e0     21e0        0     1                 
    21f8     21f8        0     1                 
    2210     2210        0     1                 
    2228     2228        0     1                 
    2240     2240        0     1                 
    2258     2258        0     1                 
    2270     2270        0     1                 
    2288     2288        0     1                 
    22a0     22a0        0     1                 
    22b8     22b8        0     1                 
    22d0     22d0        0     1                 
    22e8     22e8        0     1                 
    2300     2300        0     1                 
    2318     2318        0     1                 
    2330     2330        0     1                 
    2348     2348        0     1                 
    2360     2360        0     1                 
    2378     2378        0     1                 
    2390     2390        0     1                 
    23a8     23a8        0     1                 
    23c0     23c0        0     1                 
    23d8     23d8        0     1                 
    23f0     23f0        0     1                 
    2408     2408        0     1                 
    2428     2428        0     1                 
    2440     2440        0     1                 
    2458     2458        0     1                 
    2470     2470        0     1                 
    2488     2488        0     1                 
    24a0     24a0        0     1                 
    24b8     24b8        0     1                 
    24d0     24d0        0     1                 
    24e8     24e8        0     1                 
    2508     2508        0     1                 
    2520     2520        0     1                 
    2538     2538        0     1                 
    2550     2550        0     1                 
    2568     2568        0     1                 
    2580     2580        0     1                 
    2598     2598        0     1                 
    25b0     25b0        0     1                 
    25c8     25c8        0     1                 
    25e0     25e0        0     1                 
    25f8     25f8        0     1                 
    2610     2610        0     1                 
    2638     2638        0     1                 
    2660     2660        0     1                 
    2688     2688        0     1                 
    26a0     26a0        0     1                 
    26b8     26b8        0     1                 
    26d0     26d0        0     1                 
    26e8     26e8        0     1                 
    2700     2700        0     1                 
    2718     2718        0     1                 
    2738     2738        0     1                 
    2750     2750        0     1                 
    2778     2778        0     1                 
    27a0     27a0        0     1                 
    27c8     27c8        0     1                 
    27e0     27e0        0     1                 
    27f8     27f8        0     1                 
    2810     2810        0     1                 
    2828     2828        0     1                 
    2840     2840        0     1                 
    2858     2858        0     1                 
    2870     2870        0     1                 
    2888     2888        0     1                 
    28a0     28a0        0     1                 
    28b8     28b8        0     1                 
    28d0     28d0        0     1                 
    28e8     28e8        0     1                 
    2900     2900        0     1                 
    2918     2918        0     1                 
    2930     2930        0     1                 
    2948     2948        0     1                 
    2960     2960        0     1                 
    2978     2978        0     1                 
    2990     2990        0     1                 
    29a8     29a8        0     1                 
    29c0     29c0        0     1                 
    29e8     29e8        0     1                 
    2a10     2a10        0     1                 
    2a38     2a38        0     1                 
    2a50     2a50        0     1                 
    2a68     2a68        0     1                 
    2a80     2a80        0     1                 
    2a98     2a98        0     1                 
    2ab0     2ab0        0     1                 
    2ac8     2ac8        0     1                 
    2ae0     2ae0        0     1                 
    2b00     2b00        0     1                 
    2b18     2b18        0     1                 
    2b30     2b30        0     1                 
    2b48     2b48        0     1                 
    2b60     2b60        0     1                 
    2b78     2b78        0     1                 
    2b90     2b90        0     1                 
    2ba8     2ba8        0     1                 
    2bc0     2bc0        0     1                 
    2bd8     2bd8        0     1                 
    2bf0     2bf0        0     1                 
    2c08     2c08        0     1                 
    2c20     2c20        0     1                 
    2c38     2c38        0     1                 
    2c50     2c50        0     1                 
    2c68     2c68        0     1                 
    2c80     2c80        0     1                 
    2c98     2c98        0     1                 
    2cb0     2cb0        0     1                 
    2cc8     2cc8        0     1                 
    2ce8     2ce8        0     1                 
    2d00     2d00        0     1                 
    2d28     2d28        0     1                 
    2d50     2d50        0     1                 
    2d78     2d78        0     1                 
    2d90     2d90        0     1                 
    2da8     2da8        0     1                 
    2dc0     2dc0        0     1                 
    2dd8     2dd8        0     1                 
    2df0     2df0        0     1                 
    2e08     2e08        0     1                 
    2e20     2e20        0     1                 
    2e40     2e40        0     1                 
    2e58     2e58        0     1                 
    2e70     2e70        0     1                 
    2e88     2e88        0     1                 
    2ea0     2ea0        0     1                 
    2eb8     2eb8        0     1                 
    2ed0     2ed0        0     1                 
    2ee8     2ee8        0     1                 
    2f00     2f00        0     1                 
    2f18     2f18        0     1                 
    2f30     2f30        0     1                 
    2f48     2f48        0     1                 
    2f60     2f60        0     1                 
    2f78     2f78        0     1                 
    2f90     2f90        0     1                 
    2fa8     2fa8        0     1                 
    2fc0     2fc0        0     1                 
    2fd8     2fd8        0     1                 
    2ff0     2ff0        0     1                 
    3008     3008        0     1                 
    3020     3020        0     1                 
    3038     3038        0     1                 
    3050     3050        0     1                 
    3068     3068        0     1                 
    3080     3080        0     1                 
    3098     3098        0     1                 
    30b0     30b0        0     1                 
    30c8     30c8        0     1                 
    30e8     30e8        0     1                 
    3100     3100        0     1                 
    3118     3118        0     1                 
    3130     3130        0     1                 
    3148     3148        0     1                 
    3160     3160        0     1                 
    3178     3178        0     1                 
    3190     3190        0     1                 
    31a8     31a8        0     1                 
    31c0     31c0        0     1                 
    31d8     31d8        0     1                 
    31f0     31f0        0     1                 
    3208     3208        0     1                 
    3220     3220        0     1                 
    3238     3238        0     1                 
    3250     3250        0     1                 
    3268     3268        0     1                 
    3280     3280        0     1                 
    3298     3298        0     1                 
    32b0     32b0        0     1                 
    32d0     32d0        0     1                 
    32f0     32f0        0     1                 
    3310     3310        0     1                 
    3328     3328        0     1                 
    3340     3340        0     1                 
    3358     3358        0     1                 
    3390     3390        0     1                 
    33a8     33a8        0     1                 
    33c0     33c0        0     1                 
    33d8     33d8        0     1                 
    3410     3410        0     1                 
    3428     3428        0     1                 
    3440     3440        0     1                 
    3458     3458        0     1                 
    34a8     34a8        0     1                 
    34e0     34e0        0     1                 
    3500     3500        0     1                 
    3518     3518        0     1                 
    3530     3530        0     1                 
    3548     3548        0     1                 
    3560     3560        0     1                 
    3578     3578        0     1                 
    3590     3590        0     1                 
    35a8     35a8        0     1                 
    35c0     35c0        0     1                 
    35d8     35d8        0     1                 
    35f0     35f0        0     1                 
    3608     3608        0     1                 
    3620     3620        0     1                 
    3638     3638        0     1                 
    3650     3650        0     1                 
    3668     3668        0     1                 
    3680     3680        0     1                 
    3698     3698        0     1                 
    36b0     36b0        0     1                 
    36c8     36c8        0     1                 
    36e0     36e0        0     1                 
    36f8     36f8        0     1                 
    3710     3710        0     1                 
    3728     3728        0     1                 
    3740     3740        0     1                 
    3758     3758        0     1                 
    3770     3770        0     1                 
    3788     3788        0     1                 
    37a0     37a0        0     1                 
    37b8     37b8        0     1                 
    37d0     37d0        0     1                 
    37e8     37e8        0     1                 
    3800     3800        0     1                 
    3818     3818        0     1                 
    3830     3830        0     1                 
    3848     3848        0     1                 
    3860     3860        0     1                 
    3878     3878        0     1                 
    3890     3890        0     1                 
    38a8     38a8        0     1                 
    38c0     38c0        0     1                 
    38e0     38e0        0     1                 
    3900     3900        0     1                 
    3918     3918        0     1                 
    3938     3938        0     1                 
    3958     3958        0     1                 
    3970     3970        0     1                 
    3988     3988        0     1                 
    39a0     39a0        0     1                 
    39b8     39b8        0     1                 
    39e0     39e0        0     1                 
    39f8     39f8        0     1                 
    3a10     3a10        0     1                 
    3a28     3a28        0     1                 
    3a50     3a50        0     1                 
    3a68     3a68        0     1                 
    3a80     3a80        0     1                 
    3a98     3a98        0     1                 
    3ab0     3ab0        0     1                 
    3ad8     3ad8        0     1                 
    3af0     3af0        0     1                 
    3b08     3b08        0     1                 
    3b30     3b30        0     1                 
    3b48     3b48        0     1                 
    3b60     3b60        0     1                 
    3b78     3b78        0     1                 
    3ba0     3ba0        0     1                 
    3bb8     3bb8        0     1                 
    3bd0     3bd0        0     1                 
    3be8     3be8        0     1                 
    3c00     3c00        0     1                 
    3c18     3c18        0     1                 
    3c30     3c30        0     1                 
    3c48     3c48        0     1                 
    3c60     3c60        0     1                 
    3c88     3c88        0     1                 
    3ca0     3ca0        0     1                 
    3cb8     3cb8        0     1                 
    3cd0     3cd0        0     1                 
    3ce8     3ce8        0     1                 
    3d00     3d00        0     1                 
    3d18     3d18        0     1                 
    3d30     3d30        0     1                 
    3d58     3d58        0     1                 
    3d70     3d70        0     1                 
    3d88     3d88        0     1                 
    3db0     3db0        0     1                 
    3dc8     3dc8        0     1                 
    3de0     3de0        0     1                 
    3e00     3e00        0     1                 
    3e18     3e18        0     1                 
    3e30     3e30        0     1                 
    3e48     3e48        0     1                 
    3e60     3e60        0     1                 
    3e78     3e78        0     1                 
    3e90     3e90        0     1                 
    3ea8     3ea8        0     1                 
    3ec8     3ec8        0     1                 
    3ee0     3ee0        0     1                 
    3ef8     3ef8        0     1                 
    3f10     3f10        0     1                 
    3f28     3f28        0     1                 
    3f40     3f40        0     1                 
    3f58     3f58        0     1                 
    3f70     3f70        0     1                 
    3f90     3f90        0     1                 
    3fb0     3fb0        0     1                 
    3fc8     3fc8        0     1                 
    3fe0     3fe0        0     1                 
    3ff8     3ff8        0     1                 
    4010     4010        0     1                 
    4030     4030        0     1                 
    4050     4050        0     1                 
    4068     4068        0     1                 
    4080     4080        0     1                 
    40a0     40a0        0     1                 
    40c8     40c8        0     1                 
    40e0     40e0        0     1                 
    4100     4100        0     1                 
    4118     4118        0     1                 
    4130     4130        0     1                 
    4150     4150        0     1                 
    4168     4168        0     1                 
    4180     4180        0     1                 
    4198     4198        0     1                 
    41b8     41b8        0     1                 
    41d8     41d8        0     1                 
    4200     4200        0     1                 
    4220     4220        0     1                 
    4240     4240        0     1                 
    4260     4260        0     1                 
    4278     4278        0     1                 
    4290     4290        0     1                 
    42a8     42a8        0     1                 
    42c0     42c0        0     1                 
    42d8     42d8        0     1                 
    42f0     42f0        0     1                 
    4308     4308        0     1                 
    4320     4320        0     1                 
    4338     4338        0     1                 
    4360     4360        0     1                 
    4388     4388        0     1                 
    43b0     43b0        0     1                 
    43c8     43c8        0     1                 
    43e0     43e0        0     1                 
    43f8     43f8        0     1                 
    4410     4410        0     1                 
    4428     4428        0     1                 
    4440     4440        0     1                 
    4460     4460        0     1                 
    4478     4478        0     1                 
    4490     4490        0     1                 
    44b0     44b0        0     1                 
    44c8     44c8        0     1                 
    44e8     44e8        0     1                 
    4508     4508        0     1                 
    4528     4528        0     1                 
    4540     4540        0     1                 
    4558     4558        0     1                 
    4570     4570        0     1                 
    4590     4590        0     1                 
    45b0     45b0        0     1                 
    45d0     45d0        0     1                 
    45e8     45e8        0     1                 
    4608     4608        0     1                 
    4620     4620        0     1                 
    4638     4638        0     1                 
    4650     4650        0     1                 
    4668     4668        0     1                 
    4680     4680        0     1                 
    4698     4698        0     1                 
    46b0     46b0        0     1                 
    46c8     46c8        0     1                 
    46e0     46e0        0     1                 
    46f8     46f8        0     1                 
    4710     4710        0     1                 
    4730     4730        0     1                 
    4748     4748        0     1                 
    4760     4760        0     1                 
    4778     4778        0     1                 
    4790     4790        0     1                 
    47a8     47a8        0     1                 
    47c0     47c0        0     1                 
    47d8     47d8        0     1                 
    47f0     47f0        0     1                 
    4810     4810        0     1                 
    4830     4830        0     1                 
    4848     4848        0     1                 
    4860     4860        0     1                 
    4878     4878        0     1                 
    4890     4890        0     1                 
    48b0     48b0        0     1                 
    48d0     48d0        0     1                 
    48f0     48f0        0     1                 
    4908     4908        0     1                 
    4920     4920        0     1                 
    4938     4938        0     1                 
    4950     4950        0     1                 
    4968     4968        0     1                 
    4988     4988        0     1                 
    49a0     49a0        0     1                 
    49b8     49b8        0     1                 
    49d0     49d0        0     1                 
    49e8     49e8        0     1                 
    4a00     4a00        0     1                 
    4a18     4a18        0     1                 
    4a30     4a30        0     1                 
    4a48     4a48        0     1                 
    4a60     4a60        0     1                 
    4a78     4a78        0     1                 
    4a90     4a90        0     1                 
    4aa8     4aa8        0     1                 
    4ac0     4ac0        0     1                 
    4ad8     4ad8        0     1                 
    4af0     4af0        0     1                 
    4b08     4b08        0     1                 
    4b20     4b20        0     1                 
    4b38     4b38        0     1                 
    4b50     4b50        0     1                 
    4b68     4b68        0     1                 
    4b80     4b80        0     1                 
    4b98     4b98        0     1                 
    4bb0     4bb0        0     1                 
    4bc8     4bc8        0     1                 
    4be8     4be8        0     1                 
    4c00     4c00        0     1                 
    4c18     4c18        0     1                 
    4c30     4c30        0     1                 
    4c48     4c48        0     1                 
    4c60     4c60        0     1                 
    4c78     4c78        0     1                 
    4c98     4c98        0     1                 
    4cb8     4cb8        0     1                 
    4cd8     4cd8        0     1                 
    4cf8     4cf8        0     1                 
    4d20     4d20        0     1                 
    4d48     4d48        0     1                 
    4d70     4d70        0     1                 
    4d88     4d88        0     1                 
    4da0     4da0        0     1                 
    4db8     4db8        0     1                 
    4dd0     4dd0        0     1                 
    4df0     4df0        0     1                 
    4e10     4e10        0     1                 
    4e30     4e30        0     1                 
    4e48     4e48        0     1                 
    4e68     4e68        0     1                 
    4e88     4e88        0     1                 
    4ea8     4ea8        0     1                 
    4ec8     4ec8        0     1                 
    4ee8     4ee8        0     1                 
    4f18     4f18        0     1                 
    4f38     4f38        0     1                 
    4f58     4f58        0     1                 
    4f70     4f70        0     1                 
    4f88     4f88        0     1                 
    4fa8     4fa8        0     1                 
    4fc8     4fc8        0     1                 
    4fe8     4fe8        0     1                 
    5008     5008        0     1                 
    5028     5028        0     1                 
    5058     5058        0     1                 
    5070     5070        0     1                 
    50a0     50a0        0     1                 
    50d0     50d0        0     1                 
    50f8     50f8        0     1                 
    5120     5120        0     1                 
    5148     5148        0     1                 
    5170     5170        0     1                 
    5188     5188        0     1                 
    51b8     51b8        0     1                 
    51d8     51d8        0     1                 
    51f8     51f8        0     1                 
    5210     5210        0     1                 
    5228     5228        0     1                 
    5240     5240        0     1                 
    5258     5258        0     1                 
    5270     5270        0     1                 
    5288     5288        0     1                 
    52a0     52a0        0     1                 
    52b8     52b8        0     1                 
    52d0     52d0        0     1                 
    52f0     52f0        0     1                 
    5308     5308        0     1                 
    5320     5320        0     1                 
    5338     5338        0     1                 
    5350     5350        0     1                 
    5368     5368        0     1                 
    5380     5380        0     1                 
    5398     5398        0     1                 
    53b0     53b0        0     1                 
    53c8     53c8        0     1                 
    53e8     53e8        0     1                 
    5400     5400        0     1                 
    5418     5418        0     1                 
    5430     5430        0     1                 
    5448     5448        0     1                 
    5460     5460        0     1                 
    5478     5478        0     1                 
    5490     5490        0     1                 
    54a8     54a8        0     1                 
    54c0     54c0        0     1                 
    54d8     54d8        0     1                 
    54f0     54f0        0     1                 
    5508     5508        0     1                 
    5520     5520        0     1                 
    5538     5538        0     1                 
    5550     5550        0     1                 
    5568     5568        0     1                 
    5580     5580        0     1                 
    5598     5598        0     1                 
    55b0     55b0        0     1                 
    55c8     55c8        0     1                 
    55e0     55e0        0     1                 
    55f8     55f8        0     1                 
    5610     5610        0     1                 
    5628     5628        0     1                 
    5640     5640        0     1                 
    5658     5658        0     1                 
    5670     5670        0     1                 
    5688     5688        0     1                 
    56a0     56a0        0     1                 
    56b8     56b8        0     1                 
    56d0     56d0        0     1                 
    56e8     56e8        0     1                 
    5708     5708        0     1                 
    5728     5728        0     1                 
    5740     5740        0     1                 
    5758     5758        0     1                 
    5770     5770        0     1                 
    5788     5788        0     1                 
    57a0     57a0        0     1                 
    57b8     57b8        0     1                 
    57d0     57d0        0     1                 
    57e8     57e8        0     1                 
    5800     5800        0     1                 
    5818     5818        0     1                 
    5830     5830        0     1                 
    5850     5850        0     1                 
    5870     5870        0     1                 
    5888     5888        0     1                 
    58a0     58a0        0     1                 
    58b8     58b8        0     1                 
    58d0     58d0        0     1                 
    58f0     58f0        0     1                 
    5910     5910        0     1                 
    5930     5930        0     1                 
    5948     5948        0     1                 
    5960     5960        0     1                 
    5980     5980        0     1                 
    5998     5998        0     1                 
    59b0     59b0        0     1                 
    59c8     59c8        0     1                 
    59e0     59e0        0     1                 
    59f8     59f8        0     1                 
    5a10     5a10        0     1                 
    5a28     5a28        0     1                 
    5a40     5a40        0     1                 
    5a58     5a58        0     1                 
    5a70     5a70        0     1                 
    5a88     5a88        0     1                 
    5ab0     5ab0        0     1                 
    5ad8     5ad8        0     1                 
    5af0     5af0        0     1                 
    5b08     5b08        0     1                 
    5b20     5b20        0     1                 
    5b38     5b38        0     1                 
    5b50     5b50        0     1                 
    5b68     5b68        0     1                 
    5b80     5b80        0     1                 
    5b98     5b98        0     1                 
    5bc0     5bc0        0     1                 
    5be0     5be0        0     1                 
    5c00     5c00        0     1                 
    5c20     5c20        0     1                 
    5c40     5c40        0     1                 
    5c58     5c58        0     1                 
    5c70     5c70        0     1                 
    5c88     5c88        0     1                 
    5ca0     5ca0        0     1                 
    5cb8     5cb8        0     1                 
    5cd0     5cd0        0     1                 
    5ce8     5ce8        0     1                 
    5d08     5d08        0     1                 
    5d20     5d20        0     1                 
    5d48     5d48        0     1                 
    5d60     5d60        0     1                 
    5d78     5d78        0     1                 
    5d90     5d90        0     1                 
    5da8     5da8        0     1                 
    5dc8     5dc8        0     1                 
    5de0     5de0        0     1                 
    5df8     5df8        0     1                 
    5e10     5e10        0     1                 
    5e28     5e28        0     1                 
    5e40     5e40        0     1                 
    5e58     5e58        0     1                 
    5e78     5e78        0     1                 
    5e90     5e90        0     1                 
    5ea8     5ea8        0     1                 
    5ec0     5ec0        0     1                 
    5ee0     5ee0        0     1                 
    5f00     5f00        0     1                 
    5f18     5f18        0     1                 
    5f30     5f30        0     1                 
    5f48     5f48        0     1                 
    5f60     5f60        0     1                 
    5f78     5f78        0     1                 
    5f90     5f90        0     1                 
    5fa8     5fa8        0     1                 
    5fc0     5fc0        0     1                 
    5fd8     5fd8        0     1                 
    5ff0     5ff0        0     1                 
    6008     6008        0     1                 
    6020     6020        0     1                 
    6038     6038        0     1                 
    6050     6050        0     1                 
    6068     6068        0     1                 
    6080     6080        0     1                 
    6098     6098        0     1                 
    60b0     60b0        0     1                 
    60c8     60c8        0     1                 
    60e0     60e0        0     1                 
    6100     6100        0     1                 
    6118     6118        0     1                 
    6130     6130        0     1                 
    6148     6148        0     1                 
    6160     6160        0     1                 
    6178     6178        0     1                 
    6190     6190        0     1                 
    61a8     61a8        0     1                 
    61c0     61c0        0     1                 
    61d8     61d8        0     1                 
    61f0     61f0        0     1                 
    6208     6208        0     1                 
    6348     6348        0     1                 
    6360     6360        0     1                 
    6378     6378        0     1                 
    6390     6390        0     1                 
    63a8     63a8        0     1                 
    63c0     63c0        0     1                 
    63d8     63d8        0     1                 
    63f0     63f0        0     1                 
    6408     6408        0     1                 
    6420     6420        0     1                 
    6438     6438        0     1                 
    6460     6460        0     1                 
    6480     6480        0     1                 
    6498     6498        0     1                 
    64b0     64b0        0     1                 
    64c8     64c8        0     1                 
    6618     6618        0     1                 
    6768     6768        0     1                 
    6780     6780        0     1                 
    6798     6798        0     1                 
    67b0     67b0        0     1                 
    67d0     67d0        0     1                 
    67f0     67f0        0     1                 
    6818     6818        0     1                 
    6838     6838        0     1                 
    6858     6858        0     1                 
    6888     6888        0     1                 
    68a8     68a8        0     1                 
    68c8     68c8        0     1                 
    68e0     68e0        0     1                 
    68f8     68f8        0     1                 
    6920     6920        0     1                 
    6948     6948        0     1                 
    6960     6960        0     1                 
    6978     6978        0     1                 
    6990     6990        0     1                 
    69a8     69a8        0     1                 
    69c0     69c0        0     1                 
    69d8     69d8        0     1                 
    69f8     69f8        0     1                 
    6a18     6a18        0     1                 
    6a30     6a30        0     1                 
    6a48     6a48        0     1                 
    6a60     6a60        0     1                 
    6a78     6a78        0     1                 
    6a90     6a90        0     1                 
    6aa8     6aa8        0     1                 
    6ac0     6ac0        0     1                 
    6ad8     6ad8        0     1                 
    6af0     6af0        0     1                 
    6b08     6b08        0     1                 
    6b30     6b30        0     1                 
    6b58     6b58        0     1                 
    6b80     6b80        0     1                 
    6ba8     6ba8        0     1                 
    6bd0     6bd0        0     1                 
    6be8     6be8        0     1                 
    6c00     6c00        0     1                 
    6c18     6c18        0     1                 
    6c30     6c30        0     1                 
    6c50     6c50        0     1                 
    6c70     6c70        0     1                 
    6c90     6c90        0     1                 
    6ca8     6ca8        0     1                 
    6cc0     6cc0        0     1                 
    6cd8     6cd8        0     1                 
    6cf0     6cf0        0     1                 
    6d08     6d08        0     1                 
    6d20     6d20        0     1                 
    6d38     6d38        0     1                 
    6d50     6d50        0     1                 
    6d68     6d68        0     1                 
    6d80     6d80        0     1                 
    6d98     6d98        0     1                 
    6db0     6db0        0     1                 
    6dc8     6dc8        0     1                 
    6de0     6de0        0     1                 
    6df8     6df8        0     1                 
    6e10     6e10        0     1                 
    6e28     6e28        0     1                 
    6e40     6e40        0     1                 
    6e58     6e58        0     1                 
    6e70     6e70        0     1                 
    6e88     6e88        0     1                 
    6ea0     6ea0        0     1                 
    6eb8     6eb8        0     1                 
    6ed0     6ed0        0     1                 
    6ee8     6ee8        0     1                 
    6f00     6f00        0     1                 
    6f18     6f18        0     1                 
    6f30     6f30        0     1                 
    6f48     6f48        0     1                 
    6f60     6f60        0     1                 
    6f78     6f78        0     1                 
    6f90     6f90        0     1                 
    6fa8     6fa8        0     1                 
    6fc0     6fc0        0     1                 
    6fd8     6fd8        0     1                 
    6ff0     6ff0        0     1                 
    7008     7008        0     1                 
    7020     7020        0     1                 
    7038     7038        0     1                 
    7050     7050        0     1                 
    7068     7068        0     1                 
    7080     7080        0     1                 
    7098     7098        0     1                 
    70b0     70b0        0     1                 
    70c8     70c8        0     1                 
    70e0     70e0        0     1                 
    70f8     70f8        0     1                 
    7110     7110        0     1                 
    7128     7128        0     1                 
    7148     7148        0     1                 
    7168     7168        0     1                 
    7188     7188        0     1                 
    71a8     71a8        0     1                 
    71d0     71d0        0     1                 
    71f8     71f8        0     1                 
    7210     7210        0     1                 
    7228     7228        0     1                 
    7240     7240        0     1                 
    7260     7260        0     1                 
    7280     7280        0     1                 
    72a8     72a8        0     1                 
    72c8     72c8        0     1                 
    72f8     72f8        0     1                 
    7310     7310        0     1                 
    7328     7328        0     1                 
    7340     7340        0     1                 
    7358     7358        0     1                 
    7378     7378        0     1                 
    73a8     73a8        0     1                 
    73c8     73c8        0     1                 
    73e8     73e8        0     1                 
    7408     7408        0     1                 
    7420     7420        0     1                 
    7438     7438        0     1                 
    7450     7450        0     1                 
    7468     7468        0     1                 
    7488     7488        0     1                 
    74a8     74a8        0     1                 
    74c0     74c0        0     1                 
    74d8     74d8        0     1                 
    74f0     74f0        0     1                 
    7508     7508        0     1                 
    7520     7520        0     1                 
    7538     7538        0     1                 
    7558     7558        0     1                 
    7578     7578        0     1                 
    7590     7590        0     1                 
    75a8     75a8        0     1                 
    75c0     75c0        0     1                 
    75d8     75d8        0     1                 
    75f0     75f0        0     1                 
    7608     7608        0     1                 
    7620     7620        0     1                 
    7638     7638        0     1                 
    7658     7658        0     1                 
    7678     7678        0     1                 
    7698     7698        0     1                 
    76b8     76b8        0     1                 
    76d8     76d8        0     1                 
    76f0     76f0        0     1                 
    7708     7708        0     1                 
    7720     7720        0     1                 
    7738     7738        0     1                 
    7758     7758        0     1                 
    7778     7778        0     1                 
    7798     7798        0     1                 
    77b0     77b0        0     1                 
    77c8     77c8        0     1                 
    77e0     77e0        0     1                 
    77f8     77f8        0     1                 
    7810     7810        0     1                 
    7828     7828        0     1                 
    7840     7840        0     1                 
    7858     7858        0     1                 
    7870     7870        0     1                 
    7888     7888        0     1                 
    78a0     78a0        0     1                 
    78b8     78b8        0     1                 
    78d0     78d0        0     1                 
    78e8     78e8        0     1                 
    7900     7900        0     1                 
    7918     7918        0     1                 
    7930     7930        0     1                 
    7948     7948        0     1                 
    7960     7960        0     1                 
    7978     7978        0     1                 
    7990     7990        0     1                 
    79b0     79b0        0     1                 
    79d0     79d0        0     1                 
    79f0     79f0        0     1                 
    7a08     7a08        0     1                 
    7a20     7a20        0     1                 
    7a38     7a38        0     1                 
    7a50     7a50        0     1                 
    7a68     7a68        0     1                 
    7a80     7a80        0     1                 
    7a98     7a98        0     1                 
    7ab0     7ab0        0     1                 
    7ac8     7ac8        0     1                 
    7ae0     7ae0        0     1                 
    7af8     7af8        0     1                 
    7b10     7b10        0     1                 
    7b28     7b28        0     1                 
    7b40     7b40        0     1                 
    7b58     7b58        0     1                 
    7b70     7b70        0     1                 
    7b88     7b88        0     1                 
    7ba0     7ba0        0     1                 
    7bb8     7bb8        0     1                 
    7bd0     7bd0        0     1                 
    7be8     7be8        0     1                 
    7c00     7c00        0     1                 
    7c18     7c18        0     1                 
    7c30     7c30        0     1                 
    7c48     7c48        0     1                 
    7c60     7c60        0     1                 
    7c78     7c78        0     1                 
    7c90     7c90        0     1                 
    7ca8     7ca8        0     1                 
    7cc0     7cc0        0     1                 
    7cd8     7cd8        0     1                 
    7cf0     7cf0        0     1                 
    7d08     7d08        0     1                 
    7d20     7d20        0     1                 
    7d40     7d40        0     1                 
    7d58     7d58        0     1                 
    7d70     7d70        0     1                 
    7d88     7d88        0     1                 
    7da0     7da0        0     1                 
    7db8     7db8        0     1                 
    7dd8     7dd8        0     1                 
    7df0     7df0        0     1                 
    7e08     7e08        0     1                 
    7e20     7e20        0     1                 
    7e38     7e38        0     1                 
    7e58     7e58        0     1                 
    7e78     7e78        0     1                 
    7e90     7e90        0     1                 
    7ea8     7ea8        0     1                 
    7ec0     7ec0        0     1                 
    7ed8     7ed8        0     1                 
    7ef8     7ef8        0     1                 
    7f10     7f10        0     1                 
    7f28     7f28        0     1                 
    7f40     7f40        0     1                 
    7f58     7f58        0     1                 
    7f78     7f78        0     1                 
    7f90     7f90        0     1                 
    7fa8     7fa8        0     1                 
    7fc0     7fc0        0     1                 
    7fd8     7fd8        0     1                 
    7ff0     7ff0        0     1                 
    8008     8008        0     1                 
    8020     8020        0     1                 
    8038     8038        0     1                 
    8050     8050        0     1                 
    8068     8068        0     1                 
    8080     8080        0     1                 
    8098     8098        0     1                 
    80b0     80b0        0     1                 
    80c8     80c8        0     1                 
    80e0     80e0        0     1                 
    80f8     80f8        0     1                 
    8118     8118        0     1                 
    8158     8158        0     1                 
    8170     8170        0     1                 
    8188     8188        0     1                 
    81a0     81a0        0     1                 
    81b8     81b8        0     1                 
    81e8     81e8        0     1                 
    8200     8200        0     1                 
    8218     8218        0     1                 
    8230     8230        0     1                 
    8248     8248        0     1                 
    8278     8278        0     1                 
    8290     8290        0     1                 
    82a8     82a8        0     1                 
    82c0     82c0        0     1                 
    82d8     82d8        0     1                 
    82f0     82f0        0     1                 
    8308     8308        0     1                 
    8320     8320        0     1                 
    8338     8338        0     1                 
    8350     8350        0     1                 
    8368     8368        0     1                 
    8380     8380        0     1                 
    8398     8398        0     1                 
    83b0     83b0        0     1                 
    83c8     83c8        0     1                 
    83e0     83e0        0     1                 
    83f8     83f8        0     1                 
    8410     8410        0     1                 
    8428     8428        0     1                 
    8440     8440        0     1                 
    8458     8458        0     1                 
    8470     8470        0     1                 
    8488     8488        0     1                 
    84a0     84a0        0     1                 
    84b8     84b8        0     1                 
    84d0     84d0        0     1                 
    84e8     84e8        0     1                 
    8500     8500        0     1                 
    8530     8530        0     1                 
    8548     8548        0     1                 
    8560     8560        0     1                 
    8578     8578        0     1                 
    8590     8590        0     1                 
    85a8     85a8        0     1                 
    85c0     85c0        0     1                 
    85d8     85d8        0     1                 
    85f0     85f0        0     1                 
    8608     8608        0     1                 
    8620     8620        0     1                 
    8638     8638        0     1                 
    8660     8660        0     1                 
    8678     8678        0     1                 
    8690     8690        0     1                 
    86a8     86a8        0     1                 
    86c0     86c0        0     1                 
    86d8     86d8        0     1                 
    86f0     86f0        0     1                 
    8708     8708        0     1                 
    8720     8720        0     1                 
    8738     8738        0     1                 
    8750     8750        0     1                 
    8768     8768        0     1                 
    8780     8780        0     1                 
    8798     8798        0     1                 
    87b0     87b0        0     1                 
    87c8     87c8        0     1                 
    87e0     87e0        0     1                 
    87f8     87f8        0     1                 
    8810     8810        0     1                 
    8828     8828        0     1                 
    8840     8840        0     1                 
    8858     8858        0     1                 
    8870     8870        0     1                 
    8888     8888        0     1                 
    88a0     88a0        0     1                 
    88b8     88b8        0     1                 
    88d0     88d0        0     1                 
    88e8     88e8        0     1                 
    8900     8900        0     1                 
    8918     8918        0     1                 
    8930     8930        0     1                 
    8948     8948        0     1                 
    8960     8960        0     1                 
    8978     8978        0     1                 
    8990     8990        0     1                 
    89a8     89a8        0     1                 
    89c0     89c0        0     1                 
    89d8     89d8        0     1                 
    89f0     89f0        0     1                 
    8a08     8a08        0     1                 
    8a20     8a20        0     1                 
    8a38     8a38        0     1                 
    8a50     8a50        0     1                 
    8a68     8a68        0     1                 
    8a80     8a80        0     1                 
    8a98     8a98        0     1                 
    8ab0     8ab0        0     1                 
    8ac8     8ac8        0     1                 
    8ae0     8ae0        0     1                 
    8af8     8af8        0     1                 
    8b10     8b10        0     1                 
    8b28     8b28        0     1                 
    8b40     8b40        0     1                 
    8b58     8b58        0     1                 
    8b70     8b70        0     1                 
    8b88     8b88        0     1                 
    8ba0     8ba0        0     1                 
    8bb8     8bb8        0     1                 
    8bd0     8bd0        0     1                 
    8be8     8be8        0     1                 
    8c00     8c00        0     1                 
    8c18     8c18        0     1                 
    8c30     8c30        0     1                 
    8c48     8c48        0     1                 
    8c60     8c60        0     1                 
    8c78     8c78        0     1                 
    8c90     8c90        0     1                 
    8ca8     8ca8        0     1                 
    8cc0     8cc0        0     1                 
    8cd8     8cd8        0     1                 
    8cf0     8cf0        0     1                 
    8d08     8d08        0     1                 
    8d20     8d20        0     1                 
    8d38     8d38        0     1                 
    8d50     8d50        0     1                 
    8d68     8d68        0     1                 
    8d80     8d80        0     1                 
    8d98     8d98        0     1                 
    8db0     8db0        0     1                 
    8dc8     8dc8        0     1                 
    8de0     8de0        0     1                 
    8df8     8df8        0     1                 
    8e10     8e10        0     1                 
    8e28     8e28        0     1                 
    8e40     8e40        0     1                 
    8e58     8e58        0     1                 
    8e70     8e70        0     1                 
    8e88     8e88        0     1                 
    8ea0     8ea0        0     1                 
    8eb8     8eb8        0     1                 
    8ed0     8ed0        0     1                 
    8ee8     8ee8        0     1                 
    8f00     8f00        0     1                 
    8f18     8f18        0     1                 
    8f30     8f30        0     1                 
    8f48     8f48        0     1                 
    8f60     8f60        0     1                 
    8f78     8f78        0     1                 
    8f90     8f90        0     1                 
    8fa8     8fa8        0     1                 
    8fc0     8fc0        0     1                 
    8fd8     8fd8        0     1                 
    8ff0     8ff0        0     1                 
    9008     9008        0     1                 
    9020     9020        0     1                 
    9038     9038        0     1                 
    9050     9050        0     1                 
    9068     9068        0     1                 
    9080     9080        0     1                 
    9098     9098        0     1                 
    90b0     90b0        0     1                 
    90c8     90c8        0     1                 
    90e0     90e0        0     1                 
    90f8     90f8        0     1                 
    9110     9110        0     1                 
    9128     9128        0     1                 
    9140     9140        0     1                 
    9158     9158        0     1                 
    9170     9170        0     1                 
    9188     9188        0     1                 
    91a0     91a0        0     1                 
    91b8     91b8        0     1                 
    91d0     91d0        0     1                 
    91e8     91e8        0     1                 
    9200     9200        0     1                 
    9218     9218        0     1                 
    9230     9230        0     1                 
    9248     9248        0     1                 
    9260     9260        0     1                 
    9278     9278        0     1                 
    9290     9290        0     1                 
    92a8     92a8        0     1                 
    92c0     92c0        0     1                 
    92d8     92d8        0     1                 
    92f0     92f0        0     1                 
    9308     9308        0     1                 
    9320     9320        0     1                 
    9338     9338        0     1                 
    9350     9350        0     1                 
    9368     9368        0     1                 
    9380     9380        0     1                 
    9398     9398        0     1                 
    93b0     93b0        0     1                 
    93c8     93c8        0     1                 
    93e0     93e0        0     1                 
    93f8     93f8        0     1                 
    9410     9410        0     1                 
    9428     9428        0     1                 
    9440     9440        0     1                 
    9458     9458        0     1                 
    9470     9470        0     1                 
    9488     9488        0     1                 
    94a0     94a0        0     1                 
    94b8     94b8        0     1                 
    94d0     94d0        0     1                 
    94e8     94e8        0     1                 
    9500     9500        0     1                 
    9518     9518        0     1                 
    9530     9530        0     1                 
    9548     9548        0     1                 
    9560     9560        0     1                 
    9578     9578        0     1                 
    9590     9590        0     1                 
    95a8     95a8        0     1                 
    95c0     95c0        0     1                 
    95d8     95d8        0     1                 
    95f0     95f0        0     1                 
    9608     9608        0     1                 
    9620     9620        0     1                 
    9638     9638        0     1                 
    9650     9650        0     1                 
    9668     9668        0     1                 
    9680     9680        0     1                 
    9698     9698        0     1                 
    96b0     96b0        0     1                 
    96c8     96c8        0     1                 
    96e0     96e0        0     1                 
    96f8     96f8        0     1                 
    9710     9710        0     1                 
    9728     9728        0     1                 
    9740     9740        0     1                 
    9758     9758        0     1                 
    9770     9770        0     1                 
    9788     9788        0     1                 
    97a0     97a0        0     1                 
    97b8     97b8        0     1                 
    97d0     97d0        0     1                 
    97f8     97f8        0     1                 
    9820     9820        0     1                 
    9838     9838        0     1                 
    9860     9860        0     1                 
    9888     9888        0     1                 
    98a0     98a0        0     1                 
    98b8     98b8        0     1                 
    98d8     98d8        0     1                 
    98f8     98f8        0     1                 
    9910     9910        0     1                 
    9928     9928        0     1                 
    9940     9940        0     1                 
    9958     9958        0     1                 
    9970     9970        0     1                 
    9988     9988        0     1                 
    99a0     99a0        0     1                 
    99b8     99b8        0     1                 
    99d0     99d0        0     1                 
    99e8     99e8        0     1                 
    9a08     9a08        0     1                 
    9a20     9a20        0     1                 
    9a38     9a38        0     1                 
    9a50     9a50        0     1                 
    9a68     9a68        0     1                 
    9a80     9a80        0     1                 
    9a98     9a98        0     1                 
    9ab0     9ab0        0     1                 
    9ac8     9ac8        0     1                 
    9ae0     9ae0        0     1                 
    9af8     9af8        0     1                 
    9b10     9b10        0     1                 
    9b28     9b28        0     1                 
    9b40     9b40        0     1                 
    9b58     9b58        0     1                 
    9b70     9b70        0     1                 
    9b88     9b88        0     1                 
    9ba0     9ba0        0     1                 
    9bb8     9bb8        0     1                 
    9bd0     9bd0        0     1                 
    9be8     9be8        0     1                 
    9c08     9c08        0     1                 
    9c20     9c20        0     1                 
    9c38     9c38        0     1                 
    9c50     9c50        0     1                 
    9c70     9c70        0     1                 
    9c90     9c90        0     1                 
    9cb0     9cb0        0     1                 
    9cc8     9cc8        0     1                 
    9ce0     9ce0        0     1                 
    9cf8     9cf8        0     1                 
    9d10     9d10        0     1                 
    9d30     9d30        0     1                 
    9d50     9d50        0     1                 
    9d70     9d70        0     1                 
    9d88     9d88        0     1                 
    9da0     9da0        0     1                 
    9db8     9db8        0     1                 
    9dd0     9dd0        0     1                 
    9de8     9de8        0     1                 
    9e00     9e00        0     1                 
    9e18     9e18        0     1                 
    9e30     9e30        0     1                 
    9e48     9e48        0     1                 
    9e60     9e60        0     1                 
    9e78     9e78        0     1                 
    9e90     9e90        0     1                 
    9ea8     9ea8        0     1                 
    9ec0     9ec0        0     1                 
    9ed8     9ed8        0     1                 
    9ef0     9ef0        0     1                 
    9f08     9f08        0     1                 
    9f20     9f20        0     1                 
    9f38     9f38        0     1                 
    9f50     9f50        0     1                 
    9f68     9f68        0     1                 
    9f80     9f80        0     1                 
    9fa0     9fa0        0     1                 
    9fc0     9fc0        0     1                 
    9fe0     9fe0        0     1                 
    a008     a008        0     1                 
    a020     a020        0     1                 
    a038     a038        0     1                 
    a050     a050        0     1                 
    a068     a068        0     1                 
    a080     a080        0     1                 
    a098     a098        0     1                 
    a0b0     a0b0        0     1                 
    a0c8     a0c8        0     1                 
    a0e0     a0e0        0     1                 
    a0f8     a0f8        0     1                 
    a110     a110        0     1                 
    a128     a128        0     1                 
    a140     a140        0     1                 
    a158     a158        0     1                 
    a170     a170        0     1                 
    a188     a188        0     1                 
    a1a8     a1a8        0     1                 
    a1c0     a1c0        0     1                 
    a1d8     a1d8        0     1                 
    a1f0     a1f0        0     1                 
    a208     a208        0     1                 
    a220     a220        0     1                 
    a238     a238        0     1                 
    a250     a250        0     1                 
    a270     a270        0     1                 
    a288     a288        0     1                 
    a2a0     a2a0        0     1                 
    a2b8     a2b8        0     1                 
    a2d0     a2d0        0     1                 
    a2e8     a2e8        0     1                 
    a300     a300        0     1                 
    a318     a318        0     1                 
    a330     a330        0     1                 
    a348     a348        0     1                 
    a360     a360        0     1                 
    a378     a378        0     1                 
    a390     a390        0     1                 
    a3a8     a3a8        0     1                 
    a3c0     a3c0        0     1                 
    a3d8     a3d8        0     1                 
    a3f0     a3f0        0     1                 
    a408     a408        0     1                 
    a420     a420        0     1                 
    a438     a438        0     1                 
    a450     a450        0     1                 
    a468     a468        0     1                 
    a480     a480        0     1                 
    a498     a498        0     1                 
    a4b0     a4b0        0     1                 
    a4c8     a4c8        0     1                 
    a4e8     a4e8        0     1                 
    a500     a500        0     1                 
    a518     a518        0     1                 
    a530     a530        0     1                 
    a548     a548        0     1                 
    a560     a560        0     1                 
    a578     a578        0     1                 
    a590     a590        0     1                 
    a5a8     a5a8        0     1                 
    a5c0     a5c0        0     1                 
    a5d8     a5d8        0     1                 
    a5f0     a5f0        0     1                 
    a608     a608        0     1                 
    a620     a620        0     1                 
    a638     a638        0     1                 
    a650     a650        0     1                 
    a668     a668        0     1                 
    a680     a680        0     1                 
    a698     a698        0     1                 
    a6b0     a6b0        0     1                 
    a6c8     a6c8        0     1                 
    a6e0     a6e0        0     1                 
    a6f8     a6f8        0     1                 
    a710     a710        0     1                 
    a728     a728        0     1                 
    a740     a740        0     1                 
    a758     a758        0     1                 
    a778     a778        0     1                 
    a798     a798        0     1                 
    a7b8     a7b8        0     1                 
    a7d0     a7d0        0     1                 
    a7f0     a7f0        0     1                 
    a810     a810        0     1                 
    a830     a830        0     1                 
    a848     a848        0     1                 
    a860     a860        0     1                 
    a878     a878        0     1                 
    a890     a890        0     1                 
    a8a8     a8a8        0     1                 
    a8c0     a8c0        0     1                 
    a8d8     a8d8        0     1                 
    a8f0     a8f0        0     1                 
    a908     a908        0     1                 
    a920     a920        0     1                 
    a938     a938        0     1                 
    a950     a950        0     1                 
    a968     a968        0     1                 
    a980     a980        0     1                 
    a998     a998        0     1                 
    a9b0     a9b0        0     1                 
    a9d0     a9d0        0     1                 
    a9e8     a9e8        0     1                 
    aa00     aa00        0     1                 
    aa18     aa18        0     1                 
    aa30     aa30        0     1                 
    aa48     aa48        0     1                 
    aa60     aa60        0     1                 
    aa78     aa78        0     1                 
    aa90     aa90        0     1                 
    aaa8     aaa8        0     1                 
    aac0     aac0        0     1                 
    aad8     aad8        0     1                 
    aaf0     aaf0        0     1                 
    ab08     ab08        0     1                 
    ab20     ab20        0     1                 
    ab38     ab38        0     1                 
    ab50     ab50        0     1                 
    ab70     ab70        0     1                 
    ab88     ab88        0     1                 
    aba0     aba0        0     1                 
    abb8     abb8        0     1                 
    abd8     abd8        0     1                 
    abf0     abf0        0     1                 
    ac08     ac08        0     1                 
    ac20     ac20        0     1                 
    ac40     ac40        0     1                 
    ac60     ac60        0     1                 
    ac80     ac80        0     1                 
    ac98     ac98        0     1                 
    acb0     acb0        0     1                 
    acc8     acc8        0     1                 
    ace0     ace0        0     1                 
    acf8     acf8        0     1                 
    ad10     ad10        0     1                 
    ad28     ad28        0     1                 
    ad40     ad40        0     1                 
    ad58     ad58        0     1                 
    ad70     ad70        0     1                 
    ad88     ad88        0     1                 
    adb0     adb0        0     1                 
    add0     add0        0     1                 
    adf0     adf0        0     1                 
    ae08     ae08        0     1                 
    ae20     ae20        0     1                 
    ae38     ae38        0     1                 
    ae50     ae50        0     1                 
    ae68     ae68        0     1                 
    ae80     ae80        0     1                 
    ae98     ae98        0     1                 
    aeb0     aeb0        0     1                 
    aee0     aee0        0     1                 
    aef8     aef8        0     1                 
    af10     af10        0     1                 
    af28     af28        0     1                 
    af48     af48        0     1                 
    af68     af68        0     1                 
    af88     af88        0     1                 
    afa8     afa8        0     1                 
    afd0     afd0        0     1                 
    afe8     afe8        0     1                 
    b000     b000        0     1                 
    b018     b018        0     1                 
    b030     b030        0     1                 
    b060     b060        0     1                 
    b080     b080        0     1                 
    b0a0     b0a0        0     1                 
    b0c0     b0c0        0     1                 
    b0e0     b0e0        0     1                 
    b0f8     b0f8        0     1                 
    b110     b110        0     1                 
    b128     b128        0     1                 
    b148     b148        0     1                 
    b168     b168        0     1                 
    b188     b188        0     1                 
    b1a8     b1a8        0     1                 
    b1c0     b1c0        0     1                 
    b1d8     b1d8        0     1                 
    b1f0     b1f0        0     1                 
    b208     b208        0     1                 
    b220     b220        0     1                 
    b238     b238        0     1                 
    b250     b250        0     1                 
    b268     b268        0     1                 
    b280     b280        0     1                 
    b298     b298        0     1                 
    b2b0     b2b0        0     1                 
    b2d0     b2d0        0     1                 
    b2f0     b2f0        0     1                 
    b308     b308        0     1                 
    b320     b320        0     1                 
    b340     b340        0     1                 
    b358     b358        0     1                 
    b370     b370        0     1                 
    b388     b388        0     1                 
    b3a0     b3a0        0     1                 
    b3b8     b3b8        0     1                 
    b3d0     b3d0        0     1                 
    b3e8     b3e8        0     1                 
    b400     b400        0     1                 
    b418     b418        0     1                 
    b430     b430        0     1                 
    b448     b448        0     1                 
    b470     b470        0     1                 
    b490     b490        0     1                 
    b4b0     b4b0        0     1                 
    b4d8     b4d8        0     1                 
    b4f0     b4f0        0     1                 
    b508     b508        0     1                 
    b528     b528        0     1                 
    b540     b540        0     1                 
    b558     b558        0     1                 
    b570     b570        0     1                 
    b588     b588        0     1                 
    b5a0     b5a0        0     1                 
    b5b8     b5b8        0     1                 
    b5d0     b5d0        0     1                 
    b5e8     b5e8        0     1                 
    b600     b600        0     1                 
    b618     b618        0     1                 
    b630     b630        0     1                 
    b648     b648        0     1                 
    b660     b660        0     1                 
    b678     b678        0     1                 
    b690     b690        0     1                 
    b6a8     b6a8        0     1                 
    b6c0     b6c0        0     1                 
    b6d8     b6d8        0     1                 
    b6f0     b6f0        0     1                 
    b708     b708        0     1                 
    b720     b720        0     1                 
    b740     b740        0     1                 
    b758     b758        0     1                 
    b770     b770        0     1                 
    b788     b788        0     1                 
    b7a0     b7a0        0     1                 
    b7b8     b7b8        0     1                 
    b7d0     b7d0        0     1                 
    b7e8     b7e8        0     1                 
    b800     b800        0     1                 
    b818     b818        0     1                 
    b830     b830        0     1                 
    b848     b848        0     1                 
    b860     b860        0     1                 
    b878     b878        0     1                 
    b898     b898        0     1                 
    b8b8     b8b8        0     1                 
    b8d8     b8d8        0     1                 
    b8f0     b8f0        0     1                 
    b908     b908        0     1                 
    b920     b920        0     1                 
    b938     b938        0     1                 
    b950     b950        0     1                 
    b968     b968        0     1                 
    b980     b980        0     1                 
    b998     b998        0     1                 
    b9b0     b9b0        0     1                 
    b9d0     b9d0        0     1                 
    b9f0     b9f0        0     1                 
    ba10     ba10        0     1                 
    ba30     ba30        0     1                 
    ba50     ba50        0     1                 
    ba70     ba70        0     1                 
    ba88     ba88        0     1                 
    baa0     baa0        0     1                 
    bab8     bab8        0     1                 
    bad0     bad0        0     1                 
    bae8     bae8        0     1                 
    bb00     bb00        0     1                 
    bb18     bb18        0     1                 
    bb30     bb30        0     1                 
    bb48     bb48        0     1                 
    bb60     bb60        0     1                 
    bb78     bb78        0     1                 
    bb90     bb90        0     1                 
    bba8     bba8        0     1                 
    bbc0     bbc0        0     1                 
    bbd8     bbd8        0     1                 
    bbf0     bbf0        0     1                 
    bc08     bc08        0     1                 
    bc20     bc20        0     1                 
    bc38     bc38        0     1                 
    bc50     bc50        0     1                 
    bc68     bc68        0     1                 
    bc80     bc80        0     1                 
    bc98     bc98        0     1                 
    bcc0     bcc0        0     1                 
    bcd8     bcd8        0     1                 
    bcf0     bcf0        0     1                 
    bd08     bd08        0     1                 
    bd20     bd20        0     1                 
    bd38     bd38        0     1                 
    bd50     bd50        0     1                 
    bd78     bd78        0     1                 
    bd90     bd90        0     1                 
    bda8     bda8        0     1                 
    bdc0     bdc0        0     1                 
    bdd8     bdd8        0     1                 
    bdf0     bdf0        0     1                 
    be08     be08        0     1                 
    be20     be20        0     1                 
    be38     be38        0     1                 
    be50     be50        0     1                 
    be68     be68        0     1                 
    be80     be80        0     1                 
    be98     be98        0     1                 
    beb0     beb0        0     1                 
    bec8     bec8        0     1                 
    bee0     bee0        0     1                 
    bef8     bef8        0     1                 
    bf10     bf10        0     1                 
    bf28     bf28        0     1                 
    bf40     bf40        0     1                 
    bf58     bf58        0     1                 
    bf70     bf70        0     1                 
    bf88     bf88        0     1                 
    bfa0     bfa0        0     1                 
    bfb8     bfb8        0     1                 
    bfd0     bfd0        0     1                 
    bfe8     bfe8        0     1                 
    c000     c000        0     1                 
    c018     c018        0     1                 
    c030     c030        0     1                 
    c048     c048        0     1                 
    c060     c060        0     1                 
    c078     c078        0     1                 
    c090     c090        0     1                 
    c0b0     c0b0        0     1                 
    c0d0     c0d0        0     1                 
    c0f0     c0f0        0     1                 
    c108     c108        0     1                 
    c120     c120        0     1                 
    c138     c138        0     1                 
    c150     c150        0     1                 
    c168     c168        0     1                 
    c180     c180        0     1                 
    c1a0     c1a0        0     1                 
    c1c0     c1c0        0     1                 
    c1e0     c1e0        0     1                 
    c1f8     c1f8        0     1                 
    c210     c210        0     1                 
    c228     c228        0     1                 
    c240     c240        0     1                 
    c258     c258        0     1                 
    c270     c270        0     1                 
    c288     c288        0     1                 
    c2a0     c2a0        0     1                 
    c2b8     c2b8        0     1                 
    c2d8     c2d8        0     1                 
    c2f8     c2f8        0     1                 
    c318     c318        0     1                 
    c338     c338        0     1                 
    c358     c358        0     1                 
    c378     c378        0     1                 
    c390     c390        0     1                 
    c3a8     c3a8        0     1                 
    c3c0     c3c0        0     1                 
    c3d8     c3d8        0     1                 
    c3f0     c3f0        0     1                 
    c408     c408        0     1                 
    c428     c428        0     1                 
    c448     c448        0     1                 
    c468     c468        0     1                 
    c488     c488        0     1                 
    c4a8     c4a8        0     1                 
    c4c8     c4c8        0     1                 
    c4e0     c4e0        0     1                 
    c4f8     c4f8        0     1                 
    c510     c510        0     1                 
    c528     c528        0     1                 
    c540     c540        0     1                 
    c558     c558        0     1                 
    c570     c570        0     1                 
    c588     c588        0     1                 
    c5a0     c5a0        0     1                 
    c5b8     c5b8        0     1                 
    c5d0     c5d0        0     1                 
    c5e8     c5e8        0     1                 
    c600     c600        0     1                 
    c618     c618        0     1                 
    c630     c630        0     1                 
    c650     c650        0     1                 
    c670     c670        0     1                 
    c690     c690        0     1                 
    c6b0     c6b0        0     1                 
    c6d0     c6d0        0     1                 
    c6f0     c6f0        0     1                 
    c708     c708        0     1                 
    c720     c720        0     1                 
    c738     c738        0     1                 
    c750     c750        0     1                 
    c768     c768        0     1                 
    c780     c780        0     1                 
    c7a8     c7a8        0     1                 
    c7d0     c7d0        0     1                 
    c7f8     c7f8        0     1                 
    c818     c818        0     1                 
    c838     c838        0     1                 
    c858     c858        0     1                 
    c878     c878        0     1                 
    c898     c898        0     1                 
    c8b8     c8b8        0     1                 
    c8d0     c8d0        0     1                 
    c8e8     c8e8        0     1                 
    c900     c900        0     1                 
    c928     c928        0     1                 
    c950     c950        0     1                 
    c978     c978        0     1                 
    c998     c998        0     1                 
    c9b8     c9b8        0     1                 
    c9d8     c9d8        0     1                 
    c9f8     c9f8        0     1                 
    ca18     ca18        0     1                 
    ca38     ca38        0     1                 
    ca50     ca50        0     1                 
    ca68     ca68        0     1                 
    ca80     ca80        0     1                 
    caa0     caa0        0     1                 
    cac0     cac0        0     1                 
    cae0     cae0        0     1                 
    cb08     cb08        0     1                 
    cb30     cb30        0     1                 
    cb58     cb58        0     1                 
    cb80     cb80        0     1                 
    cba8     cba8        0     1                 
    cbd0     cbd0        0     1                 
    cbf8     cbf8        0     1                 
    cc20     cc20        0     1                 
    cc48     cc48        0     1                 
    cc70     cc70        0     1                 
    cc98     cc98        0     1                 
    ccc0     ccc0        0     1                 
    cce0     cce0        0     1                 
    cd00     cd00        0     1                 
    cd20     cd20        0     1                 
    cd40     cd40        0     1                 
    cd60     cd60        0     1                 
    cd80     cd80        0     1                 
    cda0     cda0        0     1                 
    cdc0     cdc0        0     1                 
    cde0     cde0        0     1                 
    ce00     ce00        0     1                 
    ce20     ce20        0     1                 
    ce40     ce40        0     1                 
    ce60     ce60        0     1                 
    ce80     ce80        0     1                 
    cea0     cea0        0     1                 
    cec0     cec0        0     1                 
    cee0     cee0        0     1                 
    cf00     cf00        0     1                 
    e4d0     e4d0       30     1         /Users/mabez/.rustup/toolchains/nightly-aarch64-apple-darwin/lib/rustlib/riscv32imac-unknown-none-elf/lib/libcompiler_builtins-1e32d751d3fb162c.rlib(compiler_builtins-1e32d751d3fb162c.compiler_builtins.864c03ce-cgu.104.rcgu.o):(.debug_ranges)
    e4d0     e4d0        0     1                 
    e4e8     e4e8        0     1                 
    e500     e500       78     1         /Users/mabez/.rustup/toolchains/nightly-aarch64-apple-darwin/lib/rustlib/riscv32imac-unknown-none-elf/lib/libcompiler_builtins-1e32d751d3fb162c.rlib(compiler_builtins-1e32d751d3fb162c.compiler_builtins.864c03ce-cgu.106.rcgu.o):(.debug_ranges)
    e500     e500        0     1                 
    e518     e518        0     1                 
    e530     e530        0     1                 
    e548     e548        0     1                 
    e560     e560        0     1                 
    e578     e578       c8     1         /Users/mabez/.rustup/toolchains/nightly-aarch64-apple-darwin/lib/rustlib/riscv32imac-unknown-none-elf/lib/libcompiler_builtins-1e32d751d3fb162c.rlib(compiler_builtins-1e32d751d3fb162c.compiler_builtins.864c03ce-cgu.111.rcgu.o):(.debug_ranges)
    e578     e578        0     1                 
    e5a0     e5a0        0     1                 
    e5c0     e5c0        0     1                 
    e5e8     e5e8        0     1                 
    e600     e600        0     1                 
    e620     e620        0     1                 
    e640     e640       40     1         /Users/mabez/.rustup/toolchains/nightly-aarch64-apple-darwin/lib/rustlib/riscv32imac-unknown-none-elf/lib/libcompiler_builtins-1e32d751d3fb162c.rlib(compiler_builtins-1e32d751d3fb162c.compiler_builtins.864c03ce-cgu.2.rcgu.o):(.debug_ranges)
    e640     e640        0     1                 
    e660     e660        0     1                 
    e680     e680       78     1         /Users/mabez/.rustup/toolchains/nightly-aarch64-apple-darwin/lib/rustlib/riscv32imac-unknown-none-elf/lib/libcompiler_builtins-1e32d751d3fb162c.rlib(compiler_builtins-1e32d751d3fb162c.compiler_builtins.864c03ce-cgu.20.rcgu.o):(.debug_ranges)
    e680     e680        0     1                 
    e6f8     e6f8       48     1         /Users/mabez/.rustup/toolchains/nightly-aarch64-apple-darwin/lib/rustlib/riscv32imac-unknown-none-elf/lib/libcompiler_builtins-1e32d751d3fb162c.rlib(compiler_builtins-1e32d751d3fb162c.compiler_builtins.864c03ce-cgu.27.rcgu.o):(.debug_ranges)
    e6f8     e6f8        0     1                 
    e710     e710        0     1                 
    e728     e728        0     1                 
    e740     e740       40     1         /Users/mabez/.rustup/toolchains/nightly-aarch64-apple-darwin/lib/rustlib/riscv32imac-unknown-none-elf/lib/libcompiler_builtins-1e32d751d3fb162c.rlib(compiler_builtins-1e32d751d3fb162c.compiler_builtins.864c03ce-cgu.69.rcgu.o):(.debug_ranges)
    e740     e740        0     1                 
    e760     e760        0     1                 
    e780     e780       48     1         /Users/mabez/.rustup/toolchains/nightly-aarch64-apple-darwin/lib/rustlib/riscv32imac-unknown-none-elf/lib/libcompiler_builtins-1e32d751d3fb162c.rlib(compiler_builtins-1e32d751d3fb162c.compiler_builtins.864c03ce-cgu.7.rcgu.o):(.debug_ranges)
    e780     e780        0     1                 
    e7b0     e7b0        0     1                 
    e7c8     e7c8       40     1         /Users/mabez/.rustup/toolchains/nightly-aarch64-apple-darwin/lib/rustlib/riscv32imac-unknown-none-elf/lib/libcompiler_builtins-1e32d751d3fb162c.rlib(compiler_builtins-1e32d751d3fb162c.compiler_builtins.864c03ce-cgu.71.rcgu.o):(.debug_ranges)
    e7c8     e7c8        0     1                 
    e7e8     e7e8        0     1                 
    e808     e808       30     1         /Users/mabez/.rustup/toolchains/nightly-aarch64-apple-darwin/lib/rustlib/riscv32imac-unknown-none-elf/lib/libcompiler_builtins-1e32d751d3fb162c.rlib(compiler_builtins-1e32d751d3fb162c.compiler_builtins.864c03ce-cgu.79.rcgu.o):(.debug_ranges)
    e808     e808        0     1                 
    e820     e820        0     1                 
    e838     e838       78     1         /Users/mabez/.rustup/toolchains/nightly-aarch64-apple-darwin/lib/rustlib/riscv32imac-unknown-none-elf/lib/libcompiler_builtins-1e32d751d3fb162c.rlib(compiler_builtins-1e32d751d3fb162c.compiler_builtins.864c03ce-cgu.8.rcgu.o):(.debug_ranges)
    e838     e838        0     1                 
    e850     e850        0     1                 
    e868     e868        0     1                 
    e880     e880        0     1                 
    e898     e898        0     1                 
    e8b0     e8b0       50     1         /Users/mabez/.rustup/toolchains/nightly-aarch64-apple-darwin/lib/rustlib/riscv32imac-unknown-none-elf/lib/libcompiler_builtins-1e32d751d3fb162c.rlib(compiler_builtins-1e32d751d3fb162c.compiler_builtins.864c03ce-cgu.82.rcgu.o):(.debug_ranges)
    e8b0     e8b0        0     1                 
    e8c8     e8c8        0     1                 
    e8e0     e8e0        0     1                 
    e900     e900       78     1         /Users/mabez/.rustup/toolchains/nightly-aarch64-apple-darwin/lib/rustlib/riscv32imac-unknown-none-elf/lib/libcompiler_builtins-1e32d751d3fb162c.rlib(compiler_builtins-1e32d751d3fb162c.compiler_builtins.864c03ce-cgu.120.rcgu.o):(.debug_ranges)
    e900     e900        0     1                 
    e918     e918        0     1                 
    e930     e930        0     1                 
    e948     e948        0     1                 
    e960     e960        0     1                 
    e978     e978       30     1         /Users/mabez/.rustup/toolchains/nightly-aarch64-apple-darwin/lib/rustlib/riscv32imac-unknown-none-elf/lib/libcompiler_builtins-1e32d751d3fb162c.rlib(compiler_builtins-1e32d751d3fb162c.compiler_builtins.864c03ce-cgu.92.rcgu.o):(.debug_ranges)
    e978     e978        0     1                 
    e990     e990        0     1                 
    e9a8     e9a8       70     1         /Users/mabez/Development/rust/embedded/experiments/esp32c3-experiments/target/riscv32imac-unknown-none-elf/debug/deps/libriscv_rt-792395b706c7e295.rlib(riscv_rt-792395b706c7e295.n23zmh27zi56vj2.rcgu.o):(.debug_ranges)
    e9a8     e9a8        0     1                 
    e9c0     e9c0        0     1                 
    e9d8     e9d8        0     1                 
    ea18     ea18       18     1         /Users/mabez/Development/rust/embedded/experiments/esp32c3-experiments/target/riscv32imac-unknown-none-elf/debug/deps/libriscv_rt-792395b706c7e295.rlib(riscv_rt-792395b706c7e295.2si3iiyx4w55gh9p.rcgu.o):(.debug_ranges)
    ea18     ea18        0     1                 
    ea30     ea30       20     1         /Users/mabez/Development/rust/embedded/experiments/esp32c3-experiments/target/riscv32imac-unknown-none-elf/debug/deps/libriscv_rt-792395b706c7e295.rlib(riscv_rt-792395b706c7e295.4l8nnv0gz5uboi7y.rcgu.o):(.debug_ranges)
    ea30     ea30        0     1                 
    ea50     ea50       28     1         /Users/mabez/Development/rust/embedded/experiments/esp32c3-experiments/target/riscv32imac-unknown-none-elf/debug/deps/libriscv_rt-792395b706c7e295.rlib(riscv_rt-792395b706c7e295.a1pdmtq419pk4l9.rcgu.o):(.debug_ranges)
    ea50     ea50        0     1                 
    ea78     ea78       68     1         /Users/mabez/Development/rust/embedded/experiments/esp32c3-experiments/target/riscv32imac-unknown-none-elf/debug/deps/libriscv-58bee4c49f9f92ec.rlib(riscv-58bee4c49f9f92ec.riscv.8be94b29-cgu.0.rcgu.o):(.debug_ranges)
    ea78     ea78        0     1                 
    ea90     ea90        0     1                 
    eae0     eae0       58     1         /Users/mabez/Development/rust/embedded/experiments/esp32c3-experiments/target/riscv32imac-unknown-none-elf/debug/deps/libriscv-58bee4c49f9f92ec.rlib(riscv-58bee4c49f9f92ec.riscv.8be94b29-cgu.9.rcgu.o):(.debug_ranges)
    eae0     eae0        0     1                 
    eb38     eb38       18     1         /Users/mabez/Development/rust/embedded/experiments/esp32c3-experiments/target/riscv32imac-unknown-none-elf/debug/deps/libriscv-58bee4c49f9f92ec.rlib(riscv-58bee4c49f9f92ec.riscv.8be94b29-cgu.4.rcgu.o):(.debug_ranges)
    eb38     eb38        0     1                 
    eb50     eb50       18     1         /Users/mabez/Development/rust/embedded/experiments/esp32c3-experiments/target/riscv32imac-unknown-none-elf/debug/deps/libriscv_rt-792395b706c7e295.rlib(riscv_rt-792395b706c7e295.2fig4fon7wqsswts.rcgu.o):(.debug_ranges)
    eb50     eb50        0     1                 
    eb68     eb68      418     1         /Users/mabez/Development/rust/embedded/experiments/esp32c3-experiments/target/riscv32imac-unknown-none-elf/debug/deps/libriscv_atomic_emulation_trap-36c6147cf3a7da2f.rlib(riscv_atomic_emulation_trap-36c6147cf3a7da2f.192heijy3m9d29qe.rcgu.o):(.debug_ranges)
    eb68     eb68        0     1                 
    eb80     eb80        0     1                 
    eb98     eb98        0     1                 
    ebb0     ebb0        0     1                 
    ebc8     ebc8        0     1                 
    ebe0     ebe0        0     1                 
    ebf8     ebf8        0     1                 
    ec10     ec10        0     1                 
    ec28     ec28        0     1                 
    ec40     ec40        0     1                 
    ec58     ec58        0     1                 
    ec70     ec70        0     1                 
    ec88     ec88        0     1                 
    eca0     eca0        0     1                 
    ecb8     ecb8        0     1                 
    ecd0     ecd0        0     1                 
    ece8     ece8        0     1                 
    ed00     ed00        0     1                 
    ed18     ed18        0     1                 
    ed30     ed30        0     1                 
    ed48     ed48        0     1                 
    ed60     ed60        0     1                 
    ed78     ed78        0     1                 
    ed90     ed90        0     1                 
    eda8     eda8        0     1                 
    edc0     edc0        0     1                 
    edd8     edd8        0     1                 
    edf0     edf0        0     1                 
    ee08     ee08        0     1                 
    ee28     ee28        0     1                 
    ee48     ee48        0     1                 
    ee68     ee68        0     1                 
    ee88     ee88        0     1                 
    eea8     eea8        0     1                 
    eed0     eed0        0     1                 
    eef0     eef0        0     1                 
    ef08     ef08        0     1                 
    ef20     ef20        0     1                 
    ef38     ef38        0     1                 
    ef50     ef50        0     1                 
    ef80     ef80       18     1         /Users/mabez/Development/rust/embedded/experiments/esp32c3-experiments/target/riscv32imac-unknown-none-elf/debug/deps/libriscv_atomic_emulation_trap-36c6147cf3a7da2f.rlib(riscv_atomic_emulation_trap-36c6147cf3a7da2f.4wwaujsdloo4dvp5.rcgu.o):(.debug_ranges)
    ef80     ef80        0     1                 
    ef98     ef98       50     1         /Users/mabez/Development/rust/embedded/experiments/esp32c3-experiments/target/riscv32imac-unknown-none-elf/debug/deps/libriscv_atomic_emulation_trap-36c6147cf3a7da2f.rlib(riscv_atomic_emulation_trap-36c6147cf3a7da2f.4l7k26w2j1wwfghy.rcgu.o):(.debug_ranges)
    ef98     ef98        0     1                 
    efe8     efe8       48     1         /Users/mabez/Development/rust/embedded/experiments/esp32c3-experiments/target/riscv32imac-unknown-none-elf/debug/deps/libriscv_atomic_emulation_trap-36c6147cf3a7da2f.rlib(riscv_atomic_emulation_trap-36c6147cf3a7da2f.be49seve1qmvobv.rcgu.o):(.debug_ranges)
    efe8     efe8        0     1                 
    f030     f030       20     1         /Users/mabez/Development/rust/embedded/experiments/esp32c3-experiments/target/riscv32imac-unknown-none-elf/debug/deps/libriscv_atomic_emulation_trap-36c6147cf3a7da2f.rlib(riscv_atomic_emulation_trap-36c6147cf3a7da2f.431el3q0783r85py.rcgu.o):(.debug_ranges)
    f030     f030        0     1                 
    f050     f050       18     1         /Users/mabez/Development/rust/embedded/experiments/esp32c3-experiments/target/riscv32imac-unknown-none-elf/debug/deps/libriscv_atomic_emulation_trap-36c6147cf3a7da2f.rlib(riscv_atomic_emulation_trap-36c6147cf3a7da2f.4q0r5d249n6epd3q.rcgu.o):(.debug_ranges)
    f050     f050        0     1                 
    f068     f068       28     1         /Users/mabez/Development/rust/embedded/experiments/esp32c3-experiments/target/riscv32imac-unknown-none-elf/debug/deps/libriscv_atomic_emulation_trap-36c6147cf3a7da2f.rlib(riscv_atomic_emulation_trap-36c6147cf3a7da2f.4z6enr9b9fac5dau.rcgu.o):(.debug_ranges)
    f068     f068        0     1                 
    f090     f090       68     1         /Users/mabez/Development/rust/embedded/experiments/esp32c3-experiments/target/riscv32imac-unknown-none-elf/debug/deps/libriscv-e6570dc03e37c02b.rlib(riscv-e6570dc03e37c02b.riscv.6a3f384f-cgu.0.rcgu.o):(.debug_ranges)
    f090     f090        0     1                 
    f0a8     f0a8        0     1                 
    f0f8     f0f8       60     1         /Users/mabez/Development/rust/embedded/experiments/esp32c3-experiments/target/riscv32imac-unknown-none-elf/debug/deps/libriscv-e6570dc03e37c02b.rlib(riscv-e6570dc03e37c02b.riscv.6a3f384f-cgu.10.rcgu.o):(.debug_ranges)
    f0f8     f0f8        0     1                 
    f158     f158       30     1         /Users/mabez/Development/rust/embedded/experiments/esp32c3-experiments/target/riscv32imac-unknown-none-elf/debug/deps/libriscv-e6570dc03e37c02b.rlib(riscv-e6570dc03e37c02b.riscv.6a3f384f-cgu.8.rcgu.o):(.debug_ranges)
    f158     f158        0     1                 
    f188     f188       18     1         /Users/mabez/Development/rust/embedded/experiments/esp32c3-experiments/target/riscv32imac-unknown-none-elf/debug/deps/libriscv-e6570dc03e37c02b.rlib(riscv-e6570dc03e37c02b.riscv.6a3f384f-cgu.4.rcgu.o):(.debug_ranges)
    f188     f188        0     1                 
    f1a0     f1a0       28     1         /Users/mabez/Development/rust/embedded/experiments/esp32c3-experiments/target/riscv32imac-unknown-none-elf/debug/deps/libriscv-e6570dc03e37c02b.rlib(riscv-e6570dc03e37c02b.riscv.6a3f384f-cgu.11.rcgu.o):(.debug_ranges)
    f1a0     f1a0        0     1                 
       0        0    36f36     1 .debug_str
       0        0    36f36     1         <internal>:(.debug_str)
       0        0    118e1     1 .debug_pubnames
       0        0      163     1         /Users/mabez/Development/rust/embedded/experiments/esp32c3-experiments/target/riscv32imac-unknown-none-elf/debug/deps/esp32c3-0792fe58911f872d.1e78zwiugb76rjx.rcgu.o:(.debug_pubnames)
     163      163       45     1         /Users/mabez/Development/rust/embedded/experiments/esp32c3-experiments/target/riscv32imac-unknown-none-elf/debug/deps/esp32c3-0792fe58911f872d.1gcjs714mi186sn9.rcgu.o:(.debug_pubnames)
     1a8      1a8       ad     1         /Users/mabez/Development/rust/embedded/experiments/esp32c3-experiments/target/riscv32imac-unknown-none-elf/debug/deps/esp32c3-0792fe58911f872d.1nerp55l46tnskb3.rcgu.o:(.debug_pubnames)
     255      255       ae     1         /Users/mabez/Development/rust/embedded/experiments/esp32c3-experiments/target/riscv32imac-unknown-none-elf/debug/deps/esp32c3-0792fe58911f872d.297xt9owoyeiose3.rcgu.o:(.debug_pubnames)
     303      303      146     1         /Users/mabez/Development/rust/embedded/experiments/esp32c3-experiments/target/riscv32imac-unknown-none-elf/debug/deps/esp32c3-0792fe58911f872d.31cobsrxn8v7n7js.rcgu.o:(.debug_pubnames)
     449      449      1ff     1         /Users/mabez/Development/rust/embedded/experiments/esp32c3-experiments/target/riscv32imac-unknown-none-elf/debug/deps/esp32c3-0792fe58911f872d.346chqw3v9dutnx9.rcgu.o:(.debug_pubnames)
     648      648       6e     1         /Users/mabez/Development/rust/embedded/experiments/esp32c3-experiments/target/riscv32imac-unknown-none-elf/debug/deps/esp32c3-0792fe58911f872d.3xtnx60qzz8qc3n4.rcgu.o:(.debug_pubnames)
     6b6      6b6       bb     1         /Users/mabez/Development/rust/embedded/experiments/esp32c3-experiments/target/riscv32imac-unknown-none-elf/debug/deps/esp32c3-0792fe58911f872d.4iv9b3d8r40y3mky.rcgu.o:(.debug_pubnames)
     771      771       df     1         /Users/mabez/Development/rust/embedded/experiments/esp32c3-experiments/target/riscv32imac-unknown-none-elf/debug/deps/esp32c3-0792fe58911f872d.4kaxk1bfd3ykn70p.rcgu.o:(.debug_pubnames)
     850      850       c0     1         /Users/mabez/Development/rust/embedded/experiments/esp32c3-experiments/target/riscv32imac-unknown-none-elf/debug/deps/esp32c3-0792fe58911f872d.4mcsimr84tlfxm5.rcgu.o:(.debug_pubnames)
     910      910       96     1         /Users/mabez/Development/rust/embedded/experiments/esp32c3-experiments/target/riscv32imac-unknown-none-elf/debug/deps/esp32c3-0792fe58911f872d.4zdnir3iq20zjvph.rcgu.o:(.debug_pubnames)
     9a6      9a6      109     1         /Users/mabez/Development/rust/embedded/experiments/esp32c3-experiments/target/riscv32imac-unknown-none-elf/debug/deps/esp32c3-0792fe58911f872d.52qxoexx5thxmllb.rcgu.o:(.debug_pubnames)
     aaf      aaf       e0     1         /Users/mabez/Development/rust/embedded/experiments/esp32c3-experiments/target/riscv32imac-unknown-none-elf/debug/deps/esp32c3-0792fe58911f872d.rcp7xlzvmfzbh1y.rcgu.o:(.debug_pubnames)
     b8f      b8f       4c     1         /Users/mabez/Development/rust/embedded/experiments/esp32c3-experiments/target/riscv32imac-unknown-none-elf/debug/deps/esp32c3-0792fe58911f872d.zm6375jlykl6cny.rcgu.o:(.debug_pubnames)
     bdb      bdb      398     1         /Users/mabez/Development/rust/embedded/experiments/esp32c3-experiments/target/riscv32imac-unknown-none-elf/debug/deps/librtt_target-c8a503ffaa8773f6.rlib(rtt_target-c8a503ffaa8773f6.rtt_target.49ad93cd-cgu.0.rcgu.o):(.debug_pubnames)
     f73      f73       6e     1         /Users/mabez/Development/rust/embedded/experiments/esp32c3-experiments/target/riscv32imac-unknown-none-elf/debug/deps/librtt_target-c8a503ffaa8773f6.rlib(rtt_target-c8a503ffaa8773f6.rtt_target.49ad93cd-cgu.1.rcgu.o):(.debug_pubnames)
     fe1      fe1      126     1         /Users/mabez/Development/rust/embedded/experiments/esp32c3-experiments/target/riscv32imac-unknown-none-elf/debug/deps/librtt_target-c8a503ffaa8773f6.rlib(rtt_target-c8a503ffaa8773f6.rtt_target.49ad93cd-cgu.10.rcgu.o):(.debug_pubnames)
    1107     1107       d9     1         /Users/mabez/Development/rust/embedded/experiments/esp32c3-experiments/target/riscv32imac-unknown-none-elf/debug/deps/librtt_target-c8a503ffaa8773f6.rlib(rtt_target-c8a503ffaa8773f6.rtt_target.49ad93cd-cgu.11.rcgu.o):(.debug_pubnames)
    11e0     11e0       fa     1         /Users/mabez/Development/rust/embedded/experiments/esp32c3-experiments/target/riscv32imac-unknown-none-elf/debug/deps/librtt_target-c8a503ffaa8773f6.rlib(rtt_target-c8a503ffaa8773f6.rtt_target.49ad93cd-cgu.12.rcgu.o):(.debug_pubnames)
    12da     12da       c1     1         /Users/mabez/Development/rust/embedded/experiments/esp32c3-experiments/target/riscv32imac-unknown-none-elf/debug/deps/librtt_target-c8a503ffaa8773f6.rlib(rtt_target-c8a503ffaa8773f6.rtt_target.49ad93cd-cgu.14.rcgu.o):(.debug_pubnames)
    139b     139b      17d     1         /Users/mabez/Development/rust/embedded/experiments/esp32c3-experiments/target/riscv32imac-unknown-none-elf/debug/deps/librtt_target-c8a503ffaa8773f6.rlib(rtt_target-c8a503ffaa8773f6.rtt_target.49ad93cd-cgu.15.rcgu.o):(.debug_pubnames)
    1518     1518      38c     1         /Users/mabez/Development/rust/embedded/experiments/esp32c3-experiments/target/riscv32imac-unknown-none-elf/debug/deps/librtt_target-c8a503ffaa8773f6.rlib(rtt_target-c8a503ffaa8773f6.rtt_target.49ad93cd-cgu.2.rcgu.o):(.debug_pubnames)
    18a4     18a4      128     1         /Users/mabez/Development/rust/embedded/experiments/esp32c3-experiments/target/riscv32imac-unknown-none-elf/debug/deps/librtt_target-c8a503ffaa8773f6.rlib(rtt_target-c8a503ffaa8773f6.rtt_target.49ad93cd-cgu.3.rcgu.o):(.debug_pubnames)
    19cc     19cc       79     1         /Users/mabez/Development/rust/embedded/experiments/esp32c3-experiments/target/riscv32imac-unknown-none-elf/debug/deps/librtt_target-c8a503ffaa8773f6.rlib(rtt_target-c8a503ffaa8773f6.rtt_target.49ad93cd-cgu.13.rcgu.o):(.debug_pubnames)
    1a45     1a45      164     1         /Users/mabez/Development/rust/embedded/experiments/esp32c3-experiments/target/riscv32imac-unknown-none-elf/debug/deps/librtt_target-c8a503ffaa8773f6.rlib(rtt_target-c8a503ffaa8773f6.rtt_target.49ad93cd-cgu.4.rcgu.o):(.debug_pubnames)
    1ba9     1ba9      248     1         /Users/mabez/Development/rust/embedded/experiments/esp32c3-experiments/target/riscv32imac-unknown-none-elf/debug/deps/librtt_target-c8a503ffaa8773f6.rlib(rtt_target-c8a503ffaa8773f6.rtt_target.49ad93cd-cgu.5.rcgu.o):(.debug_pubnames)
    1df1     1df1       a7     1         /Users/mabez/Development/rust/embedded/experiments/esp32c3-experiments/target/riscv32imac-unknown-none-elf/debug/deps/librtt_target-c8a503ffaa8773f6.rlib(rtt_target-c8a503ffaa8773f6.rtt_target.49ad93cd-cgu.6.rcgu.o):(.debug_pubnames)
    1e98     1e98      110     1         /Users/mabez/Development/rust/embedded/experiments/esp32c3-experiments/target/riscv32imac-unknown-none-elf/debug/deps/librtt_target-c8a503ffaa8773f6.rlib(rtt_target-c8a503ffaa8773f6.rtt_target.49ad93cd-cgu.7.rcgu.o):(.debug_pubnames)
    1fa8     1fa8      38c     1         /Users/mabez/Development/rust/embedded/experiments/esp32c3-experiments/target/riscv32imac-unknown-none-elf/debug/deps/librtt_target-c8a503ffaa8773f6.rlib(rtt_target-c8a503ffaa8773f6.rtt_target.49ad93cd-cgu.8.rcgu.o):(.debug_pubnames)
    2334     2334       96     1         /Users/mabez/Development/rust/embedded/experiments/esp32c3-experiments/target/riscv32imac-unknown-none-elf/debug/deps/librtt_target-c8a503ffaa8773f6.rlib(rtt_target-c8a503ffaa8773f6.rtt_target.49ad93cd-cgu.9.rcgu.o):(.debug_pubnames)
    23ca     23ca      10a     1         /Users/mabez/Development/rust/embedded/experiments/esp32c3-experiments/target/riscv32imac-unknown-none-elf/debug/deps/libesp32c3_lib-9b353d7564fdb320.rlib(esp32c3_lib-9b353d7564fdb320.4sht8tb4vhhjrf1k.rcgu.o):(.debug_pubnames)
    24d4     24d4       6a     1         /Users/mabez/Development/rust/embedded/experiments/esp32c3-experiments/target/riscv32imac-unknown-none-elf/debug/deps/libesp32c3_lib-9b353d7564fdb320.rlib(esp32c3_lib-9b353d7564fdb320.5etuwwf3di4agecu.rcgu.o):(.debug_pubnames)
    253e     253e      119     1         /Users/mabez/Development/rust/embedded/experiments/esp32c3-experiments/target/riscv32imac-unknown-none-elf/debug/deps/libesp32c3_lib-9b353d7564fdb320.rlib(esp32c3_lib-9b353d7564fdb320.l5295fvly9urzze.rcgu.o):(.debug_pubnames)
    2657     2657       77     1         /Users/mabez/Development/rust/embedded/experiments/esp32c3-experiments/target/riscv32imac-unknown-none-elf/debug/deps/libesp32c3_lib-9b353d7564fdb320.rlib(esp32c3_lib-9b353d7564fdb320.1021wqjltvlv5j9j.rcgu.o):(.debug_pubnames)
    26ce     26ce       64     1         /Users/mabez/Development/rust/embedded/experiments/esp32c3-experiments/target/riscv32imac-unknown-none-elf/debug/deps/libesp32c3_lib-9b353d7564fdb320.rlib(esp32c3_lib-9b353d7564fdb320.4egfjjip1nd9anee.rcgu.o):(.debug_pubnames)
    2732     2732       55     1         /Users/mabez/Development/rust/embedded/experiments/esp32c3-experiments/target/riscv32imac-unknown-none-elf/debug/deps/libesp32c3_lib-9b353d7564fdb320.rlib(esp32c3_lib-9b353d7564fdb320.32gpmocjzndmv0ky.rcgu.o):(.debug_pubnames)
    2787     2787       62     1         /Users/mabez/Development/rust/embedded/experiments/esp32c3-experiments/target/riscv32imac-unknown-none-elf/debug/deps/libesp32c3_lib-9b353d7564fdb320.rlib(esp32c3_lib-9b353d7564fdb320.47yjv4rnqkji4yx9.rcgu.o):(.debug_pubnames)
    27e9     27e9       29     1         /Users/mabez/Development/rust/embedded/experiments/esp32c3-experiments/target/riscv32imac-unknown-none-elf/debug/deps/libbare_metal-82dbc08a019da008.rlib(bare_metal-82dbc08a019da008.bare_metal.233bcc8d-cgu.0.rcgu.o):(.debug_pubnames)
    2812     2812       ca     1         /Users/mabez/Development/rust/embedded/experiments/esp32c3-experiments/target/riscv32imac-unknown-none-elf/debug/deps/libvoid-d8bfa8eb72c6fce6.rlib(void-d8bfa8eb72c6fce6.void.0c48974b-cgu.0.rcgu.o):(.debug_pubnames)
    28dc     28dc     b988     1         /Users/mabez/.rustup/toolchains/nightly-aarch64-apple-darwin/lib/rustlib/riscv32imac-unknown-none-elf/lib/libcore-081fd8405fc18f2e.rlib(core-081fd8405fc18f2e.core.756fe54c-cgu.0.rcgu.o):(.debug_pubnames)
    e264     e264       ca     1         /Users/mabez/.rustup/toolchains/nightly-aarch64-apple-darwin/lib/rustlib/riscv32imac-unknown-none-elf/lib/libcompiler_builtins-1e32d751d3fb162c.rlib(compiler_builtins-1e32d751d3fb162c.compiler_builtins.864c03ce-cgu.104.rcgu.o):(.debug_pubnames)
    e32e     e32e      1b5     1         /Users/mabez/.rustup/toolchains/nightly-aarch64-apple-darwin/lib/rustlib/riscv32imac-unknown-none-elf/lib/libcompiler_builtins-1e32d751d3fb162c.rlib(compiler_builtins-1e32d751d3fb162c.compiler_builtins.864c03ce-cgu.106.rcgu.o):(.debug_pubnames)
    e4e3     e4e3       e4     1         /Users/mabez/.rustup/toolchains/nightly-aarch64-apple-darwin/lib/rustlib/riscv32imac-unknown-none-elf/lib/libcompiler_builtins-1e32d751d3fb162c.rlib(compiler_builtins-1e32d751d3fb162c.compiler_builtins.864c03ce-cgu.11.rcgu.o):(.debug_pubnames)
    e5c7     e5c7      12a     1         /Users/mabez/.rustup/toolchains/nightly-aarch64-apple-darwin/lib/rustlib/riscv32imac-unknown-none-elf/lib/libcompiler_builtins-1e32d751d3fb162c.rlib(compiler_builtins-1e32d751d3fb162c.compiler_builtins.864c03ce-cgu.111.rcgu.o):(.debug_pubnames)
    e6f1     e6f1       f4     1         /Users/mabez/.rustup/toolchains/nightly-aarch64-apple-darwin/lib/rustlib/riscv32imac-unknown-none-elf/lib/libcompiler_builtins-1e32d751d3fb162c.rlib(compiler_builtins-1e32d751d3fb162c.compiler_builtins.864c03ce-cgu.2.rcgu.o):(.debug_pubnames)
    e7e5     e7e5      418     1         /Users/mabez/.rustup/toolchains/nightly-aarch64-apple-darwin/lib/rustlib/riscv32imac-unknown-none-elf/lib/libcompiler_builtins-1e32d751d3fb162c.rlib(compiler_builtins-1e32d751d3fb162c.compiler_builtins.864c03ce-cgu.20.rcgu.o):(.debug_pubnames)
    ebfd     ebfd       47     1         /Users/mabez/.rustup/toolchains/nightly-aarch64-apple-darwin/lib/rustlib/riscv32imac-unknown-none-elf/lib/libcompiler_builtins-1e32d751d3fb162c.rlib(compiler_builtins-1e32d751d3fb162c.compiler_builtins.864c03ce-cgu.21.rcgu.o):(.debug_pubnames)
    ec44     ec44       e5     1         /Users/mabez/.rustup/toolchains/nightly-aarch64-apple-darwin/lib/rustlib/riscv32imac-unknown-none-elf/lib/libcompiler_builtins-1e32d751d3fb162c.rlib(compiler_builtins-1e32d751d3fb162c.compiler_builtins.864c03ce-cgu.27.rcgu.o):(.debug_pubnames)
    ed29     ed29       47     1         /Users/mabez/.rustup/toolchains/nightly-aarch64-apple-darwin/lib/rustlib/riscv32imac-unknown-none-elf/lib/libcompiler_builtins-1e32d751d3fb162c.rlib(compiler_builtins-1e32d751d3fb162c.compiler_builtins.864c03ce-cgu.28.rcgu.o):(.debug_pubnames)
    ed70     ed70       f4     1         /Users/mabez/.rustup/toolchains/nightly-aarch64-apple-darwin/lib/rustlib/riscv32imac-unknown-none-elf/lib/libcompiler_builtins-1e32d751d3fb162c.rlib(compiler_builtins-1e32d751d3fb162c.compiler_builtins.864c03ce-cgu.69.rcgu.o):(.debug_pubnames)
    ee64     ee64      120     1         /Users/mabez/.rustup/toolchains/nightly-aarch64-apple-darwin/lib/rustlib/riscv32imac-unknown-none-elf/lib/libcompiler_builtins-1e32d751d3fb162c.rlib(compiler_builtins-1e32d751d3fb162c.compiler_builtins.864c03ce-cgu.7.rcgu.o):(.debug_pubnames)
    ef84     ef84       47     1         /Users/mabez/.rustup/toolchains/nightly-aarch64-apple-darwin/lib/rustlib/riscv32imac-unknown-none-elf/lib/libcompiler_builtins-1e32d751d3fb162c.rlib(compiler_builtins-1e32d751d3fb162c.compiler_builtins.864c03ce-cgu.70.rcgu.o):(.debug_pubnames)
    efcb     efcb       f4     1         /Users/mabez/.rustup/toolchains/nightly-aarch64-apple-darwin/lib/rustlib/riscv32imac-unknown-none-elf/lib/libcompiler_builtins-1e32d751d3fb162c.rlib(compiler_builtins-1e32d751d3fb162c.compiler_builtins.864c03ce-cgu.71.rcgu.o):(.debug_pubnames)
    f0bf     f0bf       ca     1         /Users/mabez/.rustup/toolchains/nightly-aarch64-apple-darwin/lib/rustlib/riscv32imac-unknown-none-elf/lib/libcompiler_builtins-1e32d751d3fb162c.rlib(compiler_builtins-1e32d751d3fb162c.compiler_builtins.864c03ce-cgu.79.rcgu.o):(.debug_pubnames)
    f189     f189      1b5     1         /Users/mabez/.rustup/toolchains/nightly-aarch64-apple-darwin/lib/rustlib/riscv32imac-unknown-none-elf/lib/libcompiler_builtins-1e32d751d3fb162c.rlib(compiler_builtins-1e32d751d3fb162c.compiler_builtins.864c03ce-cgu.8.rcgu.o):(.debug_pubnames)
    f33e     f33e      179     1         /Users/mabez/.rustup/toolchains/nightly-aarch64-apple-darwin/lib/rustlib/riscv32imac-unknown-none-elf/lib/libcompiler_builtins-1e32d751d3fb162c.rlib(compiler_builtins-1e32d751d3fb162c.compiler_builtins.864c03ce-cgu.82.rcgu.o):(.debug_pubnames)
    f4b7     f4b7       e5     1         /Users/mabez/.rustup/toolchains/nightly-aarch64-apple-darwin/lib/rustlib/riscv32imac-unknown-none-elf/lib/libcompiler_builtins-1e32d751d3fb162c.rlib(compiler_builtins-1e32d751d3fb162c.compiler_builtins.864c03ce-cgu.120.rcgu.o):(.debug_pubnames)
    f59c     f59c       ca     1         /Users/mabez/.rustup/toolchains/nightly-aarch64-apple-darwin/lib/rustlib/riscv32imac-unknown-none-elf/lib/libcompiler_builtins-1e32d751d3fb162c.rlib(compiler_builtins-1e32d751d3fb162c.compiler_builtins.864c03ce-cgu.92.rcgu.o):(.debug_pubnames)
    f666     f666      196     1         /Users/mabez/Development/rust/embedded/experiments/esp32c3-experiments/target/riscv32imac-unknown-none-elf/debug/deps/libriscv_rt-792395b706c7e295.rlib(riscv_rt-792395b706c7e295.n23zmh27zi56vj2.rcgu.o):(.debug_pubnames)
    f7fc     f7fc       9e     1         /Users/mabez/Development/rust/embedded/experiments/esp32c3-experiments/target/riscv32imac-unknown-none-elf/debug/deps/libriscv_rt-792395b706c7e295.rlib(riscv_rt-792395b706c7e295.2si3iiyx4w55gh9p.rcgu.o):(.debug_pubnames)
    f89a     f89a       9c     1         /Users/mabez/Development/rust/embedded/experiments/esp32c3-experiments/target/riscv32imac-unknown-none-elf/debug/deps/libriscv_rt-792395b706c7e295.rlib(riscv_rt-792395b706c7e295.nu58l7xx5z184oa.rcgu.o):(.debug_pubnames)
    f936     f936       3f     1         /Users/mabez/Development/rust/embedded/experiments/esp32c3-experiments/target/riscv32imac-unknown-none-elf/debug/deps/libriscv_rt-792395b706c7e295.rlib(riscv_rt-792395b706c7e295.40ecbdq24jylbsk0.rcgu.o):(.debug_pubnames)
    f975     f975       93     1         /Users/mabez/Development/rust/embedded/experiments/esp32c3-experiments/target/riscv32imac-unknown-none-elf/debug/deps/libriscv_rt-792395b706c7e295.rlib(riscv_rt-792395b706c7e295.4l8nnv0gz5uboi7y.rcgu.o):(.debug_pubnames)
    fa08     fa08       69     1         /Users/mabez/Development/rust/embedded/experiments/esp32c3-experiments/target/riscv32imac-unknown-none-elf/debug/deps/libriscv_rt-792395b706c7e295.rlib(riscv_rt-792395b706c7e295.a1pdmtq419pk4l9.rcgu.o):(.debug_pubnames)
    fa71     fa71      3c7     1         /Users/mabez/Development/rust/embedded/experiments/esp32c3-experiments/target/riscv32imac-unknown-none-elf/debug/deps/libriscv-58bee4c49f9f92ec.rlib(riscv-58bee4c49f9f92ec.riscv.8be94b29-cgu.0.rcgu.o):(.debug_pubnames)
    fe38     fe38      435     1         /Users/mabez/Development/rust/embedded/experiments/esp32c3-experiments/target/riscv32imac-unknown-none-elf/debug/deps/libriscv-58bee4c49f9f92ec.rlib(riscv-58bee4c49f9f92ec.riscv.8be94b29-cgu.9.rcgu.o):(.debug_pubnames)
   1026d    1026d       a4     1         /Users/mabez/Development/rust/embedded/experiments/esp32c3-experiments/target/riscv32imac-unknown-none-elf/debug/deps/libriscv-58bee4c49f9f92ec.rlib(riscv-58bee4c49f9f92ec.riscv.8be94b29-cgu.4.rcgu.o):(.debug_pubnames)
   10311    10311       48     1         /Users/mabez/Development/rust/embedded/experiments/esp32c3-experiments/target/riscv32imac-unknown-none-elf/debug/deps/libriscv_rt-792395b706c7e295.rlib(riscv_rt-792395b706c7e295.2fig4fon7wqsswts.rcgu.o):(.debug_pubnames)
   10359    10359       2c     1         /Users/mabez/Development/rust/embedded/experiments/esp32c3-experiments/target/riscv32imac-unknown-none-elf/debug/deps/libriscv_rt-792395b706c7e295.rlib(riscv_rt-792395b706c7e295.53lukflzfjg86k6f.rcgu.o):(.debug_pubnames)
   10385    10385       3d     1         /Users/mabez/Development/rust/embedded/experiments/esp32c3-experiments/target/riscv32imac-unknown-none-elf/debug/deps/libriscv_rt-792395b706c7e295.rlib(riscv_rt-792395b706c7e295.2h85xx65g8aqsgk3.rcgu.o):(.debug_pubnames)
   103c2    103c2      28f     1         /Users/mabez/Development/rust/embedded/experiments/esp32c3-experiments/target/riscv32imac-unknown-none-elf/debug/deps/libriscv_atomic_emulation_trap-36c6147cf3a7da2f.rlib(riscv_atomic_emulation_trap-36c6147cf3a7da2f.192heijy3m9d29qe.rcgu.o):(.debug_pubnames)
   10651    10651       6b     1         /Users/mabez/Development/rust/embedded/experiments/esp32c3-experiments/target/riscv32imac-unknown-none-elf/debug/deps/libriscv_atomic_emulation_trap-36c6147cf3a7da2f.rlib(riscv_atomic_emulation_trap-36c6147cf3a7da2f.4wwaujsdloo4dvp5.rcgu.o):(.debug_pubnames)
   106bc    106bc       47     1         /Users/mabez/Development/rust/embedded/experiments/esp32c3-experiments/target/riscv32imac-unknown-none-elf/debug/deps/libriscv_atomic_emulation_trap-36c6147cf3a7da2f.rlib(riscv_atomic_emulation_trap-36c6147cf3a7da2f.1mk8bwfvrfakb4yc.rcgu.o):(.debug_pubnames)
   10703    10703       50     1         /Users/mabez/Development/rust/embedded/experiments/esp32c3-experiments/target/riscv32imac-unknown-none-elf/debug/deps/libriscv_atomic_emulation_trap-36c6147cf3a7da2f.rlib(riscv_atomic_emulation_trap-36c6147cf3a7da2f.3grzare3werdor3q.rcgu.o):(.debug_pubnames)
   10753    10753       d7     1         /Users/mabez/Development/rust/embedded/experiments/esp32c3-experiments/target/riscv32imac-unknown-none-elf/debug/deps/libriscv_atomic_emulation_trap-36c6147cf3a7da2f.rlib(riscv_atomic_emulation_trap-36c6147cf3a7da2f.4l7k26w2j1wwfghy.rcgu.o):(.debug_pubnames)
   1082a    1082a      17a     1         /Users/mabez/Development/rust/embedded/experiments/esp32c3-experiments/target/riscv32imac-unknown-none-elf/debug/deps/libriscv_atomic_emulation_trap-36c6147cf3a7da2f.rlib(riscv_atomic_emulation_trap-36c6147cf3a7da2f.be49seve1qmvobv.rcgu.o):(.debug_pubnames)
   109a4    109a4      11a     1         /Users/mabez/Development/rust/embedded/experiments/esp32c3-experiments/target/riscv32imac-unknown-none-elf/debug/deps/libriscv_atomic_emulation_trap-36c6147cf3a7da2f.rlib(riscv_atomic_emulation_trap-36c6147cf3a7da2f.431el3q0783r85py.rcgu.o):(.debug_pubnames)
   10abe    10abe       68     1         /Users/mabez/Development/rust/embedded/experiments/esp32c3-experiments/target/riscv32imac-unknown-none-elf/debug/deps/libriscv_atomic_emulation_trap-36c6147cf3a7da2f.rlib(riscv_atomic_emulation_trap-36c6147cf3a7da2f.4q0r5d249n6epd3q.rcgu.o):(.debug_pubnames)
   10b26    10b26      21d     1         /Users/mabez/Development/rust/embedded/experiments/esp32c3-experiments/target/riscv32imac-unknown-none-elf/debug/deps/libriscv_atomic_emulation_trap-36c6147cf3a7da2f.rlib(riscv_atomic_emulation_trap-36c6147cf3a7da2f.4z6enr9b9fac5dau.rcgu.o):(.debug_pubnames)
   10d43    10d43      3c7     1         /Users/mabez/Development/rust/embedded/experiments/esp32c3-experiments/target/riscv32imac-unknown-none-elf/debug/deps/libriscv-e6570dc03e37c02b.rlib(riscv-e6570dc03e37c02b.riscv.6a3f384f-cgu.0.rcgu.o):(.debug_pubnames)
   1110a    1110a      483     1         /Users/mabez/Development/rust/embedded/experiments/esp32c3-experiments/target/riscv32imac-unknown-none-elf/debug/deps/libriscv-e6570dc03e37c02b.rlib(riscv-e6570dc03e37c02b.riscv.6a3f384f-cgu.10.rcgu.o):(.debug_pubnames)
   1158d    1158d      167     1         /Users/mabez/Development/rust/embedded/experiments/esp32c3-experiments/target/riscv32imac-unknown-none-elf/debug/deps/libriscv-e6570dc03e37c02b.rlib(riscv-e6570dc03e37c02b.riscv.6a3f384f-cgu.8.rcgu.o):(.debug_pubnames)
   116f4    116f4       a4     1         /Users/mabez/Development/rust/embedded/experiments/esp32c3-experiments/target/riscv32imac-unknown-none-elf/debug/deps/libriscv-e6570dc03e37c02b.rlib(riscv-e6570dc03e37c02b.riscv.6a3f384f-cgu.4.rcgu.o):(.debug_pubnames)
   11798    11798      149     1         /Users/mabez/Development/rust/embedded/experiments/esp32c3-experiments/target/riscv32imac-unknown-none-elf/debug/deps/libriscv-e6570dc03e37c02b.rlib(riscv-e6570dc03e37c02b.riscv.6a3f384f-cgu.11.rcgu.o):(.debug_pubnames)
       0        0     4b56     1 .debug_pubtypes
       0        0       92     1         /Users/mabez/Development/rust/embedded/experiments/esp32c3-experiments/target/riscv32imac-unknown-none-elf/debug/deps/esp32c3-0792fe58911f872d.1e78zwiugb76rjx.rcgu.o:(.debug_pubtypes)
      92       92       1c     1         /Users/mabez/Development/rust/embedded/experiments/esp32c3-experiments/target/riscv32imac-unknown-none-elf/debug/deps/esp32c3-0792fe58911f872d.1gcjs714mi186sn9.rcgu.o:(.debug_pubtypes)
      ae       ae       69     1         /Users/mabez/Development/rust/embedded/experiments/esp32c3-experiments/target/riscv32imac-unknown-none-elf/debug/deps/esp32c3-0792fe58911f872d.1nerp55l46tnskb3.rcgu.o:(.debug_pubtypes)
     117      117      25f     1         /Users/mabez/Development/rust/embedded/experiments/esp32c3-experiments/target/riscv32imac-unknown-none-elf/debug/deps/esp32c3-0792fe58911f872d.297xt9owoyeiose3.rcgu.o:(.debug_pubtypes)
     376      376      281     1         /Users/mabez/Development/rust/embedded/experiments/esp32c3-experiments/target/riscv32imac-unknown-none-elf/debug/deps/esp32c3-0792fe58911f872d.31cobsrxn8v7n7js.rcgu.o:(.debug_pubtypes)
     5f7      5f7      4d7     1         /Users/mabez/Development/rust/embedded/experiments/esp32c3-experiments/target/riscv32imac-unknown-none-elf/debug/deps/esp32c3-0792fe58911f872d.346chqw3v9dutnx9.rcgu.o:(.debug_pubtypes)
     ace      ace       7d     1         /Users/mabez/Development/rust/embedded/experiments/esp32c3-experiments/target/riscv32imac-unknown-none-elf/debug/deps/esp32c3-0792fe58911f872d.3xtnx60qzz8qc3n4.rcgu.o:(.debug_pubtypes)
     b4b      b4b       ad     1         /Users/mabez/Development/rust/embedded/experiments/esp32c3-experiments/target/riscv32imac-unknown-none-elf/debug/deps/esp32c3-0792fe58911f872d.4iv9b3d8r40y3mky.rcgu.o:(.debug_pubtypes)
     bf8      bf8       98     1         /Users/mabez/Development/rust/embedded/experiments/esp32c3-experiments/target/riscv32imac-unknown-none-elf/debug/deps/esp32c3-0792fe58911f872d.4kaxk1bfd3ykn70p.rcgu.o:(.debug_pubtypes)
     c90      c90       88     1         /Users/mabez/Development/rust/embedded/experiments/esp32c3-experiments/target/riscv32imac-unknown-none-elf/debug/deps/esp32c3-0792fe58911f872d.4mcsimr84tlfxm5.rcgu.o:(.debug_pubtypes)
     d18      d18       c5     1         /Users/mabez/Development/rust/embedded/experiments/esp32c3-experiments/target/riscv32imac-unknown-none-elf/debug/deps/esp32c3-0792fe58911f872d.4zdnir3iq20zjvph.rcgu.o:(.debug_pubtypes)
     ddd      ddd      42f     1         /Users/mabez/Development/rust/embedded/experiments/esp32c3-experiments/target/riscv32imac-unknown-none-elf/debug/deps/esp32c3-0792fe58911f872d.52qxoexx5thxmllb.rcgu.o:(.debug_pubtypes)
    120c     120c      2ea     1         /Users/mabez/Development/rust/embedded/experiments/esp32c3-experiments/target/riscv32imac-unknown-none-elf/debug/deps/esp32c3-0792fe58911f872d.rcp7xlzvmfzbh1y.rcgu.o:(.debug_pubtypes)
    14f6     14f6       4c     1         /Users/mabez/Development/rust/embedded/experiments/esp32c3-experiments/target/riscv32imac-unknown-none-elf/debug/deps/esp32c3-0792fe58911f872d.zm6375jlykl6cny.rcgu.o:(.debug_pubtypes)
    1542     1542      3a3     1         /Users/mabez/Development/rust/embedded/experiments/esp32c3-experiments/target/riscv32imac-unknown-none-elf/debug/deps/librtt_target-c8a503ffaa8773f6.rlib(rtt_target-c8a503ffaa8773f6.rtt_target.49ad93cd-cgu.0.rcgu.o):(.debug_pubtypes)
    18e5     18e5       7d     1         /Users/mabez/Development/rust/embedded/experiments/esp32c3-experiments/target/riscv32imac-unknown-none-elf/debug/deps/librtt_target-c8a503ffaa8773f6.rlib(rtt_target-c8a503ffaa8773f6.rtt_target.49ad93cd-cgu.1.rcgu.o):(.debug_pubtypes)
    1962     1962       7f     1         /Users/mabez/Development/rust/embedded/experiments/esp32c3-experiments/target/riscv32imac-unknown-none-elf/debug/deps/librtt_target-c8a503ffaa8773f6.rlib(rtt_target-c8a503ffaa8773f6.rtt_target.49ad93cd-cgu.10.rcgu.o):(.debug_pubtypes)
    19e1     19e1       6a     1         /Users/mabez/Development/rust/embedded/experiments/esp32c3-experiments/target/riscv32imac-unknown-none-elf/debug/deps/librtt_target-c8a503ffaa8773f6.rlib(rtt_target-c8a503ffaa8773f6.rtt_target.49ad93cd-cgu.11.rcgu.o):(.debug_pubtypes)
    1a4b     1a4b      223     1         /Users/mabez/Development/rust/embedded/experiments/esp32c3-experiments/target/riscv32imac-unknown-none-elf/debug/deps/librtt_target-c8a503ffaa8773f6.rlib(rtt_target-c8a503ffaa8773f6.rtt_target.49ad93cd-cgu.12.rcgu.o):(.debug_pubtypes)
    1c6e     1c6e       85     1         /Users/mabez/Development/rust/embedded/experiments/esp32c3-experiments/target/riscv32imac-unknown-none-elf/debug/deps/librtt_target-c8a503ffaa8773f6.rlib(rtt_target-c8a503ffaa8773f6.rtt_target.49ad93cd-cgu.14.rcgu.o):(.debug_pubtypes)
    1cf3     1cf3       fd     1         /Users/mabez/Development/rust/embedded/experiments/esp32c3-experiments/target/riscv32imac-unknown-none-elf/debug/deps/librtt_target-c8a503ffaa8773f6.rlib(rtt_target-c8a503ffaa8773f6.rtt_target.49ad93cd-cgu.15.rcgu.o):(.debug_pubtypes)
    1df0     1df0      47a     1         /Users/mabez/Development/rust/embedded/experiments/esp32c3-experiments/target/riscv32imac-unknown-none-elf/debug/deps/librtt_target-c8a503ffaa8773f6.rlib(rtt_target-c8a503ffaa8773f6.rtt_target.49ad93cd-cgu.2.rcgu.o):(.debug_pubtypes)
    226a     226a       c4     1         /Users/mabez/Development/rust/embedded/experiments/esp32c3-experiments/target/riscv32imac-unknown-none-elf/debug/deps/librtt_target-c8a503ffaa8773f6.rlib(rtt_target-c8a503ffaa8773f6.rtt_target.49ad93cd-cgu.3.rcgu.o):(.debug_pubtypes)
    232e     232e       70     1         /Users/mabez/Development/rust/embedded/experiments/esp32c3-experiments/target/riscv32imac-unknown-none-elf/debug/deps/librtt_target-c8a503ffaa8773f6.rlib(rtt_target-c8a503ffaa8773f6.rtt_target.49ad93cd-cgu.13.rcgu.o):(.debug_pubtypes)
    239e     239e      1b8     1         /Users/mabez/Development/rust/embedded/experiments/esp32c3-experiments/target/riscv32imac-unknown-none-elf/debug/deps/librtt_target-c8a503ffaa8773f6.rlib(rtt_target-c8a503ffaa8773f6.rtt_target.49ad93cd-cgu.4.rcgu.o):(.debug_pubtypes)
    2556     2556      4b0     1         /Users/mabez/Development/rust/embedded/experiments/esp32c3-experiments/target/riscv32imac-unknown-none-elf/debug/deps/librtt_target-c8a503ffaa8773f6.rlib(rtt_target-c8a503ffaa8773f6.rtt_target.49ad93cd-cgu.5.rcgu.o):(.debug_pubtypes)
    2a06     2a06      304     1         /Users/mabez/Development/rust/embedded/experiments/esp32c3-experiments/target/riscv32imac-unknown-none-elf/debug/deps/librtt_target-c8a503ffaa8773f6.rlib(rtt_target-c8a503ffaa8773f6.rtt_target.49ad93cd-cgu.6.rcgu.o):(.debug_pubtypes)
    2d0a     2d0a      112     1         /Users/mabez/Development/rust/embedded/experiments/esp32c3-experiments/target/riscv32imac-unknown-none-elf/debug/deps/librtt_target-c8a503ffaa8773f6.rlib(rtt_target-c8a503ffaa8773f6.rtt_target.49ad93cd-cgu.7.rcgu.o):(.debug_pubtypes)
    2e1c     2e1c      225     1         /Users/mabez/Development/rust/embedded/experiments/esp32c3-experiments/target/riscv32imac-unknown-none-elf/debug/deps/librtt_target-c8a503ffaa8773f6.rlib(rtt_target-c8a503ffaa8773f6.rtt_target.49ad93cd-cgu.8.rcgu.o):(.debug_pubtypes)
    3041     3041       69     1         /Users/mabez/Development/rust/embedded/experiments/esp32c3-experiments/target/riscv32imac-unknown-none-elf/debug/deps/librtt_target-c8a503ffaa8773f6.rlib(rtt_target-c8a503ffaa8773f6.rtt_target.49ad93cd-cgu.9.rcgu.o):(.debug_pubtypes)
    30aa     30aa       ea     1         /Users/mabez/Development/rust/embedded/experiments/esp32c3-experiments/target/riscv32imac-unknown-none-elf/debug/deps/libesp32c3_lib-9b353d7564fdb320.rlib(esp32c3_lib-9b353d7564fdb320.4sht8tb4vhhjrf1k.rcgu.o):(.debug_pubtypes)
    3194     3194       4b     1         /Users/mabez/Development/rust/embedded/experiments/esp32c3-experiments/target/riscv32imac-unknown-none-elf/debug/deps/libesp32c3_lib-9b353d7564fdb320.rlib(esp32c3_lib-9b353d7564fdb320.5etuwwf3di4agecu.rcgu.o):(.debug_pubtypes)
    31df     31df       b5     1         /Users/mabez/Development/rust/embedded/experiments/esp32c3-experiments/target/riscv32imac-unknown-none-elf/debug/deps/libesp32c3_lib-9b353d7564fdb320.rlib(esp32c3_lib-9b353d7564fdb320.l5295fvly9urzze.rcgu.o):(.debug_pubtypes)
    3294     3294       75     1         /Users/mabez/Development/rust/embedded/experiments/esp32c3-experiments/target/riscv32imac-unknown-none-elf/debug/deps/libesp32c3_lib-9b353d7564fdb320.rlib(esp32c3_lib-9b353d7564fdb320.1021wqjltvlv5j9j.rcgu.o):(.debug_pubtypes)
    3309     3309       30     1         /Users/mabez/Development/rust/embedded/experiments/esp32c3-experiments/target/riscv32imac-unknown-none-elf/debug/deps/libesp32c3_lib-9b353d7564fdb320.rlib(esp32c3_lib-9b353d7564fdb320.4egfjjip1nd9anee.rcgu.o):(.debug_pubtypes)
    3339     3339       43     1         /Users/mabez/Development/rust/embedded/experiments/esp32c3-experiments/target/riscv32imac-unknown-none-elf/debug/deps/libesp32c3_lib-9b353d7564fdb320.rlib(esp32c3_lib-9b353d7564fdb320.32gpmocjzndmv0ky.rcgu.o):(.debug_pubtypes)
    337c     337c       2e     1         /Users/mabez/Development/rust/embedded/experiments/esp32c3-experiments/target/riscv32imac-unknown-none-elf/debug/deps/libesp32c3_lib-9b353d7564fdb320.rlib(esp32c3_lib-9b353d7564fdb320.47yjv4rnqkji4yx9.rcgu.o):(.debug_pubtypes)
    33aa     33aa       2d     1         /Users/mabez/Development/rust/embedded/experiments/esp32c3-experiments/target/riscv32imac-unknown-none-elf/debug/deps/libbare_metal-82dbc08a019da008.rlib(bare_metal-82dbc08a019da008.bare_metal.233bcc8d-cgu.0.rcgu.o):(.debug_pubtypes)
    33d7     33d7       cd     1         /Users/mabez/Development/rust/embedded/experiments/esp32c3-experiments/target/riscv32imac-unknown-none-elf/debug/deps/libvoid-d8bfa8eb72c6fce6.rlib(void-d8bfa8eb72c6fce6.void.0c48974b-cgu.0.rcgu.o):(.debug_pubtypes)
    34a4     34a4       12     1         /Users/mabez/.rustup/toolchains/nightly-aarch64-apple-darwin/lib/rustlib/riscv32imac-unknown-none-elf/lib/libcore-081fd8405fc18f2e.rlib(core-081fd8405fc18f2e.core.756fe54c-cgu.0.rcgu.o):(.debug_pubtypes)
    34b6     34b6       12     1         /Users/mabez/.rustup/toolchains/nightly-aarch64-apple-darwin/lib/rustlib/riscv32imac-unknown-none-elf/lib/libcompiler_builtins-1e32d751d3fb162c.rlib(compiler_builtins-1e32d751d3fb162c.compiler_builtins.864c03ce-cgu.104.rcgu.o):(.debug_pubtypes)
    34c8     34c8       12     1         /Users/mabez/.rustup/toolchains/nightly-aarch64-apple-darwin/lib/rustlib/riscv32imac-unknown-none-elf/lib/libcompiler_builtins-1e32d751d3fb162c.rlib(compiler_builtins-1e32d751d3fb162c.compiler_builtins.864c03ce-cgu.106.rcgu.o):(.debug_pubtypes)
    34da     34da       12     1         /Users/mabez/.rustup/toolchains/nightly-aarch64-apple-darwin/lib/rustlib/riscv32imac-unknown-none-elf/lib/libcompiler_builtins-1e32d751d3fb162c.rlib(compiler_builtins-1e32d751d3fb162c.compiler_builtins.864c03ce-cgu.11.rcgu.o):(.debug_pubtypes)
    34ec     34ec       12     1         /Users/mabez/.rustup/toolchains/nightly-aarch64-apple-darwin/lib/rustlib/riscv32imac-unknown-none-elf/lib/libcompiler_builtins-1e32d751d3fb162c.rlib(compiler_builtins-1e32d751d3fb162c.compiler_builtins.864c03ce-cgu.111.rcgu.o):(.debug_pubtypes)
    34fe     34fe       12     1         /Users/mabez/.rustup/toolchains/nightly-aarch64-apple-darwin/lib/rustlib/riscv32imac-unknown-none-elf/lib/libcompiler_builtins-1e32d751d3fb162c.rlib(compiler_builtins-1e32d751d3fb162c.compiler_builtins.864c03ce-cgu.2.rcgu.o):(.debug_pubtypes)
    3510     3510       12     1         /Users/mabez/.rustup/toolchains/nightly-aarch64-apple-darwin/lib/rustlib/riscv32imac-unknown-none-elf/lib/libcompiler_builtins-1e32d751d3fb162c.rlib(compiler_builtins-1e32d751d3fb162c.compiler_builtins.864c03ce-cgu.20.rcgu.o):(.debug_pubtypes)
    3522     3522       12     1         /Users/mabez/.rustup/toolchains/nightly-aarch64-apple-darwin/lib/rustlib/riscv32imac-unknown-none-elf/lib/libcompiler_builtins-1e32d751d3fb162c.rlib(compiler_builtins-1e32d751d3fb162c.compiler_builtins.864c03ce-cgu.21.rcgu.o):(.debug_pubtypes)
    3534     3534       12     1         /Users/mabez/.rustup/toolchains/nightly-aarch64-apple-darwin/lib/rustlib/riscv32imac-unknown-none-elf/lib/libcompiler_builtins-1e32d751d3fb162c.rlib(compiler_builtins-1e32d751d3fb162c.compiler_builtins.864c03ce-cgu.27.rcgu.o):(.debug_pubtypes)
    3546     3546       12     1         /Users/mabez/.rustup/toolchains/nightly-aarch64-apple-darwin/lib/rustlib/riscv32imac-unknown-none-elf/lib/libcompiler_builtins-1e32d751d3fb162c.rlib(compiler_builtins-1e32d751d3fb162c.compiler_builtins.864c03ce-cgu.28.rcgu.o):(.debug_pubtypes)
    3558     3558       12     1         /Users/mabez/.rustup/toolchains/nightly-aarch64-apple-darwin/lib/rustlib/riscv32imac-unknown-none-elf/lib/libcompiler_builtins-1e32d751d3fb162c.rlib(compiler_builtins-1e32d751d3fb162c.compiler_builtins.864c03ce-cgu.69.rcgu.o):(.debug_pubtypes)
    356a     356a       12     1         /Users/mabez/.rustup/toolchains/nightly-aarch64-apple-darwin/lib/rustlib/riscv32imac-unknown-none-elf/lib/libcompiler_builtins-1e32d751d3fb162c.rlib(compiler_builtins-1e32d751d3fb162c.compiler_builtins.864c03ce-cgu.7.rcgu.o):(.debug_pubtypes)
    357c     357c       12     1         /Users/mabez/.rustup/toolchains/nightly-aarch64-apple-darwin/lib/rustlib/riscv32imac-unknown-none-elf/lib/libcompiler_builtins-1e32d751d3fb162c.rlib(compiler_builtins-1e32d751d3fb162c.compiler_builtins.864c03ce-cgu.70.rcgu.o):(.debug_pubtypes)
    358e     358e       12     1         /Users/mabez/.rustup/toolchains/nightly-aarch64-apple-darwin/lib/rustlib/riscv32imac-unknown-none-elf/lib/libcompiler_builtins-1e32d751d3fb162c.rlib(compiler_builtins-1e32d751d3fb162c.compiler_builtins.864c03ce-cgu.71.rcgu.o):(.debug_pubtypes)
    35a0     35a0       12     1         /Users/mabez/.rustup/toolchains/nightly-aarch64-apple-darwin/lib/rustlib/riscv32imac-unknown-none-elf/lib/libcompiler_builtins-1e32d751d3fb162c.rlib(compiler_builtins-1e32d751d3fb162c.compiler_builtins.864c03ce-cgu.79.rcgu.o):(.debug_pubtypes)
    35b2     35b2       12     1         /Users/mabez/.rustup/toolchains/nightly-aarch64-apple-darwin/lib/rustlib/riscv32imac-unknown-none-elf/lib/libcompiler_builtins-1e32d751d3fb162c.rlib(compiler_builtins-1e32d751d3fb162c.compiler_builtins.864c03ce-cgu.8.rcgu.o):(.debug_pubtypes)
    35c4     35c4       12     1         /Users/mabez/.rustup/toolchains/nightly-aarch64-apple-darwin/lib/rustlib/riscv32imac-unknown-none-elf/lib/libcompiler_builtins-1e32d751d3fb162c.rlib(compiler_builtins-1e32d751d3fb162c.compiler_builtins.864c03ce-cgu.82.rcgu.o):(.debug_pubtypes)
    35d6     35d6       12     1         /Users/mabez/.rustup/toolchains/nightly-aarch64-apple-darwin/lib/rustlib/riscv32imac-unknown-none-elf/lib/libcompiler_builtins-1e32d751d3fb162c.rlib(compiler_builtins-1e32d751d3fb162c.compiler_builtins.864c03ce-cgu.120.rcgu.o):(.debug_pubtypes)
    35e8     35e8       12     1         /Users/mabez/.rustup/toolchains/nightly-aarch64-apple-darwin/lib/rustlib/riscv32imac-unknown-none-elf/lib/libcompiler_builtins-1e32d751d3fb162c.rlib(compiler_builtins-1e32d751d3fb162c.compiler_builtins.864c03ce-cgu.92.rcgu.o):(.debug_pubtypes)
    35fa     35fa      177     1         /Users/mabez/Development/rust/embedded/experiments/esp32c3-experiments/target/riscv32imac-unknown-none-elf/debug/deps/libriscv_rt-792395b706c7e295.rlib(riscv_rt-792395b706c7e295.n23zmh27zi56vj2.rcgu.o):(.debug_pubtypes)
    3771     3771       40     1         /Users/mabez/Development/rust/embedded/experiments/esp32c3-experiments/target/riscv32imac-unknown-none-elf/debug/deps/libriscv_rt-792395b706c7e295.rlib(riscv_rt-792395b706c7e295.2si3iiyx4w55gh9p.rcgu.o):(.debug_pubtypes)
    37b1     37b1       6a     1         /Users/mabez/Development/rust/embedded/experiments/esp32c3-experiments/target/riscv32imac-unknown-none-elf/debug/deps/libriscv_rt-792395b706c7e295.rlib(riscv_rt-792395b706c7e295.nu58l7xx5z184oa.rcgu.o):(.debug_pubtypes)
    381b     381b       38     1         /Users/mabez/Development/rust/embedded/experiments/esp32c3-experiments/target/riscv32imac-unknown-none-elf/debug/deps/libriscv_rt-792395b706c7e295.rlib(riscv_rt-792395b706c7e295.40ecbdq24jylbsk0.rcgu.o):(.debug_pubtypes)
    3853     3853       68     1         /Users/mabez/Development/rust/embedded/experiments/esp32c3-experiments/target/riscv32imac-unknown-none-elf/debug/deps/libriscv_rt-792395b706c7e295.rlib(riscv_rt-792395b706c7e295.4l8nnv0gz5uboi7y.rcgu.o):(.debug_pubtypes)
    38bb     38bb       3c     1         /Users/mabez/Development/rust/embedded/experiments/esp32c3-experiments/target/riscv32imac-unknown-none-elf/debug/deps/libriscv_rt-792395b706c7e295.rlib(riscv_rt-792395b706c7e295.a1pdmtq419pk4l9.rcgu.o):(.debug_pubtypes)
    38f7     38f7      1af     1         /Users/mabez/Development/rust/embedded/experiments/esp32c3-experiments/target/riscv32imac-unknown-none-elf/debug/deps/libriscv-58bee4c49f9f92ec.rlib(riscv-58bee4c49f9f92ec.riscv.8be94b29-cgu.0.rcgu.o):(.debug_pubtypes)
    3aa6     3aa6      1f8     1         /Users/mabez/Development/rust/embedded/experiments/esp32c3-experiments/target/riscv32imac-unknown-none-elf/debug/deps/libriscv-58bee4c49f9f92ec.rlib(riscv-58bee4c49f9f92ec.riscv.8be94b29-cgu.9.rcgu.o):(.debug_pubtypes)
    3c9e     3c9e       ce     1         /Users/mabez/Development/rust/embedded/experiments/esp32c3-experiments/target/riscv32imac-unknown-none-elf/debug/deps/libriscv-58bee4c49f9f92ec.rlib(riscv-58bee4c49f9f92ec.riscv.8be94b29-cgu.4.rcgu.o):(.debug_pubtypes)
    3d6c     3d6c       1c     1         /Users/mabez/Development/rust/embedded/experiments/esp32c3-experiments/target/riscv32imac-unknown-none-elf/debug/deps/libriscv_rt-792395b706c7e295.rlib(riscv_rt-792395b706c7e295.2fig4fon7wqsswts.rcgu.o):(.debug_pubtypes)
    3d88     3d88       12     1         /Users/mabez/Development/rust/embedded/experiments/esp32c3-experiments/target/riscv32imac-unknown-none-elf/debug/deps/libriscv_rt-792395b706c7e295.rlib(riscv_rt-792395b706c7e295.53lukflzfjg86k6f.rcgu.o):(.debug_pubtypes)
    3d9a     3d9a       37     1         /Users/mabez/Development/rust/embedded/experiments/esp32c3-experiments/target/riscv32imac-unknown-none-elf/debug/deps/libriscv_rt-792395b706c7e295.rlib(riscv_rt-792395b706c7e295.2h85xx65g8aqsgk3.rcgu.o):(.debug_pubtypes)
    3dd1     3dd1      1b8     1         /Users/mabez/Development/rust/embedded/experiments/esp32c3-experiments/target/riscv32imac-unknown-none-elf/debug/deps/libriscv_atomic_emulation_trap-36c6147cf3a7da2f.rlib(riscv_atomic_emulation_trap-36c6147cf3a7da2f.192heijy3m9d29qe.rcgu.o):(.debug_pubtypes)
    3f89     3f89       4d     1         /Users/mabez/Development/rust/embedded/experiments/esp32c3-experiments/target/riscv32imac-unknown-none-elf/debug/deps/libriscv_atomic_emulation_trap-36c6147cf3a7da2f.rlib(riscv_atomic_emulation_trap-36c6147cf3a7da2f.4wwaujsdloo4dvp5.rcgu.o):(.debug_pubtypes)
    3fd6     3fd6       4d     1         /Users/mabez/Development/rust/embedded/experiments/esp32c3-experiments/target/riscv32imac-unknown-none-elf/debug/deps/libriscv_atomic_emulation_trap-36c6147cf3a7da2f.rlib(riscv_atomic_emulation_trap-36c6147cf3a7da2f.1mk8bwfvrfakb4yc.rcgu.o):(.debug_pubtypes)
    4023     4023       51     1         /Users/mabez/Development/rust/embedded/experiments/esp32c3-experiments/target/riscv32imac-unknown-none-elf/debug/deps/libriscv_atomic_emulation_trap-36c6147cf3a7da2f.rlib(riscv_atomic_emulation_trap-36c6147cf3a7da2f.3grzare3werdor3q.rcgu.o):(.debug_pubtypes)
    4074     4074      14f     1         /Users/mabez/Development/rust/embedded/experiments/esp32c3-experiments/target/riscv32imac-unknown-none-elf/debug/deps/libriscv_atomic_emulation_trap-36c6147cf3a7da2f.rlib(riscv_atomic_emulation_trap-36c6147cf3a7da2f.4l7k26w2j1wwfghy.rcgu.o):(.debug_pubtypes)
    41c3     41c3       ac     1         /Users/mabez/Development/rust/embedded/experiments/esp32c3-experiments/target/riscv32imac-unknown-none-elf/debug/deps/libriscv_atomic_emulation_trap-36c6147cf3a7da2f.rlib(riscv_atomic_emulation_trap-36c6147cf3a7da2f.be49seve1qmvobv.rcgu.o):(.debug_pubtypes)
    426f     426f       e6     1         /Users/mabez/Development/rust/embedded/experiments/esp32c3-experiments/target/riscv32imac-unknown-none-elf/debug/deps/libriscv_atomic_emulation_trap-36c6147cf3a7da2f.rlib(riscv_atomic_emulation_trap-36c6147cf3a7da2f.431el3q0783r85py.rcgu.o):(.debug_pubtypes)
    4355     4355       50     1         /Users/mabez/Development/rust/embedded/experiments/esp32c3-experiments/target/riscv32imac-unknown-none-elf/debug/deps/libriscv_atomic_emulation_trap-36c6147cf3a7da2f.rlib(riscv_atomic_emulation_trap-36c6147cf3a7da2f.4q0r5d249n6epd3q.rcgu.o):(.debug_pubtypes)
    43a5     43a5       68     1         /Users/mabez/Development/rust/embedded/experiments/esp32c3-experiments/target/riscv32imac-unknown-none-elf/debug/deps/libriscv_atomic_emulation_trap-36c6147cf3a7da2f.rlib(riscv_atomic_emulation_trap-36c6147cf3a7da2f.4z6enr9b9fac5dau.rcgu.o):(.debug_pubtypes)
    440d     440d      1af     1         /Users/mabez/Development/rust/embedded/experiments/esp32c3-experiments/target/riscv32imac-unknown-none-elf/debug/deps/libriscv-e6570dc03e37c02b.rlib(riscv-e6570dc03e37c02b.riscv.6a3f384f-cgu.0.rcgu.o):(.debug_pubtypes)
    45bc     45bc      207     1         /Users/mabez/Development/rust/embedded/experiments/esp32c3-experiments/target/riscv32imac-unknown-none-elf/debug/deps/libriscv-e6570dc03e37c02b.rlib(riscv-e6570dc03e37c02b.riscv.6a3f384f-cgu.10.rcgu.o):(.debug_pubtypes)
    47c3     47c3      164     1         /Users/mabez/Development/rust/embedded/experiments/esp32c3-experiments/target/riscv32imac-unknown-none-elf/debug/deps/libriscv-e6570dc03e37c02b.rlib(riscv-e6570dc03e37c02b.riscv.6a3f384f-cgu.8.rcgu.o):(.debug_pubtypes)
    4927     4927       ce     1         /Users/mabez/Development/rust/embedded/experiments/esp32c3-experiments/target/riscv32imac-unknown-none-elf/debug/deps/libriscv-e6570dc03e37c02b.rlib(riscv-e6570dc03e37c02b.riscv.6a3f384f-cgu.4.rcgu.o):(.debug_pubtypes)
    49f5     49f5      161     1         /Users/mabez/Development/rust/embedded/experiments/esp32c3-experiments/target/riscv32imac-unknown-none-elf/debug/deps/libriscv-e6570dc03e37c02b.rlib(riscv-e6570dc03e37c02b.riscv.6a3f384f-cgu.11.rcgu.o):(.debug_pubtypes)
       0        0       2b     1 .riscv.attributes
       0        0       2b     1         /Users/mabez/Development/rust/embedded/experiments/esp32c3-experiments/target/riscv32imac-unknown-none-elf/debug/deps/esp32c3-0792fe58911f872d.1e78zwiugb76rjx.rcgu.o:(.riscv.attributes)
       0        0     205c     4 .debug_frame
       0        0       64     4         /Users/mabez/Development/rust/embedded/experiments/esp32c3-experiments/target/riscv32imac-unknown-none-elf/debug/deps/esp32c3-0792fe58911f872d.1e78zwiugb76rjx.rcgu.o:(.debug_frame)
       0        0        0     1                 
      64       64       44     4         /Users/mabez/Development/rust/embedded/experiments/esp32c3-experiments/target/riscv32imac-unknown-none-elf/debug/deps/esp32c3-0792fe58911f872d.1gcjs714mi186sn9.rcgu.o:(.debug_frame)
      64       64        0     1                 
      a8       a8       3c     4         /Users/mabez/Development/rust/embedded/experiments/esp32c3-experiments/target/riscv32imac-unknown-none-elf/debug/deps/esp32c3-0792fe58911f872d.1nerp55l46tnskb3.rcgu.o:(.debug_frame)
      a8       a8        0     1                 
      e4       e4       54     4         /Users/mabez/Development/rust/embedded/experiments/esp32c3-experiments/target/riscv32imac-unknown-none-elf/debug/deps/esp32c3-0792fe58911f872d.297xt9owoyeiose3.rcgu.o:(.debug_frame)
      e4       e4        0     1                 
     138      138       8c     4         /Users/mabez/Development/rust/embedded/experiments/esp32c3-experiments/target/riscv32imac-unknown-none-elf/debug/deps/esp32c3-0792fe58911f872d.31cobsrxn8v7n7js.rcgu.o:(.debug_frame)
     138      138        0     1                 
     1c4      1c4       5c     4         /Users/mabez/Development/rust/embedded/experiments/esp32c3-experiments/target/riscv32imac-unknown-none-elf/debug/deps/esp32c3-0792fe58911f872d.346chqw3v9dutnx9.rcgu.o:(.debug_frame)
     1c4      1c4        0     1                 
     220      220       58     4         /Users/mabez/Development/rust/embedded/experiments/esp32c3-experiments/target/riscv32imac-unknown-none-elf/debug/deps/esp32c3-0792fe58911f872d.3xtnx60qzz8qc3n4.rcgu.o:(.debug_frame)
     220      220        0     1                 
     278      278       2c     4         /Users/mabez/Development/rust/embedded/experiments/esp32c3-experiments/target/riscv32imac-unknown-none-elf/debug/deps/esp32c3-0792fe58911f872d.4iv9b3d8r40y3mky.rcgu.o:(.debug_frame)
     278      278        0     1                 
     2a4      2a4       78     4         /Users/mabez/Development/rust/embedded/experiments/esp32c3-experiments/target/riscv32imac-unknown-none-elf/debug/deps/esp32c3-0792fe58911f872d.4kaxk1bfd3ykn70p.rcgu.o:(.debug_frame)
     2a4      2a4        0     1                 
     31c      31c       70     4         /Users/mabez/Development/rust/embedded/experiments/esp32c3-experiments/target/riscv32imac-unknown-none-elf/debug/deps/esp32c3-0792fe58911f872d.4mcsimr84tlfxm5.rcgu.o:(.debug_frame)
     31c      31c        0     1                 
     38c      38c       2c     4         /Users/mabez/Development/rust/embedded/experiments/esp32c3-experiments/target/riscv32imac-unknown-none-elf/debug/deps/esp32c3-0792fe58911f872d.4zdnir3iq20zjvph.rcgu.o:(.debug_frame)
     38c      38c        0     1                 
     3b8      3b8       68     4         /Users/mabez/Development/rust/embedded/experiments/esp32c3-experiments/target/riscv32imac-unknown-none-elf/debug/deps/esp32c3-0792fe58911f872d.52qxoexx5thxmllb.rcgu.o:(.debug_frame)
     3b8      3b8        0     1                 
     420      420       2c     4         /Users/mabez/Development/rust/embedded/experiments/esp32c3-experiments/target/riscv32imac-unknown-none-elf/debug/deps/esp32c3-0792fe58911f872d.rcp7xlzvmfzbh1y.rcgu.o:(.debug_frame)
     420      420        0     1                 
     44c      44c       28     4         /Users/mabez/Development/rust/embedded/experiments/esp32c3-experiments/target/riscv32imac-unknown-none-elf/debug/deps/esp32c3-0792fe58911f872d.zm6375jlykl6cny.rcgu.o:(.debug_frame)
     44c      44c        0     1                 
     474      474      25c     4         /Users/mabez/Development/rust/embedded/experiments/esp32c3-experiments/target/riscv32imac-unknown-none-elf/debug/deps/librtt_target-c8a503ffaa8773f6.rlib(rtt_target-c8a503ffaa8773f6.rtt_target.49ad93cd-cgu.0.rcgu.o):(.debug_frame)
     474      474        0     1                 
     6d0      6d0       58     4         /Users/mabez/Development/rust/embedded/experiments/esp32c3-experiments/target/riscv32imac-unknown-none-elf/debug/deps/librtt_target-c8a503ffaa8773f6.rlib(rtt_target-c8a503ffaa8773f6.rtt_target.49ad93cd-cgu.1.rcgu.o):(.debug_frame)
     6d0      6d0        0     1                 
     728      728       74     4         /Users/mabez/Development/rust/embedded/experiments/esp32c3-experiments/target/riscv32imac-unknown-none-elf/debug/deps/librtt_target-c8a503ffaa8773f6.rlib(rtt_target-c8a503ffaa8773f6.rtt_target.49ad93cd-cgu.10.rcgu.o):(.debug_frame)
     728      728        0     1                 
     79c      79c       e8     4         /Users/mabez/Development/rust/embedded/experiments/esp32c3-experiments/target/riscv32imac-unknown-none-elf/debug/deps/librtt_target-c8a503ffaa8773f6.rlib(rtt_target-c8a503ffaa8773f6.rtt_target.49ad93cd-cgu.11.rcgu.o):(.debug_frame)
     79c      79c        0     1                 
     884      884       8c     4         /Users/mabez/Development/rust/embedded/experiments/esp32c3-experiments/target/riscv32imac-unknown-none-elf/debug/deps/librtt_target-c8a503ffaa8773f6.rlib(rtt_target-c8a503ffaa8773f6.rtt_target.49ad93cd-cgu.12.rcgu.o):(.debug_frame)
     884      884        0     1                 
     910      910       64     4         /Users/mabez/Development/rust/embedded/experiments/esp32c3-experiments/target/riscv32imac-unknown-none-elf/debug/deps/librtt_target-c8a503ffaa8773f6.rlib(rtt_target-c8a503ffaa8773f6.rtt_target.49ad93cd-cgu.14.rcgu.o):(.debug_frame)
     910      910        0     1                 
     974      974       9c     4         /Users/mabez/Development/rust/embedded/experiments/esp32c3-experiments/target/riscv32imac-unknown-none-elf/debug/deps/librtt_target-c8a503ffaa8773f6.rlib(rtt_target-c8a503ffaa8773f6.rtt_target.49ad93cd-cgu.15.rcgu.o):(.debug_frame)
     974      974        0     1                 
     a10      a10      284     4         /Users/mabez/Development/rust/embedded/experiments/esp32c3-experiments/target/riscv32imac-unknown-none-elf/debug/deps/librtt_target-c8a503ffaa8773f6.rlib(rtt_target-c8a503ffaa8773f6.rtt_target.49ad93cd-cgu.2.rcgu.o):(.debug_frame)
     a10      a10        0     1                 
     c94      c94       e8     4         /Users/mabez/Development/rust/embedded/experiments/esp32c3-experiments/target/riscv32imac-unknown-none-elf/debug/deps/librtt_target-c8a503ffaa8773f6.rlib(rtt_target-c8a503ffaa8773f6.rtt_target.49ad93cd-cgu.3.rcgu.o):(.debug_frame)
     c94      c94        0     1                 
     d7c      d7c       50     4         /Users/mabez/Development/rust/embedded/experiments/esp32c3-experiments/target/riscv32imac-unknown-none-elf/debug/deps/librtt_target-c8a503ffaa8773f6.rlib(rtt_target-c8a503ffaa8773f6.rtt_target.49ad93cd-cgu.13.rcgu.o):(.debug_frame)
     d7c      d7c        0     1                 
     dcc      dcc       d8     4         /Users/mabez/Development/rust/embedded/experiments/esp32c3-experiments/target/riscv32imac-unknown-none-elf/debug/deps/librtt_target-c8a503ffaa8773f6.rlib(rtt_target-c8a503ffaa8773f6.rtt_target.49ad93cd-cgu.4.rcgu.o):(.debug_frame)
     dcc      dcc        0     1                 
     ea4      ea4       d4     4         /Users/mabez/Development/rust/embedded/experiments/esp32c3-experiments/target/riscv32imac-unknown-none-elf/debug/deps/librtt_target-c8a503ffaa8773f6.rlib(rtt_target-c8a503ffaa8773f6.rtt_target.49ad93cd-cgu.5.rcgu.o):(.debug_frame)
     ea4      ea4        0     1                 
     f78      f78       50     4         /Users/mabez/Development/rust/embedded/experiments/esp32c3-experiments/target/riscv32imac-unknown-none-elf/debug/deps/librtt_target-c8a503ffaa8773f6.rlib(rtt_target-c8a503ffaa8773f6.rtt_target.49ad93cd-cgu.6.rcgu.o):(.debug_frame)
     f78      f78        0     1                 
     fc8      fc8       94     4         /Users/mabez/Development/rust/embedded/experiments/esp32c3-experiments/target/riscv32imac-unknown-none-elf/debug/deps/librtt_target-c8a503ffaa8773f6.rlib(rtt_target-c8a503ffaa8773f6.rtt_target.49ad93cd-cgu.7.rcgu.o):(.debug_frame)
     fc8      fc8        0     1                 
    105c     105c      138     4         /Users/mabez/Development/rust/embedded/experiments/esp32c3-experiments/target/riscv32imac-unknown-none-elf/debug/deps/librtt_target-c8a503ffaa8773f6.rlib(rtt_target-c8a503ffaa8773f6.rtt_target.49ad93cd-cgu.8.rcgu.o):(.debug_frame)
    105c     105c        0     1                 
    1194     1194       5c     4         /Users/mabez/Development/rust/embedded/experiments/esp32c3-experiments/target/riscv32imac-unknown-none-elf/debug/deps/librtt_target-c8a503ffaa8773f6.rlib(rtt_target-c8a503ffaa8773f6.rtt_target.49ad93cd-cgu.9.rcgu.o):(.debug_frame)
    1194     1194        0     1                 
    11f0     11f0       b8     4         /Users/mabez/Development/rust/embedded/experiments/esp32c3-experiments/target/riscv32imac-unknown-none-elf/debug/deps/libesp32c3_lib-9b353d7564fdb320.rlib(esp32c3_lib-9b353d7564fdb320.4sht8tb4vhhjrf1k.rcgu.o):(.debug_frame)
    11f0     11f0        0     1                 
    12a8     12a8       50     4         /Users/mabez/Development/rust/embedded/experiments/esp32c3-experiments/target/riscv32imac-unknown-none-elf/debug/deps/libesp32c3_lib-9b353d7564fdb320.rlib(esp32c3_lib-9b353d7564fdb320.5etuwwf3di4agecu.rcgu.o):(.debug_frame)
    12a8     12a8        0     1                 
    12f8     12f8       5c     4         /Users/mabez/Development/rust/embedded/experiments/esp32c3-experiments/target/riscv32imac-unknown-none-elf/debug/deps/libesp32c3_lib-9b353d7564fdb320.rlib(esp32c3_lib-9b353d7564fdb320.l5295fvly9urzze.rcgu.o):(.debug_frame)
    12f8     12f8        0     1                 
    1354     1354       40     4         /Users/mabez/Development/rust/embedded/experiments/esp32c3-experiments/target/riscv32imac-unknown-none-elf/debug/deps/libesp32c3_lib-9b353d7564fdb320.rlib(esp32c3_lib-9b353d7564fdb320.1021wqjltvlv5j9j.rcgu.o):(.debug_frame)
    1354     1354        0     1                 
    1394     1394       40     4         /Users/mabez/Development/rust/embedded/experiments/esp32c3-experiments/target/riscv32imac-unknown-none-elf/debug/deps/libesp32c3_lib-9b353d7564fdb320.rlib(esp32c3_lib-9b353d7564fdb320.4egfjjip1nd9anee.rcgu.o):(.debug_frame)
    1394     1394        0     1                 
    13d4     13d4       3c     4         /Users/mabez/Development/rust/embedded/experiments/esp32c3-experiments/target/riscv32imac-unknown-none-elf/debug/deps/libesp32c3_lib-9b353d7564fdb320.rlib(esp32c3_lib-9b353d7564fdb320.32gpmocjzndmv0ky.rcgu.o):(.debug_frame)
    13d4     13d4        0     1                 
    1410     1410       40     4         /Users/mabez/Development/rust/embedded/experiments/esp32c3-experiments/target/riscv32imac-unknown-none-elf/debug/deps/libesp32c3_lib-9b353d7564fdb320.rlib(esp32c3_lib-9b353d7564fdb320.47yjv4rnqkji4yx9.rcgu.o):(.debug_frame)
    1410     1410        0     1                 
    1450     1450       24     4         /Users/mabez/Development/rust/embedded/experiments/esp32c3-experiments/target/riscv32imac-unknown-none-elf/debug/deps/libbare_metal-82dbc08a019da008.rlib(bare_metal-82dbc08a019da008.bare_metal.233bcc8d-cgu.0.rcgu.o):(.debug_frame)
    1450     1450        0     1                 
    1474     1474       50     4         /Users/mabez/Development/rust/embedded/experiments/esp32c3-experiments/target/riscv32imac-unknown-none-elf/debug/deps/libvoid-d8bfa8eb72c6fce6.rlib(void-d8bfa8eb72c6fce6.void.0c48974b-cgu.0.rcgu.o):(.debug_frame)
    1474     1474        0     1                 
    14c4     14c4       a8     4         /Users/mabez/Development/rust/embedded/experiments/esp32c3-experiments/target/riscv32imac-unknown-none-elf/debug/deps/libriscv_rt-792395b706c7e295.rlib(riscv_rt-792395b706c7e295.n23zmh27zi56vj2.rcgu.o):(.debug_frame)
    14c4     14c4        0     1                 
    156c     156c       44     4         /Users/mabez/Development/rust/embedded/experiments/esp32c3-experiments/target/riscv32imac-unknown-none-elf/debug/deps/libriscv_rt-792395b706c7e295.rlib(riscv_rt-792395b706c7e295.2si3iiyx4w55gh9p.rcgu.o):(.debug_frame)
    156c     156c        0     1                 
    15b0     15b0       2c     4         /Users/mabez/Development/rust/embedded/experiments/esp32c3-experiments/target/riscv32imac-unknown-none-elf/debug/deps/libriscv_rt-792395b706c7e295.rlib(riscv_rt-792395b706c7e295.nu58l7xx5z184oa.rcgu.o):(.debug_frame)
    15b0     15b0        0     1                 
    15dc     15dc       2c     4         /Users/mabez/Development/rust/embedded/experiments/esp32c3-experiments/target/riscv32imac-unknown-none-elf/debug/deps/libriscv_rt-792395b706c7e295.rlib(riscv_rt-792395b706c7e295.40ecbdq24jylbsk0.rcgu.o):(.debug_frame)
    15dc     15dc        0     1                 
    1608     1608       50     4         /Users/mabez/Development/rust/embedded/experiments/esp32c3-experiments/target/riscv32imac-unknown-none-elf/debug/deps/libriscv_rt-792395b706c7e295.rlib(riscv_rt-792395b706c7e295.4l8nnv0gz5uboi7y.rcgu.o):(.debug_frame)
    1608     1608        0     1                 
    1658     1658       70     4         /Users/mabez/Development/rust/embedded/experiments/esp32c3-experiments/target/riscv32imac-unknown-none-elf/debug/deps/libriscv_rt-792395b706c7e295.rlib(riscv_rt-792395b706c7e295.a1pdmtq419pk4l9.rcgu.o):(.debug_frame)
    1658     1658        0     1                 
    16c8     16c8       e0     4         /Users/mabez/Development/rust/embedded/experiments/esp32c3-experiments/target/riscv32imac-unknown-none-elf/debug/deps/libriscv-58bee4c49f9f92ec.rlib(riscv-58bee4c49f9f92ec.riscv.8be94b29-cgu.0.rcgu.o):(.debug_frame)
    16c8     16c8        0     1                 
    17a8     17a8       e8     4         /Users/mabez/Development/rust/embedded/experiments/esp32c3-experiments/target/riscv32imac-unknown-none-elf/debug/deps/libriscv-58bee4c49f9f92ec.rlib(riscv-58bee4c49f9f92ec.riscv.8be94b29-cgu.9.rcgu.o):(.debug_frame)
    17a8     17a8        0     1                 
    1890     1890       44     4         /Users/mabez/Development/rust/embedded/experiments/esp32c3-experiments/target/riscv32imac-unknown-none-elf/debug/deps/libriscv-58bee4c49f9f92ec.rlib(riscv-58bee4c49f9f92ec.riscv.8be94b29-cgu.4.rcgu.o):(.debug_frame)
    1890     1890        0     1                 
    18d4     18d4       44     4         /Users/mabez/Development/rust/embedded/experiments/esp32c3-experiments/target/riscv32imac-unknown-none-elf/debug/deps/libriscv_rt-792395b706c7e295.rlib(riscv_rt-792395b706c7e295.2fig4fon7wqsswts.rcgu.o):(.debug_frame)
    18d4     18d4        0     1                 
    1918     1918       2c     4         /Users/mabez/Development/rust/embedded/experiments/esp32c3-experiments/target/riscv32imac-unknown-none-elf/debug/deps/libriscv_rt-792395b706c7e295.rlib(riscv_rt-792395b706c7e295.53lukflzfjg86k6f.rcgu.o):(.debug_frame)
    1918     1918        0     1                 
    1944     1944       28     4         /Users/mabez/Development/rust/embedded/experiments/esp32c3-experiments/target/riscv32imac-unknown-none-elf/debug/deps/libriscv_rt-792395b706c7e295.rlib(riscv_rt-792395b706c7e295.2h85xx65g8aqsgk3.rcgu.o):(.debug_frame)
    1944     1944        0     1                 
    196c     196c       8c     4         /Users/mabez/Development/rust/embedded/experiments/esp32c3-experiments/target/riscv32imac-unknown-none-elf/debug/deps/libriscv_atomic_emulation_trap-36c6147cf3a7da2f.rlib(riscv_atomic_emulation_trap-36c6147cf3a7da2f.192heijy3m9d29qe.rcgu.o):(.debug_frame)
    196c     196c        0     1                 
    19f8     19f8       40     4         /Users/mabez/Development/rust/embedded/experiments/esp32c3-experiments/target/riscv32imac-unknown-none-elf/debug/deps/libriscv_atomic_emulation_trap-36c6147cf3a7da2f.rlib(riscv_atomic_emulation_trap-36c6147cf3a7da2f.4wwaujsdloo4dvp5.rcgu.o):(.debug_frame)
    19f8     19f8        0     1                 
    1a38     1a38       2c     4         /Users/mabez/Development/rust/embedded/experiments/esp32c3-experiments/target/riscv32imac-unknown-none-elf/debug/deps/libriscv_atomic_emulation_trap-36c6147cf3a7da2f.rlib(riscv_atomic_emulation_trap-36c6147cf3a7da2f.1mk8bwfvrfakb4yc.rcgu.o):(.debug_frame)
    1a38     1a38        0     1                 
    1a64     1a64       28     4         /Users/mabez/Development/rust/embedded/experiments/esp32c3-experiments/target/riscv32imac-unknown-none-elf/debug/deps/libriscv_atomic_emulation_trap-36c6147cf3a7da2f.rlib(riscv_atomic_emulation_trap-36c6147cf3a7da2f.3grzare3werdor3q.rcgu.o):(.debug_frame)
    1a64     1a64        0     1                 
    1a8c     1a8c       d8     4         /Users/mabez/Development/rust/embedded/experiments/esp32c3-experiments/target/riscv32imac-unknown-none-elf/debug/deps/libriscv_atomic_emulation_trap-36c6147cf3a7da2f.rlib(riscv_atomic_emulation_trap-36c6147cf3a7da2f.4l7k26w2j1wwfghy.rcgu.o):(.debug_frame)
    1a8c     1a8c        0     1                 
    1b64     1b64       d4     4         /Users/mabez/Development/rust/embedded/experiments/esp32c3-experiments/target/riscv32imac-unknown-none-elf/debug/deps/libriscv_atomic_emulation_trap-36c6147cf3a7da2f.rlib(riscv_atomic_emulation_trap-36c6147cf3a7da2f.be49seve1qmvobv.rcgu.o):(.debug_frame)
    1b64     1b64        0     1                 
    1c38     1c38       58     4         /Users/mabez/Development/rust/embedded/experiments/esp32c3-experiments/target/riscv32imac-unknown-none-elf/debug/deps/libriscv_atomic_emulation_trap-36c6147cf3a7da2f.rlib(riscv_atomic_emulation_trap-36c6147cf3a7da2f.431el3q0783r85py.rcgu.o):(.debug_frame)
    1c38     1c38        0     1                 
    1c90     1c90       3c     4         /Users/mabez/Development/rust/embedded/experiments/esp32c3-experiments/target/riscv32imac-unknown-none-elf/debug/deps/libriscv_atomic_emulation_trap-36c6147cf3a7da2f.rlib(riscv_atomic_emulation_trap-36c6147cf3a7da2f.4q0r5d249n6epd3q.rcgu.o):(.debug_frame)
    1c90     1c90        0     1                 
    1ccc     1ccc       70     4         /Users/mabez/Development/rust/embedded/experiments/esp32c3-experiments/target/riscv32imac-unknown-none-elf/debug/deps/libriscv_atomic_emulation_trap-36c6147cf3a7da2f.rlib(riscv_atomic_emulation_trap-36c6147cf3a7da2f.4z6enr9b9fac5dau.rcgu.o):(.debug_frame)
    1ccc     1ccc        0     1                 
    1d3c     1d3c       e0     4         /Users/mabez/Development/rust/embedded/experiments/esp32c3-experiments/target/riscv32imac-unknown-none-elf/debug/deps/libriscv-e6570dc03e37c02b.rlib(riscv-e6570dc03e37c02b.riscv.6a3f384f-cgu.0.rcgu.o):(.debug_frame)
    1d3c     1d3c        0     1                 
    1e1c     1e1c      100     4         /Users/mabez/Development/rust/embedded/experiments/esp32c3-experiments/target/riscv32imac-unknown-none-elf/debug/deps/libriscv-e6570dc03e37c02b.rlib(riscv-e6570dc03e37c02b.riscv.6a3f384f-cgu.10.rcgu.o):(.debug_frame)
    1e1c     1e1c        0     1                 
    1f1c     1f1c       88     4         /Users/mabez/Development/rust/embedded/experiments/esp32c3-experiments/target/riscv32imac-unknown-none-elf/debug/deps/libriscv-e6570dc03e37c02b.rlib(riscv-e6570dc03e37c02b.riscv.6a3f384f-cgu.8.rcgu.o):(.debug_frame)
    1f1c     1f1c        0     1                 
    1fa4     1fa4       44     4         /Users/mabez/Development/rust/embedded/experiments/esp32c3-experiments/target/riscv32imac-unknown-none-elf/debug/deps/libriscv-e6570dc03e37c02b.rlib(riscv-e6570dc03e37c02b.riscv.6a3f384f-cgu.4.rcgu.o):(.debug_frame)
    1fa4     1fa4        0     1                 
    1fe8     1fe8       74     4         /Users/mabez/Development/rust/embedded/experiments/esp32c3-experiments/target/riscv32imac-unknown-none-elf/debug/deps/libriscv-e6570dc03e37c02b.rlib(riscv-e6570dc03e37c02b.riscv.6a3f384f-cgu.11.rcgu.o):(.debug_frame)
    1fe8     1fe8        0     1                 
       0        0    33dad     1 .debug_line
       0        0      14d     1         /Users/mabez/Development/rust/embedded/experiments/esp32c3-experiments/target/riscv32imac-unknown-none-elf/debug/deps/esp32c3-0792fe58911f872d.1e78zwiugb76rjx.rcgu.o:(.debug_line)
       0        0        0     1                 .Lline_table_start0
     14d      14d       c2     1         /Users/mabez/Development/rust/embedded/experiments/esp32c3-experiments/target/riscv32imac-unknown-none-elf/debug/deps/esp32c3-0792fe58911f872d.1gcjs714mi186sn9.rcgu.o:(.debug_line)
     14d      14d        0     1                 .Lline_table_start0
     20f      20f      2ad     1         /Users/mabez/Development/rust/embedded/experiments/esp32c3-experiments/target/riscv32imac-unknown-none-elf/debug/deps/esp32c3-0792fe58911f872d.1nerp55l46tnskb3.rcgu.o:(.debug_line)
     20f      20f        0     1                 .Lline_table_start0
     4bc      4bc      127     1         /Users/mabez/Development/rust/embedded/experiments/esp32c3-experiments/target/riscv32imac-unknown-none-elf/debug/deps/esp32c3-0792fe58911f872d.297xt9owoyeiose3.rcgu.o:(.debug_line)
     4bc      4bc        0     1                 .Lline_table_start0
     5e3      5e3      153     1         /Users/mabez/Development/rust/embedded/experiments/esp32c3-experiments/target/riscv32imac-unknown-none-elf/debug/deps/esp32c3-0792fe58911f872d.31cobsrxn8v7n7js.rcgu.o:(.debug_line)
     5e3      5e3        0     1                 .Lline_table_start0
     736      736      454     1         /Users/mabez/Development/rust/embedded/experiments/esp32c3-experiments/target/riscv32imac-unknown-none-elf/debug/deps/esp32c3-0792fe58911f872d.346chqw3v9dutnx9.rcgu.o:(.debug_line)
     736      736        0     1                 .Lline_table_start0
     b8a      b8a      381     1         /Users/mabez/Development/rust/embedded/experiments/esp32c3-experiments/target/riscv32imac-unknown-none-elf/debug/deps/esp32c3-0792fe58911f872d.3xtnx60qzz8qc3n4.rcgu.o:(.debug_line)
     b8a      b8a        0     1                 .Lline_table_start0
     f0b      f0b       92     1         /Users/mabez/Development/rust/embedded/experiments/esp32c3-experiments/target/riscv32imac-unknown-none-elf/debug/deps/esp32c3-0792fe58911f872d.4iv9b3d8r40y3mky.rcgu.o:(.debug_line)
     f0b      f0b        0     1                 .Lline_table_start0
     f9d      f9d       ef     1         /Users/mabez/Development/rust/embedded/experiments/esp32c3-experiments/target/riscv32imac-unknown-none-elf/debug/deps/esp32c3-0792fe58911f872d.4kaxk1bfd3ykn70p.rcgu.o:(.debug_line)
     f9d      f9d        0     1                 .Lline_table_start0
    108c     108c      17b     1         /Users/mabez/Development/rust/embedded/experiments/esp32c3-experiments/target/riscv32imac-unknown-none-elf/debug/deps/esp32c3-0792fe58911f872d.4mcsimr84tlfxm5.rcgu.o:(.debug_line)
    108c     108c        0     1                 .Lline_table_start0
    1207     1207       ef     1         /Users/mabez/Development/rust/embedded/experiments/esp32c3-experiments/target/riscv32imac-unknown-none-elf/debug/deps/esp32c3-0792fe58911f872d.4zdnir3iq20zjvph.rcgu.o:(.debug_line)
    1207     1207        0     1                 .Lline_table_start0
    12f6     12f6      134     1         /Users/mabez/Development/rust/embedded/experiments/esp32c3-experiments/target/riscv32imac-unknown-none-elf/debug/deps/esp32c3-0792fe58911f872d.52qxoexx5thxmllb.rcgu.o:(.debug_line)
    12f6     12f6        0     1                 .Lline_table_start0
    142a     142a       98     1         /Users/mabez/Development/rust/embedded/experiments/esp32c3-experiments/target/riscv32imac-unknown-none-elf/debug/deps/esp32c3-0792fe58911f872d.rcp7xlzvmfzbh1y.rcgu.o:(.debug_line)
    142a     142a        0     1                 .Lline_table_start0
    14c2     14c2       8c     1         /Users/mabez/Development/rust/embedded/experiments/esp32c3-experiments/target/riscv32imac-unknown-none-elf/debug/deps/esp32c3-0792fe58911f872d.zm6375jlykl6cny.rcgu.o:(.debug_line)
    14c2     14c2        0     1                 .Lline_table_start0
    154e     154e      bba     1         /Users/mabez/Development/rust/embedded/experiments/esp32c3-experiments/target/riscv32imac-unknown-none-elf/debug/deps/librtt_target-c8a503ffaa8773f6.rlib(rtt_target-c8a503ffaa8773f6.rtt_target.49ad93cd-cgu.0.rcgu.o):(.debug_line)
    154e     154e        0     1                 .Lline_table_start0
    2108     2108      381     1         /Users/mabez/Development/rust/embedded/experiments/esp32c3-experiments/target/riscv32imac-unknown-none-elf/debug/deps/librtt_target-c8a503ffaa8773f6.rlib(rtt_target-c8a503ffaa8773f6.rtt_target.49ad93cd-cgu.1.rcgu.o):(.debug_line)
    2108     2108        0     1                 .Lline_table_start0
    2489     2489       f5     1         /Users/mabez/Development/rust/embedded/experiments/esp32c3-experiments/target/riscv32imac-unknown-none-elf/debug/deps/librtt_target-c8a503ffaa8773f6.rlib(rtt_target-c8a503ffaa8773f6.rtt_target.49ad93cd-cgu.10.rcgu.o):(.debug_line)
    2489     2489        0     1                 .Lline_table_start0
    257e     257e      2ac     1         /Users/mabez/Development/rust/embedded/experiments/esp32c3-experiments/target/riscv32imac-unknown-none-elf/debug/deps/librtt_target-c8a503ffaa8773f6.rlib(rtt_target-c8a503ffaa8773f6.rtt_target.49ad93cd-cgu.11.rcgu.o):(.debug_line)
    257e     257e        0     1                 .Lline_table_start0
    282a     282a      172     1         /Users/mabez/Development/rust/embedded/experiments/esp32c3-experiments/target/riscv32imac-unknown-none-elf/debug/deps/librtt_target-c8a503ffaa8773f6.rlib(rtt_target-c8a503ffaa8773f6.rtt_target.49ad93cd-cgu.12.rcgu.o):(.debug_line)
    282a     282a        0     1                 .Lline_table_start0
    299c     299c      17c     1         /Users/mabez/Development/rust/embedded/experiments/esp32c3-experiments/target/riscv32imac-unknown-none-elf/debug/deps/librtt_target-c8a503ffaa8773f6.rlib(rtt_target-c8a503ffaa8773f6.rtt_target.49ad93cd-cgu.14.rcgu.o):(.debug_line)
    299c     299c        0     1                 .Lline_table_start0
    2b18     2b18      236     1         /Users/mabez/Development/rust/embedded/experiments/esp32c3-experiments/target/riscv32imac-unknown-none-elf/debug/deps/librtt_target-c8a503ffaa8773f6.rlib(rtt_target-c8a503ffaa8773f6.rtt_target.49ad93cd-cgu.15.rcgu.o):(.debug_line)
    2b18     2b18        0     1                 .Lline_table_start0
    2d4e     2d4e      815     1         /Users/mabez/Development/rust/embedded/experiments/esp32c3-experiments/target/riscv32imac-unknown-none-elf/debug/deps/librtt_target-c8a503ffaa8773f6.rlib(rtt_target-c8a503ffaa8773f6.rtt_target.49ad93cd-cgu.2.rcgu.o):(.debug_line)
    2d4e     2d4e        0     1                 .Lline_table_start0
    3563     3563      2c0     1         /Users/mabez/Development/rust/embedded/experiments/esp32c3-experiments/target/riscv32imac-unknown-none-elf/debug/deps/librtt_target-c8a503ffaa8773f6.rlib(rtt_target-c8a503ffaa8773f6.rtt_target.49ad93cd-cgu.3.rcgu.o):(.debug_line)
    3563     3563        0     1                 .Lline_table_start0
    3823     3823       ec     1         /Users/mabez/Development/rust/embedded/experiments/esp32c3-experiments/target/riscv32imac-unknown-none-elf/debug/deps/librtt_target-c8a503ffaa8773f6.rlib(rtt_target-c8a503ffaa8773f6.rtt_target.49ad93cd-cgu.13.rcgu.o):(.debug_line)
    3823     3823        0     1                 .Lline_table_start0
    390f     390f      32d     1         /Users/mabez/Development/rust/embedded/experiments/esp32c3-experiments/target/riscv32imac-unknown-none-elf/debug/deps/librtt_target-c8a503ffaa8773f6.rlib(rtt_target-c8a503ffaa8773f6.rtt_target.49ad93cd-cgu.4.rcgu.o):(.debug_line)
    390f     390f        0     1                 .Lline_table_start0
    3c3c     3c3c      328     1         /Users/mabez/Development/rust/embedded/experiments/esp32c3-experiments/target/riscv32imac-unknown-none-elf/debug/deps/librtt_target-c8a503ffaa8773f6.rlib(rtt_target-c8a503ffaa8773f6.rtt_target.49ad93cd-cgu.5.rcgu.o):(.debug_line)
    3c3c     3c3c        0     1                 .Lline_table_start0
    3f64     3f64      141     1         /Users/mabez/Development/rust/embedded/experiments/esp32c3-experiments/target/riscv32imac-unknown-none-elf/debug/deps/librtt_target-c8a503ffaa8773f6.rlib(rtt_target-c8a503ffaa8773f6.rtt_target.49ad93cd-cgu.6.rcgu.o):(.debug_line)
    3f64     3f64        0     1                 .Lline_table_start0
    40a5     40a5      14d     1         /Users/mabez/Development/rust/embedded/experiments/esp32c3-experiments/target/riscv32imac-unknown-none-elf/debug/deps/librtt_target-c8a503ffaa8773f6.rlib(rtt_target-c8a503ffaa8773f6.rtt_target.49ad93cd-cgu.7.rcgu.o):(.debug_line)
    40a5     40a5        0     1                 .Lline_table_start0
    41f2     41f2      317     1         /Users/mabez/Development/rust/embedded/experiments/esp32c3-experiments/target/riscv32imac-unknown-none-elf/debug/deps/librtt_target-c8a503ffaa8773f6.rlib(rtt_target-c8a503ffaa8773f6.rtt_target.49ad93cd-cgu.8.rcgu.o):(.debug_line)
    41f2     41f2        0     1                 .Lline_table_start0
    4509     4509      114     1         /Users/mabez/Development/rust/embedded/experiments/esp32c3-experiments/target/riscv32imac-unknown-none-elf/debug/deps/librtt_target-c8a503ffaa8773f6.rlib(rtt_target-c8a503ffaa8773f6.rtt_target.49ad93cd-cgu.9.rcgu.o):(.debug_line)
    4509     4509        0     1                 .Lline_table_start0
    461d     461d      344     1         /Users/mabez/Development/rust/embedded/experiments/esp32c3-experiments/target/riscv32imac-unknown-none-elf/debug/deps/libesp32c3_lib-9b353d7564fdb320.rlib(esp32c3_lib-9b353d7564fdb320.4sht8tb4vhhjrf1k.rcgu.o):(.debug_line)
    461d     461d        0     1                 .Lline_table_start0
    4961     4961       d3     1         /Users/mabez/Development/rust/embedded/experiments/esp32c3-experiments/target/riscv32imac-unknown-none-elf/debug/deps/libesp32c3_lib-9b353d7564fdb320.rlib(esp32c3_lib-9b353d7564fdb320.5etuwwf3di4agecu.rcgu.o):(.debug_line)
    4961     4961        0     1                 .Lline_table_start0
    4a34     4a34      2e9     1         /Users/mabez/Development/rust/embedded/experiments/esp32c3-experiments/target/riscv32imac-unknown-none-elf/debug/deps/libesp32c3_lib-9b353d7564fdb320.rlib(esp32c3_lib-9b353d7564fdb320.l5295fvly9urzze.rcgu.o):(.debug_line)
    4a34     4a34        0     1                 .Lline_table_start0
    4d1d     4d1d       ab     1         /Users/mabez/Development/rust/embedded/experiments/esp32c3-experiments/target/riscv32imac-unknown-none-elf/debug/deps/libesp32c3_lib-9b353d7564fdb320.rlib(esp32c3_lib-9b353d7564fdb320.1021wqjltvlv5j9j.rcgu.o):(.debug_line)
    4d1d     4d1d        0     1                 .Lline_table_start0
    4dc8     4dc8       c0     1         /Users/mabez/Development/rust/embedded/experiments/esp32c3-experiments/target/riscv32imac-unknown-none-elf/debug/deps/libesp32c3_lib-9b353d7564fdb320.rlib(esp32c3_lib-9b353d7564fdb320.4egfjjip1nd9anee.rcgu.o):(.debug_line)
    4dc8     4dc8        0     1                 .Lline_table_start0
    4e88     4e88       ae     1         /Users/mabez/Development/rust/embedded/experiments/esp32c3-experiments/target/riscv32imac-unknown-none-elf/debug/deps/libesp32c3_lib-9b353d7564fdb320.rlib(esp32c3_lib-9b353d7564fdb320.32gpmocjzndmv0ky.rcgu.o):(.debug_line)
    4e88     4e88        0     1                 .Lline_table_start0
    4f36     4f36       be     1         /Users/mabez/Development/rust/embedded/experiments/esp32c3-experiments/target/riscv32imac-unknown-none-elf/debug/deps/libesp32c3_lib-9b353d7564fdb320.rlib(esp32c3_lib-9b353d7564fdb320.47yjv4rnqkji4yx9.rcgu.o):(.debug_line)
    4f36     4f36        0     1                 .Lline_table_start0
    4ff4     4ff4       93     1         /Users/mabez/Development/rust/embedded/experiments/esp32c3-experiments/target/riscv32imac-unknown-none-elf/debug/deps/libbare_metal-82dbc08a019da008.rlib(bare_metal-82dbc08a019da008.bare_metal.233bcc8d-cgu.0.rcgu.o):(.debug_line)
    4ff4     4ff4        0     1                 .Lline_table_start0
    5087     5087       bf     1         /Users/mabez/Development/rust/embedded/experiments/esp32c3-experiments/target/riscv32imac-unknown-none-elf/debug/deps/libvoid-d8bfa8eb72c6fce6.rlib(void-d8bfa8eb72c6fce6.void.0c48974b-cgu.0.rcgu.o):(.debug_line)
    5087     5087        0     1                 .Lline_table_start0
    5146     5146    27ac0     1         /Users/mabez/.rustup/toolchains/nightly-aarch64-apple-darwin/lib/rustlib/riscv32imac-unknown-none-elf/lib/libcore-081fd8405fc18f2e.rlib(core-081fd8405fc18f2e.core.756fe54c-cgu.0.rcgu.o):(.debug_line)
    5146     5146        0     1                 .Lline_table_start0
   2cc06    2cc06      20f     1         /Users/mabez/.rustup/toolchains/nightly-aarch64-apple-darwin/lib/rustlib/riscv32imac-unknown-none-elf/lib/libcompiler_builtins-1e32d751d3fb162c.rlib(compiler_builtins-1e32d751d3fb162c.compiler_builtins.864c03ce-cgu.104.rcgu.o):(.debug_line)
   2cc06    2cc06        0     1                 .Lline_table_start0
   2ce15    2ce15      41a     1         /Users/mabez/.rustup/toolchains/nightly-aarch64-apple-darwin/lib/rustlib/riscv32imac-unknown-none-elf/lib/libcompiler_builtins-1e32d751d3fb162c.rlib(compiler_builtins-1e32d751d3fb162c.compiler_builtins.864c03ce-cgu.106.rcgu.o):(.debug_line)
   2ce15    2ce15        0     1                 .Lline_table_start0
   2d22f    2d22f      191     1         /Users/mabez/.rustup/toolchains/nightly-aarch64-apple-darwin/lib/rustlib/riscv32imac-unknown-none-elf/lib/libcompiler_builtins-1e32d751d3fb162c.rlib(compiler_builtins-1e32d751d3fb162c.compiler_builtins.864c03ce-cgu.11.rcgu.o):(.debug_line)
   2d22f    2d22f        0     1                 .Lline_table_start0
   2d3c0    2d3c0      30a     1         /Users/mabez/.rustup/toolchains/nightly-aarch64-apple-darwin/lib/rustlib/riscv32imac-unknown-none-elf/lib/libcompiler_builtins-1e32d751d3fb162c.rlib(compiler_builtins-1e32d751d3fb162c.compiler_builtins.864c03ce-cgu.111.rcgu.o):(.debug_line)
   2d3c0    2d3c0        0     1                 .Lline_table_start0
   2d6ca    2d6ca      245     1         /Users/mabez/.rustup/toolchains/nightly-aarch64-apple-darwin/lib/rustlib/riscv32imac-unknown-none-elf/lib/libcompiler_builtins-1e32d751d3fb162c.rlib(compiler_builtins-1e32d751d3fb162c.compiler_builtins.864c03ce-cgu.2.rcgu.o):(.debug_line)
   2d6ca    2d6ca        0     1                 .Lline_table_start0
   2d90f    2d90f      682     1         /Users/mabez/.rustup/toolchains/nightly-aarch64-apple-darwin/lib/rustlib/riscv32imac-unknown-none-elf/lib/libcompiler_builtins-1e32d751d3fb162c.rlib(compiler_builtins-1e32d751d3fb162c.compiler_builtins.864c03ce-cgu.20.rcgu.o):(.debug_line)
   2d90f    2d90f        0     1                 .Lline_table_start0
   2df91    2df91       fc     1         /Users/mabez/.rustup/toolchains/nightly-aarch64-apple-darwin/lib/rustlib/riscv32imac-unknown-none-elf/lib/libcompiler_builtins-1e32d751d3fb162c.rlib(compiler_builtins-1e32d751d3fb162c.compiler_builtins.864c03ce-cgu.21.rcgu.o):(.debug_line)
   2df91    2df91        0     1                 .Lline_table_start0
   2e08d    2e08d      269     1         /Users/mabez/.rustup/toolchains/nightly-aarch64-apple-darwin/lib/rustlib/riscv32imac-unknown-none-elf/lib/libcompiler_builtins-1e32d751d3fb162c.rlib(compiler_builtins-1e32d751d3fb162c.compiler_builtins.864c03ce-cgu.27.rcgu.o):(.debug_line)
   2e08d    2e08d        0     1                 .Lline_table_start0
   2e2f6    2e2f6       fc     1         /Users/mabez/.rustup/toolchains/nightly-aarch64-apple-darwin/lib/rustlib/riscv32imac-unknown-none-elf/lib/libcompiler_builtins-1e32d751d3fb162c.rlib(compiler_builtins-1e32d751d3fb162c.compiler_builtins.864c03ce-cgu.28.rcgu.o):(.debug_line)
   2e2f6    2e2f6        0     1                 .Lline_table_start0
   2e3f2    2e3f2      28a     1         /Users/mabez/.rustup/toolchains/nightly-aarch64-apple-darwin/lib/rustlib/riscv32imac-unknown-none-elf/lib/libcompiler_builtins-1e32d751d3fb162c.rlib(compiler_builtins-1e32d751d3fb162c.compiler_builtins.864c03ce-cgu.69.rcgu.o):(.debug_line)
   2e3f2    2e3f2        0     1                 .Lline_table_start0
   2e67c    2e67c      33a     1         /Users/mabez/.rustup/toolchains/nightly-aarch64-apple-darwin/lib/rustlib/riscv32imac-unknown-none-elf/lib/libcompiler_builtins-1e32d751d3fb162c.rlib(compiler_builtins-1e32d751d3fb162c.compiler_builtins.864c03ce-cgu.7.rcgu.o):(.debug_line)
   2e67c    2e67c        0     1                 .Lline_table_start0
   2e9b6    2e9b6       fc     1         /Users/mabez/.rustup/toolchains/nightly-aarch64-apple-darwin/lib/rustlib/riscv32imac-unknown-none-elf/lib/libcompiler_builtins-1e32d751d3fb162c.rlib(compiler_builtins-1e32d751d3fb162c.compiler_builtins.864c03ce-cgu.70.rcgu.o):(.debug_line)
   2e9b6    2e9b6        0     1                 .Lline_table_start0
   2eab2    2eab2      245     1         /Users/mabez/.rustup/toolchains/nightly-aarch64-apple-darwin/lib/rustlib/riscv32imac-unknown-none-elf/lib/libcompiler_builtins-1e32d751d3fb162c.rlib(compiler_builtins-1e32d751d3fb162c.compiler_builtins.864c03ce-cgu.71.rcgu.o):(.debug_line)
   2eab2    2eab2        0     1                 .Lline_table_start0
   2ecf7    2ecf7      211     1         /Users/mabez/.rustup/toolchains/nightly-aarch64-apple-darwin/lib/rustlib/riscv32imac-unknown-none-elf/lib/libcompiler_builtins-1e32d751d3fb162c.rlib(compiler_builtins-1e32d751d3fb162c.compiler_builtins.864c03ce-cgu.79.rcgu.o):(.debug_line)
   2ecf7    2ecf7        0     1                 .Lline_table_start0
   2ef08    2ef08      41a     1         /Users/mabez/.rustup/toolchains/nightly-aarch64-apple-darwin/lib/rustlib/riscv32imac-unknown-none-elf/lib/libcompiler_builtins-1e32d751d3fb162c.rlib(compiler_builtins-1e32d751d3fb162c.compiler_builtins.864c03ce-cgu.8.rcgu.o):(.debug_line)
   2ef08    2ef08        0     1                 .Lline_table_start0
   2f322    2f322      b8c     1         /Users/mabez/.rustup/toolchains/nightly-aarch64-apple-darwin/lib/rustlib/riscv32imac-unknown-none-elf/lib/libcompiler_builtins-1e32d751d3fb162c.rlib(compiler_builtins-1e32d751d3fb162c.compiler_builtins.864c03ce-cgu.82.rcgu.o):(.debug_line)
   2f322    2f322        0     1                 .Lline_table_start0
   2feae    2feae      28e     1         /Users/mabez/.rustup/toolchains/nightly-aarch64-apple-darwin/lib/rustlib/riscv32imac-unknown-none-elf/lib/libcompiler_builtins-1e32d751d3fb162c.rlib(compiler_builtins-1e32d751d3fb162c.compiler_builtins.864c03ce-cgu.120.rcgu.o):(.debug_line)
   2feae    2feae        0     1                 .Lline_table_start0
   3013c    3013c      211     1         /Users/mabez/.rustup/toolchains/nightly-aarch64-apple-darwin/lib/rustlib/riscv32imac-unknown-none-elf/lib/libcompiler_builtins-1e32d751d3fb162c.rlib(compiler_builtins-1e32d751d3fb162c.compiler_builtins.864c03ce-cgu.92.rcgu.o):(.debug_line)
   3013c    3013c        0     1                 .Lline_table_start0
   3034d    3034d      394     1         /Users/mabez/Development/rust/embedded/experiments/esp32c3-experiments/target/riscv32imac-unknown-none-elf/debug/deps/libriscv_rt-792395b706c7e295.rlib(riscv_rt-792395b706c7e295.n23zmh27zi56vj2.rcgu.o):(.debug_line)
   3034d    3034d        0     1                 .Lline_table_start0
   306e1    306e1      24a     1         /Users/mabez/Development/rust/embedded/experiments/esp32c3-experiments/target/riscv32imac-unknown-none-elf/debug/deps/libriscv_rt-792395b706c7e295.rlib(riscv_rt-792395b706c7e295.2si3iiyx4w55gh9p.rcgu.o):(.debug_line)
   306e1    306e1        0     1                 .Lline_table_start0
   3092b    3092b      126     1         /Users/mabez/Development/rust/embedded/experiments/esp32c3-experiments/target/riscv32imac-unknown-none-elf/debug/deps/libriscv_rt-792395b706c7e295.rlib(riscv_rt-792395b706c7e295.nu58l7xx5z184oa.rcgu.o):(.debug_line)
   3092b    3092b        0     1                 .Lline_table_start0
   30a51    30a51       92     1         /Users/mabez/Development/rust/embedded/experiments/esp32c3-experiments/target/riscv32imac-unknown-none-elf/debug/deps/libriscv_rt-792395b706c7e295.rlib(riscv_rt-792395b706c7e295.40ecbdq24jylbsk0.rcgu.o):(.debug_line)
   30a51    30a51        0     1                 .Lline_table_start0
   30ae3    30ae3      15b     1         /Users/mabez/Development/rust/embedded/experiments/esp32c3-experiments/target/riscv32imac-unknown-none-elf/debug/deps/libriscv_rt-792395b706c7e295.rlib(riscv_rt-792395b706c7e295.4l8nnv0gz5uboi7y.rcgu.o):(.debug_line)
   30ae3    30ae3        0     1                 .Lline_table_start0
   30c3e    30c3e      129     1         /Users/mabez/Development/rust/embedded/experiments/esp32c3-experiments/target/riscv32imac-unknown-none-elf/debug/deps/libriscv_rt-792395b706c7e295.rlib(riscv_rt-792395b706c7e295.a1pdmtq419pk4l9.rcgu.o):(.debug_line)
   30c3e    30c3e        0     1                 .Lline_table_start0
   30d67    30d67      4ba     1         /Users/mabez/Development/rust/embedded/experiments/esp32c3-experiments/target/riscv32imac-unknown-none-elf/debug/deps/libriscv-58bee4c49f9f92ec.rlib(riscv-58bee4c49f9f92ec.riscv.8be94b29-cgu.0.rcgu.o):(.debug_line)
   30d67    30d67        0     1                 .Lline_table_start0
   31221    31221      2e4     1         /Users/mabez/Development/rust/embedded/experiments/esp32c3-experiments/target/riscv32imac-unknown-none-elf/debug/deps/libriscv-58bee4c49f9f92ec.rlib(riscv-58bee4c49f9f92ec.riscv.8be94b29-cgu.9.rcgu.o):(.debug_line)
   31221    31221        0     1                 .Lline_table_start0
   31505    31505      171     1         /Users/mabez/Development/rust/embedded/experiments/esp32c3-experiments/target/riscv32imac-unknown-none-elf/debug/deps/libriscv-58bee4c49f9f92ec.rlib(riscv-58bee4c49f9f92ec.riscv.8be94b29-cgu.4.rcgu.o):(.debug_line)
   31505    31505        0     1                 .Lline_table_start0
   31676    31676       c2     1         /Users/mabez/Development/rust/embedded/experiments/esp32c3-experiments/target/riscv32imac-unknown-none-elf/debug/deps/libriscv_rt-792395b706c7e295.rlib(riscv_rt-792395b706c7e295.2fig4fon7wqsswts.rcgu.o):(.debug_line)
   31676    31676        0     1                 .Lline_table_start0
   31738    31738       94     1         /Users/mabez/Development/rust/embedded/experiments/esp32c3-experiments/target/riscv32imac-unknown-none-elf/debug/deps/libriscv_rt-792395b706c7e295.rlib(riscv_rt-792395b706c7e295.53lukflzfjg86k6f.rcgu.o):(.debug_line)
   31738    31738        0     1                 .Lline_table_start0
   317cc    317cc       87     1         /Users/mabez/Development/rust/embedded/experiments/esp32c3-experiments/target/riscv32imac-unknown-none-elf/debug/deps/libriscv_rt-792395b706c7e295.rlib(riscv_rt-792395b706c7e295.2h85xx65g8aqsgk3.rcgu.o):(.debug_line)
   317cc    317cc        0     1                 .Lline_table_start0
   31853    31853      25a     1         /Users/mabez/Development/rust/embedded/experiments/esp32c3-experiments/target/riscv32imac-unknown-none-elf/debug/deps/libriscv_rt-792395b706c7e295.rlib(riscv-rt.o):(.debug_line)
   31aad    31aad      1ea     1         /Users/mabez/Development/rust/embedded/experiments/esp32c3-experiments/target/riscv32imac-unknown-none-elf/debug/deps/libriscv_atomic_emulation_trap-36c6147cf3a7da2f.rlib(riscv-atomic-emulation-trap.o):(.debug_line)
   31c97    31c97      961     1         /Users/mabez/Development/rust/embedded/experiments/esp32c3-experiments/target/riscv32imac-unknown-none-elf/debug/deps/libriscv_atomic_emulation_trap-36c6147cf3a7da2f.rlib(riscv_atomic_emulation_trap-36c6147cf3a7da2f.192heijy3m9d29qe.rcgu.o):(.debug_line)
   31c97    31c97        0     1                 .Lline_table_start0
   325f8    325f8       b3     1         /Users/mabez/Development/rust/embedded/experiments/esp32c3-experiments/target/riscv32imac-unknown-none-elf/debug/deps/libriscv_atomic_emulation_trap-36c6147cf3a7da2f.rlib(riscv_atomic_emulation_trap-36c6147cf3a7da2f.4wwaujsdloo4dvp5.rcgu.o):(.debug_line)
   325f8    325f8        0     1                 .Lline_table_start0
   326ab    326ab       99     1         /Users/mabez/Development/rust/embedded/experiments/esp32c3-experiments/target/riscv32imac-unknown-none-elf/debug/deps/libriscv_atomic_emulation_trap-36c6147cf3a7da2f.rlib(riscv_atomic_emulation_trap-36c6147cf3a7da2f.1mk8bwfvrfakb4yc.rcgu.o):(.debug_line)
   326ab    326ab        0     1                 .Lline_table_start0
   32744    32744       9e     1         /Users/mabez/Development/rust/embedded/experiments/esp32c3-experiments/target/riscv32imac-unknown-none-elf/debug/deps/libriscv_atomic_emulation_trap-36c6147cf3a7da2f.rlib(riscv_atomic_emulation_trap-36c6147cf3a7da2f.3grzare3werdor3q.rcgu.o):(.debug_line)
   32744    32744        0     1                 .Lline_table_start0
   327e2    327e2      1b2     1         /Users/mabez/Development/rust/embedded/experiments/esp32c3-experiments/target/riscv32imac-unknown-none-elf/debug/deps/libriscv_atomic_emulation_trap-36c6147cf3a7da2f.rlib(riscv_atomic_emulation_trap-36c6147cf3a7da2f.4l7k26w2j1wwfghy.rcgu.o):(.debug_line)
   327e2    327e2        0     1                 .Lline_table_start0
   32994    32994      28d     1         /Users/mabez/Development/rust/embedded/experiments/esp32c3-experiments/target/riscv32imac-unknown-none-elf/debug/deps/libriscv_atomic_emulation_trap-36c6147cf3a7da2f.rlib(riscv_atomic_emulation_trap-36c6147cf3a7da2f.be49seve1qmvobv.rcgu.o):(.debug_line)
   32994    32994        0     1                 .Lline_table_start0
   32c21    32c21      111     1         /Users/mabez/Development/rust/embedded/experiments/esp32c3-experiments/target/riscv32imac-unknown-none-elf/debug/deps/libriscv_atomic_emulation_trap-36c6147cf3a7da2f.rlib(riscv_atomic_emulation_trap-36c6147cf3a7da2f.431el3q0783r85py.rcgu.o):(.debug_line)
   32c21    32c21        0     1                 .Lline_table_start0
   32d32    32d32      1b1     1         /Users/mabez/Development/rust/embedded/experiments/esp32c3-experiments/target/riscv32imac-unknown-none-elf/debug/deps/libriscv_atomic_emulation_trap-36c6147cf3a7da2f.rlib(riscv_atomic_emulation_trap-36c6147cf3a7da2f.4q0r5d249n6epd3q.rcgu.o):(.debug_line)
   32d32    32d32        0     1                 .Lline_table_start0
   32ee3    32ee3      171     1         /Users/mabez/Development/rust/embedded/experiments/esp32c3-experiments/target/riscv32imac-unknown-none-elf/debug/deps/libriscv_atomic_emulation_trap-36c6147cf3a7da2f.rlib(riscv_atomic_emulation_trap-36c6147cf3a7da2f.4z6enr9b9fac5dau.rcgu.o):(.debug_line)
   32ee3    32ee3        0     1                 .Lline_table_start0
   33054    33054      4ba     1         /Users/mabez/Development/rust/embedded/experiments/esp32c3-experiments/target/riscv32imac-unknown-none-elf/debug/deps/libriscv-e6570dc03e37c02b.rlib(riscv-e6570dc03e37c02b.riscv.6a3f384f-cgu.0.rcgu.o):(.debug_line)
   33054    33054        0     1                 .Lline_table_start0
   3350e    3350e      2df     1         /Users/mabez/Development/rust/embedded/experiments/esp32c3-experiments/target/riscv32imac-unknown-none-elf/debug/deps/libriscv-e6570dc03e37c02b.rlib(riscv-e6570dc03e37c02b.riscv.6a3f384f-cgu.10.rcgu.o):(.debug_line)
   3350e    3350e        0     1                 .Lline_table_start0
   337ed    337ed      25b     1         /Users/mabez/Development/rust/embedded/experiments/esp32c3-experiments/target/riscv32imac-unknown-none-elf/debug/deps/libriscv-e6570dc03e37c02b.rlib(riscv-e6570dc03e37c02b.riscv.6a3f384f-cgu.8.rcgu.o):(.debug_line)
   337ed    337ed        0     1                 .Lline_table_start0
   33a48    33a48      171     1         /Users/mabez/Development/rust/embedded/experiments/esp32c3-experiments/target/riscv32imac-unknown-none-elf/debug/deps/libriscv-e6570dc03e37c02b.rlib(riscv-e6570dc03e37c02b.riscv.6a3f384f-cgu.4.rcgu.o):(.debug_line)
   33a48    33a48        0     1                 .Lline_table_start0
   33bb9    33bb9      1f4     1         /Users/mabez/Development/rust/embedded/experiments/esp32c3-experiments/target/riscv32imac-unknown-none-elf/debug/deps/libriscv-e6570dc03e37c02b.rlib(riscv-e6570dc03e37c02b.riscv.6a3f384f-cgu.11.rcgu.o):(.debug_line)
   33bb9    33bb9        0     1                 .Lline_table_start0
       0        0      168     1 .debug_loc
       0        0       38     1         /Users/mabez/Development/rust/embedded/experiments/esp32c3-experiments/target/riscv32imac-unknown-none-elf/debug/deps/esp32c3-0792fe58911f872d.31cobsrxn8v7n7js.rcgu.o:(.debug_loc)
       0        0        0     1                 
      1c       1c        0     1                 
      38       38       61     1         /Users/mabez/Development/rust/embedded/experiments/esp32c3-experiments/target/riscv32imac-unknown-none-elf/debug/deps/librtt_target-c8a503ffaa8773f6.rlib(rtt_target-c8a503ffaa8773f6.rtt_target.49ad93cd-cgu.0.rcgu.o):(.debug_loc)
      38       38        0     1                 
      54       54        0     1                 
      70       70        0     1                 
      99       99       61     1         /Users/mabez/Development/rust/embedded/experiments/esp32c3-experiments/target/riscv32imac-unknown-none-elf/debug/deps/librtt_target-c8a503ffaa8773f6.rlib(rtt_target-c8a503ffaa8773f6.rtt_target.49ad93cd-cgu.2.rcgu.o):(.debug_loc)
      99       99        0     1                 
      b5       b5        0     1                 
      d1       d1        0     1                 
      fa       fa       6e     1         /Users/mabez/Development/rust/embedded/experiments/esp32c3-experiments/target/riscv32imac-unknown-none-elf/debug/deps/librtt_target-c8a503ffaa8773f6.rlib(rtt_target-c8a503ffaa8773f6.rtt_target.49ad93cd-cgu.5.rcgu.o):(.debug_loc)
      fa       fa        0     1                 
     123      123        0     1                 
     13f      13f        0     1                 
       0        0       10     1 .debug_line_str
       0        0       10     1         <internal>:(.debug_line_str)
       0        0       20     1 .debug_rnglists
       0        0       20     1         /Users/mabez/Development/rust/embedded/experiments/esp32c3-experiments/target/riscv32imac-unknown-none-elf/debug/deps/libriscv_rt-792395b706c7e295.rlib(riscv-rt.o):(.debug_rnglists)
       c        c        0     1                 .L0 
       0        0       13     1 .comment
       0        0       13     1         <internal>:(.comment)
       0        0    22ac0     4 .symtab
       0        0    22ac0     4         <internal>:(.symtab)
       0        0      120     1 .shstrtab
       0        0      120     1         <internal>:(.shstrtab)
       0        0     69a9     1 .strtab
       0        0     69a9     1         <internal>:(.strtab)
