     VMA      LMA     Size Align Out     In      Symbol
42000000        0        8     1 .header
42000000        0        4     1         LONG ( 0xaedb041d )
42000004        4        4     1         LONG ( 0xaedb041d )
42000008        8        0     1 _stext = ORIGIN ( IROM ) + 8
42000008        8        0     1 PROVIDE ( _stack_start = ORIGIN ( REGION_STACK ) + LENGTH ( REGION_STACK ) )
42000008        8        0     1 PROVIDE ( _max_hart_id = 0 )
42000008        8        0     1 PROVIDE ( _hart_stack_size = 2K )
42000008        8        0     1 PROVIDE ( _heap_size = 0 )
42000008        8        0     1 PROVIDE ( UserSoft = DefaultHandler )
42000008        8        0     1 PROVIDE ( SupervisorSoft = DefaultHandler )
42000008        8        0     1 PROVIDE ( MachineSoft = DefaultHandler )
42000008        8        0     1 PROVIDE ( UserTimer = DefaultHandler )
42000008        8        0     1 PROVIDE ( SupervisorTimer = DefaultHandler )
42000008        8        0     1 PROVIDE ( MachineTimer = DefaultHandler )
42000008        8        0     1 PROVIDE ( UserExternal = DefaultHandler )
42000008        8        0     1 PROVIDE ( SupervisorExternal = DefaultHandler )
42000008        8        0     1 PROVIDE ( MachineExternal = DefaultHandler )
42000008        8        0     1 PROVIDE ( DefaultHandler = DefaultInterruptHandler )
42000008        8        0     1 PROVIDE ( __pre_init = default_pre_init )
42000008        8        0     1 PROVIDE ( _setup_interrupts = default_setup_interrupts )
42000008        8        0     1 PROVIDE ( _mp_hook = default_mp_hook )
42000008        8        0     1 .text.dummy
42000008        8        0     1         . = ABSOLUTE ( _stext )
42000008        8     5394     2 .text
42000008        8       82     1         /Users/mabez/Development/rust/embedded/experiments/esp32c3-experiments/target/riscv32imac-unknown-none-elf/debug/deps/libriscv_rt-792395b706c7e295.rlib(riscv-rt.o):(.init)
42000008        8        0     1                 .L0 
42000008        8        0     1                 .L0 
42000008        8        0     1                 .L0 
42000008        8        0     1                 _start
4200000c        c        0     1                 .L0 
42000010       10        0     1                 _abs_start
42000010       10        0     1                 .L0 
42000010       10        0     1                 .L0 
42000012       12        0     1                 .L0 
42000014       14        0     1                 .L0 
42000016       16        0     1                 .L0 
42000018       18        0     1                 .L0 
4200001a       1a        0     1                 .L0 
4200001c       1c        0     1                 .L0 
4200001e       1e        0     1                 .L0 
42000020       20        0     1                 .L0 
42000022       22        0     1                 .L0 
42000024       24        0     1                 .L0 
42000026       26        0     1                 .L0 
42000028       28        0     1                 .L0 
4200002a       2a        0     1                 .L0 
4200002c       2c        0     1                 .L0 
4200002e       2e        0     1                 .L0 
42000030       30        0     1                 .L0 
42000032       32        0     1                 .L0 
42000034       34        0     1                 .L0 
42000036       36        0     1                 .L0 
42000038       38        0     1                 .L0 
4200003a       3a        0     1                 .L0 
4200003c       3c        0     1                 .L0 
4200003e       3e        0     1                 .L0 
42000040       40        0     1                 .L0 
42000042       42        0     1                 .L0 
42000044       44        0     1                 .L0 
42000046       46        0     1                 .L0 
42000048       48        0     1                 .L0 
4200004a       4a        0     1                 .L0 
4200004c       4c        0     1                 .L0 
4200004e       4e        0     1                 .L0 
4200004e       4e        0     1                 .L0 
42000056       56        0     1                 .L0 
4200005a       5a        0     1                 .L0 
4200005e       5e        0     1                 .L0 
42000062       62        0     1                 .L0 
4200006a       6a        0     1                 .L0 
4200006a       6a        0     1                 .L0 
42000072       72        0     1                 .L0 
42000076       76        0     1                 .L0 
4200007a       7a        0     1                 .L0 
4200007e       7e        0     1                 .L0 
42000082       82        0     1                 .L0 
42000086       86        0     1                 .L0 
4200008a       8a        0     1                 .L0 
4200008a       8a        0     1                 .L0 
4200008a       8a        0     1                 .L0 
4200008a       8a       74     2         /Users/mabez/Development/rust/embedded/experiments/esp32c3-experiments/target/riscv32imac-unknown-none-elf/debug/deps/libriscv_rt-792395b706c7e295.rlib(riscv_rt-792395b706c7e295.n23zmh27zi56vj2.rcgu.o):(.init.rust)
4200008a       8a        0     1                 
4200008a       8a        0     1                 
4200008a       8a        0     1                 
4200008a       8a       74     1                 _start_rust
4200008c       8c        0     1                 
4200008c       8c        0     1                 
4200008e       8e        0     1                 
4200009a       9a        0     1                 
4200009e       9e        0     1                 
420000a4       a4        0     1                 
420000ae       ae        0     1                 
420000b8       b8        0     1                 
420000d2       d2        0     1                 
420000f4       f4        0     1                 
420000fe       fe        0     1                 
420000fe       fe        0     1                 
420000fe       fe        0     1                 
420000fe       fe        2     1         . = ALIGN ( 4 )
42000100      100       92     1         /Users/mabez/Development/rust/embedded/experiments/esp32c3-experiments/target/riscv32imac-unknown-none-elf/debug/deps/libriscv_atomic_emulation_trap-9111affe446510c3.rlib(riscv-atomic-emulation-trap.o):(.trap)
42000100      100        0     1                 .L0 
42000100      100        0     1                 .L0 
42000100      100        0     1                 _start_trap
42000102      102        0     1                 .L0 
42000104      104        0     1                 .L0 
42000106      106        0     1                 .L0 
42000108      108        0     1                 .L0 
4200010a      10a        0     1                 .L0 
4200010c      10c        0     1                 .L0 
4200010e      10e        0     1                 .L0 
42000110      110        0     1                 .L0 
42000112      112        0     1                 .L0 
42000114      114        0     1                 .L0 
42000116      116        0     1                 .L0 
42000118      118        0     1                 .L0 
4200011a      11a        0     1                 .L0 
4200011c      11c        0     1                 .L0 
4200011e      11e        0     1                 .L0 
42000120      120        0     1                 .L0 
42000122      122        0     1                 .L0 
42000124      124        0     1                 .L0 
42000126      126        0     1                 .L0 
42000128      128        0     1                 .L0 
4200012a      12a        0     1                 .L0 
4200012c      12c        0     1                 .L0 
4200012e      12e        0     1                 .L0 
42000130      130        0     1                 .L0 
42000132      132        0     1                 .L0 
42000134      134        0     1                 .L0 
42000136      136        0     1                 .L0 
42000138      138        0     1                 .L0 
4200013a      13a        0     1                 .L0 
4200013c      13c        0     1                 .L0 
4200013e      13e        0     1                 .L0 
42000140      140        0     1                 .L0 
42000142      142        0     1                 .L0 
42000146      146        0     1                 .L0 
4200014a      14a        0     1                 .L0 
4200014e      14e        0     1                 .L0 
42000150      150        0     1                 .L0 
42000152      152        0     1                 .L0 
42000154      154        0     1                 .L0 
42000156      156        0     1                 .L0 
42000158      158        0     1                 .L0 
4200015a      15a        0     1                 .L0 
4200015c      15c        0     1                 .L0 
4200015e      15e        0     1                 .L0 
42000160      160        0     1                 .L0 
42000162      162        0     1                 .L0 
42000164      164        0     1                 .L0 
42000166      166        0     1                 .L0 
42000168      168        0     1                 .L0 
4200016a      16a        0     1                 .L0 
4200016c      16c        0     1                 .L0 
4200016e      16e        0     1                 .L0 
42000170      170        0     1                 .L0 
42000172      172        0     1                 .L0 
42000174      174        0     1                 .L0 
42000176      176        0     1                 .L0 
42000178      178        0     1                 .L0 
4200017a      17a        0     1                 .L0 
4200017c      17c        0     1                 .L0 
4200017e      17e        0     1                 .L0 
42000180      180        0     1                 .L0 
42000182      182        0     1                 .L0 
42000184      184        0     1                 .L0 
42000186      186        0     1                 .L0 
42000188      188        0     1                 .L0 
4200018a      18a        0     1                 .L0 
4200018c      18c        0     1                 .L0 
4200018e      18e        0     1                 .L0 
42000192      192        0     1                 .L0 
42000192      192        0     1                 .L0 
42000192      192       b2     2         /Users/mabez/Development/rust/embedded/experiments/esp32c3-experiments/target/riscv32imac-unknown-none-elf/debug/deps/libriscv_rt-792395b706c7e295.rlib(riscv_rt-792395b706c7e295.n23zmh27zi56vj2.rcgu.o):(.trap.rust)
42000192      192        0     1                 
42000192      192        0     1                 
42000192      192        0     1                 
42000192      192       b2     1                 _start_trap_rust
42000194      194        0     1                 
42000196      196        0     1                 
4200019a      19a        0     1                 
420001a6      1a6        0     1                 
420001a8      1a8        0     1                 
420001a8      1a8        0     1                 
420001b4      1b4        0     1                 
420001b8      1b8        0     1                 
420001be      1be        0     1                 
420001c0      1c0        0     1                 
420001d0      1d0        0     1                 
420001dc      1dc        0     1                 
420001dc      1dc        0     1                 
420001e2      1e2        0     1                 
420001e6      1e6        0     1                 
420001e6      1e6        0     1                 
420001ec      1ec        0     1                 
420001f6      1f6        0     1                 
420001fa      1fa        0     1                 
42000200      200        0     1                 
42000212      212        0     1                 
42000212      212        0     1                 
4200021c      21c        0     1                 
4200021c      21c        0     1                 
42000232      232        0     1                 
42000232      232        0     1                 
4200023c      23c        0     1                 
42000244      244        0     1                 
42000244      244        0     1                 
42000244      244        0     1                 
42000244      244        0     1                 
42000244      244      232     2         /Users/mabez/Development/rust/embedded/experiments/esp32c3-experiments/target/riscv32imac-unknown-none-elf/debug/deps/esp32c3-5c92695bd7d79a0b.1167rr2z31gresnb.rcgu.o:(.text._ZN4core4char7methods15encode_utf8_raw17h299a6d115de95946E)
42000244      244      232     1                 core::char::methods::encode_utf8_raw::h299a6d115de95946
42000244      244        0     1                 
42000244      244        0     1                 
42000244      244        0     1                 
42000246      246        0     1                 
42000248      248        0     1                 
42000252      252        0     1                 
4200025e      25e        0     1                 
4200025e      25e        0     1                 
42000264      264        0     1                 
4200027c      27c        0     1                 
42000288      288        0     1                 
42000294      294        0     1                 
42000298      298        0     1                 
4200029e      29e        0     1                 
420002a2      2a2        0     1                 
420002a8      2a8        0     1                 
420002ac      2ac        0     1                 
420002b2      2b2        0     1                 
420002b8      2b8        0     1                 
420002cc      2cc        0     1                 
420002cc      2cc        0     1                 
420002e2      2e2        0     1                 
420002e2      2e2        0     1                 
420002ec      2ec        0     1                 
420002f6      2f6        0     1                 
42000300      300        0     1                 
4200030a      30a        0     1                 
42000310      310        0     1                 
42000316      316        0     1                 
4200031c      31c        0     1                 
42000322      322        0     1                 
42000322      322        0     1                 
42000326      326        0     1                 
42000328      328        0     1                 
42000330      330        0     1                 
42000334      334        0     1                 
42000338      338        0     1                 
42000340      340        0     1                 
42000344      344        0     1                 
42000348      348        0     1                 
42000350      350        0     1                 
42000354      354        0     1                 
42000358      358        0     1                 
42000360      360        0     1                 
42000360      360        0     1                 
42000362      362        0     1                 
42000368      368        0     1                 
4200036a      36a        0     1                 
42000380      380        0     1                 
42000384      384        0     1                 
4200038a      38a        0     1                 
42000390      390        0     1                 
42000390      390        0     1                 
42000394      394        0     1                 
42000396      396        0     1                 
4200039e      39e        0     1                 
420003a2      3a2        0     1                 
420003a6      3a6        0     1                 
420003ae      3ae        0     1                 
420003b2      3b2        0     1                 
420003b6      3b6        0     1                 
420003be      3be        0     1                 
420003be      3be        0     1                 
420003c0      3c0        0     1                 
420003c4      3c4        0     1                 
420003ca      3ca        0     1                 
420003ca      3ca        0     1                 
420003ce      3ce        0     1                 
420003d0      3d0        0     1                 
420003d8      3d8        0     1                 
420003dc      3dc        0     1                 
420003e0      3e0        0     1                 
420003e8      3e8        0     1                 
420003e8      3e8        0     1                 
420003ea      3ea        0     1                 
420003ee      3ee        0     1                 
420003ee      3ee        0     1                 
420003f0      3f0        0     1                 
420003f4      3f4        0     1                 
420003f4      3f4        0     1                 
420003f6      3f6        0     1                 
420003f6      3f6        0     1                 
42000400      400        0     1                 
42000400      400        0     1                 
42000448      448        0     1                 
42000448      448        0     1                 
42000476      476        0     1                 
42000476      476        0     1                 
42000476      476        0     1                 
42000476      476        0     1                 
42000476      476       34     2         /Users/mabez/Development/rust/embedded/experiments/esp32c3-experiments/target/riscv32imac-unknown-none-elf/debug/deps/esp32c3-5c92695bd7d79a0b.1167rr2z31gresnb.rcgu.o:(.text._ZN4core4char7methods22_$LT$impl$u20$char$GT$11encode_utf817hb6ec394375e3e7d4E)
42000476      476        0     1                 
42000476      476        0     1                 
42000476      476        0     1                 
42000476      476       34     1                 core::char::methods::_$LT$impl$u20$char$GT$::encode_utf8::hb6ec394375e3e7d4
42000478      478        0     1                 
4200047a      47a        0     1                 
42000480      480        0     1                 
4200048e      48e        0     1                 
420004a0      4a0        0     1                 
420004aa      4aa        0     1                 
420004aa      4aa        0     1                 
420004aa      4aa        0     1                 
420004aa      4aa       4a     2         /Users/mabez/Development/rust/embedded/experiments/esp32c3-experiments/target/riscv32imac-unknown-none-elf/debug/deps/esp32c3-5c92695bd7d79a0b.1167rr2z31gresnb.rcgu.o:(.text._ZN4core4char7methods8len_utf817hbddc461b67dcad4eE)
420004aa      4aa       4a     1                 core::char::methods::len_utf8::hbddc461b67dcad4e
420004aa      4aa        0     1                 
420004aa      4aa        0     1                 
420004aa      4aa        0     1                 
420004ac      4ac        0     1                 
420004b4      4b4        0     1                 
420004ba      4ba        0     1                 
420004c6      4c6        0     1                 
420004c8      4c8        0     1                 
420004ca      4ca        0     1                 
420004cc      4cc        0     1                 
420004d2      4d2        0     1                 
420004de      4de        0     1                 
420004e0      4e0        0     1                 
420004e2      4e2        0     1                 
420004e4      4e4        0     1                 
420004e6      4e6        0     1                 
420004e8      4e8        0     1                 
420004ea      4ea        0     1                 
420004ec      4ec        0     1                 
420004ee      4ee        0     1                 
420004f0      4f0        0     1                 
420004f2      4f2        0     1                 
420004f4      4f4        0     1                 
420004f4      4f4        0     1                 
420004f4      4f4        0     1                 
420004f4      4f4       72     2         /Users/mabez/Development/rust/embedded/experiments/esp32c3-experiments/target/riscv32imac-unknown-none-elf/debug/deps/esp32c3-5c92695bd7d79a0b.17kfpczq76poenv8.rcgu.o:(.text.rust_begin_unwind)
420004f4      4f4        0     1                 
420004f4      4f4        0     1                 
420004f4      4f4        0     1                 
420004f4      4f4       72     1                 rust_begin_unwind
420004f6      4f6        0     1                 
420004f8      4f8        0     1                 
420004fc      4fc        0     1                 
42000500      500        0     1                 
42000500      500        0     1                 
42000520      520        0     1                 
42000520      520        0     1                 
42000548      548        0     1                 
4200054c      54c        0     1                 
42000564      564        0     1                 
42000566      566        0     1                 
42000566      566        0     1                 
42000566      566        0     1                 
42000566      566      210     2         /Users/mabez/Development/rust/embedded/experiments/esp32c3-experiments/target/riscv32imac-unknown-none-elf/debug/deps/esp32c3-5c92695bd7d79a0b.17kfpczq76poenv8.rcgu.o:(.text.ExceptionHandler)
42000566      566        0     1                 
42000566      566        0     1                 
42000566      566        0     1                 
42000566      566      210     1                 ExceptionHandler
42000568      568        0     1                 
4200056c      56c        0     1                 
4200056e      56e        0     1                 
4200057a      57a        0     1                 
4200057c      57c        0     1                 
42000582      582        0     1                 
42000582      582        0     1                 
420005a2      5a2        0     1                 
420005a2      5a2        0     1                 
420005ca      5ca        0     1                 
420005ce      5ce        0     1                 
420005e6      5e6        0     1                 
420005e8      5e8        0     1                 
420005ee      5ee        0     1                 
420005ee      5ee        0     1                 
4200060c      60c        0     1                 
4200060c      60c        0     1                 
42000626      626        0     1                 
4200062a      62a        0     1                 
42000642      642        0     1                 
42000644      644        0     1                 
42000650      650        0     1                 
42000654      654        0     1                 
4200065a      65a        0     1                 
42000668      668        0     1                 
4200066a      66a        0     1                 
42000670      670        0     1                 
42000670      670        0     1                 
4200068e      68e        0     1                 
4200068e      68e        0     1                 
420006a8      6a8        0     1                 
420006ac      6ac        0     1                 
420006c4      6c4        0     1                 
420006d0      6d0        0     1                 
420006d2      6d2        0     1                 
420006e0      6e0        0     1                 
420006ec      6ec        0     1                 
42000708      708        0     1                 
42000710      710        0     1                 
42000712      712        0     1                 
4200071a      71a        0     1                 
4200071a      71a        0     1                 
4200073a      73a        0     1                 
4200073a      73a        0     1                 
42000776      776        0     1                 
42000776      776        0     1                 
42000776      776        0     1                 
42000776      776      2de     2         /Users/mabez/Development/rust/embedded/experiments/esp32c3-experiments/target/riscv32imac-unknown-none-elf/debug/deps/esp32c3-5c92695bd7d79a0b.17kfpczq76poenv8.rcgu.o:(.text.main)
42000776      776        0     1                 
42000776      776        0     1                 
42000776      776        0     1                 
42000776      776      2de     1                 main
42000778      778        0     1                 
42000778      778        0     1                 
42000778      778        0     1                 
4200077c      77c        0     1                 
42000784      784        0     1                 
42000784      784        0     1                 
4200078e      78e        0     1                 
42000790      790        0     1                 
4200079c      79c        0     1                 
4200079c      79c        0     1                 
420007bc      7bc        0     1                 
420007c0      7c0        0     1                 
420007e0      7e0        0     1                 
420007ee      7ee        0     1                 
420007ee      7ee        0     1                 
4200080c      80c        0     1                 
4200080c      80c        0     1                 
42000826      826        0     1                 
4200082a      82a        0     1                 
4200084a      84a        0     1                 
42000852      852        0     1                 
4200085e      85e        0     1                 
42000860      860        0     1                 
42000860      860        0     1                 
42000870      870        0     1                 
42000872      872        0     1                 
42000872      872        0     1                 
42000878      878        0     1                 
42000880      880        0     1                 
420008a8      8a8        0     1                 
420008aa      8aa        0     1                 
420008aa      8aa        0     1                 
420008b0      8b0        0     1                 
420008b0      8b0        0     1                 
420008ce      8ce        0     1                 
420008ce      8ce        0     1                 
420008e8      8e8        0     1                 
420008ec      8ec        0     1                 
4200090c      90c        0     1                 
4200092c      92c        0     1                 
42000930      930        0     1                 
42000950      950        0     1                 
42000952      952        0     1                 
42000972      972        0     1                 
42000974      974        0     1                 
4200098a      98a        0     1                 
42000992      992        0     1                 
42000994      994        0     1                 
420009a6      9a6        0     1                 
420009aa      9aa        0     1                 
420009b0      9b0        0     1                 
420009d0      9d0        0     1                 
420009d4      9d4        0     1                 
420009f4      9f4        0     1                 
420009f6      9f6        0     1                 
42000a16      a16        0     1                 
42000a18      a18        0     1                 
42000a2e      a2e        0     1                 
42000a36      a36        0     1                 
42000a38      a38        0     1                 
42000a4a      a4a        0     1                 
42000a4e      a4e        0     1                 
42000a54      a54        0     1                 
42000a54      a54        0     1                 
42000a54      a54        0     1                 
42000a54      a54        0     1                 
42000a54      a54        8     2         /Users/mabez/Development/rust/embedded/experiments/esp32c3-experiments/target/riscv32imac-unknown-none-elf/debug/deps/esp32c3-5c92695bd7d79a0b.1iu2tfaecczf5k50.rcgu.o:(.text._ZN4core3ptr26drop_in_place$LT$usize$GT$17h32e729a0ddb73d14E)
42000a54      a54        0     1                 
42000a54      a54        0     1                 
42000a54      a54        0     1                 
42000a54      a54        8     1                 core::ptr::drop_in_place$LT$usize$GT$::h32e729a0ddb73d14
42000a56      a56        0     1                 
42000a58      a58        0     1                 
42000a5c      a5c        0     1                 
42000a5c      a5c        0     1                 
42000a5c      a5c        0     1                 
42000a5c      a5c        8     2         /Users/mabez/Development/rust/embedded/experiments/esp32c3-experiments/target/riscv32imac-unknown-none-elf/debug/deps/esp32c3-5c92695bd7d79a0b.1iu2tfaecczf5k50.rcgu.o:(.text._ZN4core3ptr29drop_in_place$LT$$LP$$RP$$GT$17h31aff3f478c3b7c9E)
42000a5c      a5c        0     1                 
42000a5c      a5c        0     1                 
42000a5c      a5c        0     1                 
42000a5c      a5c        8     1                 core::ptr::drop_in_place$LT$$LP$$RP$$GT$::h31aff3f478c3b7c9
42000a5e      a5e        0     1                 
42000a60      a60        0     1                 
42000a64      a64        0     1                 
42000a64      a64        0     1                 
42000a64      a64        0     1                 
42000a64      a64        8     2         /Users/mabez/Development/rust/embedded/experiments/esp32c3-experiments/target/riscv32imac-unknown-none-elf/debug/deps/esp32c3-5c92695bd7d79a0b.1iu2tfaecczf5k50.rcgu.o:(.text._ZN4core3ptr31drop_in_place$LT$void..Void$GT$17h4b7b505af4926185E)
42000a64      a64        0     1                 
42000a64      a64        0     1                 
42000a64      a64        0     1                 
42000a64      a64        8     1                 core::ptr::drop_in_place$LT$void..Void$GT$::h4b7b505af4926185
42000a66      a66        0     1                 
42000a68      a68        0     1                 
42000a6c      a6c        0     1                 
42000a6c      a6c        0     1                 
42000a6c      a6c        0     1                 
42000a6c      a6c        8     2         /Users/mabez/Development/rust/embedded/experiments/esp32c3-experiments/target/riscv32imac-unknown-none-elf/debug/deps/esp32c3-5c92695bd7d79a0b.1iu2tfaecczf5k50.rcgu.o:(.text._ZN4core3ptr37drop_in_place$LT$core..fmt..Error$GT$17h6a5ed378f1d0b83bE)
42000a6c      a6c        0     1                 
42000a6c      a6c        0     1                 
42000a6c      a6c        0     1                 
42000a6c      a6c        8     1                 core::ptr::drop_in_place$LT$core..fmt..Error$GT$::h6a5ed378f1d0b83b
42000a6e      a6e        0     1                 
42000a70      a70        0     1                 
42000a74      a74        0     1                 
42000a74      a74        0     1                 
42000a74      a74        0     1                 
42000a74      a74        8     2         /Users/mabez/Development/rust/embedded/experiments/esp32c3-experiments/target/riscv32imac-unknown-none-elf/debug/deps/esp32c3-5c92695bd7d79a0b.1iu2tfaecczf5k50.rcgu.o:(.text._ZN4core3ptr50drop_in_place$LT$$RF$mut$u20$esp32c3_lib..Uart$GT$17h602744736e9b1d18E)
42000a74      a74        0     1                 
42000a74      a74        0     1                 
42000a74      a74        0     1                 
42000a74      a74        8     1                 core::ptr::drop_in_place$LT$$RF$mut$u20$esp32c3_lib..Uart$GT$::h602744736e9b1d18
42000a76      a76        0     1                 
42000a78      a78        0     1                 
42000a7c      a7c        0     1                 
42000a7c      a7c        0     1                 
42000a7c      a7c        0     1                 
42000a7c      a7c       1e     2         /Users/mabez/Development/rust/embedded/experiments/esp32c3-experiments/target/riscv32imac-unknown-none-elf/debug/deps/esp32c3-5c92695bd7d79a0b.2146etiuaoyugpgb.rcgu.o:(.text._ZN42_$LT$$RF$T$u20$as$u20$core..fmt..Debug$GT$3fmt17ha4857ba1750e555cE)
42000a7c      a7c        0     1                 
42000a7c      a7c        0     1                 
42000a7c      a7c        0     1                 
42000a7c      a7c       1e     1                 _$LT$$RF$T$u20$as$u20$core..fmt..Debug$GT$::fmt::ha4857ba1750e555c
42000a7e      a7e        0     1                 
42000a80      a80        0     1                 
42000a84      a84        0     1                 
42000a86      a86        0     1                 
42000a92      a92        0     1                 
42000a9a      a9a        0     1                 
42000a9a      a9a        0     1                 
42000a9a      a9a        0     1                 
42000a9a      a9a       2c     2         /Users/mabez/Development/rust/embedded/experiments/esp32c3-experiments/target/riscv32imac-unknown-none-elf/debug/deps/esp32c3-5c92695bd7d79a0b.2bt420y5da8z26cy.rcgu.o:(.text._ZN45_$LT$$LP$$RP$$u20$as$u20$core..fmt..Debug$GT$3fmt17h90ad71d777e2ba07E)
42000a9a      a9a        0     1                 
42000a9a      a9a        0     1                 
42000a9a      a9a        0     1                 
42000a9a      a9a       2c     1                 _$LT$$LP$$RP$$u20$as$u20$core..fmt..Debug$GT$::fmt::h90ad71d777e2ba07
42000a9c      a9c        0     1                 
42000a9e      a9e        0     1                 
42000aa8      aa8        0     1                 
42000abe      abe        0     1                 
42000ac6      ac6        0     1                 
42000ac6      ac6        0     1                 
42000ac6      ac6        0     1                 
42000ac6      ac6       26     2         /Users/mabez/Development/rust/embedded/experiments/esp32c3-experiments/target/riscv32imac-unknown-none-elf/debug/deps/esp32c3-5c92695bd7d79a0b.2bt420y5da8z26cy.rcgu.o:(.text._ZN4core3fmt9Arguments16new_v1_formatted17h0f91a10cbdd1a031E)
42000ac6      ac6        0     1                 
42000ac6      ac6        0     1                 
42000ac6      ac6        0     1                 
42000ac6      ac6       26     1                 core::fmt::Arguments::new_v1_formatted::h0f91a10cbdd1a031
42000ac8      ac8        0     1                 
42000ad4      ad4        0     1                 
42000ad8      ad8        0     1                 
42000ae8      ae8        0     1                 
42000aec      aec        0     1                 
42000aec      aec        0     1                 
42000aec      aec        0     1                 
42000aec      aec       7e     2         /Users/mabez/Development/rust/embedded/experiments/esp32c3-experiments/target/riscv32imac-unknown-none-elf/debug/deps/esp32c3-5c92695bd7d79a0b.2bt420y5da8z26cy.rcgu.o:(.text._ZN4core3fmt9Arguments6new_v117h6c53079f3591d921E)
42000aec      aec        0     1                 
42000aec      aec        0     1                 
42000aec      aec        0     1                 
42000aec      aec       7e     1                 core::fmt::Arguments::new_v1::h6c53079f3591d921
42000aee      aee        0     1                 
42000b00      b00        0     1                 
42000b06      b06        0     1                 
42000b0c      b0c        0     1                 
42000b10      b10        0     1                 
42000b16      b16        0     1                 
42000b18      b18        0     1                 
42000b2c      b2c        0     1                 
42000b38      b38        0     1                 
42000b3a      b3a        0     1                 
42000b4a      b4a        0     1                 
42000b4e      b4e        0     1                 
42000b6a      b6a        0     1                 
42000b6a      b6a        0     1                 
42000b6a      b6a        0     1                 
42000b6a      b6a       86     2         /Users/mabez/Development/rust/embedded/experiments/esp32c3-experiments/target/riscv32imac-unknown-none-elf/debug/deps/esp32c3-5c92695bd7d79a0b.2y0w5m30si0qvc1i.rcgu.o:(.text._ZN4core3fmt3num52_$LT$impl$u20$core..fmt..Debug$u20$for$u20$usize$GT$3fmt17hcae7ab75327104c5E)
42000b6a      b6a        0     1                 
42000b6a      b6a        0     1                 
42000b6a      b6a        0     1                 
42000b6a      b6a       86     1                 core::fmt::num::_$LT$impl$u20$core..fmt..Debug$u20$for$u20$usize$GT$::fmt::hcae7ab75327104c5
42000b6c      b6c        0     1                 
42000b6e      b6e        0     1                 
42000b7a      b7a        0     1                 
42000b86      b86        0     1                 
42000b8a      b8a        0     1                 
42000b90      b90        0     1                 
42000b9e      b9e        0     1                 
42000bb0      bb0        0     1                 
42000bb2      bb2        0     1                 
42000bbc      bbc        0     1                 
42000bc0      bc0        0     1                 
42000bc6      bc6        0     1                 
42000bd8      bd8        0     1                 
42000bea      bea        0     1                 
42000bec      bec        0     1                 
42000bee      bee        0     1                 
42000bf0      bf0        0     1                 
42000bf0      bf0        0     1                 
42000bf0      bf0        0     1                 
42000bf0      bf0       48     2         /Users/mabez/Development/rust/embedded/experiments/esp32c3-experiments/target/riscv32imac-unknown-none-elf/debug/deps/esp32c3-5c92695bd7d79a0b.36jwgnll5937lngu.rcgu.o:(.text._ZN4core4sync6atomic11AtomicUsize16compare_exchange17h08f39186a3afce95E)
42000bf0      bf0        0     1                 
42000bf0      bf0        0     1                 
42000bf0      bf0        0     1                 
42000bf0      bf0       48     1                 core::sync::atomic::AtomicUsize::compare_exchange::h08f39186a3afce95
42000bf2      bf2        0     1                 
42000bf4      bf4        0     1                 
42000c0e      c0e        0     1                 
42000c16      c16        0     1                 
42000c2e      c2e        0     1                 
42000c38      c38        0     1                 
42000c38      c38        0     1                 
42000c38      c38        0     1                 
42000c38      c38       14     2         /Users/mabez/Development/rust/embedded/experiments/esp32c3-experiments/target/riscv32imac-unknown-none-elf/debug/deps/esp32c3-5c92695bd7d79a0b.36jwgnll5937lngu.rcgu.o:(.text._ZN4core4sync6atomic11AtomicUsize3new17hb8765e2de2da80f0E)
42000c38      c38        0     1                 
42000c38      c38        0     1                 
42000c38      c38        0     1                 
42000c38      c38       14     1                 core::sync::atomic::AtomicUsize::new::hb8765e2de2da80f0
42000c3a      c3a        0     1                 
42000c3e      c3e        0     1                 
42000c3e      c3e        0     1                 
42000c40      c40        0     1                 
42000c40      c40        0     1                 
42000c44      c44        0     1                 
42000c48      c48        0     1                 
42000c4c      c4c        0     1                 
42000c4c      c4c        0     1                 
42000c4c      c4c        0     1                 
42000c4c      c4c        a     2         /Users/mabez/Development/rust/embedded/experiments/esp32c3-experiments/target/riscv32imac-unknown-none-elf/debug/deps/esp32c3-5c92695bd7d79a0b.46tzsed5680ekwya.rcgu.o:(.text._ZN4core3str8converts23from_utf8_unchecked_mut17h69e23b094c70c776E)
42000c4c      c4c        0     1                 
42000c4c      c4c        0     1                 
42000c4c      c4c        0     1                 
42000c4c      c4c        a     1                 core::str::converts::from_utf8_unchecked_mut::h69e23b094c70c776
42000c4e      c4e        0     1                 
42000c52      c52        0     1                 
42000c56      c56        0     1                 
42000c56      c56        0     1                 
42000c56      c56        0     1                 
42000c56      c56       40     2         /Users/mabez/Development/rust/embedded/experiments/esp32c3-experiments/target/riscv32imac-unknown-none-elf/debug/deps/esp32c3-5c92695bd7d79a0b.4d3o56o4s3rmpew1.rcgu.o:(.text._ZN4core3fmt5Write10write_char17hdb7984a69edcaf7aE)
42000c56      c56       40     1                 core::fmt::Write::write_char::hdb7984a69edcaf7a
42000c56      c56        0     1                 
42000c56      c56        0     1                 
42000c56      c56        0     1                 
42000c58      c58        0     1                 
42000c5a      c5a        0     1                 
42000c68      c68        0     1                 
42000c6e      c6e        0     1                 
42000c7c      c7c        0     1                 
42000c8e      c8e        0     1                 
42000c96      c96        0     1                 
42000c96      c96        0     1                 
42000c96      c96        0     1                 
42000c96      c96       3e     2         /Users/mabez/Development/rust/embedded/experiments/esp32c3-experiments/target/riscv32imac-unknown-none-elf/debug/deps/esp32c3-5c92695bd7d79a0b.4d3o56o4s3rmpew1.rcgu.o:(.text._ZN4core3fmt5Write9write_fmt17h905b0623b8ca4fbdE)
42000c96      c96        0     1                 
42000c96      c96        0     1                 
42000c96      c96        0     1                 
42000c96      c96       3e     1                 core::fmt::Write::write_fmt::h905b0623b8ca4fbd
42000c98      c98        0     1                 
42000c9a      c9a        0     1                 
42000c9c      c9c        0     1                 
42000cb4      cb4        0     1                 
42000cbc      cbc        0     1                 
42000cbc      cbc        0     1                 
42000cc0      cc0        0     1                 
42000ccc      ccc        0     1                 
42000cd4      cd4        0     1                 
42000cd4      cd4        0     1                 
42000cd4      cd4        0     1                 
42000cd4      cd4       1e     2         /Users/mabez/Development/rust/embedded/experiments/esp32c3-experiments/target/riscv32imac-unknown-none-elf/debug/deps/esp32c3-5c92695bd7d79a0b.4d3o56o4s3rmpew1.rcgu.o:(.text._ZN50_$LT$$RF$mut$u20$W$u20$as$u20$core..fmt..Write$GT$10write_char17hd0a9fa21e5ee12d5E)
42000cd4      cd4       1e     1                 _$LT$$RF$mut$u20$W$u20$as$u20$core..fmt..Write$GT$::write_char::hd0a9fa21e5ee12d5
42000cd4      cd4        0     1                 
42000cd4      cd4        0     1                 
42000cd4      cd4        0     1                 
42000cd6      cd6        0     1                 
42000cd8      cd8        0     1                 
42000cdc      cdc        0     1                 
42000cea      cea        0     1                 
42000cf2      cf2        0     1                 
42000cf2      cf2        0     1                 
42000cf2      cf2        0     1                 
42000cf2      cf2       36     2         /Users/mabez/Development/rust/embedded/experiments/esp32c3-experiments/target/riscv32imac-unknown-none-elf/debug/deps/esp32c3-5c92695bd7d79a0b.4d3o56o4s3rmpew1.rcgu.o:(.text._ZN50_$LT$$RF$mut$u20$W$u20$as$u20$core..fmt..Write$GT$9write_fmt17hc591f6cfc45b8976E)
42000cf2      cf2       36     1                 _$LT$$RF$mut$u20$W$u20$as$u20$core..fmt..Write$GT$::write_fmt::hc591f6cfc45b8976
42000cf2      cf2        0     1                 
42000cf2      cf2        0     1                 
42000cf2      cf2        0     1                 
42000cf4      cf4        0     1                 
42000cf6      cf6        0     1                 
42000cf8      cf8        0     1                 
42000cfa      cfa        0     1                 
42000d10      d10        0     1                 
42000d14      d14        0     1                 
42000d20      d20        0     1                 
42000d28      d28        0     1                 
42000d28      d28        0     1                 
42000d28      d28        0     1                 
42000d28      d28       20     2         /Users/mabez/Development/rust/embedded/experiments/esp32c3-experiments/target/riscv32imac-unknown-none-elf/debug/deps/esp32c3-5c92695bd7d79a0b.4d3o56o4s3rmpew1.rcgu.o:(.text._ZN50_$LT$$RF$mut$u20$W$u20$as$u20$core..fmt..Write$GT$9write_str17h6d97216e37ad7438E)
42000d28      d28       20     1                 _$LT$$RF$mut$u20$W$u20$as$u20$core..fmt..Write$GT$::write_str::h6d97216e37ad7438
42000d28      d28        0     1                 
42000d28      d28        0     1                 
42000d28      d28        0     1                 
42000d2a      d2a        0     1                 
42000d2c      d2c        0     1                 
42000d32      d32        0     1                 
42000d40      d40        0     1                 
42000d48      d48        0     1                 
42000d48      d48        0     1                 
42000d48      d48        0     1                 
42000d48      d48       1e     2         /Users/mabez/Development/rust/embedded/experiments/esp32c3-experiments/target/riscv32imac-unknown-none-elf/debug/deps/esp32c3-5c92695bd7d79a0b.4sieayjll78w32te.rcgu.o:(.text._ZN50_$LT$$RF$mut$u20$T$u20$as$u20$core..fmt..Debug$GT$3fmt17h8efddae1cbe719c6E)
42000d48      d48        0     1                 
42000d48      d48        0     1                 
42000d48      d48        0     1                 
42000d48      d48       1e     1                 _$LT$$RF$mut$u20$T$u20$as$u20$core..fmt..Debug$GT$::fmt::h8efddae1cbe719c6
42000d4a      d4a        0     1                 
42000d4c      d4c        0     1                 
42000d50      d50        0     1                 
42000d52      d52        0     1                 
42000d5e      d5e        0     1                 
42000d66      d66        0     1                 
42000d66      d66        0     1                 
42000d66      d66        0     1                 
42000d66      d66       3a     2         /Users/mabez/Development/rust/embedded/experiments/esp32c3-experiments/target/riscv32imac-unknown-none-elf/debug/deps/esp32c3-5c92695bd7d79a0b.57j3pmw6ctaj3l7m.rcgu.o:(.text._ZN4core6result19Result$LT$T$C$E$GT$6unwrap17h663fbc81b86a801aE)
42000d66      d66        0     1                 
42000d66      d66        0     1                 
42000d66      d66        0     1                 
42000d66      d66       3a     1                 core::result::Result$LT$T$C$E$GT$::unwrap::h663fbc81b86a801a
42000d68      d68        0     1                 
42000d70      d70        0     1                 
42000d78      d78        0     1                 
42000d7a      d7a        0     1                 
42000d7e      d7e        0     1                 
42000d7e      d7e        0     1                 
42000da0      da0        0     1                 
42000da0      da0        0     1                 
42000da0      da0        0     1                 
42000da0      da0        0     1                 
42000da0      da0       38     2         /Users/mabez/Development/rust/embedded/experiments/esp32c3-experiments/target/riscv32imac-unknown-none-elf/debug/deps/esp32c3-5c92695bd7d79a0b.57j3pmw6ctaj3l7m.rcgu.o:(.text._ZN4core6result19Result$LT$T$C$E$GT$6unwrap17hc213b6c646b44d45E)
42000da0      da0        0     1                 
42000da0      da0        0     1                 
42000da0      da0        0     1                 
42000da0      da0       38     1                 core::result::Result$LT$T$C$E$GT$::unwrap::hc213b6c646b44d45
42000da2      da2        0     1                 
42000da8      da8        0     1                 
42000db0      db0        0     1                 
42000db2      db2        0     1                 
42000db6      db6        0     1                 
42000db6      db6        0     1                 
42000dd8      dd8        0     1                 
42000dd8      dd8        0     1                 
42000dd8      dd8        0     1                 
42000dd8      dd8        0     1                 
42000dd8      dd8       3a     2         /Users/mabez/Development/rust/embedded/experiments/esp32c3-experiments/target/riscv32imac-unknown-none-elf/debug/deps/esp32c3-5c92695bd7d79a0b.57j3pmw6ctaj3l7m.rcgu.o:(.text._ZN4core6result19Result$LT$T$C$E$GT$6unwrap17hd3996ff543ae5edeE)
42000dd8      dd8        0     1                 
42000dd8      dd8        0     1                 
42000dd8      dd8        0     1                 
42000dd8      dd8       3a     1                 core::result::Result$LT$T$C$E$GT$::unwrap::hd3996ff543ae5ede
42000dda      dda        0     1                 
42000de2      de2        0     1                 
42000dea      dea        0     1                 
42000dec      dec        0     1                 
42000df0      df0        0     1                 
42000df0      df0        0     1                 
42000e12      e12        0     1                 
42000e12      e12        0     1                 
42000e12      e12        0     1                 
42000e12      e12        0     1                 
42000e12      e12       42     2         /Users/mabez/Development/rust/embedded/experiments/esp32c3-experiments/target/riscv32imac-unknown-none-elf/debug/deps/esp32c3-5c92695bd7d79a0b.57j3pmw6ctaj3l7m.rcgu.o:(.text._ZN4core6result19Result$LT$T$C$E$GT$6unwrap17hf20148b867a925cfE)
42000e12      e12        0     1                 
42000e12      e12        0     1                 
42000e12      e12        0     1                 
42000e12      e12       42     1                 core::result::Result$LT$T$C$E$GT$::unwrap::hf20148b867a925cf
42000e14      e14        0     1                 
42000e1c      e1c        0     1                 
42000e24      e24        0     1                 
42000e26      e26        0     1                 
42000e2a      e2a        0     1                 
42000e2e      e2e        0     1                 
42000e34      e34        0     1                 
42000e34      e34        0     1                 
42000e54      e54        0     1                 
42000e54      e54        0     1                 
42000e54      e54        0     1                 
42000e54      e54        0     1                 
42000e54      e54      292     2         /Users/mabez/Development/rust/embedded/experiments/esp32c3-experiments/target/riscv32imac-unknown-none-elf/debug/deps/esp32c3-5c92695bd7d79a0b.57vaia0p0nh7h46b.rcgu.o:(.text._ZN4core4sync6atomic23atomic_compare_exchange17h3bace4b6d5f0a5bcE)
42000e54      e54        0     1                 
42000e54      e54        0     1                 
42000e54      e54        0     1                 
42000e54      e54      292     1                 core::sync::atomic::atomic_compare_exchange::h3bace4b6d5f0a5bc
42000e56      e56        0     1                 
42000e6a      e6a        0     1                 
42000e7a      e7a        0     1                 
42000e7e      e7e        0     1                 
42000e90      e90        0     1                 
42000e98      e98        0     1                 
42000e9e      e9e        0     1                 
42000ea2      ea2        0     1                 
42000ea8      ea8        0     1                 .LBB0_4
42000ea8      ea8        0     1                 
42000eae      eae        0     1                 
42000eb4      eb4        0     1                 .LBB0_5
42000eb4      eb4        0     1                 
42000eba      eba        0     1                 
42000ec0      ec0        0     1                 .LBB0_6
42000ec0      ec0        0     1                 
42000ec8      ec8        0     1                 
42000ece      ece        0     1                 
42000ed2      ed2        0     1                 
42000ed8      ed8        0     1                 .LBB0_8
42000ed8      ed8        0     1                 
42000ee0      ee0        0     1                 
42000ee6      ee6        0     1                 
42000eea      eea        0     1                 
42000ef0      ef0        0     1                 .LBB0_10
42000ef0      ef0        0     1                 
42000ef8      ef8        0     1                 
42000efe      efe        0     1                 
42000f02      f02        0     1                 
42000f08      f08        0     1                 
42000f0c      f0c        0     1                 
42000f12      f12        0     1                 
42000f34      f34        0     1                 
42000f56      f56        0     1                 
42000f78      f78        0     1                 
42000f7a      f7a        0     1                 
42000f80      f80        0     1                 
42000f8e      f8e        0     1                 
42000f8e      f8e        0     1                 
42000f94      f94        0     1                 
42000f94      f94        0     1                 
42000f96      f96        0     1                 
42000f98      f98        0     1                 
42000fba      fba        0     1                 
42000fdc      fdc        0     1                 
42000fde      fde        0     1                 
42000fe0      fe0        0     1                 
42001002     1002        0     1                 
42001024     1024        0     1                 
42001026     1026        0     1                 
42001028     1028        0     1                 
4200104a     104a        0     1                 
4200104c     104c        0     1                 
4200106e     106e        0     1                 
4200108c     108c        0     1                 
420010aa     10aa        0     1                 
420010c8     10c8        0     1                 
420010ca     10ca        0     1                 
420010ca     10ca        0     1                 
420010d2     10d2        0     1                 
420010d4     10d4        0     1                 
420010dc     10dc        0     1                 
420010de     10de        0     1                 
420010de     10de        0     1                 
420010e6     10e6        0     1                 
420010e6     10e6        0     1                 
420010e6     10e6        0     1                 
420010e6     10e6       18     2         /Users/mabez/Development/rust/embedded/experiments/esp32c3-experiments/target/riscv32imac-unknown-none-elf/debug/deps/esp32c3-5c92695bd7d79a0b.vifbgxjspdn3ixi.rcgu.o:(.text._ZN5riscv8register4mepc4read17h4fbe3055e5ac21f3E)
420010e6     10e6        0     1                 
420010e6     10e6        0     1                 
420010e6     10e6        0     1                 
420010e6     10e6       18     1                 riscv::register::mepc::read::h4fbe3055e5ac21f3
420010e8     10e8        0     1                 
420010e8     10e8        0     1                 
420010ea     10ea        0     1                 
420010f6     10f6        0     1                 
420010fe     10fe        0     1                 
420010fe     10fe        0     1                 
420010fe     10fe        0     1                 
420010fe     10fe       18     2         /Users/mabez/Development/rust/embedded/experiments/esp32c3-experiments/target/riscv32imac-unknown-none-elf/debug/deps/esp32c3-5c92695bd7d79a0b.vifbgxjspdn3ixi.rcgu.o:(.text._ZN5riscv8register4mepc5_read17h9b11a9e143a6218aE)
420010fe     10fe       18     1                 riscv::register::mepc::_read::h9b11a9e143a6218a
420010fe     10fe        0     1                 
420010fe     10fe        0     1                 
420010fe     10fe        0     1                 
42001100     1100        0     1                 
42001100     1100        0     1                 
42001102     1102        0     1                 
4200110e     110e        0     1                 
42001116     1116        0     1                 
42001116     1116        0     1                 
42001116     1116        0     1                 
42001116     1116       16     2         /Users/mabez/Development/rust/embedded/experiments/esp32c3-experiments/target/riscv32imac-unknown-none-elf/debug/deps/esp32c3-5c92695bd7d79a0b.vifbgxjspdn3ixi.rcgu.o:(.text._ZN5riscv8register4mepc5write17hdf62b2c347232575E)
42001116     1116        0     1                 
42001116     1116        0     1                 
42001116     1116        0     1                 
42001116     1116       16     1                 riscv::register::mepc::write::hdf62b2c347232575
42001118     1118        0     1                 
4200111a     111a        0     1                 
4200111c     111c        0     1                 
42001126     1126        0     1                 
4200112c     112c        0     1                 
4200112c     112c        0     1                 
4200112c     112c        0     1                 
4200112c     112c       16     2         /Users/mabez/Development/rust/embedded/experiments/esp32c3-experiments/target/riscv32imac-unknown-none-elf/debug/deps/esp32c3-5c92695bd7d79a0b.vifbgxjspdn3ixi.rcgu.o:(.text._ZN5riscv8register4mepc6_write17h13517213e5a2df6bE)
4200112c     112c       16     1                 riscv::register::mepc::_write::h13517213e5a2df6b
4200112c     112c        0     1                 
4200112c     112c        0     1                 
4200112c     112c        0     1                 
4200112e     112e        0     1                 
42001130     1130        0     1                 
42001132     1132        0     1                 
4200113c     113c        0     1                 
42001142     1142        0     1                 
42001142     1142        0     1                 
42001142     1142        0     1                 
42001142     1142       24     2         /Users/mabez/Development/rust/embedded/experiments/esp32c3-experiments/target/riscv32imac-unknown-none-elf/debug/deps/esp32c3-5c92695bd7d79a0b.w0jfp97vxp3n0e0.rcgu.o:(.text._ZN44_$LT$$RF$T$u20$as$u20$core..fmt..Display$GT$3fmt17h1e4c6995fb2ec565E)
42001142     1142        0     1                 
42001142     1142        0     1                 
42001142     1142        0     1                 
42001142     1142       24     1                 _$LT$$RF$T$u20$as$u20$core..fmt..Display$GT$::fmt::h1e4c6995fb2ec565
42001144     1144        0     1                 
42001146     1146        0     1                 
4200114e     114e        0     1                 
42001152     1152        0     1                 
4200115e     115e        0     1                 
42001166     1166        0     1                 
42001166     1166        0     1                 
42001166     1166        0     1                 
42001166     1166       22     2         /Users/mabez/Development/rust/embedded/experiments/esp32c3-experiments/target/riscv32imac-unknown-none-elf/debug/deps/esp32c3-5c92695bd7d79a0b.w0jfp97vxp3n0e0.rcgu.o:(.text._ZN4core3fmt10ArgumentV13new17h22684b01de96130dE)
42001166     1166        0     1                 
42001166     1166        0     1                 
42001166     1166        0     1                 
42001166     1166       22     1                 core::fmt::ArgumentV1::new::h22684b01de96130d
42001168     1168        0     1                 
4200116e     116e        0     1                 
42001174     1174        0     1                 
4200117c     117c        0     1                 
42001184     1184        0     1                 
42001188     1188        0     1                 
42001188     1188        0     1                 
42001188     1188        0     1                 
42001188     1188       22     2         /Users/mabez/Development/rust/embedded/experiments/esp32c3-experiments/target/riscv32imac-unknown-none-elf/debug/deps/esp32c3-5c92695bd7d79a0b.w0jfp97vxp3n0e0.rcgu.o:(.text._ZN4core3fmt10ArgumentV13new17h81c5d7e1dcb90deaE)
42001188     1188        0     1                 
42001188     1188        0     1                 
42001188     1188        0     1                 
42001188     1188       22     1                 core::fmt::ArgumentV1::new::h81c5d7e1dcb90dea
4200118a     118a        0     1                 
42001190     1190        0     1                 
42001196     1196        0     1                 
4200119e     119e        0     1                 
420011a6     11a6        0     1                 
420011aa     11aa        0     1                 
420011aa     11aa        0     1                 
420011aa     11aa        0     1                 
420011aa     11aa       22     2         /Users/mabez/Development/rust/embedded/experiments/esp32c3-experiments/target/riscv32imac-unknown-none-elf/debug/deps/esp32c3-5c92695bd7d79a0b.w0jfp97vxp3n0e0.rcgu.o:(.text._ZN4core3fmt10ArgumentV13new17hdcaa083241cab329E)
420011aa     11aa        0     1                 
420011aa     11aa        0     1                 
420011aa     11aa        0     1                 
420011aa     11aa       22     1                 core::fmt::ArgumentV1::new::hdcaa083241cab329
420011ac     11ac        0     1                 
420011b2     11b2        0     1                 
420011b8     11b8        0     1                 
420011c0     11c0        0     1                 
420011c8     11c8        0     1                 
420011cc     11cc        0     1                 
420011cc     11cc        0     1                 
420011cc     11cc        0     1                 
420011cc     11cc       d2     2         /Users/mabez/Development/rust/embedded/experiments/esp32c3-experiments/target/riscv32imac-unknown-none-elf/debug/deps/libesp32c3_lib-435c508db645f62b.rlib(esp32c3_lib-435c508db645f62b.enpltv37r0tja3s.rcgu.o):(.text._ZN11esp32c3_lib10GpioOutput3new17h5f7ff5722c3f6ff0E)
420011cc     11cc        0     1                 
420011cc     11cc        0     1                 
420011cc     11cc        0     1                 
420011cc     11cc       d2     1                 esp32c3_lib::GpioOutput::new::h5f7ff5722c3f6ff0
420011ce     11ce        0     1                 
420011d0     11d0        0     1                 
420011dc     11dc        0     1                 
420011ea     11ea        0     1                 
420011f4     11f4        0     1                 
420011fe     11fe        0     1                 
4200121c     121c        0     1                 
42001222     1222        0     1                 
42001222     1222        0     1                 
42001236     1236        0     1                 
42001236     1236        0     1                 
42001252     1252        0     1                 
42001252     1252        0     1                 
42001266     1266        0     1                 
42001284     1284        0     1                 
42001294     1294        0     1                 
42001298     1298        0     1                 
42001298     1298        0     1                 
4200129e     129e        0     1                 
4200129e     129e        0     1                 
4200129e     129e        0     1                 
4200129e     129e       58     2         /Users/mabez/Development/rust/embedded/experiments/esp32c3-experiments/target/riscv32imac-unknown-none-elf/debug/deps/libesp32c3_lib-435c508db645f62b.rlib(esp32c3_lib-435c508db645f62b.enpltv37r0tja3s.rcgu.o):(.text._ZN80_$LT$esp32c3_lib..GpioOutput$u20$as$u20$embedded_hal..digital..v2..OutputPin$GT$7set_low17h8c27730017346dd1E)
4200129e     129e        0     1                 
4200129e     129e        0     1                 
4200129e     129e        0     1                 
4200129e     129e       58     1                 _$LT$esp32c3_lib..GpioOutput$u20$as$u20$embedded_hal..digital..v2..OutputPin$GT$::set_low::h8c27730017346dd1
420012a0     12a0        0     1                 
420012a2     12a2        0     1                 
420012a4     12a4        0     1                 
420012a6     12a6        0     1                 
420012ba     12ba        0     1                 
420012cc     12cc        0     1                 
420012ea     12ea        0     1                 
420012ec     12ec        0     1                 
420012f0     12f0        0     1                 
420012f6     12f6        0     1                 
420012f6     12f6        0     1                 
420012f6     12f6        0     1                 
420012f6     12f6       58     2         /Users/mabez/Development/rust/embedded/experiments/esp32c3-experiments/target/riscv32imac-unknown-none-elf/debug/deps/libesp32c3_lib-435c508db645f62b.rlib(esp32c3_lib-435c508db645f62b.enpltv37r0tja3s.rcgu.o):(.text._ZN80_$LT$esp32c3_lib..GpioOutput$u20$as$u20$embedded_hal..digital..v2..OutputPin$GT$8set_high17hbfb327d1f4f2fff4E)
420012f6     12f6        0     1                 
420012f6     12f6        0     1                 
420012f6     12f6        0     1                 
420012f6     12f6       58     1                 _$LT$esp32c3_lib..GpioOutput$u20$as$u20$embedded_hal..digital..v2..OutputPin$GT$::set_high::hbfb327d1f4f2fff4
420012f8     12f8        0     1                 
420012fa     12fa        0     1                 
420012fc     12fc        0     1                 
420012fe     12fe        0     1                 
42001312     1312        0     1                 
42001324     1324        0     1                 
42001342     1342        0     1                 
42001344     1344        0     1                 
42001348     1348        0     1                 
4200134e     134e        0     1                 
4200134e     134e        0     1                 
4200134e     134e        0     1                 
4200134e     134e        a     2         /Users/mabez/Development/rust/embedded/experiments/esp32c3-experiments/target/riscv32imac-unknown-none-elf/debug/deps/libesp32c3_lib-435c508db645f62b.rlib(esp32c3_lib-435c508db645f62b.enpltv37r0tja3s.rcgu.o):(.text._ZN11esp32c3_lib8EtsTimer3new17hc640a8fb602febecE)
4200134e     134e        0     1                 
4200134e     134e        0     1                 
4200134e     134e        0     1                 
4200134e     134e        a     1                 esp32c3_lib::EtsTimer::new::hc640a8fb602febec
42001350     1350        0     1                 
42001352     1352        0     1                 
42001354     1354        0     1                 
42001358     1358        0     1                 
42001358     1358        0     1                 
42001358     1358        0     1                 
42001358     1358       1e     2         /Users/mabez/Development/rust/embedded/experiments/esp32c3-experiments/target/riscv32imac-unknown-none-elf/debug/deps/libesp32c3_lib-435c508db645f62b.rlib(esp32c3_lib-435c508db645f62b.enpltv37r0tja3s.rcgu.o):(.text._ZN72_$LT$esp32c3_lib..EtsTimer$u20$as$u20$embedded_hal..timer..CountDown$GT$4wait17ha521a1314993359dE)
42001358     1358        0     1                 
42001358     1358        0     1                 
42001358     1358        0     1                 
42001358     1358       1e     1                 _$LT$esp32c3_lib..EtsTimer$u20$as$u20$embedded_hal..timer..CountDown$GT$::wait::ha521a1314993359d
4200135a     135a        0     1                 
4200135c     135c        0     1                 
4200135e     135e        0     1                 
42001360     1360        0     1                 
4200136a     136a        0     1                 
4200136c     136c        0     1                 
42001370     1370        0     1                 
42001376     1376        0     1                 
42001376     1376        0     1                 
42001376     1376        0     1                 
42001376     1376       78     2         /Users/mabez/Development/rust/embedded/experiments/esp32c3-experiments/target/riscv32imac-unknown-none-elf/debug/deps/libesp32c3_lib-435c508db645f62b.rlib(esp32c3_lib-435c508db645f62b.enpltv37r0tja3s.rcgu.o):(.text._ZN54_$LT$esp32c3_lib..Uart$u20$as$u20$core..fmt..Write$GT$9write_str17hb17642a612c5bedbE)
42001376     1376        0     1                 
42001376     1376        0     1                 
42001376     1376        0     1                 
42001376     1376       78     1                 _$LT$esp32c3_lib..Uart$u20$as$u20$core..fmt..Write$GT$::write_str::hb17642a612c5bedb
42001378     1378        0     1                 
4200137a     137a        0     1                 
42001384     1384        0     1                 
42001384     1384        0     1                 
42001388     1388        0     1                 
42001388     1388        0     1                 
420013a8     13a8        0     1                 
420013a8     13a8        0     1                 
420013aa     13aa        0     1                 
420013ac     13ac        0     1                 
420013ac     13ac        0     1                 
420013ca     13ca        0     1                 
420013ca     13ca        0     1                 
420013cc     13cc        0     1                 
420013d0     13d0        0     1                 
420013d6     13d6        0     1                 
420013d6     13d6        0     1                 
420013da     13da        0     1                 
420013da     13da        0     1                 
420013dc     13dc        0     1                 
420013dc     13dc        0     1                 
420013e4     13e4        0     1                 
420013e4     13e4        0     1                 
420013ee     13ee        0     1                 
420013ee     13ee        0     1                 
420013ee     13ee        0     1                 
420013ee     13ee        0     1                 
420013ee     13ee      12c     2         /Users/mabez/Development/rust/embedded/experiments/esp32c3-experiments/target/riscv32imac-unknown-none-elf/debug/deps/libesp32c3_lib-435c508db645f62b.rlib(esp32c3_lib-435c508db645f62b.enpltv37r0tja3s.rcgu.o):(.text._ZN11esp32c3_lib12disable_wdts17h9310eb03c6470276E)
420013ee     13ee        0     1                 
420013ee     13ee        0     1                 
420013ee     13ee        0     1                 
420013ee     13ee      12c     1                 esp32c3_lib::disable_wdts::h9310eb03c6470276
420013f0     13f0        0     1                 
420013f2     13f2        0     1                 
42001402     1402        0     1                 
4200140c     140c        0     1                 
42001414     1414        0     1                 
42001420     1420        0     1                 
42001426     1426        0     1                 
42001430     1430        0     1                 
4200143a     143a        0     1                 
42001444     1444        0     1                 
4200144e     144e        0     1                 
4200145e     145e        0     1                 
42001468     1468        0     1                 
42001472     1472        0     1                 
4200147c     147c        0     1                 
42001486     1486        0     1                 
42001490     1490        0     1                 
420014a0     14a0        0     1                 
420014aa     14aa        0     1                 
420014b4     14b4        0     1                 
420014be     14be        0     1                 
420014c8     14c8        0     1                 
420014d2     14d2        0     1                 
420014e2     14e2        0     1                 
420014ec     14ec        0     1                 
420014f6     14f6        0     1                 
42001500     1500        0     1                 
4200150a     150a        0     1                 
42001514     1514        0     1                 
4200151a     151a        0     1                 
4200151a     151a        0     1                 
4200151a     151a        0     1                 
4200151a     151a       12     2         /Users/mabez/Development/rust/embedded/experiments/esp32c3-experiments/target/riscv32imac-unknown-none-elf/debug/deps/libesp32c3_lib-435c508db645f62b.rlib(esp32c3_lib-435c508db645f62b.4qunmpv8rlyr20lx.rcgu.o):(.text._ZN4core3ptr13read_volatile17he76b86a5674f72f5E)
4200151a     151a        0     1                 
4200151a     151a        0     1                 
4200151a     151a        0     1                 
4200151a     151a       12     1                 core::ptr::read_volatile::he76b86a5674f72f5
4200151c     151c        0     1                 
4200151e     151e        0     1                 
42001526     1526        0     1                 
4200152c     152c        0     1                 
4200152c     152c        0     1                 
4200152c     152c        0     1                 
4200152c     152c        e     2         /Users/mabez/Development/rust/embedded/experiments/esp32c3-experiments/target/riscv32imac-unknown-none-elf/debug/deps/libesp32c3_lib-435c508db645f62b.rlib(esp32c3_lib-435c508db645f62b.4qunmpv8rlyr20lx.rcgu.o):(.text._ZN4core3ptr14write_volatile17h6c931aa47b145a31E)
4200152c     152c        0     1                 
4200152c     152c        0     1                 
4200152c     152c        0     1                 
4200152c     152c        e     1                 core::ptr::write_volatile::h6c931aa47b145a31
4200152e     152e        0     1                 
42001532     1532        0     1                 
42001536     1536        0     1                 
4200153a     153a        0     1                 
4200153a     153a        0     1                 
4200153a     153a        0     1                 
4200153a     153a        e     2         /Users/mabez/Development/rust/embedded/experiments/esp32c3-experiments/target/riscv32imac-unknown-none-elf/debug/deps/libesp32c3_lib-435c508db645f62b.rlib(esp32c3_lib-435c508db645f62b.4qunmpv8rlyr20lx.rcgu.o):(.text._ZN4core3ptr14write_volatile17hcd8f6075b8e73fbfE)
4200153a     153a        0     1                 
4200153a     153a        0     1                 
4200153a     153a        0     1                 
4200153a     153a        e     1                 core::ptr::write_volatile::hcd8f6075b8e73fbf
4200153c     153c        0     1                 
42001540     1540        0     1                 
42001544     1544        0     1                 
42001548     1548        0     1                 
42001548     1548        0     1                 
42001548     1548        0     1                 
42001548     1548       80     2         /Users/mabez/Development/rust/embedded/experiments/esp32c3-experiments/target/riscv32imac-unknown-none-elf/debug/deps/libesp32c3_lib-435c508db645f62b.rlib(esp32c3_lib-435c508db645f62b.3xdn0a03wuv3lfvi.rcgu.o):(.text._ZN4core5slice4iter13Iter$LT$T$GT$3new17hc576f4bacbc158afE)
42001548     1548        0     1                 
42001548     1548        0     1                 
42001548     1548        0     1                 
42001548     1548       80     1                 core::slice::iter::Iter$LT$T$GT$::new::hc576f4bacbc158af
4200154a     154a        0     1                 
4200154c     154c        0     1                 
42001552     1552        0     1                 
42001562     1562        0     1                 
42001562     1562        0     1                 
4200156e     156e        0     1                 
42001570     1570        0     1                 
42001572     1572        0     1                 
42001576     1576        0     1                 
4200157c     157c        0     1                 
42001588     1588        0     1                 
42001588     1588        0     1                 
4200158e     158e        0     1                 
4200158e     158e        0     1                 
42001590     1590        0     1                 
4200159c     159c        0     1                 
4200159c     159c        0     1                 
420015a0     15a0        0     1                 
420015a0     15a0        0     1                 
420015a4     15a4        0     1                 
420015a6     15a6        0     1                 
420015a6     15a6        0     1                 
420015b4     15b4        0     1                 
420015b4     15b4        0     1                 
420015b8     15b8        0     1                 
420015ba     15ba        0     1                 
420015ba     15ba        0     1                 
420015be     15be        0     1                 
420015c2     15c2        0     1                 
420015c2     15c2        0     1                 
420015c8     15c8        0     1                 
420015c8     15c8        0     1                 
420015c8     15c8        0     1                 
420015c8     15c8       20     2         /Users/mabez/Development/rust/embedded/experiments/esp32c3-experiments/target/riscv32imac-unknown-none-elf/debug/deps/libesp32c3_lib-435c508db645f62b.rlib(esp32c3_lib-435c508db645f62b.3xdn0a03wuv3lfvi.rcgu.o):(.text._ZN4core5slice4iter87_$LT$impl$u20$core..iter..traits..collect..IntoIterator$u20$for$u20$$RF$$u5b$T$u5d$$GT$9into_iter17h8a7c9e06fc8cfc28E)
420015c8     15c8        0     1                 
420015c8     15c8        0     1                 
420015c8     15c8        0     1                 
420015c8     15c8       20     1                 core::slice::iter::_$LT$impl$u20$core..iter..traits..collect..IntoIterator$u20$for$u20$$RF$$u5b$T$u5d$$GT$::into_iter::h8a7c9e06fc8cfc28
420015ca     15ca        0     1                 
420015cc     15cc        0     1                 
420015d0     15d0        0     1                 
420015de     15de        0     1                 
420015e8     15e8        0     1                 
420015e8     15e8        0     1                 
420015e8     15e8        0     1                 
420015e8     15e8       ba     2         /Users/mabez/Development/rust/embedded/experiments/esp32c3-experiments/target/riscv32imac-unknown-none-elf/debug/deps/libesp32c3_lib-435c508db645f62b.rlib(esp32c3_lib-435c508db645f62b.3xdn0a03wuv3lfvi.rcgu.o):(.text._ZN91_$LT$core..slice..iter..Iter$LT$T$GT$$u20$as$u20$core..iter..traits..iterator..Iterator$GT$4next17h07d794351aaf7694E)
420015e8     15e8        0     1                 
420015e8     15e8        0     1                 
420015e8     15e8        0     1                 
420015e8     15e8       ba     1                 _$LT$core..slice..iter..Iter$LT$T$GT$$u20$as$u20$core..iter..traits..iterator..Iterator$GT$::next::h07d794351aaf7694
420015ea     15ea        0     1                 
420015ec     15ec        0     1                 
420015f0     15f0        0     1                 
4200160a     160a        0     1                 
4200160c     160c        0     1                 
4200160e     160e        0     1                 
42001612     1612        0     1                 
42001618     1618        0     1                 
4200161a     161a        0     1                 
42001628     1628        0     1                 
4200162a     162a        0     1                 
4200162c     162c        0     1                 
42001648     1648        0     1                 
42001652     1652        0     1                 
42001652     1652        0     1                 
42001664     1664        0     1                 
42001664     1664        0     1                 
42001674     1674        0     1                 
42001674     1674        0     1                 
42001678     1678        0     1                 
42001678     1678        0     1                 
42001684     1684        0     1                 
42001688     1688        0     1                 
4200168a     168a        0     1                 
4200168a     168a        0     1                 
4200168e     168e        0     1                 
42001690     1690        0     1                 
42001692     1692        0     1                 
42001694     1694        0     1                 
4200169c     169c        0     1                 
420016a0     16a0        0     1                 
420016a2     16a2        0     1                 
420016a2     16a2        0     1                 
420016a2     16a2        0     1                 
420016a2     16a2       20     2         /Users/mabez/Development/rust/embedded/experiments/esp32c3-experiments/target/riscv32imac-unknown-none-elf/debug/deps/libesp32c3_lib-435c508db645f62b.rlib(esp32c3_lib-435c508db645f62b.10h0j41trqvefdik.rcgu.o):(.text._ZN4core5slice29_$LT$impl$u20$$u5b$T$u5d$$GT$4iter17hb8fc0bc33e2501e5E)
420016a2     16a2        0     1                 
420016a2     16a2        0     1                 
420016a2     16a2        0     1                 
420016a2     16a2       20     1                 core::slice::_$LT$impl$u20$$u5b$T$u5d$$GT$::iter::hb8fc0bc33e2501e5
420016a4     16a4        0     1                 
420016a6     16a6        0     1                 
420016aa     16aa        0     1                 
420016b8     16b8        0     1                 
420016c2     16c2        0     1                 
420016c2     16c2        0     1                 
420016c2     16c2        0     1                 
420016c2     16c2        a     2         /Users/mabez/Development/rust/embedded/experiments/esp32c3-experiments/target/riscv32imac-unknown-none-elf/debug/deps/libesp32c3_lib-435c508db645f62b.rlib(esp32c3_lib-435c508db645f62b.10h0j41trqvefdik.rcgu.o):(.text._ZN4core5slice29_$LT$impl$u20$$u5b$T$u5d$$GT$6as_ptr17h11b7740f9f5f4d13E)
420016c2     16c2        0     1                 
420016c2     16c2        0     1                 
420016c2     16c2        0     1                 
420016c2     16c2        a     1                 core::slice::_$LT$impl$u20$$u5b$T$u5d$$GT$::as_ptr::h11b7740f9f5f4d13
420016c4     16c4        0     1                 
420016c8     16c8        0     1                 
420016cc     16cc        0     1                 
420016cc     16cc        0     1                 
420016cc     16cc        0     1                 
420016cc     16cc       1a     2         /Users/mabez/Development/rust/embedded/experiments/esp32c3-experiments/target/riscv32imac-unknown-none-elf/debug/deps/libesp32c3_lib-435c508db645f62b.rlib(esp32c3_lib-435c508db645f62b.3ja21lwj0yew0pl1.rcgu.o):(.text._ZN4core3ptr9const_ptr33_$LT$impl$u20$$BP$const$u20$T$GT$13guaranteed_eq17hc22e6d1d7705be5fE)
420016cc     16cc        0     1                 
420016cc     16cc        0     1                 
420016cc     16cc        0     1                 
420016cc     16cc       1a     1                 core::ptr::const_ptr::_$LT$impl$u20$$BP$const$u20$T$GT$::guaranteed_eq::hc22e6d1d7705be5f
420016ce     16ce        0     1                 
420016d2     16d2        0     1                 
420016e0     16e0        0     1                 
420016e6     16e6        0     1                 
420016e6     16e6        0     1                 
420016e6     16e6        0     1                 
420016e6     16e6       22     2         /Users/mabez/Development/rust/embedded/experiments/esp32c3-experiments/target/riscv32imac-unknown-none-elf/debug/deps/libesp32c3_lib-435c508db645f62b.rlib(esp32c3_lib-435c508db645f62b.3ja21lwj0yew0pl1.rcgu.o):(.text._ZN4core3ptr9const_ptr33_$LT$impl$u20$$BP$const$u20$T$GT$7is_null17hc87874ddeeac12d7E)
420016e6     16e6        0     1                 
420016e6     16e6        0     1                 
420016e6     16e6        0     1                 
420016e6     16e6       22     1                 core::ptr::const_ptr::_$LT$impl$u20$$BP$const$u20$T$GT$::is_null::hc87874ddeeac12d7
420016e8     16e8        0     1                 
420016ea     16ea        0     1                 
420016ee     16ee        0     1                 
420016f0     16f0        0     1                 
42001700     1700        0     1                 
42001708     1708        0     1                 
42001708     1708        0     1                 
42001708     1708        0     1                 
42001708     1708        a     2         /Users/mabez/Development/rust/embedded/experiments/esp32c3-experiments/target/riscv32imac-unknown-none-elf/debug/deps/libesp32c3_lib-435c508db645f62b.rlib(esp32c3_lib-435c508db645f62b.2vqs4zh0r4p5a1ya.rcgu.o):(.text._ZN4core3ptr8non_null16NonNull$LT$T$GT$13new_unchecked17h62ab09dbce2d7982E)
42001708     1708        0     1                 
42001708     1708        0     1                 
42001708     1708        0     1                 
42001708     1708        a     1                 core::ptr::non_null::NonNull$LT$T$GT$::new_unchecked::h62ab09dbce2d7982
4200170a     170a        0     1                 
4200170c     170c        0     1                 
4200170e     170e        0     1                 
42001712     1712        0     1                 
42001712     1712        0     1                 
42001712     1712        0     1                 
42001712     1712        8     2         /Users/mabez/Development/rust/embedded/experiments/esp32c3-experiments/target/riscv32imac-unknown-none-elf/debug/deps/libesp32c3_lib-435c508db645f62b.rlib(esp32c3_lib-435c508db645f62b.2vqs4zh0r4p5a1ya.rcgu.o):(.text._ZN4core3ptr8non_null16NonNull$LT$T$GT$6as_ptr17h175f1bc6921631e2E)
42001712     1712        0     1                 
42001712     1712        0     1                 
42001712     1712        0     1                 
42001712     1712        8     1                 core::ptr::non_null::NonNull$LT$T$GT$::as_ptr::h175f1bc6921631e2
42001714     1714        0     1                 
42001716     1716        0     1                 
4200171a     171a        0     1                 
4200171a     171a        0     1                 
4200171a     171a        0     1                 
4200171a     171a       1a     2         /Users/mabez/Development/rust/embedded/experiments/esp32c3-experiments/target/riscv32imac-unknown-none-elf/debug/deps/libesp32c3_lib-435c508db645f62b.rlib(esp32c3_lib-435c508db645f62b.2wzydu5xsvwfbdws.rcgu.o):(.text._ZN4core3ptr7mut_ptr31_$LT$impl$u20$$BP$mut$u20$T$GT$13guaranteed_eq17h0b642bfd7057f8b9E)
4200171a     171a        0     1                 
4200171a     171a        0     1                 
4200171a     171a        0     1                 
4200171a     171a       1a     1                 core::ptr::mut_ptr::_$LT$impl$u20$$BP$mut$u20$T$GT$::guaranteed_eq::h0b642bfd7057f8b9
4200171c     171c        0     1                 
42001720     1720        0     1                 
4200172e     172e        0     1                 
42001734     1734        0     1                 
42001734     1734        0     1                 
42001734     1734        0     1                 
42001734     1734       22     2         /Users/mabez/Development/rust/embedded/experiments/esp32c3-experiments/target/riscv32imac-unknown-none-elf/debug/deps/libesp32c3_lib-435c508db645f62b.rlib(esp32c3_lib-435c508db645f62b.2wzydu5xsvwfbdws.rcgu.o):(.text._ZN4core3ptr7mut_ptr31_$LT$impl$u20$$BP$mut$u20$T$GT$7is_null17h8bf7eeb8f268d8ebE)
42001734     1734        0     1                 
42001734     1734        0     1                 
42001734     1734        0     1                 
42001734     1734       22     1                 core::ptr::mut_ptr::_$LT$impl$u20$$BP$mut$u20$T$GT$::is_null::h8bf7eeb8f268d8eb
42001736     1736        0     1                 
42001738     1738        0     1                 
4200173c     173c        0     1                 
4200173e     173e        0     1                 
4200174e     174e        0     1                 
42001756     1756        0     1                 
42001756     1756        0     1                 
42001756     1756        0     1                 
42001756     1756        6     1         /Users/mabez/Development/rust/embedded/experiments/esp32c3-experiments/target/riscv32imac-unknown-none-elf/debug/deps/libriscv-58bee4c49f9f92ec.rlib(riscv.o):(.text.__wfi)
42001756     1756        0     1                 __wfi
4200175c     175c        6     1         /Users/mabez/Development/rust/embedded/experiments/esp32c3-experiments/target/riscv32imac-unknown-none-elf/debug/deps/libriscv-58bee4c49f9f92ec.rlib(riscv.o):(.text.__read_mhartid)
4200175c     175c        0     1                 __read_mhartid
42001762     1762        6     1         /Users/mabez/Development/rust/embedded/experiments/esp32c3-experiments/target/riscv32imac-unknown-none-elf/debug/deps/libriscv-58bee4c49f9f92ec.rlib(riscv.o):(.text.__read_mepc)
42001762     1762        0     1                 __read_mepc
42001768     1768        6     1         /Users/mabez/Development/rust/embedded/experiments/esp32c3-experiments/target/riscv32imac-unknown-none-elf/debug/deps/libriscv-58bee4c49f9f92ec.rlib(riscv.o):(.text.__write_mepc)
42001768     1768        0     1                 __write_mepc
4200176e     176e        6     1         /Users/mabez/Development/rust/embedded/experiments/esp32c3-experiments/target/riscv32imac-unknown-none-elf/debug/deps/libriscv-58bee4c49f9f92ec.rlib(riscv.o):(.text.__read_mcause)
4200176e     176e        0     1                 __read_mcause
42001774     1774       22     2         /Users/mabez/Development/rust/embedded/experiments/esp32c3-experiments/target/riscv32imac-unknown-none-elf/debug/deps/libriscv_atomic_emulation_trap-9111affe446510c3.rlib(riscv_atomic_emulation_trap-9111affe446510c3.3mjkh8i7otdbof7e.rcgu.o):(.text._ZN4core3fmt10ArgumentV13new17h6a51505c8e3dcef1E)
42001774     1774        0     1                 
42001774     1774        0     1                 
42001774     1774        0     1                 
42001774     1774       22     1                 core::fmt::ArgumentV1::new::h6a51505c8e3dcef1
42001776     1776        0     1                 
4200177c     177c        0     1                 
42001782     1782        0     1                 
4200178a     178a        0     1                 
42001792     1792        0     1                 
42001796     1796        0     1                 
42001796     1796        0     1                 
42001796     1796        0     1                 
42001796     1796       22     2         /Users/mabez/Development/rust/embedded/experiments/esp32c3-experiments/target/riscv32imac-unknown-none-elf/debug/deps/libriscv_atomic_emulation_trap-9111affe446510c3.rlib(riscv_atomic_emulation_trap-9111affe446510c3.3mjkh8i7otdbof7e.rcgu.o):(.text._ZN4core3fmt10ArgumentV13new17hf2dbf9a6ab88c4c9E)
42001796     1796        0     1                 
42001796     1796        0     1                 
42001796     1796        0     1                 
42001796     1796       22     1                 core::fmt::ArgumentV1::new::hf2dbf9a6ab88c4c9
42001798     1798        0     1                 
4200179e     179e        0     1                 
420017a4     17a4        0     1                 
420017ac     17ac        0     1                 
420017b4     17b4        0     1                 
420017b8     17b8        0     1                 
420017b8     17b8        0     1                 
420017b8     17b8        0     1                 
420017b8     17b8       3a     2         /Users/mabez/Development/rust/embedded/experiments/esp32c3-experiments/target/riscv32imac-unknown-none-elf/debug/deps/libriscv_atomic_emulation_trap-9111affe446510c3.rlib(riscv_atomic_emulation_trap-9111affe446510c3.47nrs7arfzyngfvl.rcgu.o):(.text._ZN4core6result19Result$LT$T$C$E$GT$2ok17h9a8f13201a42ed26E)
420017b8     17b8        0     1                 
420017b8     17b8        0     1                 
420017b8     17b8        0     1                 
420017b8     17b8       3a     1                 core::result::Result$LT$T$C$E$GT$::ok::h9a8f13201a42ed26
420017ba     17ba        0     1                 
420017c0     17c0        0     1                 
420017c8     17c8        0     1                 
420017ca     17ca        0     1                 
420017cc     17cc        0     1                 
420017cc     17cc        0     1                 
420017d0     17d0        0     1                 
420017d0     17d0        0     1                 
420017d2     17d2        0     1                 
420017d4     17d4        0     1                 
420017da     17da        0     1                 
420017e8     17e8        0     1                 
420017f0     17f0        0     1                 
420017f2     17f2        0     1                 
420017f2     17f2        0     1                 
420017f2     17f2        0     1                 
420017f2     17f2       4e     2         /Users/mabez/Development/rust/embedded/experiments/esp32c3-experiments/target/riscv32imac-unknown-none-elf/debug/deps/libriscv_atomic_emulation_trap-9111affe446510c3.rlib(riscv_atomic_emulation_trap-9111affe446510c3.7puluphka9w3g90.rcgu.o):(.text._ZN27riscv_atomic_emulation_trap9TrapFrame12as_mut_words17hcd2781c13ce3e581E)
420017f2     17f2       4e     1                 riscv_atomic_emulation_trap::TrapFrame::as_mut_words::hcd2781c13ce3e581
420017f2     17f2        0     1                 
420017f2     17f2        0     1                 
420017f2     17f2        0     1                 
420017f4     17f4        0     1                 
420017f6     17f6        0     1                 
420017f8     17f8        0     1                 
420017fc     17fc        0     1                 
420017fe     17fe        0     1                 
42001800     1800        0     1                 
42001806     1806        0     1                 
4200181a     181a        0     1                 
42001836     1836        0     1                 
42001840     1840        0     1                 
42001840     1840        0     1                 
42001840     1840        0     1                 
42001840     1840      50e     2         /Users/mabez/Development/rust/embedded/experiments/esp32c3-experiments/target/riscv32imac-unknown-none-elf/debug/deps/libriscv_atomic_emulation_trap-9111affe446510c3.rlib(riscv_atomic_emulation_trap-9111affe446510c3.7puluphka9w3g90.rcgu.o):(.text._ZN27riscv_atomic_emulation_trap16atomic_emulation17h896654b7a8e73130E)
42001840     1840        0     1                 
42001840     1840        0     1                 
42001840     1840        0     1                 
42001840     1840      50e     1                 riscv_atomic_emulation_trap::atomic_emulation::h896654b7a8e73130
42001844     1844        0     1                 
42001848     1848        0     1                 
4200184e     184e        0     1                 
42001860     1860        0     1                 
42001860     1860        0     1                 
4200186a     186a        0     1                 
4200186a     186a        0     1                 
42001878     1878        0     1                 
4200187c     187c        0     1                 
42001880     1880        0     1                 
42001880     1880        0     1                 
42001886     1886        0     1                 
42001886     1886        0     1                 
42001888     1888        0     1                 
4200188c     188c        0     1                 
4200188e     188e        0     1                 
4200188e     188e        0     1                 
4200189c     189c        0     1                 
4200189c     189c        0     1                 
420018a4     18a4        0     1                 
420018a4     18a4        0     1                 
420018b2     18b2        0     1                 
420018b2     18b2        0     1                 
420018c0     18c0        0     1                 
420018c0     18c0        0     1                 
420018da     18da        0     1                 
420018da     18da        0     1                 
420018de     18de        0     1                 
420018f2     18f2        0     1                 
420018fe     18fe        0     1                 
420018fe     18fe        0     1                 
42001914     1914        0     1                 
42001914     1914        0     1                 
4200192a     192a        0     1                 
4200192a     192a        0     1                 
42001952     1952        0     1                 
42001952     1952        0     1                 
4200196c     196c        0     1                 
42001970     1970        0     1                 
42001988     1988        0     1                 
4200198c     198c        0     1                 
420019a0     19a0        0     1                 
420019b0     19b0        0     1                 
420019b0     19b0        0     1                 
420019c6     19c6        0     1                 
420019c6     19c6        0     1                 
420019dc     19dc        0     1                 
420019dc     19dc        0     1                 
42001a0c     1a0c        0     1                 
42001a0c     1a0c        0     1                 
42001a26     1a26        0     1                 
42001a2a     1a2a        0     1                 
42001a42     1a42        0     1                 
42001a46     1a46        0     1                 
42001a5a     1a5a        0     1                 
42001a6a     1a6a        0     1                 
42001a6a     1a6a        0     1                 
42001a80     1a80        0     1                 
42001a80     1a80        0     1                 
42001a96     1a96        0     1                 
42001a96     1a96        0     1                 
42001ac6     1ac6        0     1                 
42001ac6     1ac6        0     1                 
42001ae0     1ae0        0     1                 
42001ae4     1ae4        0     1                 
42001afc     1afc        0     1                 
42001b04     1b04        0     1                 
42001b08     1b08        0     1                 
42001b0e     1b0e        0     1                 
42001b12     1b12        0     1                 
42001b18     1b18        0     1                 
42001b1a     1b1a        0     1                 
42001b1e     1b1e        0     1                 
42001b1e     1b1e        0     1                 
42001b20     1b20        0     1                 
42001b20     1b20        0     1                 
42001b40     1b40        0     1                 
42001b60     1b60        0     1                 
42001b64     1b64        0     1                 
42001b7c     1b7c        0     1                 
42001b80     1b80        0     1                 
42001b96     1b96        0     1                 
42001b96     1b96        0     1                 
42001b9e     1b9e        0     1                 
42001ba4     1ba4        0     1                 
42001ba4     1ba4        0     1                 
42001bba     1bba        0     1                 
42001bba     1bba        0     1                 
42001bbe     1bbe        0     1                 
42001bc6     1bc6        0     1                 
42001bca     1bca        0     1                 
42001bde     1bde        0     1                 
42001be0     1be0        0     1                 
42001bf6     1bf6        0     1                 
42001bf6     1bf6        0     1                 
42001bf8     1bf8        0     1                 
42001bfc     1bfc        0     1                 
42001bfc     1bfc        0     1                 
42001bfe     1bfe        0     1                 
42001bfe     1bfe        0     1                 
42001c0a     1c0a        0     1                 
42001c12     1c12        0     1                 
42001c14     1c14        0     1                 
42001c16     1c16        0     1                 
42001c1e     1c1e        0     1                 
42001c34     1c34        0     1                 
42001c40     1c40        0     1                 
42001c48     1c48        0     1                 
42001c4a     1c4a        0     1                 
42001c60     1c60        0     1                 
42001c60     1c60        0     1                 
42001c64     1c64        0     1                 
42001c7c     1c7c        0     1                 
42001c80     1c80        0     1                 
42001c92     1c92        0     1                 
42001c9a     1c9a        0     1                 
42001ca2     1ca2        0     1                 
42001ca2     1ca2        0     1                 
42001caa     1caa        0     1                 
42001caa     1caa        0     1                 
42001cc0     1cc0        0     1                 
42001cc0     1cc0        0     1                 
42001cd6     1cd6        0     1                 
42001cd6     1cd6        0     1                 
42001ce2     1ce2        0     1                 
42001ce2     1ce2        0     1                 
42001cfc     1cfc        0     1                 
42001d00     1d00        0     1                 
42001d18     1d18        0     1                 
42001d1e     1d1e        0     1                 
42001d22     1d22        0     1                 
42001d36     1d36        0     1                 
42001d36     1d36        0     1                 
42001d38     1d38        0     1                 
42001d38     1d38        0     1                 
42001d4e     1d4e        0     1                 
42001d4e     1d4e        0     1                 
42001d4e     1d4e        0     1                 
42001d4e     1d4e        0     1                 
42001d4e     1d4e       78     2         /Users/mabez/Development/rust/embedded/experiments/esp32c3-experiments/target/riscv32imac-unknown-none-elf/debug/deps/libriscv_atomic_emulation_trap-9111affe446510c3.rlib(riscv_atomic_emulation_trap-9111affe446510c3.7puluphka9w3g90.rcgu.o):(.text._ZN70_$LT$riscv_atomic_emulation_trap..Uart$u20$as$u20$core..fmt..Write$GT$9write_str17hfe960ab86f4b1b78E)
42001d4e     1d4e        0     1                 
42001d4e     1d4e        0     1                 
42001d4e     1d4e        0     1                 
42001d4e     1d4e       78     1                 _$LT$riscv_atomic_emulation_trap..Uart$u20$as$u20$core..fmt..Write$GT$::write_str::hfe960ab86f4b1b78
42001d50     1d50        0     1                 
42001d52     1d52        0     1                 
42001d5c     1d5c        0     1                 
42001d5c     1d5c        0     1                 
42001d60     1d60        0     1                 
42001d60     1d60        0     1                 
42001d80     1d80        0     1                 
42001d80     1d80        0     1                 
42001d82     1d82        0     1                 
42001d84     1d84        0     1                 
42001d84     1d84        0     1                 
42001da2     1da2        0     1                 
42001da2     1da2        0     1                 
42001da4     1da4        0     1                 
42001da8     1da8        0     1                 
42001dae     1dae        0     1                 
42001dae     1dae        0     1                 
42001db2     1db2        0     1                 
42001db2     1db2        0     1                 
42001db4     1db4        0     1                 
42001db4     1db4        0     1                 
42001dbc     1dbc        0     1                 
42001dbc     1dbc        0     1                 
42001dc6     1dc6        0     1                 
42001dc6     1dc6        0     1                 
42001dc6     1dc6        0     1                 
42001dc6     1dc6        0     1                 
42001dc6     1dc6      61c     2         /Users/mabez/Development/rust/embedded/experiments/esp32c3-experiments/target/riscv32imac-unknown-none-elf/debug/deps/libriscv_atomic_emulation_trap-9111affe446510c3.rlib(riscv_atomic_emulation_trap-9111affe446510c3.7puluphka9w3g90.rcgu.o):(.text._ZN75_$LT$riscv_atomic_emulation_trap..TrapFrame$u20$as$u20$core..fmt..Debug$GT$3fmt17h62d1919b16905249E)
42001dc6     1dc6        0     1                 
42001dc6     1dc6        0     1                 
42001dc6     1dc6        0     1                 
42001dc6     1dc6      61c     1                 _$LT$riscv_atomic_emulation_trap..TrapFrame$u20$as$u20$core..fmt..Debug$GT$::fmt::h62d1919b16905249
42001dc8     1dc8        0     1                 
42001dcc     1dcc        0     1                 
42001ddc     1ddc        0     1                 
42001de4     1de4        0     1                 
42001dee     1dee        0     1                 
42001df8     1df8        0     1                 
42001e02     1e02        0     1                 
42001e0c     1e0c        0     1                 
42001e16     1e16        0     1                 
42001e20     1e20        0     1                 
42001e2a     1e2a        0     1                 
42001e34     1e34        0     1                 
42001e3e     1e3e        0     1                 
42001e48     1e48        0     1                 
42001e52     1e52        0     1                 
42001e5c     1e5c        0     1                 
42001e66     1e66        0     1                 
42001e70     1e70        0     1                 
42001e7a     1e7a        0     1                 
42001e84     1e84        0     1                 
42001e8e     1e8e        0     1                 
42001e98     1e98        0     1                 
42001ea2     1ea2        0     1                 
42001eac     1eac        0     1                 
42001eb6     1eb6        0     1                 
42001ec0     1ec0        0     1                 
42001eca     1eca        0     1                 
42001ed4     1ed4        0     1                 
42001ede     1ede        0     1                 
42001ee8     1ee8        0     1                 
42001ef2     1ef2        0     1                 
42001efc     1efc        0     1                 
42001f06     1f06        0     1                 
42001f10     1f10        0     1                 
42001f1a     1f1a        0     1                 
42001f1a     1f1a        0     1                 
42001f3a     1f3a        0     1                 
42001f3e     1f3e        0     1                 
42001f42     1f42        0     1                 
42001f42     1f42        0     1                 
42001f44     1f44        0     1                 
42001f62     1f62        0     1                 
42001f66     1f66        0     1                 
42001f86     1f86        0     1                 
42001f8a     1f8a        0     1                 
42001faa     1faa        0     1                 
42001fae     1fae        0     1                 
42001fce     1fce        0     1                 
42001fd2     1fd2        0     1                 
42001ff2     1ff2        0     1                 
42001ff6     1ff6        0     1                 
42002016     2016        0     1                 
4200201a     201a        0     1                 
4200203a     203a        0     1                 
4200203e     203e        0     1                 
4200205e     205e        0     1                 
42002062     2062        0     1                 
42002082     2082        0     1                 
42002086     2086        0     1                 
420020a6     20a6        0     1                 
420020aa     20aa        0     1                 
420020ca     20ca        0     1                 
420020ce     20ce        0     1                 
420020ee     20ee        0     1                 
420020f2     20f2        0     1                 
42002112     2112        0     1                 
42002116     2116        0     1                 
42002136     2136        0     1                 
4200213a     213a        0     1                 
4200215a     215a        0     1                 
4200215e     215e        0     1                 
4200217e     217e        0     1                 
42002182     2182        0     1                 
420021a2     21a2        0     1                 
420021a6     21a6        0     1                 
420021c6     21c6        0     1                 
420021ca     21ca        0     1                 
420021ea     21ea        0     1                 
420021ee     21ee        0     1                 
4200220e     220e        0     1                 
42002212     2212        0     1                 
42002232     2232        0     1                 
42002236     2236        0     1                 
42002256     2256        0     1                 
4200225a     225a        0     1                 
4200227a     227a        0     1                 
4200227e     227e        0     1                 
4200229e     229e        0     1                 
420022a2     22a2        0     1                 
420022c2     22c2        0     1                 
420022c6     22c6        0     1                 
420022e6     22e6        0     1                 
420022ec     22ec        0     1                 
4200230c     230c        0     1                 
42002312     2312        0     1                 
42002332     2332        0     1                 
42002338     2338        0     1                 
42002358     2358        0     1                 
4200235e     235e        0     1                 
4200237e     237e        0     1                 
42002384     2384        0     1                 
420023a4     23a4        0     1                 
420023aa     23aa        0     1                 
420023ca     23ca        0     1                 
420023cc     23cc        0     1                 
420023d8     23d8        0     1                 
420023d8     23d8        0     1                 
420023e2     23e2        0     1                 
420023e2     23e2        0     1                 
420023e2     23e2        0     1                 
420023e2     23e2       18     2         /Users/mabez/Development/rust/embedded/experiments/esp32c3-experiments/target/riscv32imac-unknown-none-elf/debug/deps/libriscv_atomic_emulation_trap-9111affe446510c3.rlib(riscv_atomic_emulation_trap-9111affe446510c3.29cdtova41s09pd8.rcgu.o):(.text._ZN5riscv8register4mepc4read17hfc35303fe69fba50E)
420023e2     23e2        0     1                 
420023e2     23e2        0     1                 
420023e2     23e2        0     1                 
420023e2     23e2       18     1                 riscv::register::mepc::read::hfc35303fe69fba50
420023e4     23e4        0     1                 
420023e4     23e4        0     1                 
420023e6     23e6        0     1                 
420023f2     23f2        0     1                 
420023fa     23fa        0     1                 
420023fa     23fa        0     1                 
420023fa     23fa        0     1                 
420023fa     23fa       18     2         /Users/mabez/Development/rust/embedded/experiments/esp32c3-experiments/target/riscv32imac-unknown-none-elf/debug/deps/libriscv_atomic_emulation_trap-9111affe446510c3.rlib(riscv_atomic_emulation_trap-9111affe446510c3.29cdtova41s09pd8.rcgu.o):(.text._ZN5riscv8register4mepc5_read17h2ce03420fc8b3429E)
420023fa     23fa       18     1                 riscv::register::mepc::_read::h2ce03420fc8b3429
420023fa     23fa        0     1                 
420023fa     23fa        0     1                 
420023fa     23fa        0     1                 
420023fc     23fc        0     1                 
420023fc     23fc        0     1                 
420023fe     23fe        0     1                 
4200240a     240a        0     1                 
42002412     2412        0     1                 
42002412     2412        0     1                 
42002412     2412        0     1                 
42002412     2412       7e     2         /Users/mabez/Development/rust/embedded/experiments/esp32c3-experiments/target/riscv32imac-unknown-none-elf/debug/deps/libriscv_atomic_emulation_trap-9111affe446510c3.rlib(riscv_atomic_emulation_trap-9111affe446510c3.411zpn36fj0rdh69.rcgu.o):(.text._ZN4core3fmt9Arguments6new_v117h5f2026a64ff6c39cE)
42002412     2412        0     1                 
42002412     2412        0     1                 
42002412     2412        0     1                 
42002412     2412       7e     1                 core::fmt::Arguments::new_v1::h5f2026a64ff6c39c
42002414     2414        0     1                 
42002426     2426        0     1                 
4200242c     242c        0     1                 
42002432     2432        0     1                 
42002436     2436        0     1                 
4200243c     243c        0     1                 
4200243e     243e        0     1                 
42002452     2452        0     1                 
4200245e     245e        0     1                 
42002460     2460        0     1                 
42002470     2470        0     1                 
42002474     2474        0     1                 
42002490     2490        0     1                 
42002490     2490        0     1                 
42002490     2490        0     1                 
42002490     2490       40     2         /Users/mabez/Development/rust/embedded/experiments/esp32c3-experiments/target/riscv32imac-unknown-none-elf/debug/deps/libriscv_atomic_emulation_trap-9111affe446510c3.rlib(riscv_atomic_emulation_trap-9111affe446510c3.4em3hgrap6mo60l5.rcgu.o):(.text._ZN4core3fmt5Write10write_char17he1a0f058fdef45c6E)
42002490     2490        0     1                 
42002490     2490        0     1                 
42002490     2490        0     1                 
42002490     2490       40     1                 core::fmt::Write::write_char::he1a0f058fdef45c6
42002492     2492        0     1                 
42002494     2494        0     1                 
420024a2     24a2        0     1                 
420024a8     24a8        0     1                 
420024b6     24b6        0     1                 
420024c8     24c8        0     1                 
420024d0     24d0        0     1                 
420024d0     24d0        0     1                 
420024d0     24d0        0     1                 
420024d0     24d0       3e     2         /Users/mabez/Development/rust/embedded/experiments/esp32c3-experiments/target/riscv32imac-unknown-none-elf/debug/deps/libriscv_atomic_emulation_trap-9111affe446510c3.rlib(riscv_atomic_emulation_trap-9111affe446510c3.4em3hgrap6mo60l5.rcgu.o):(.text._ZN4core3fmt5Write9write_fmt17h205de8c838bf3119E)
420024d0     24d0        0     1                 
420024d0     24d0        0     1                 
420024d0     24d0        0     1                 
420024d0     24d0       3e     1                 core::fmt::Write::write_fmt::h205de8c838bf3119
420024d2     24d2        0     1                 
420024d4     24d4        0     1                 
420024d6     24d6        0     1                 
420024ee     24ee        0     1                 
420024f6     24f6        0     1                 
420024f6     24f6        0     1                 
420024fa     24fa        0     1                 
42002506     2506        0     1                 
4200250e     250e        0     1                 
4200250e     250e        0     1                 
4200250e     250e        0     1                 
4200250e     250e       1e     2         /Users/mabez/Development/rust/embedded/experiments/esp32c3-experiments/target/riscv32imac-unknown-none-elf/debug/deps/libriscv_atomic_emulation_trap-9111affe446510c3.rlib(riscv_atomic_emulation_trap-9111affe446510c3.4em3hgrap6mo60l5.rcgu.o):(.text._ZN50_$LT$$RF$mut$u20$W$u20$as$u20$core..fmt..Write$GT$10write_char17h947e0a377d32ccccE)
4200250e     250e        0     1                 
4200250e     250e        0     1                 
4200250e     250e        0     1                 
4200250e     250e       1e     1                 _$LT$$RF$mut$u20$W$u20$as$u20$core..fmt..Write$GT$::write_char::h947e0a377d32cccc
42002510     2510        0     1                 
42002512     2512        0     1                 
42002516     2516        0     1                 
42002524     2524        0     1                 
4200252c     252c        0     1                 
4200252c     252c        0     1                 
4200252c     252c        0     1                 
4200252c     252c       36     2         /Users/mabez/Development/rust/embedded/experiments/esp32c3-experiments/target/riscv32imac-unknown-none-elf/debug/deps/libriscv_atomic_emulation_trap-9111affe446510c3.rlib(riscv_atomic_emulation_trap-9111affe446510c3.4em3hgrap6mo60l5.rcgu.o):(.text._ZN50_$LT$$RF$mut$u20$W$u20$as$u20$core..fmt..Write$GT$9write_fmt17he81135d287b6a520E)
4200252c     252c        0     1                 
4200252c     252c        0     1                 
4200252c     252c        0     1                 
4200252c     252c       36     1                 _$LT$$RF$mut$u20$W$u20$as$u20$core..fmt..Write$GT$::write_fmt::he81135d287b6a520
4200252e     252e        0     1                 
42002530     2530        0     1                 
42002532     2532        0     1                 
42002534     2534        0     1                 
4200254a     254a        0     1                 
4200254e     254e        0     1                 
4200255a     255a        0     1                 
42002562     2562        0     1                 
42002562     2562        0     1                 
42002562     2562        0     1                 
42002562     2562       20     2         /Users/mabez/Development/rust/embedded/experiments/esp32c3-experiments/target/riscv32imac-unknown-none-elf/debug/deps/libriscv_atomic_emulation_trap-9111affe446510c3.rlib(riscv_atomic_emulation_trap-9111affe446510c3.4em3hgrap6mo60l5.rcgu.o):(.text._ZN50_$LT$$RF$mut$u20$W$u20$as$u20$core..fmt..Write$GT$9write_str17h31b879ebe24dc1e9E)
42002562     2562        0     1                 
42002562     2562        0     1                 
42002562     2562        0     1                 
42002562     2562       20     1                 _$LT$$RF$mut$u20$W$u20$as$u20$core..fmt..Write$GT$::write_str::h31b879ebe24dc1e9
42002564     2564        0     1                 
42002566     2566        0     1                 
4200256c     256c        0     1                 
4200257a     257a        0     1                 
42002582     2582        0     1                 
42002582     2582        0     1                 
42002582     2582        0     1                 
42002582     2582      232     2         /Users/mabez/Development/rust/embedded/experiments/esp32c3-experiments/target/riscv32imac-unknown-none-elf/debug/deps/libriscv_atomic_emulation_trap-9111affe446510c3.rlib(riscv_atomic_emulation_trap-9111affe446510c3.1ainjqznfmasr5um.rcgu.o):(.text._ZN4core4char7methods15encode_utf8_raw17h51dc4ddb57d5e765E)
42002582     2582      232     1                 core::char::methods::encode_utf8_raw::h51dc4ddb57d5e765
42002582     2582        0     1                 
42002582     2582        0     1                 
42002582     2582        0     1                 
42002584     2584        0     1                 
42002586     2586        0     1                 
42002590     2590        0     1                 
4200259c     259c        0     1                 
4200259c     259c        0     1                 
420025a2     25a2        0     1                 
420025ba     25ba        0     1                 
420025c6     25c6        0     1                 
420025d2     25d2        0     1                 
420025d6     25d6        0     1                 
420025dc     25dc        0     1                 
420025e0     25e0        0     1                 
420025e6     25e6        0     1                 
420025ea     25ea        0     1                 
420025f0     25f0        0     1                 
420025f6     25f6        0     1                 
4200260a     260a        0     1                 
4200260a     260a        0     1                 
42002620     2620        0     1                 
42002620     2620        0     1                 
4200262a     262a        0     1                 
42002634     2634        0     1                 
4200263e     263e        0     1                 
42002648     2648        0     1                 
4200264e     264e        0     1                 
42002654     2654        0     1                 
4200265a     265a        0     1                 
42002660     2660        0     1                 
42002660     2660        0     1                 
42002664     2664        0     1                 
42002666     2666        0     1                 
4200266e     266e        0     1                 
42002672     2672        0     1                 
42002676     2676        0     1                 
4200267e     267e        0     1                 
42002682     2682        0     1                 
42002686     2686        0     1                 
4200268e     268e        0     1                 
42002692     2692        0     1                 
42002696     2696        0     1                 
4200269e     269e        0     1                 
4200269e     269e        0     1                 
420026a0     26a0        0     1                 
420026a6     26a6        0     1                 
420026a8     26a8        0     1                 
420026be     26be        0     1                 
420026c2     26c2        0     1                 
420026c8     26c8        0     1                 
420026ce     26ce        0     1                 
420026ce     26ce        0     1                 
420026d2     26d2        0     1                 
420026d4     26d4        0     1                 
420026dc     26dc        0     1                 
420026e0     26e0        0     1                 
420026e4     26e4        0     1                 
420026ec     26ec        0     1                 
420026f0     26f0        0     1                 
420026f4     26f4        0     1                 
420026fc     26fc        0     1                 
420026fc     26fc        0     1                 
420026fe     26fe        0     1                 
42002702     2702        0     1                 
42002708     2708        0     1                 
42002708     2708        0     1                 
4200270c     270c        0     1                 
4200270e     270e        0     1                 
42002716     2716        0     1                 
4200271a     271a        0     1                 
4200271e     271e        0     1                 
42002726     2726        0     1                 
42002726     2726        0     1                 
42002728     2728        0     1                 
4200272c     272c        0     1                 
4200272c     272c        0     1                 
4200272e     272e        0     1                 
42002732     2732        0     1                 
42002732     2732        0     1                 
42002734     2734        0     1                 
42002734     2734        0     1                 
4200273e     273e        0     1                 
4200273e     273e        0     1                 
42002786     2786        0     1                 
42002786     2786        0     1                 
420027b4     27b4        0     1                 
420027b4     27b4        0     1                 
420027b4     27b4        0     1                 
420027b4     27b4        0     1                 
420027b4     27b4       34     2         /Users/mabez/Development/rust/embedded/experiments/esp32c3-experiments/target/riscv32imac-unknown-none-elf/debug/deps/libriscv_atomic_emulation_trap-9111affe446510c3.rlib(riscv_atomic_emulation_trap-9111affe446510c3.1ainjqznfmasr5um.rcgu.o):(.text._ZN4core4char7methods22_$LT$impl$u20$char$GT$11encode_utf817hebbf6c056784e047E)
420027b4     27b4        0     1                 
420027b4     27b4        0     1                 
420027b4     27b4        0     1                 
420027b4     27b4       34     1                 core::char::methods::_$LT$impl$u20$char$GT$::encode_utf8::hebbf6c056784e047
420027b6     27b6        0     1                 
420027b8     27b8        0     1                 
420027be     27be        0     1                 
420027cc     27cc        0     1                 
420027de     27de        0     1                 
420027e8     27e8        0     1                 
420027e8     27e8        0     1                 
420027e8     27e8        0     1                 
420027e8     27e8       4a     2         /Users/mabez/Development/rust/embedded/experiments/esp32c3-experiments/target/riscv32imac-unknown-none-elf/debug/deps/libriscv_atomic_emulation_trap-9111affe446510c3.rlib(riscv_atomic_emulation_trap-9111affe446510c3.1ainjqznfmasr5um.rcgu.o):(.text._ZN4core4char7methods8len_utf817hfecb1cab5329824cE)
420027e8     27e8       4a     1                 core::char::methods::len_utf8::hfecb1cab5329824c
420027e8     27e8        0     1                 
420027e8     27e8        0     1                 
420027e8     27e8        0     1                 
420027ea     27ea        0     1                 
420027f2     27f2        0     1                 
420027f8     27f8        0     1                 
42002804     2804        0     1                 
42002806     2806        0     1                 
42002808     2808        0     1                 
4200280a     280a        0     1                 
42002810     2810        0     1                 
4200281c     281c        0     1                 
4200281e     281e        0     1                 
42002820     2820        0     1                 
42002822     2822        0     1                 
42002824     2824        0     1                 
42002826     2826        0     1                 
42002828     2828        0     1                 
4200282a     282a        0     1                 
4200282c     282c        0     1                 
4200282e     282e        0     1                 
42002830     2830        0     1                 
42002832     2832        0     1                 
42002832     2832        0     1                 
42002832     2832        0     1                 
42002832     2832        a     2         /Users/mabez/Development/rust/embedded/experiments/esp32c3-experiments/target/riscv32imac-unknown-none-elf/debug/deps/libriscv_atomic_emulation_trap-9111affe446510c3.rlib(riscv_atomic_emulation_trap-9111affe446510c3.1e14zek980l7c5wd.rcgu.o):(.text._ZN4core3str8converts23from_utf8_unchecked_mut17h9fa415635dc55536E)
42002832     2832        0     1                 
42002832     2832        0     1                 
42002832     2832        0     1                 
42002832     2832        a     1                 core::str::converts::from_utf8_unchecked_mut::h9fa415635dc55536
42002834     2834        0     1                 
42002838     2838        0     1                 
4200283c     283c        0     1                 
4200283c     283c        0     1                 
4200283c     283c        0     1                 
4200283c     283c        8     2         /Users/mabez/Development/rust/embedded/experiments/esp32c3-experiments/target/riscv32imac-unknown-none-elf/debug/deps/libriscv_rt-792395b706c7e295.rlib(riscv_rt-792395b706c7e295.n23zmh27zi56vj2.rcgu.o):(.text.DefaultExceptionHandler)
4200283c     283c        0     1                 
4200283c     283c        0     1                 
4200283c     283c        0     1                 
4200283c     283c        8     1                 DefaultExceptionHandler
4200283e     283e        0     1                 
42002840     2840        0     1                 
42002844     2844        0     1                 
42002844     2844        0     1                 
42002844     2844        0     1                 
42002844     2844        4     2         /Users/mabez/Development/rust/embedded/experiments/esp32c3-experiments/target/riscv32imac-unknown-none-elf/debug/deps/libriscv_rt-792395b706c7e295.rlib(riscv_rt-792395b706c7e295.n23zmh27zi56vj2.rcgu.o):(.text.DefaultInterruptHandler)
42002844     2844        0     1                 
42002844     2844        0     1                 
42002844     2844        0     1                 
42002844     2844        0     1                 
42002844     2844        4     1                 DefaultInterruptHandler
42002848     2848        0     1                 
42002848     2848        0     1                 
42002848     2848        0     1                 
42002848     2848        2     2         /Users/mabez/Development/rust/embedded/experiments/esp32c3-experiments/target/riscv32imac-unknown-none-elf/debug/deps/libriscv_rt-792395b706c7e295.rlib(riscv_rt-792395b706c7e295.n23zmh27zi56vj2.rcgu.o):(.text.default_pre_init)
42002848     2848        0     1                 
42002848     2848        0     1                 
42002848     2848        0     1                 
42002848     2848        0     1                 
42002848     2848        2     1                 default_pre_init
4200284a     284a        0     1                 
4200284a     284a        0     1                 
4200284a     284a        0     1                 
4200284a     284a       2c     2         /Users/mabez/Development/rust/embedded/experiments/esp32c3-experiments/target/riscv32imac-unknown-none-elf/debug/deps/libriscv_rt-792395b706c7e295.rlib(riscv_rt-792395b706c7e295.n23zmh27zi56vj2.rcgu.o):(.text.default_mp_hook)
4200284a     284a        0     1                 
4200284a     284a        0     1                 
4200284a     284a        0     1                 
4200284a     284a       2c     1                 default_mp_hook
4200284c     284c        0     1                 
4200284c     284c        0     1                 
4200284e     284e        0     1                 
4200285a     285a        0     1                 
4200285e     285e        0     1                 
42002864     2864        0     1                 
42002866     2866        0     1                 
4200286c     286c        0     1                 
42002876     2876        0     1                 
42002876     2876        0     1                 
42002876     2876        0     1                 
42002876     2876       56     2         /Users/mabez/Development/rust/embedded/experiments/esp32c3-experiments/target/riscv32imac-unknown-none-elf/debug/deps/libriscv_rt-792395b706c7e295.rlib(riscv_rt-792395b706c7e295.2si3iiyx4w55gh9p.rcgu.o):(.text._ZN2r08zero_bss17hb4eaadc5064452d6E)
42002876     2876        0     1                 
42002876     2876        0     1                 
42002876     2876        0     1                 
42002876     2876       56     1                 r0::zero_bss::hb4eaadc5064452d6
42002878     2878        0     1                 
4200287a     287a        0     1                 
42002880     2880        0     1                 
42002882     2882        0     1                 
4200288c     288c        0     1                 
42002892     2892        0     1                 
42002894     2894        0     1                 
42002894     2894        0     1                 
420028a6     28a6        0     1                 
420028a6     28a6        0     1                 
420028a8     28a8        0     1                 
420028b6     28b6        0     1                 
420028be     28be        0     1                 
420028be     28be        0     1                 
420028c4     28c4        0     1                 
420028c4     28c4        0     1                 
420028c6     28c6        0     1                 
420028ca     28ca        0     1                 
420028cc     28cc        0     1                 
420028cc     28cc        0     1                 
420028cc     28cc        0     1                 
420028cc     28cc       68     2         /Users/mabez/Development/rust/embedded/experiments/esp32c3-experiments/target/riscv32imac-unknown-none-elf/debug/deps/libriscv_rt-792395b706c7e295.rlib(riscv_rt-792395b706c7e295.2si3iiyx4w55gh9p.rcgu.o):(.text._ZN2r09init_data17he395798f0bb43d15E)
420028cc     28cc        0     1                 
420028cc     28cc        0     1                 
420028cc     28cc        0     1                 
420028cc     28cc       68     1                 r0::init_data::he395798f0bb43d15
420028ce     28ce        0     1                 
420028d0     28d0        0     1                 
420028d8     28d8        0     1                 
420028da     28da        0     1                 
420028e4     28e4        0     1                 
420028ea     28ea        0     1                 
420028ec     28ec        0     1                 
420028f0     28f0        0     1                 
420028fc     28fc        0     1                 
4200290a     290a        0     1                 
42002912     2912        0     1                 
42002912     2912        0     1                 
42002918     2918        0     1                 
42002918     2918        0     1                 
4200291a     291a        0     1                 
4200291e     291e        0     1                 
42002926     2926        0     1                 
42002926     2926        0     1                 
4200292c     292c        0     1                 
4200292c     292c        0     1                 
4200292e     292e        0     1                 
42002932     2932        0     1                 
42002934     2934        0     1                 
42002934     2934        0     1                 
42002934     2934        0     1                 
42002934     2934       30     2         /Users/mabez/Development/rust/embedded/experiments/esp32c3-experiments/target/riscv32imac-unknown-none-elf/debug/deps/libriscv_rt-792395b706c7e295.rlib(riscv_rt-792395b706c7e295.nu58l7xx5z184oa.rcgu.o):(.text._ZN4core3mem12maybe_uninit20MaybeUninit$LT$T$GT$6zeroed17h8367954c0122ebafE)
42002934     2934        0     1                 
42002934     2934        0     1                 
42002934     2934        0     1                 
42002934     2934       30     1                 core::mem::maybe_uninit::MaybeUninit$LT$T$GT$::zeroed::h8367954c0122ebaf
42002936     2936        0     1                 
42002936     2936        0     1                 
42002936     2936        0     1                 
42002938     2938        0     1                 
4200293a     293a        0     1                 
4200293a     293a        0     1                 
4200293e     293e        0     1                 
42002942     2942        0     1                 
42002942     2942        0     1                 
42002944     2944        0     1                 
42002952     2952        0     1                 
42002952     2952        0     1                 
4200295a     295a        0     1                 
4200295a     295a        0     1                 
4200295c     295c        0     1                 
4200295c     295c        0     1                 
42002964     2964        0     1                 
42002964     2964        0     1                 
42002964     2964        0     1                 
42002964     2964       1e     2         /Users/mabez/Development/rust/embedded/experiments/esp32c3-experiments/target/riscv32imac-unknown-none-elf/debug/deps/libriscv_rt-792395b706c7e295.rlib(riscv_rt-792395b706c7e295.40ecbdq24jylbsk0.rcgu.o):(.text._ZN4core10intrinsics11write_bytes17h57a846edda72e4bfE)
42002964     2964        0     1                 
42002964     2964        0     1                 
42002964     2964        0     1                 
42002964     2964       1e     1                 core::intrinsics::write_bytes::h57a846edda72e4bf
42002966     2966        0     1                 
42002968     2968        0     1                 
42002970     2970        0     1                 
4200297c     297c        0     1                 
42002982     2982        0     1                 
42002982     2982        0     1                 
42002982     2982        0     1                 
42002982     2982        e     2         /Users/mabez/Development/rust/embedded/experiments/esp32c3-experiments/target/riscv32imac-unknown-none-elf/debug/deps/libriscv_rt-792395b706c7e295.rlib(riscv_rt-792395b706c7e295.4l8nnv0gz5uboi7y.rcgu.o):(.text._ZN4core3ptr14write_volatile17h5cdae313b0472351E)
42002982     2982        0     1                 
42002982     2982        0     1                 
42002982     2982        0     1                 
42002982     2982        e     1                 core::ptr::write_volatile::h5cdae313b0472351
42002984     2984        0     1                 
42002988     2988        0     1                 
4200298c     298c        0     1                 
42002990     2990        0     1                 
42002990     2990        0     1                 
42002990     2990        0     1                 
42002990     2990       26     2         /Users/mabez/Development/rust/embedded/experiments/esp32c3-experiments/target/riscv32imac-unknown-none-elf/debug/deps/libriscv_rt-792395b706c7e295.rlib(riscv_rt-792395b706c7e295.4l8nnv0gz5uboi7y.rcgu.o):(.text._ZN4core3ptr4read17h747aecee69941c43E)
42002990     2990        0     1                 
42002990     2990        0     1                 
42002990     2990        0     1                 
42002990     2990       26     1                 core::ptr::read::h747aecee69941c43
42002992     2992        0     1                 
42002996     2996        0     1                 
42002996     2996        0     1                 
42002998     2998        0     1                 
42002998     2998        0     1                 
4200299c     299c        0     1                 
420029a0     29a0        0     1                 
420029a0     29a0        0     1                 
420029a2     29a2        0     1                 
420029ae     29ae        0     1                 
420029b0     29b0        0     1                 
420029b0     29b0        0     1                 
420029b6     29b6        0     1                 
420029b6     29b6        0     1                 
420029b6     29b6        0     1                 
420029b6     29b6        c     2         /Users/mabez/Development/rust/embedded/experiments/esp32c3-experiments/target/riscv32imac-unknown-none-elf/debug/deps/libriscv_rt-792395b706c7e295.rlib(riscv_rt-792395b706c7e295.4l8nnv0gz5uboi7y.rcgu.o):(.text._ZN4core3ptr5write17h1a9de76e215c79baE)
420029b6     29b6        0     1                 
420029b6     29b6        0     1                 
420029b6     29b6        0     1                 
420029b6     29b6        c     1                 core::ptr::write::h1a9de76e215c79ba
420029b8     29b8        0     1                 
420029bc     29bc        0     1                 
420029be     29be        0     1                 
420029c2     29c2        0     1                 
420029c2     29c2        0     1                 
420029c2     29c2        0     1                 
420029c2     29c2       1a     2         /Users/mabez/Development/rust/embedded/experiments/esp32c3-experiments/target/riscv32imac-unknown-none-elf/debug/deps/libriscv_rt-792395b706c7e295.rlib(riscv_rt-792395b706c7e295.a1pdmtq419pk4l9.rcgu.o):(.text._ZN5riscv8register6mcause4read17h6bc9b4e275a42b77E)
420029c2     29c2        0     1                 
420029c2     29c2        0     1                 
420029c2     29c2        0     1                 
420029c2     29c2       1a     1                 riscv::register::mcause::read::h6bc9b4e275a42b77
420029c4     29c4        0     1                 
420029c4     29c4        0     1                 
420029c6     29c6        0     1                 
420029d2     29d2        0     1                 
420029d6     29d6        0     1                 
420029dc     29dc        0     1                 
420029dc     29dc        0     1                 
420029dc     29dc        0     1                 
420029dc     29dc       18     2         /Users/mabez/Development/rust/embedded/experiments/esp32c3-experiments/target/riscv32imac-unknown-none-elf/debug/deps/libriscv_rt-792395b706c7e295.rlib(riscv_rt-792395b706c7e295.a1pdmtq419pk4l9.rcgu.o):(.text._ZN5riscv8register6mcause5_read17h58cda2c6cfde250cE)
420029dc     29dc       18     1                 riscv::register::mcause::_read::h58cda2c6cfde250c
420029dc     29dc        0     1                 
420029dc     29dc        0     1                 
420029dc     29dc        0     1                 
420029de     29de        0     1                 
420029de     29de        0     1                 
420029e0     29e0        0     1                 
420029ec     29ec        0     1                 
420029f4     29f4        0     1                 
420029f4     29f4        0     1                 
420029f4     29f4        0     1                 
420029f4     29f4       1e     2         /Users/mabez/Development/rust/embedded/experiments/esp32c3-experiments/target/riscv32imac-unknown-none-elf/debug/deps/libriscv_rt-792395b706c7e295.rlib(riscv_rt-792395b706c7e295.a1pdmtq419pk4l9.rcgu.o):(.text._ZN5riscv8register6mcause6Mcause12is_exception17h7aa2a19ccec4c077E)
420029f4     29f4        0     1                 
420029f4     29f4        0     1                 
420029f4     29f4        0     1                 
420029f4     29f4       1e     1                 riscv::register::mcause::Mcause::is_exception::h7aa2a19ccec4c077
420029f6     29f6        0     1                 
420029f8     29f8        0     1                 
420029fa     29fa        0     1                 
42002a06     2a06        0     1                 
42002a0c     2a0c        0     1                 
42002a12     2a12        0     1                 
42002a12     2a12        0     1                 
42002a12     2a12        0     1                 
42002a12     2a12       12     2         /Users/mabez/Development/rust/embedded/experiments/esp32c3-experiments/target/riscv32imac-unknown-none-elf/debug/deps/libriscv_rt-792395b706c7e295.rlib(riscv_rt-792395b706c7e295.a1pdmtq419pk4l9.rcgu.o):(.text._ZN5riscv8register6mcause6Mcause12is_interrupt17h8470fbd7548cc9e0E)
42002a12     2a12       12     1                 riscv::register::mcause::Mcause::is_interrupt::h8470fbd7548cc9e0
42002a12     2a12        0     1                 
42002a12     2a12        0     1                 
42002a12     2a12        0     1                 
42002a14     2a14        0     1                 
42002a16     2a16        0     1                 
42002a20     2a20        0     1                 
42002a24     2a24        0     1                 
42002a24     2a24        0     1                 
42002a24     2a24        0     1                 
42002a24     2a24       12     2         /Users/mabez/Development/rust/embedded/experiments/esp32c3-experiments/target/riscv32imac-unknown-none-elf/debug/deps/libriscv-58bee4c49f9f92ec.rlib(riscv-58bee4c49f9f92ec.riscv.8be94b29-cgu.0.rcgu.o):(.text._ZN5riscv8register6mcause6Mcause4code17h3e11f02edddbc42cE)
42002a24     2a24        0     1                 
42002a24     2a24        0     1                 
42002a24     2a24        0     1                 
42002a24     2a24       12     1                 riscv::register::mcause::Mcause::code::h3e11f02edddbc42c
42002a26     2a26        0     1                 
42002a28     2a28        0     1                 
42002a32     2a32        0     1                 
42002a36     2a36        0     1                 
42002a36     2a36        0     1                 
42002a36     2a36        0     1                 
42002a36     2a36       18     2         /Users/mabez/Development/rust/embedded/experiments/esp32c3-experiments/target/riscv32imac-unknown-none-elf/debug/deps/libriscv_rt-792395b706c7e295.rlib(riscv_rt-792395b706c7e295.2fig4fon7wqsswts.rcgu.o):(.text._ZN5riscv8register7mhartid4read17h45df8861f1d90b77E)
42002a36     2a36        0     1                 
42002a36     2a36        0     1                 
42002a36     2a36        0     1                 
42002a36     2a36       18     1                 riscv::register::mhartid::read::h45df8861f1d90b77
42002a38     2a38        0     1                 
42002a38     2a38        0     1                 
42002a3a     2a3a        0     1                 
42002a46     2a46        0     1                 
42002a4e     2a4e        0     1                 
42002a4e     2a4e        0     1                 
42002a4e     2a4e        0     1                 
42002a4e     2a4e       18     2         /Users/mabez/Development/rust/embedded/experiments/esp32c3-experiments/target/riscv32imac-unknown-none-elf/debug/deps/libriscv_rt-792395b706c7e295.rlib(riscv_rt-792395b706c7e295.2fig4fon7wqsswts.rcgu.o):(.text._ZN5riscv8register7mhartid5_read17h4df51e9570f3b6edE)
42002a4e     2a4e       18     1                 riscv::register::mhartid::_read::h4df51e9570f3b6ed
42002a4e     2a4e        0     1                 
42002a4e     2a4e        0     1                 
42002a4e     2a4e        0     1                 
42002a50     2a50        0     1                 
42002a50     2a50        0     1                 
42002a52     2a52        0     1                 
42002a5e     2a5e        0     1                 
42002a66     2a66        0     1                 
42002a66     2a66        0     1                 
42002a66     2a66        0     1                 
42002a66     2a66       14     2         /Users/mabez/Development/rust/embedded/experiments/esp32c3-experiments/target/riscv32imac-unknown-none-elf/debug/deps/libriscv_rt-792395b706c7e295.rlib(riscv_rt-792395b706c7e295.53lukflzfjg86k6f.rcgu.o):(.text._ZN5riscv3asm3wfi17hd8bcab9e80987ad0E)
42002a66     2a66        0     1                 
42002a66     2a66        0     1                 
42002a66     2a66        0     1                 
42002a66     2a66       14     1                 riscv::asm::wfi::hd8bcab9e80987ad0
42002a68     2a68        0     1                 
42002a68     2a68        0     1                 
42002a6a     2a6a        0     1                 
42002a74     2a74        0     1                 
42002a7a     2a7a        0     1                 
42002a7a     2a7a        0     1                 
42002a7a     2a7a        0     1                 
42002a7a     2a7a       80     2         /Users/mabez/Development/rust/embedded/experiments/esp32c3-experiments/target/riscv32imac-unknown-none-elf/debug/deps/libriscv_atomic_emulation_trap-9111affe446510c3.rlib(riscv_atomic_emulation_trap-9111affe446510c3.473ch88oilsz6zg3.rcgu.o):(.text._ZN4core5slice4iter13Iter$LT$T$GT$3new17hc271f6b990a479b3E)
42002a7a     2a7a        0     1                 
42002a7a     2a7a        0     1                 
42002a7a     2a7a        0     1                 
42002a7a     2a7a       80     1                 core::slice::iter::Iter$LT$T$GT$::new::hc271f6b990a479b3
42002a7c     2a7c        0     1                 
42002a7e     2a7e        0     1                 
42002a84     2a84        0     1                 
42002a94     2a94        0     1                 
42002a94     2a94        0     1                 
42002aa0     2aa0        0     1                 
42002aa2     2aa2        0     1                 
42002aa4     2aa4        0     1                 
42002aa8     2aa8        0     1                 
42002aae     2aae        0     1                 
42002aba     2aba        0     1                 
42002aba     2aba        0     1                 
42002ac0     2ac0        0     1                 
42002ac0     2ac0        0     1                 
42002ac2     2ac2        0     1                 
42002ace     2ace        0     1                 
42002ace     2ace        0     1                 
42002ad2     2ad2        0     1                 
42002ad2     2ad2        0     1                 
42002ad6     2ad6        0     1                 
42002ad8     2ad8        0     1                 
42002ad8     2ad8        0     1                 
42002ae6     2ae6        0     1                 
42002ae6     2ae6        0     1                 
42002aea     2aea        0     1                 
42002aec     2aec        0     1                 
42002aec     2aec        0     1                 
42002af0     2af0        0     1                 
42002af4     2af4        0     1                 
42002af4     2af4        0     1                 
42002afa     2afa        0     1                 
42002afa     2afa        0     1                 
42002afa     2afa        0     1                 
42002afa     2afa       20     2         /Users/mabez/Development/rust/embedded/experiments/esp32c3-experiments/target/riscv32imac-unknown-none-elf/debug/deps/libriscv_atomic_emulation_trap-9111affe446510c3.rlib(riscv_atomic_emulation_trap-9111affe446510c3.473ch88oilsz6zg3.rcgu.o):(.text._ZN4core5slice4iter87_$LT$impl$u20$core..iter..traits..collect..IntoIterator$u20$for$u20$$RF$$u5b$T$u5d$$GT$9into_iter17hccfce92e811e5f01E)
42002afa     2afa        0     1                 
42002afa     2afa        0     1                 
42002afa     2afa        0     1                 
42002afa     2afa       20     1                 core::slice::iter::_$LT$impl$u20$core..iter..traits..collect..IntoIterator$u20$for$u20$$RF$$u5b$T$u5d$$GT$::into_iter::hccfce92e811e5f01
42002afc     2afc        0     1                 
42002afe     2afe        0     1                 
42002b02     2b02        0     1                 
42002b10     2b10        0     1                 
42002b1a     2b1a        0     1                 
42002b1a     2b1a        0     1                 
42002b1a     2b1a        0     1                 
42002b1a     2b1a       ba     2         /Users/mabez/Development/rust/embedded/experiments/esp32c3-experiments/target/riscv32imac-unknown-none-elf/debug/deps/libriscv_atomic_emulation_trap-9111affe446510c3.rlib(riscv_atomic_emulation_trap-9111affe446510c3.473ch88oilsz6zg3.rcgu.o):(.text._ZN91_$LT$core..slice..iter..Iter$LT$T$GT$$u20$as$u20$core..iter..traits..iterator..Iterator$GT$4next17hd9cfe3a1e73eed87E)
42002b1a     2b1a        0     1                 
42002b1a     2b1a        0     1                 
42002b1a     2b1a        0     1                 
42002b1a     2b1a       ba     1                 _$LT$core..slice..iter..Iter$LT$T$GT$$u20$as$u20$core..iter..traits..iterator..Iterator$GT$::next::hd9cfe3a1e73eed87
42002b1c     2b1c        0     1                 
42002b1e     2b1e        0     1                 
42002b22     2b22        0     1                 
42002b3c     2b3c        0     1                 
42002b3e     2b3e        0     1                 
42002b40     2b40        0     1                 
42002b44     2b44        0     1                 
42002b4a     2b4a        0     1                 
42002b4c     2b4c        0     1                 
42002b5a     2b5a        0     1                 
42002b5c     2b5c        0     1                 
42002b5e     2b5e        0     1                 
42002b7a     2b7a        0     1                 
42002b84     2b84        0     1                 
42002b84     2b84        0     1                 
42002b96     2b96        0     1                 
42002b96     2b96        0     1                 
42002ba6     2ba6        0     1                 
42002ba6     2ba6        0     1                 
42002baa     2baa        0     1                 
42002baa     2baa        0     1                 
42002bb6     2bb6        0     1                 
42002bba     2bba        0     1                 
42002bbc     2bbc        0     1                 
42002bbc     2bbc        0     1                 
42002bc0     2bc0        0     1                 
42002bc2     2bc2        0     1                 
42002bc4     2bc4        0     1                 
42002bc6     2bc6        0     1                 
42002bce     2bce        0     1                 
42002bd2     2bd2        0     1                 
42002bd4     2bd4        0     1                 
42002bd4     2bd4        0     1                 
42002bd4     2bd4        0     1                 
42002bd4     2bd4       1a     2         /Users/mabez/Development/rust/embedded/experiments/esp32c3-experiments/target/riscv32imac-unknown-none-elf/debug/deps/libriscv_atomic_emulation_trap-9111affe446510c3.rlib(riscv_atomic_emulation_trap-9111affe446510c3.1x01haq1ilk8wjw8.rcgu.o):(.text._ZN4core3ptr9const_ptr33_$LT$impl$u20$$BP$const$u20$T$GT$13guaranteed_eq17hdb51f894da603088E)
42002bd4     2bd4        0     1                 
42002bd4     2bd4        0     1                 
42002bd4     2bd4        0     1                 
42002bd4     2bd4       1a     1                 core::ptr::const_ptr::_$LT$impl$u20$$BP$const$u20$T$GT$::guaranteed_eq::hdb51f894da603088
42002bd6     2bd6        0     1                 
42002bda     2bda        0     1                 
42002be8     2be8        0     1                 
42002bee     2bee        0     1                 
42002bee     2bee        0     1                 
42002bee     2bee        0     1                 
42002bee     2bee       22     2         /Users/mabez/Development/rust/embedded/experiments/esp32c3-experiments/target/riscv32imac-unknown-none-elf/debug/deps/libriscv_atomic_emulation_trap-9111affe446510c3.rlib(riscv_atomic_emulation_trap-9111affe446510c3.1x01haq1ilk8wjw8.rcgu.o):(.text._ZN4core3ptr9const_ptr33_$LT$impl$u20$$BP$const$u20$T$GT$7is_null17h243218faaa442000E)
42002bee     2bee        0     1                 
42002bee     2bee        0     1                 
42002bee     2bee        0     1                 
42002bee     2bee       22     1                 core::ptr::const_ptr::_$LT$impl$u20$$BP$const$u20$T$GT$::is_null::h243218faaa442000
42002bf0     2bf0        0     1                 
42002bf2     2bf2        0     1                 
42002bf6     2bf6        0     1                 
42002bf8     2bf8        0     1                 
42002c08     2c08        0     1                 
42002c10     2c10        0     1                 
42002c10     2c10        0     1                 
42002c10     2c10        0     1                 
42002c10     2c10        a     2         /Users/mabez/Development/rust/embedded/experiments/esp32c3-experiments/target/riscv32imac-unknown-none-elf/debug/deps/libriscv_atomic_emulation_trap-9111affe446510c3.rlib(riscv_atomic_emulation_trap-9111affe446510c3.3eam8rvf5fviumdo.rcgu.o):(.text._ZN4core3ptr8non_null16NonNull$LT$T$GT$13new_unchecked17h88af2b67df06a3b0E)
42002c10     2c10        0     1                 
42002c10     2c10        0     1                 
42002c10     2c10        0     1                 
42002c10     2c10        a     1                 core::ptr::non_null::NonNull$LT$T$GT$::new_unchecked::h88af2b67df06a3b0
42002c12     2c12        0     1                 
42002c14     2c14        0     1                 
42002c16     2c16        0     1                 
42002c1a     2c1a        0     1                 
42002c1a     2c1a        0     1                 
42002c1a     2c1a        0     1                 
42002c1a     2c1a        8     2         /Users/mabez/Development/rust/embedded/experiments/esp32c3-experiments/target/riscv32imac-unknown-none-elf/debug/deps/libriscv_atomic_emulation_trap-9111affe446510c3.rlib(riscv_atomic_emulation_trap-9111affe446510c3.3eam8rvf5fviumdo.rcgu.o):(.text._ZN4core3ptr8non_null16NonNull$LT$T$GT$6as_ptr17h5ca81fe31b771a68E)
42002c1a     2c1a        0     1                 
42002c1a     2c1a        0     1                 
42002c1a     2c1a        0     1                 
42002c1a     2c1a        8     1                 core::ptr::non_null::NonNull$LT$T$GT$::as_ptr::h5ca81fe31b771a68
42002c1c     2c1c        0     1                 
42002c1e     2c1e        0     1                 
42002c22     2c22        0     1                 
42002c22     2c22        0     1                 
42002c22     2c22        0     1                 
42002c22     2c22       2a     2         /Users/mabez/Development/rust/embedded/experiments/esp32c3-experiments/target/riscv32imac-unknown-none-elf/debug/deps/libriscv_atomic_emulation_trap-9111affe446510c3.rlib(riscv_atomic_emulation_trap-9111affe446510c3.92c3mso3f7tifm.rcgu.o):(.text._ZN4core5slice5index77_$LT$impl$u20$core..ops..index..IndexMut$LT$I$GT$$u20$for$u20$$u5b$T$u5d$$GT$9index_mut17h4015ef2264eb324aE)
42002c22     2c22        0     1                 
42002c22     2c22        0     1                 
42002c22     2c22        0     1                 
42002c22     2c22       2a     1                 core::slice::index::_$LT$impl$u20$core..ops..index..IndexMut$LT$I$GT$$u20$for$u20$$u5b$T$u5d$$GT$::index_mut::h4015ef2264eb324a
42002c24     2c24        0     1                 
42002c26     2c26        0     1                 
42002c34     2c34        0     1                 
42002c42     2c42        0     1                 
42002c4c     2c4c        0     1                 
42002c4c     2c4c        0     1                 
42002c4c     2c4c        0     1                 
42002c4c     2c4c       20     2         /Users/mabez/Development/rust/embedded/experiments/esp32c3-experiments/target/riscv32imac-unknown-none-elf/debug/deps/libriscv_atomic_emulation_trap-9111affe446510c3.rlib(riscv_atomic_emulation_trap-9111affe446510c3.92c3mso3f7tifm.rcgu.o):(.text._ZN4core5slice5index77_$LT$impl$u20$core..ops..index..IndexMut$LT$I$GT$$u20$for$u20$$u5b$T$u5d$$GT$9index_mut17h4987abc41fa6fc25E)
42002c4c     2c4c        0     1                 
42002c4c     2c4c        0     1                 
42002c4c     2c4c        0     1                 
42002c4c     2c4c       20     1                 core::slice::index::_$LT$impl$u20$core..ops..index..IndexMut$LT$I$GT$$u20$for$u20$$u5b$T$u5d$$GT$::index_mut::h4987abc41fa6fc25
42002c4e     2c4e        0     1                 
42002c50     2c50        0     1                 
42002c54     2c54        0     1                 
42002c62     2c62        0     1                 
42002c6c     2c6c        0     1                 
42002c6c     2c6c        0     1                 
42002c6c     2c6c        0     1                 
42002c6c     2c6c       4c     2         /Users/mabez/Development/rust/embedded/experiments/esp32c3-experiments/target/riscv32imac-unknown-none-elf/debug/deps/libriscv_atomic_emulation_trap-9111affe446510c3.rlib(riscv_atomic_emulation_trap-9111affe446510c3.1ujfldlpaqv6u59a.rcgu.o):(.text._ZN106_$LT$core..ops..range..Range$LT$usize$GT$$u20$as$u20$core..slice..index..SliceIndex$LT$$u5b$T$u5d$$GT$$GT$17get_unchecked_mut17he609242ffba87cc5E)
42002c6c     2c6c        0     1                 
42002c6c     2c6c        0     1                 
42002c6c     2c6c        0     1                 
42002c6c     2c6c       4c     1                 _$LT$core..ops..range..Range$LT$usize$GT$$u20$as$u20$core..slice..index..SliceIndex$LT$$u5b$T$u5d$$GT$$GT$::get_unchecked_mut::he609242ffba87cc5
42002c6e     2c6e        0     1                 
42002c70     2c70        0     1                 
42002c80     2c80        0     1                 
42002c84     2c84        0     1                 
42002c90     2c90        0     1                 
42002c90     2c90        0     1                 
42002c96     2c96        0     1                 
42002c96     2c96        0     1                 
42002c98     2c98        0     1                 
42002ca0     2ca0        0     1                 
42002cae     2cae        0     1                 
42002cb8     2cb8        0     1                 
42002cb8     2cb8        0     1                 
42002cb8     2cb8        0     1                 
42002cb8     2cb8       66     2         /Users/mabez/Development/rust/embedded/experiments/esp32c3-experiments/target/riscv32imac-unknown-none-elf/debug/deps/libriscv_atomic_emulation_trap-9111affe446510c3.rlib(riscv_atomic_emulation_trap-9111affe446510c3.1ujfldlpaqv6u59a.rcgu.o):(.text._ZN106_$LT$core..ops..range..Range$LT$usize$GT$$u20$as$u20$core..slice..index..SliceIndex$LT$$u5b$T$u5d$$GT$$GT$9index_mut17h89ed9c4f203cd3ffE)
42002cb8     2cb8        0     1                 
42002cb8     2cb8        0     1                 
42002cb8     2cb8        0     1                 
42002cb8     2cb8       66     1                 _$LT$core..ops..range..Range$LT$usize$GT$$u20$as$u20$core..slice..index..SliceIndex$LT$$u5b$T$u5d$$GT$$GT$::index_mut::h89ed9c4f203cd3ff
42002cba     2cba        0     1                 
42002cbc     2cbc        0     1                 
42002cce     2cce        0     1                 
42002cd4     2cd4        0     1                 
42002cde     2cde        0     1                 
42002cee     2cee        0     1                 
42002d04     2d04        0     1                 
42002d14     2d14        0     1                 
42002d1e     2d1e        0     1                 
42002d1e     2d1e        0     1                 
42002d1e     2d1e        0     1                 
42002d1e     2d1e       30     2         /Users/mabez/Development/rust/embedded/experiments/esp32c3-experiments/target/riscv32imac-unknown-none-elf/debug/deps/libriscv_atomic_emulation_trap-9111affe446510c3.rlib(riscv_atomic_emulation_trap-9111affe446510c3.1ujfldlpaqv6u59a.rcgu.o):(.text._ZN108_$LT$core..ops..range..RangeTo$LT$usize$GT$$u20$as$u20$core..slice..index..SliceIndex$LT$$u5b$T$u5d$$GT$$GT$9index_mut17h01003a658edeb9caE)
42002d1e     2d1e        0     1                 
42002d1e     2d1e        0     1                 
42002d1e     2d1e        0     1                 
42002d1e     2d1e       30     1                 _$LT$core..ops..range..RangeTo$LT$usize$GT$$u20$as$u20$core..slice..index..SliceIndex$LT$$u5b$T$u5d$$GT$$GT$::index_mut::h01003a658edeb9ca
42002d20     2d20        0     1                 
42002d22     2d22        0     1                 
42002d32     2d32        0     1                 
42002d44     2d44        0     1                 
42002d4e     2d4e        0     1                 
42002d4e     2d4e        0     1                 
42002d4e     2d4e        0     1                 
42002d4e     2d4e        a     2         /Users/mabez/Development/rust/embedded/experiments/esp32c3-experiments/target/riscv32imac-unknown-none-elf/debug/deps/libriscv_atomic_emulation_trap-9111affe446510c3.rlib(riscv_atomic_emulation_trap-9111affe446510c3.1ujfldlpaqv6u59a.rcgu.o):(.text._ZN97_$LT$core..ops..range..RangeFull$u20$as$u20$core..slice..index..SliceIndex$LT$$u5b$T$u5d$$GT$$GT$9index_mut17hbaf992d918f687e0E)
42002d4e     2d4e        0     1                 
42002d4e     2d4e        0     1                 
42002d4e     2d4e        0     1                 
42002d4e     2d4e        a     1                 _$LT$core..ops..range..RangeFull$u20$as$u20$core..slice..index..SliceIndex$LT$$u5b$T$u5d$$GT$$GT$::index_mut::hbaf992d918f687e0
42002d50     2d50        0     1                 
42002d54     2d54        0     1                 
42002d58     2d58        0     1                 
42002d58     2d58        0     1                 
42002d58     2d58        0     1                 
42002d58     2d58       2c     2         /Users/mabez/Development/rust/embedded/experiments/esp32c3-experiments/target/riscv32imac-unknown-none-elf/debug/deps/libriscv_atomic_emulation_trap-9111affe446510c3.rlib(riscv_atomic_emulation_trap-9111affe446510c3.5dmrm1faws2v64w9.rcgu.o):(.text._ZN4core3ptr24slice_from_raw_parts_mut17h87cee240a3abbe6eE)
42002d58     2d58        0     1                 
42002d58     2d58        0     1                 
42002d58     2d58        0     1                 
42002d58     2d58       2c     1                 core::ptr::slice_from_raw_parts_mut::h87cee240a3abbe6e
42002d5a     2d5a        0     1                 
42002d5c     2d5c        0     1                 
42002d64     2d64        0     1                 
42002d68     2d68        0     1                 
42002d7a     2d7a        0     1                 
42002d84     2d84        0     1                 
42002d84     2d84        0     1                 
42002d84     2d84        0     1                 
42002d84     2d84       2c     2         /Users/mabez/Development/rust/embedded/experiments/esp32c3-experiments/target/riscv32imac-unknown-none-elf/debug/deps/libriscv_atomic_emulation_trap-9111affe446510c3.rlib(riscv_atomic_emulation_trap-9111affe446510c3.5dmrm1faws2v64w9.rcgu.o):(.text._ZN4core3ptr24slice_from_raw_parts_mut17h8fad0533c89be9b3E)
42002d84     2d84        0     1                 
42002d84     2d84        0     1                 
42002d84     2d84        0     1                 
42002d84     2d84       2c     1                 core::ptr::slice_from_raw_parts_mut::h8fad0533c89be9b3
42002d86     2d86        0     1                 
42002d88     2d88        0     1                 
42002d90     2d90        0     1                 
42002d94     2d94        0     1                 
42002da6     2da6        0     1                 
42002db0     2db0        0     1                 
42002db0     2db0        0     1                 
42002db0     2db0        0     1                 
42002db0     2db0       12     2         /Users/mabez/Development/rust/embedded/experiments/esp32c3-experiments/target/riscv32imac-unknown-none-elf/debug/deps/libriscv_atomic_emulation_trap-9111affe446510c3.rlib(riscv_atomic_emulation_trap-9111affe446510c3.32s2sfn2d8x0z4vp.rcgu.o):(.text._ZN4core3ptr8metadata18from_raw_parts_mut17h364eaac54da682f8E)
42002db0     2db0        0     1                 
42002db0     2db0        0     1                 
42002db0     2db0        0     1                 
42002db0     2db0       12     1                 core::ptr::metadata::from_raw_parts_mut::h364eaac54da682f8
42002db2     2db2        0     1                 
42002db6     2db6        0     1                 
42002dba     2dba        0     1                 
42002dbe     2dbe        0     1                 
42002dc2     2dc2        0     1                 
42002dc2     2dc2        0     1                 
42002dc2     2dc2        0     1                 
42002dc2     2dc2       12     2         /Users/mabez/Development/rust/embedded/experiments/esp32c3-experiments/target/riscv32imac-unknown-none-elf/debug/deps/libriscv_atomic_emulation_trap-9111affe446510c3.rlib(riscv_atomic_emulation_trap-9111affe446510c3.32s2sfn2d8x0z4vp.rcgu.o):(.text._ZN4core3ptr8metadata18from_raw_parts_mut17hdb9b70b65923956eE)
42002dc2     2dc2        0     1                 
42002dc2     2dc2        0     1                 
42002dc2     2dc2        0     1                 
42002dc2     2dc2       12     1                 core::ptr::metadata::from_raw_parts_mut::hdb9b70b65923956e
42002dc4     2dc4        0     1                 
42002dc8     2dc8        0     1                 
42002dcc     2dcc        0     1                 
42002dd0     2dd0        0     1                 
42002dd4     2dd4        0     1                 
42002dd4     2dd4        0     1                 
42002dd4     2dd4        0     1                 
42002dd4     2dd4        8     2         /Users/mabez/Development/rust/embedded/experiments/esp32c3-experiments/target/riscv32imac-unknown-none-elf/debug/deps/libriscv_atomic_emulation_trap-9111affe446510c3.rlib(riscv_atomic_emulation_trap-9111affe446510c3.iorsoyj01ig67gw.rcgu.o):(.text._ZN4core3ptr30drop_in_place$LT$$RF$usize$GT$17h1534b9b515aeb58eE)
42002dd4     2dd4        0     1                 
42002dd4     2dd4        0     1                 
42002dd4     2dd4        0     1                 
42002dd4     2dd4        8     1                 core::ptr::drop_in_place$LT$$RF$usize$GT$::h1534b9b515aeb58e
42002dd6     2dd6        0     1                 
42002dd8     2dd8        0     1                 
42002ddc     2ddc        0     1                 
42002ddc     2ddc        0     1                 
42002ddc     2ddc        0     1                 
42002ddc     2ddc        8     2         /Users/mabez/Development/rust/embedded/experiments/esp32c3-experiments/target/riscv32imac-unknown-none-elf/debug/deps/libriscv_atomic_emulation_trap-9111affe446510c3.rlib(riscv_atomic_emulation_trap-9111affe446510c3.iorsoyj01ig67gw.rcgu.o):(.text._ZN4core3ptr66drop_in_place$LT$$RF$mut$u20$riscv_atomic_emulation_trap..Uart$GT$17h39352eae4a828066E)
42002ddc     2ddc        0     1                 
42002ddc     2ddc        0     1                 
42002ddc     2ddc        0     1                 
42002ddc     2ddc        8     1                 core::ptr::drop_in_place$LT$$RF$mut$u20$riscv_atomic_emulation_trap..Uart$GT$::h39352eae4a828066
42002dde     2dde        0     1                 
42002de0     2de0        0     1                 
42002de4     2de4        0     1                 
42002de4     2de4        0     1                 
42002de4     2de4        0     1                 
42002de4     2de4       1a     2         /Users/mabez/Development/rust/embedded/experiments/esp32c3-experiments/target/riscv32imac-unknown-none-elf/debug/deps/libriscv_atomic_emulation_trap-9111affe446510c3.rlib(riscv_atomic_emulation_trap-9111affe446510c3.koyzaehax49d9k4.rcgu.o):(.text._ZN4core3ptr7mut_ptr31_$LT$impl$u20$$BP$mut$u20$T$GT$13guaranteed_eq17h922d8dc1f5bc2647E)
42002de4     2de4        0     1                 
42002de4     2de4        0     1                 
42002de4     2de4        0     1                 
42002de4     2de4       1a     1                 core::ptr::mut_ptr::_$LT$impl$u20$$BP$mut$u20$T$GT$::guaranteed_eq::h922d8dc1f5bc2647
42002de6     2de6        0     1                 
42002dea     2dea        0     1                 
42002df8     2df8        0     1                 
42002dfe     2dfe        0     1                 
42002dfe     2dfe        0     1                 
42002dfe     2dfe        0     1                 
42002dfe     2dfe       22     2         /Users/mabez/Development/rust/embedded/experiments/esp32c3-experiments/target/riscv32imac-unknown-none-elf/debug/deps/libriscv_atomic_emulation_trap-9111affe446510c3.rlib(riscv_atomic_emulation_trap-9111affe446510c3.koyzaehax49d9k4.rcgu.o):(.text._ZN4core3ptr7mut_ptr31_$LT$impl$u20$$BP$mut$u20$T$GT$7is_null17h91e6ace381e55968E)
42002dfe     2dfe        0     1                 
42002dfe     2dfe        0     1                 
42002dfe     2dfe        0     1                 
42002dfe     2dfe       22     1                 core::ptr::mut_ptr::_$LT$impl$u20$$BP$mut$u20$T$GT$::is_null::h91e6ace381e55968
42002e00     2e00        0     1                 
42002e02     2e02        0     1                 
42002e06     2e06        0     1                 
42002e08     2e08        0     1                 
42002e18     2e18        0     1                 
42002e20     2e20        0     1                 
42002e20     2e20        0     1                 
42002e20     2e20        0     1                 
42002e20     2e20       32     2         /Users/mabez/Development/rust/embedded/experiments/esp32c3-experiments/target/riscv32imac-unknown-none-elf/debug/deps/libriscv_atomic_emulation_trap-9111affe446510c3.rlib(riscv_atomic_emulation_trap-9111affe446510c3.r9quz5yo0c3c66a.rcgu.o):(.text._ZN4core5slice3raw18from_raw_parts_mut17h1933af19e23a7559E)
42002e20     2e20        0     1                 
42002e20     2e20        0     1                 
42002e20     2e20        0     1                 
42002e20     2e20       32     1                 core::slice::raw::from_raw_parts_mut::h1933af19e23a7559
42002e22     2e22        0     1                 
42002e24     2e24        0     1                 
42002e2c     2e2c        0     1                 
42002e36     2e36        0     1                 
42002e48     2e48        0     1                 
42002e52     2e52        0     1                 
42002e52     2e52        0     1                 
42002e52     2e52        0     1                 
42002e52     2e52        a     2         /Users/mabez/Development/rust/embedded/experiments/esp32c3-experiments/target/riscv32imac-unknown-none-elf/debug/deps/libriscv_atomic_emulation_trap-9111affe446510c3.rlib(riscv_atomic_emulation_trap-9111affe446510c3.r9quz5yo0c3c66a.rcgu.o):(.text._ZN4core5slice3raw20debug_check_data_len17h6c3e4ccd8b606a76E)
42002e52     2e52        0     1                 
42002e52     2e52        0     1                 
42002e52     2e52        0     1                 
42002e52     2e52        a     1                 core::slice::raw::debug_check_data_len::h6c3e4ccd8b606a76
42002e54     2e54        0     1                 
42002e58     2e58        0     1                 
42002e5c     2e5c        0     1                 
42002e5c     2e5c        0     1                 
42002e5c     2e5c        0     1                 
42002e5c     2e5c       20     2         /Users/mabez/Development/rust/embedded/experiments/esp32c3-experiments/target/riscv32imac-unknown-none-elf/debug/deps/libriscv_atomic_emulation_trap-9111affe446510c3.rlib(riscv_atomic_emulation_trap-9111affe446510c3.um9btop5pm89mqk.rcgu.o):(.text._ZN4core5slice29_$LT$impl$u20$$u5b$T$u5d$$GT$4iter17h2153fe728e900249E)
42002e5c     2e5c        0     1                 
42002e5c     2e5c        0     1                 
42002e5c     2e5c        0     1                 
42002e5c     2e5c       20     1                 core::slice::_$LT$impl$u20$$u5b$T$u5d$$GT$::iter::h2153fe728e900249
42002e5e     2e5e        0     1                 
42002e60     2e60        0     1                 
42002e64     2e64        0     1                 
42002e72     2e72        0     1                 
42002e7c     2e7c        0     1                 
42002e7c     2e7c        0     1                 
42002e7c     2e7c        0     1                 
42002e7c     2e7c        a     2         /Users/mabez/Development/rust/embedded/experiments/esp32c3-experiments/target/riscv32imac-unknown-none-elf/debug/deps/libriscv_atomic_emulation_trap-9111affe446510c3.rlib(riscv_atomic_emulation_trap-9111affe446510c3.um9btop5pm89mqk.rcgu.o):(.text._ZN4core5slice29_$LT$impl$u20$$u5b$T$u5d$$GT$6as_ptr17h2de7705933f48860E)
42002e7c     2e7c        0     1                 
42002e7c     2e7c        0     1                 
42002e7c     2e7c        0     1                 
42002e7c     2e7c        a     1                 core::slice::_$LT$impl$u20$$u5b$T$u5d$$GT$::as_ptr::h2de7705933f48860
42002e7e     2e7e        0     1                 
42002e82     2e82        0     1                 
42002e86     2e86        0     1                 
42002e86     2e86        0     1                 
42002e86     2e86        0     1                 
42002e86     2e86       1e     2         /Users/mabez/Development/rust/embedded/experiments/esp32c3-experiments/target/riscv32imac-unknown-none-elf/debug/deps/libriscv-e6570dc03e37c02b.rlib(riscv-e6570dc03e37c02b.riscv.6a3f384f-cgu.11.rcgu.o):(.text._ZN42_$LT$$RF$T$u20$as$u20$core..fmt..Debug$GT$3fmt17h8b34de32347928b2E)
42002e86     2e86        0     1                 
42002e86     2e86        0     1                 
42002e86     2e86        0     1                 
42002e86     2e86       1e     1                 _$LT$$RF$T$u20$as$u20$core..fmt..Debug$GT$::fmt::h8b34de32347928b2
42002e88     2e88        0     1                 
42002e8a     2e8a        0     1                 
42002e8e     2e8e        0     1                 
42002e90     2e90        0     1                 
42002e9c     2e9c        0     1                 
42002ea4     2ea4        0     1                 
42002ea4     2ea4        0     1                 
42002ea4     2ea4        0     1                 
42002ea4     2ea4       86     2         /Users/mabez/Development/rust/embedded/experiments/esp32c3-experiments/target/riscv32imac-unknown-none-elf/debug/deps/libriscv-e6570dc03e37c02b.rlib(riscv-e6570dc03e37c02b.riscv.6a3f384f-cgu.4.rcgu.o):(.text._ZN4core3fmt3num52_$LT$impl$u20$core..fmt..Debug$u20$for$u20$usize$GT$3fmt17h47fb73485a286205E)
42002ea4     2ea4        0     1                 
42002ea4     2ea4        0     1                 
42002ea4     2ea4        0     1                 
42002ea4     2ea4       86     1                 core::fmt::num::_$LT$impl$u20$core..fmt..Debug$u20$for$u20$usize$GT$::fmt::h47fb73485a286205
42002ea6     2ea6        0     1                 
42002ea8     2ea8        0     1                 
42002eb4     2eb4        0     1                 
42002ec0     2ec0        0     1                 
42002ec4     2ec4        0     1                 
42002eca     2eca        0     1                 
42002ed8     2ed8        0     1                 
42002eea     2eea        0     1                 
42002eec     2eec        0     1                 
42002ef6     2ef6        0     1                 
42002efa     2efa        0     1                 
42002f00     2f00        0     1                 
42002f12     2f12        0     1                 
42002f24     2f24        0     1                 
42002f26     2f26        0     1                 
42002f28     2f28        0     1                 
42002f2a     2f2a        0     1                 
42002f2a     2f2a        0     1                 
42002f2a     2f2a        0     1                 
42002f2a     2f2a        8     2         /Users/mabez/Development/rust/embedded/experiments/esp32c3-experiments/target/riscv32imac-unknown-none-elf/debug/deps/libvoid-d8bfa8eb72c6fce6.rlib(void-d8bfa8eb72c6fce6.void.0c48974b-cgu.0.rcgu.o):(.text._ZN47_$LT$void..Void$u20$as$u20$core..fmt..Debug$GT$3fmt17h9fae81d628975b7dE)
42002f2a     2f2a        0     1                 
42002f2a     2f2a        0     1                 
42002f2a     2f2a        0     1                 
42002f2a     2f2a        8     1                 _$LT$void..Void$u20$as$u20$core..fmt..Debug$GT$::fmt::h9fae81d628975b7d
42002f2c     2f2c        0     1                 
42002f30     2f30        0     1                 
42002f30     2f30        0     1                 
42002f32     2f32        0     1                 
42002f32     2f32        0     1                 
42002f32     2f32        0     1                 
42002f32     2f32        0     1                 
42002f32     2f32        4     2         /Users/mabez/.rustup/toolchains/nightly-aarch64-apple-darwin/lib/rustlib/riscv32imac-unknown-none-elf/lib/libcore-081fd8405fc18f2e.rlib(core-081fd8405fc18f2e.core.756fe54c-cgu.0.rcgu.o):(.text._ZN4core3ops8function6FnOnce9call_once17h134f8114ebdb7d96E)
42002f32     2f32        4     1                 core::ops::function::FnOnce::call_once::h134f8114ebdb7d96
42002f32     2f32        0     1                 
42002f32     2f32        0     1                 
42002f32     2f32        0     1                 
42002f32     2f32        0     1                 
42002f34     2f34        0     1                 
42002f34     2f34        0     1                 
42002f36     2f36        0     1                 
42002f36     2f36        0     1                 
42002f36     2f36        0     1                 
42002f36     2f36        0     1                 
42002f36     2f36        2     2         /Users/mabez/.rustup/toolchains/nightly-aarch64-apple-darwin/lib/rustlib/riscv32imac-unknown-none-elf/lib/libcore-081fd8405fc18f2e.rlib(core-081fd8405fc18f2e.core.756fe54c-cgu.0.rcgu.o):(.text._ZN4core3ptr102drop_in_place$LT$$RF$core..iter..adapters..copied..Copied$LT$core..slice..iter..Iter$LT$u8$GT$$GT$$GT$17h5e7623cd2e882fb5E)
42002f36     2f36        2     1                 core::ptr::drop_in_place$LT$$RF$core..iter..adapters..copied..Copied$LT$core..slice..iter..Iter$LT$u8$GT$$GT$$GT$::h5e7623cd2e882fb5
42002f36     2f36        0     1                 
42002f36     2f36        0     1                 
42002f36     2f36        0     1                 
42002f36     2f36        0     1                 
42002f38     2f38        0     1                 
42002f38     2f38        0     1                 
42002f38     2f38        0     1                 
42002f38     2f38       64     2         /Users/mabez/.rustup/toolchains/nightly-aarch64-apple-darwin/lib/rustlib/riscv32imac-unknown-none-elf/lib/libcore-081fd8405fc18f2e.rlib(core-081fd8405fc18f2e.core.756fe54c-cgu.0.rcgu.o):(.text._ZN71_$LT$core..ops..range..Range$LT$Idx$GT$$u20$as$u20$core..fmt..Debug$GT$3fmt17h26c162ed4bde5472E)
42002f38     2f38       64     1                 _$LT$core..ops..range..Range$LT$Idx$GT$$u20$as$u20$core..fmt..Debug$GT$::fmt::h26c162ed4bde5472
42002f38     2f38        0     1                 
42002f38     2f38        0     1                 
42002f38     2f38        0     1                 
42002f3a     2f3a        0     1                 
42002f40     2f40        0     1                 
42002f44     2f44        0     1                 
42002f4e     2f4e        0     1                 
42002f4e     2f4e        0     1                 
42002f52     2f52        0     1                 
42002f6e     2f6e        0     1                 
42002f78     2f78        0     1                 
42002f78     2f78        0     1                 
42002f7a     2f7a        0     1                 
42002f86     2f86        0     1                 
42002f9c     2f9c        0     1                 
42002f9c     2f9c        0     1                 
42002f9c     2f9c        0     1                 
42002f9c     2f9c       12     2         /Users/mabez/.rustup/toolchains/nightly-aarch64-apple-darwin/lib/rustlib/riscv32imac-unknown-none-elf/lib/libcore-081fd8405fc18f2e.rlib(core-081fd8405fc18f2e.core.756fe54c-cgu.0.rcgu.o):(.text._ZN36_$LT$T$u20$as$u20$core..any..Any$GT$7type_id17h3adf7d937aeeb85aE)
42002f9c     2f9c       12     1                 _$LT$T$u20$as$u20$core..any..Any$GT$::type_id::h3adf7d937aeeb85a
42002f9c     2f9c        0     1                 
42002f9c     2f9c        0     1                 
42002f9c     2f9c        0     1                 
42002fac     2fac        0     1                 
42002fae     2fae        0     1                 
42002fae     2fae        0     1                 
42002fae     2fae        0     1                 
42002fae     2fae       2c     2         /Users/mabez/.rustup/toolchains/nightly-aarch64-apple-darwin/lib/rustlib/riscv32imac-unknown-none-elf/lib/libcore-081fd8405fc18f2e.rlib(core-081fd8405fc18f2e.core.756fe54c-cgu.0.rcgu.o):(.text.unlikely._ZN4core9panicking5panic17hcb88193675467c27E)
42002fae     2fae        0     1                 
42002fae     2fae        0     1                 
42002fae     2fae        0     1                 
42002fae     2fae       2c     1                 core::panicking::panic::hcb88193675467c27
42002fb0     2fb0        0     1                 
42002fb0     2fb0        0     1                 
42002fb2     2fb2        0     1                 
42002fb8     2fb8        0     1                 
42002fb8     2fb8        0     1                 
42002fcc     2fcc        0     1                 
42002fcc     2fcc        0     1                 
42002fda     2fda        0     1                 
42002fda     2fda        0     1                 
42002fda     2fda        0     1                 
42002fda     2fda       40     2         /Users/mabez/.rustup/toolchains/nightly-aarch64-apple-darwin/lib/rustlib/riscv32imac-unknown-none-elf/lib/libcore-081fd8405fc18f2e.rlib(core-081fd8405fc18f2e.core.756fe54c-cgu.0.rcgu.o):(.text.unlikely._ZN4core9panicking18panic_bounds_check17ha0dd018763fcb9b8E)
42002fda     2fda        0     1                 
42002fda     2fda        0     1                 
42002fda     2fda        0     1                 
42002fda     2fda       40     1                 core::panicking::panic_bounds_check::ha0dd018763fcb9b8
42002fdc     2fdc        0     1                 
42002fde     2fde        0     1                 
42002fe4     2fe4        0     1                 
42002ff6     2ff6        0     1                 
42002ff6     2ff6        0     1                 
4200300c     300c        0     1                 
4200300c     300c        0     1                 
4200301a     301a        0     1                 
4200301a     301a        0     1                 
4200301a     301a        0     1                 
4200301a     301a       28     2         /Users/mabez/.rustup/toolchains/nightly-aarch64-apple-darwin/lib/rustlib/riscv32imac-unknown-none-elf/lib/libcore-081fd8405fc18f2e.rlib(core-081fd8405fc18f2e.core.756fe54c-cgu.0.rcgu.o):(.text.unlikely._ZN4core9panicking9panic_fmt17he3fbc1a886e3eee3E)
4200301a     301a        0     1                 
4200301a     301a        0     1                 
4200301a     301a        0     1                 
4200301a     301a       28     1                 core::panicking::panic_fmt::he3fbc1a886e3eee3
4200301c     301c        0     1                 
4200301c     301c        0     1                 
4200301c     301c        0     1                 
4200301e     301e        0     1                 
42003036     3036        0     1                 
42003036     3036        0     1                 
42003042     3042        0     1                 
42003042     3042        0     1                 
42003042     3042        0     1                 
42003042     3042       4c     2         /Users/mabez/.rustup/toolchains/nightly-aarch64-apple-darwin/lib/rustlib/riscv32imac-unknown-none-elf/lib/libcore-081fd8405fc18f2e.rlib(core-081fd8405fc18f2e.core.756fe54c-cgu.0.rcgu.o):(.text.unlikely._ZN4core6result13unwrap_failed17h9101565386862f4bE)
42003042     3042        0     1                 
42003042     3042        0     1                 
42003042     3042        0     1                 
42003042     3042       4c     1                 core::result::unwrap_failed::h9101565386862f4b
42003044     3044        0     1                 
42003046     3046        0     1                 
42003050     3050        0     1                 
4200306a     306a        0     1                 
4200306a     306a        0     1                 
42003080     3080        0     1                 
42003080     3080        0     1                 
4200308e     308e        0     1                 
4200308e     308e        0     1                 
4200308e     308e        0     1                 
4200308e     308e      218     2         /Users/mabez/.rustup/toolchains/nightly-aarch64-apple-darwin/lib/rustlib/riscv32imac-unknown-none-elf/lib/libcore-081fd8405fc18f2e.rlib(core-081fd8405fc18f2e.core.756fe54c-cgu.0.rcgu.o):(.text._ZN68_$LT$core..fmt..builders..PadAdapter$u20$as$u20$core..fmt..Write$GT$9write_str17hd9b440f5a6012591E)
4200308e     308e        0     1                 
4200308e     308e        0     1                 
4200308e     308e        0     1                 
4200308e     308e      218     1                 _$LT$core..fmt..builders..PadAdapter$u20$as$u20$core..fmt..Write$GT$::write_str::hd9b440f5a6012591
42003090     3090        0     1                 
42003090     3090        0     1                 
420030aa     30aa        0     1                 
420030ae     30ae        0     1                 
420030e4     30e4        0     1                 
420030e4     30e4        0     1                 
420030ea     30ea        0     1                 
420030ea     30ea        0     1                 
420030ee     30ee        0     1                 
420030f4     30f4        0     1                 
42003102     3102        0     1                 
42003108     3108        0     1                 
42003108     3108        0     1                 
4200310c     310c        0     1                 
4200310c     310c        0     1                 
4200310e     310e        0     1                 
4200310e     310e        0     1                 
42003112     3112        0     1                 
42003112     3112        0     1                 
42003116     3116        0     1                 
42003116     3116        0     1                 
42003118     3118        0     1                 
4200311a     311a        0     1                 
4200311a     311a        0     1                 
4200311e     311e        0     1                 
4200311e     311e        0     1                 
42003126     3126        0     1                 
4200312e     312e        0     1                 
4200312e     312e        0     1                 
42003134     3134        0     1                 
42003138     3138        0     1                 
42003138     3138        0     1                 
4200313a     313a        0     1                 
4200313c     313c        0     1                 
42003140     3140        0     1                 
42003144     3144        0     1                 
42003144     3144        0     1                 
42003148     3148        0     1                 
42003148     3148        0     1                 
42003150     3150        0     1                 
42003152     3152        0     1                 
42003152     3152        0     1                 
42003156     3156        0     1                 
42003156     3156        0     1                 
4200315a     315a        0     1                 
4200315e     315e        0     1                 
4200316c     316c        0     1                 
42003172     3172        0     1                 
42003174     3174        0     1                 
42003178     3178        0     1                 
4200317c     317c        0     1                 
42003180     3180        0     1                 
42003180     3180        0     1                 
42003182     3182        0     1                 
42003182     3182        0     1                 
42003188     3188        0     1                 
42003188     3188        0     1                 
4200318c     318c        0     1                 
4200318c     318c        0     1                 
4200318e     318e        0     1                 
4200318e     318e        0     1                 
42003194     3194        0     1                 
42003194     3194        0     1                 
42003198     3198        0     1                 
42003198     3198        0     1                 
4200319e     319e        0     1                 
420031ac     31ac        0     1                 
420031ac     31ac        0     1                 
420031b4     31b4        0     1                 
420031b4     31b4        0     1                 
420031b8     31b8        0     1                 
420031b8     31b8        0     1                 
420031c0     31c0        0     1                 
420031c8     31c8        0     1                 
420031c8     31c8        0     1                 
420031cc     31cc        0     1                 
420031cc     31cc        0     1                 
420031d0     31d0        0     1                 
420031dc     31dc        0     1                 
420031e0     31e0        0     1                 
420031e0     31e0        0     1                 
420031e2     31e2        0     1                 
420031e2     31e2        0     1                 
420031e6     31e6        0     1                 
420031e6     31e6        0     1                 
420031ea     31ea        0     1                 
420031ea     31ea        0     1                 
420031f8     31f8        0     1                 
42003208     3208        0     1                 
42003218     3218        0     1                 
42003218     3218        0     1                 
4200321c     321c        0     1                 
4200321c     321c        0     1                 
42003224     3224        0     1                 
42003224     3224        0     1                 
42003230     3230        0     1                 
42003230     3230        0     1                 
42003234     3234        0     1                 
42003234     3234        0     1                 
4200323c     323c        0     1                 
4200323c     323c        0     1                 
42003256     3256        0     1                 
42003256     3256        0     1                 
4200325c     325c        0     1                 
4200327a     327a        0     1                 
4200327a     327a        0     1                 
42003294     3294        0     1                 
42003294     3294        0     1                 
420032a6     32a6        0     1                 
420032a6     32a6        0     1                 
420032a6     32a6        0     1                 
420032a6     32a6        0     1                 
420032a6     32a6      17a     2         /Users/mabez/.rustup/toolchains/nightly-aarch64-apple-darwin/lib/rustlib/riscv32imac-unknown-none-elf/lib/libcore-081fd8405fc18f2e.rlib(core-081fd8405fc18f2e.core.756fe54c-cgu.0.rcgu.o):(.text._ZN4core3fmt8builders11DebugStruct5field17h36045ddc8dfacda6E)
420032a6     32a6        0     1                 
420032a6     32a6        0     1                 
420032a6     32a6        0     1                 
420032a6     32a6      17a     1                 core::fmt::builders::DebugStruct::field::h36045ddc8dfacda6
420032a8     32a8        0     1                 
420032ba     32ba        0     1                 
420032bc     32bc        0     1                 
420032c4     32c4        0     1                 
420032c4     32c4        0     1                 
420032c6     32c6        0     1                 
420032c6     32c6        0     1                 
420032ca     32ca        0     1                 
420032ce     32ce        0     1                 
420032e6     32e6        0     1                 
420032ee     32ee        0     1                 
420032ee     32ee        0     1                 
420032f2     32f2        0     1                 
420032f2     32f2        0     1                 
420032f6     32f6        0     1                 
420032f6     32f6        0     1                 
420032fa     32fa        0     1                 
420032fa     32fa        0     1                 
420032fc     32fc        0     1                 
420032fc     32fc        0     1                 
42003300     3300        0     1                 
42003302     3302        0     1                 
42003304     3304        0     1                 
4200330e     330e        0     1                 
42003310     3310        0     1                 
42003310     3310        0     1                 
42003328     3328        0     1                 
42003328     3328        0     1                 
4200332a     332a        0     1                 
4200332c     332c        0     1                 
42003330     3330        0     1                 
42003330     3330        0     1                 
42003338     3338        0     1                 
42003338     3338        0     1                 
42003342     3342        0     1                 
42003342     3342        0     1                 
42003346     3346        0     1                 
4200334a     334a        0     1                 
4200334e     334e        0     1                 
42003356     3356        0     1                 
4200335e     335e        0     1                 
4200337c     337c        0     1                 
4200337c     337c        0     1                 
4200338a     338a        0     1                 
4200338a     338a        0     1                 
4200338c     338c        0     1                 
4200338c     338c        0     1                 
420033a0     33a0        0     1                 
420033a0     33a0        0     1                 
420033a2     33a2        0     1                 
420033ae     33ae        0     1                 
420033ae     33ae        0     1                 
420033c2     33c2        0     1                 
420033c2     33c2        0     1                 
420033ca     33ca        0     1                 
420033ca     33ca        0     1                 
420033d4     33d4        0     1                 
420033d4     33d4        0     1                 
420033d8     33d8        0     1                 
420033d8     33d8        0     1                 
420033dc     33dc        0     1                 
420033dc     33dc        0     1                 
420033e0     33e0        0     1                 
420033e0     33e0        0     1                 
420033f6     33f6        0     1                 
420033f6     33f6        0     1                 
42003412     3412        0     1                 
42003412     3412        0     1                 
4200341c     341c        0     1                 
42003420     3420        0     1                 
42003420     3420        0     1                 
42003420     3420        0     1                 
42003420     3420        0     1                 
42003420     3420       56     2         /Users/mabez/.rustup/toolchains/nightly-aarch64-apple-darwin/lib/rustlib/riscv32imac-unknown-none-elf/lib/libcore-081fd8405fc18f2e.rlib(core-081fd8405fc18f2e.core.756fe54c-cgu.0.rcgu.o):(.text._ZN4core3fmt8builders11DebugStruct6finish17h8a6af4452fa36e4eE)
42003420     3420        0     1                 
42003420     3420        0     1                 
42003420     3420        0     1                 
42003420     3420       56     1                 core::fmt::builders::DebugStruct::finish::h8a6af4452fa36e4e
42003422     3422        0     1                 
42003426     3426        0     1                 
42003428     3428        0     1                 
4200342c     342c        0     1                 
42003430     3430        0     1                 
42003432     3432        0     1                 
42003434     3434        0     1                 
42003434     3434        0     1                 
42003436     3436        0     1                 
42003436     3436        0     1                 
42003438     3438        0     1                 
42003438     3438        0     1                 
4200343e     343e        0     1                 
4200343e     343e        0     1                 
42003440     3440        0     1                 
42003440     3440        0     1                 
42003452     3452        0     1                 
42003452     3452        0     1                 
42003462     3462        0     1                 
42003462     3462        0     1                 
42003464     3464        0     1                 
42003464     3464        0     1                 
4200346a     346a        0     1                 
4200346e     346e        0     1                 
42003476     3476        0     1                 
42003476     3476        0     1                 
42003476     3476        0     1                 
42003476     3476      104     2         /Users/mabez/.rustup/toolchains/nightly-aarch64-apple-darwin/lib/rustlib/riscv32imac-unknown-none-elf/lib/libcore-081fd8405fc18f2e.rlib(core-081fd8405fc18f2e.core.756fe54c-cgu.0.rcgu.o):(.text._ZN4core3fmt8builders10DebugTuple5field17h49da9f1f0416493bE)
42003476     3476        0     1                 
42003476     3476        0     1                 
42003476     3476        0     1                 
42003476     3476      104     1                 core::fmt::builders::DebugTuple::field::h49da9f1f0416493b
42003478     3478        0     1                 
42003486     3486        0     1                 
42003488     3488        0     1                 
4200348c     348c        0     1                 
4200348c     348c        0     1                 
4200348e     348e        0     1                 
4200348e     348e        0     1                 
42003496     3496        0     1                 
4200349a     349a        0     1                 
4200349a     349a        0     1                 
4200349c     349c        0     1                 
4200349c     349c        0     1                 
420034a0     34a0        0     1                 
420034a0     34a0        0     1                 
420034a4     34a4        0     1                 
420034a4     34a4        0     1                 
420034a6     34a6        0     1                 
420034a6     34a6        0     1                 
420034aa     34aa        0     1                 
420034ac     34ac        0     1                 
420034ae     34ae        0     1                 
420034b8     34b8        0     1                 
420034ba     34ba        0     1                 
420034ba     34ba        0     1                 
420034cc     34cc        0     1                 
420034cc     34cc        0     1                 
420034ce     34ce        0     1                 
420034d6     34d6        0     1                 
420034da     34da        0     1                 
420034da     34da        0     1                 
420034de     34de        0     1                 
420034de     34de        0     1                 
420034e8     34e8        0     1                 
420034e8     34e8        0     1                 
420034ea     34ea        0     1                 
420034ec     34ec        0     1                 
420034f0     34f0        0     1                 
420034f4     34f4        0     1                 
420034f8     34f8        0     1                 
4200350c     350c        0     1                 
4200350c     350c        0     1                 
42003510     3510        0     1                 
42003510     3510        0     1                 
4200351a     351a        0     1                 
4200351a     351a        0     1                 
42003522     3522        0     1                 
42003522     3522        0     1                 
42003536     3536        0     1                 
42003536     3536        0     1                 
4200353e     353e        0     1                 
4200353e     353e        0     1                 
42003546     3546        0     1                 
42003546     3546        0     1                 
4200354a     354a        0     1                 
4200354a     354a        0     1                 
4200354e     354e        0     1                 
4200354e     354e        0     1                 
42003550     3550        0     1                 
4200355a     355a        0     1                 
4200355c     355c        0     1                 
4200355c     355c        0     1                 
42003560     3560        0     1                 
42003566     3566        0     1                 
4200357a     357a        0     1                 
4200357a     357a        0     1                 
4200357a     357a        0     1                 
4200357a     357a       b4     2         /Users/mabez/.rustup/toolchains/nightly-aarch64-apple-darwin/lib/rustlib/riscv32imac-unknown-none-elf/lib/libcore-081fd8405fc18f2e.rlib(core-081fd8405fc18f2e.core.756fe54c-cgu.0.rcgu.o):(.text._ZN4core3fmt5Write10write_char17h8a73e8231019fcd3E)
4200357a     357a       b4     1                 core::fmt::Write::write_char::h8a73e8231019fcd3
4200357a     357a        0     1                 
4200357a     357a        0     1                 
4200357a     357a        0     1                 
4200357c     357c        0     1                 
4200357e     357e        0     1                 
42003582     3582        0     1                 
42003584     3584        0     1                 
42003584     3584        0     1                 
42003588     3588        0     1                 
42003588     3588        0     1                 
42003590     3590        0     1                 
42003590     3590        0     1                 
42003596     3596        0     1                 
42003596     3596        0     1                 
4200359a     359a        0     1                 
420035a2     35a2        0     1                 
420035a6     35a6        0     1                 
420035b2     35b2        0     1                 
420035b2     35b2        0     1                 
420035b6     35b6        0     1                 
420035b8     35b8        0     1                 
420035b8     35b8        0     1                 
420035bc     35bc        0     1                 
420035c4     35c4        0     1                 
420035c8     35c8        0     1                 
420035cc     35cc        0     1                 
420035d4     35d4        0     1                 
420035d8     35d8        0     1                 
420035e4     35e4        0     1                 
420035e8     35e8        0     1                 
420035f0     35f0        0     1                 
420035f4     35f4        0     1                 
420035f8     35f8        0     1                 
42003600     3600        0     1                 
42003604     3604        0     1                 
42003608     3608        0     1                 
42003610     3610        0     1                 
42003614     3614        0     1                 
4200361e     361e        0     1                 
4200361e     361e        0     1                 
42003628     3628        0     1                 
4200362e     362e        0     1                 
4200362e     362e        0     1                 
4200362e     362e        0     1                 
4200362e     362e       38     2         /Users/mabez/.rustup/toolchains/nightly-aarch64-apple-darwin/lib/rustlib/riscv32imac-unknown-none-elf/lib/libcore-081fd8405fc18f2e.rlib(core-081fd8405fc18f2e.core.756fe54c-cgu.0.rcgu.o):(.text._ZN4core3fmt5Write9write_fmt17he9b025ca87bb8aa5E)
4200362e     362e       38     1                 core::fmt::Write::write_fmt::he9b025ca87bb8aa5
4200362e     362e        0     1                 
4200362e     362e        0     1                 
4200362e     362e        0     1                 
42003630     3630        0     1                 
42003630     3630        0     1                 
42003632     3632        0     1                 
4200364c     364c        0     1                 
42003660     3660        0     1                 
42003666     3666        0     1                 
42003666     3666        0     1                 
42003666     3666        0     1                 
42003666     3666        a     2         /Users/mabez/.rustup/toolchains/nightly-aarch64-apple-darwin/lib/rustlib/riscv32imac-unknown-none-elf/lib/libcore-081fd8405fc18f2e.rlib(core-081fd8405fc18f2e.core.756fe54c-cgu.0.rcgu.o):(.text._ZN50_$LT$$RF$mut$u20$W$u20$as$u20$core..fmt..Write$GT$9write_str17h813eddac1770bcddE)
42003666     3666        a     1                 _$LT$$RF$mut$u20$W$u20$as$u20$core..fmt..Write$GT$::write_str::h813eddac1770bcdd
42003666     3666        0     1                 
42003666     3666        0     1                 
42003666     3666        0     1                 
42003666     3666        0     1                 
42003670     3670        0     1                 
42003670     3670        0     1                 
42003670     3670        0     1                 
42003670     3670       b6     2         /Users/mabez/.rustup/toolchains/nightly-aarch64-apple-darwin/lib/rustlib/riscv32imac-unknown-none-elf/lib/libcore-081fd8405fc18f2e.rlib(core-081fd8405fc18f2e.core.756fe54c-cgu.0.rcgu.o):(.text._ZN50_$LT$$RF$mut$u20$W$u20$as$u20$core..fmt..Write$GT$10write_char17h6bf017e662467e3aE)
42003670     3670       b6     1                 _$LT$$RF$mut$u20$W$u20$as$u20$core..fmt..Write$GT$::write_char::h6bf017e662467e3a
42003670     3670        0     1                 
42003670     3670        0     1                 
42003670     3670        0     1                 
42003672     3672        0     1                 
42003672     3672        0     1                 
42003674     3674        0     1                 
4200367a     367a        0     1                 
4200367a     367a        0     1                 
4200367c     367c        0     1                 
4200367c     367c        0     1                 
42003680     3680        0     1                 
42003680     3680        0     1                 
42003688     3688        0     1                 
42003688     3688        0     1                 
4200368e     368e        0     1                 
4200368e     368e        0     1                 
42003692     3692        0     1                 
4200369a     369a        0     1                 
4200369e     369e        0     1                 
420036aa     36aa        0     1                 
420036aa     36aa        0     1                 
420036ae     36ae        0     1                 
420036b0     36b0        0     1                 
420036b0     36b0        0     1                 
420036b4     36b4        0     1                 
420036bc     36bc        0     1                 
420036c0     36c0        0     1                 
420036c4     36c4        0     1                 
420036cc     36cc        0     1                 
420036d0     36d0        0     1                 
420036dc     36dc        0     1                 
420036e0     36e0        0     1                 
420036e8     36e8        0     1                 
420036ec     36ec        0     1                 
420036f0     36f0        0     1                 
420036f8     36f8        0     1                 
420036fc     36fc        0     1                 
42003700     3700        0     1                 
42003708     3708        0     1                 
4200370c     370c        0     1                 
42003716     3716        0     1                 
42003716     3716        0     1                 
42003720     3720        0     1                 
42003720     3720        0     1                 
42003726     3726        0     1                 
42003726     3726        0     1                 
42003726     3726        0     1                 
42003726     3726       3a     2         /Users/mabez/.rustup/toolchains/nightly-aarch64-apple-darwin/lib/rustlib/riscv32imac-unknown-none-elf/lib/libcore-081fd8405fc18f2e.rlib(core-081fd8405fc18f2e.core.756fe54c-cgu.0.rcgu.o):(.text._ZN50_$LT$$RF$mut$u20$W$u20$as$u20$core..fmt..Write$GT$9write_fmt17h561c6f3de79c90bdE)
42003726     3726       3a     1                 _$LT$$RF$mut$u20$W$u20$as$u20$core..fmt..Write$GT$::write_fmt::h561c6f3de79c90bd
42003726     3726        0     1                 
42003726     3726        0     1                 
42003726     3726        0     1                 
42003728     3728        0     1                 
42003728     3728        0     1                 
4200372a     372a        0     1                 
4200372c     372c        0     1                 
4200372c     372c        0     1                 
42003746     3746        0     1                 
4200375a     375a        0     1                 
4200375a     375a        0     1                 
42003760     3760        0     1                 
42003760     3760        0     1                 
42003760     3760        0     1                 
42003760     3760      190     2         /Users/mabez/.rustup/toolchains/nightly-aarch64-apple-darwin/lib/rustlib/riscv32imac-unknown-none-elf/lib/libcore-081fd8405fc18f2e.rlib(core-081fd8405fc18f2e.core.756fe54c-cgu.0.rcgu.o):(.text._ZN4core3fmt5write17h569b08c890cb589cE)
42003760     3760        0     1                 
42003760     3760        0     1                 
42003760     3760        0     1                 
42003760     3760      190     1                 core::fmt::write::h569b08c890cb589c
42003762     3762        0     1                 
42003772     3772        0     1                 
42003774     3774        0     1                 
42003774     3774        0     1                 
42003782     3782        0     1                 
42003782     3782        0     1                 
42003786     3786        0     1                 
42003786     3786        0     1                 
4200378e     378e        0     1                 
4200378e     378e        0     1                 
42003790     3790        0     1                 
42003794     3794        0     1                 
42003794     3794        0     1                 
42003798     3798        0     1                 
4200379c     379c        0     1                 
420037bc     37bc        0     1                 
420037bc     37bc        0     1                 
420037be     37be        0     1                 
420037c0     37c0        0     1                 
420037c4     37c4        0     1                 
420037c8     37c8        0     1                 
420037d0     37d0        0     1                 
420037d0     37d0        0     1                 
420037d4     37d4        0     1                 
420037d6     37d6        0     1                 
420037da     37da        0     1                 
420037de     37de        0     1                 
420037e2     37e2        0     1                 
420037e2     37e2        0     1                 
420037e6     37e6        0     1                 
420037e6     37e6        0     1                 
420037e8     37e8        0     1                 
420037ec     37ec        0     1                 
420037ec     37ec        0     1                 
420037ee     37ee        0     1                 
420037f0     37f0        0     1                 
420037f4     37f4        0     1                 
420037f4     37f4        0     1                 
420037fe     37fe        0     1                 
42003802     3802        0     1                 
42003804     3804        0     1                 
42003806     3806        0     1                 
42003806     3806        0     1                 
42003808     3808        0     1                 
4200380c     380c        0     1                 
42003812     3812        0     1                 
42003812     3812        0     1                 
42003814     3814        0     1                 
42003816     3816        0     1                 
4200381a     381a        0     1                 
4200381a     381a        0     1                 
42003824     3824        0     1                 
42003828     3828        0     1                 
4200382a     382a        0     1                 
4200382c     382c        0     1                 
4200382c     382c        0     1                 
4200382e     382e        0     1                 
42003832     3832        0     1                 
42003836     3836        0     1                 
42003836     3836        0     1                 
4200383a     383a        0     1                 
4200383a     383a        0     1                 
4200383c     383c        0     1                 
4200383e     383e        0     1                 
42003842     3842        0     1                 
42003842     3842        0     1                 
42003844     3844        0     1                 
42003844     3844        0     1                 
42003852     3852        0     1                 
42003852     3852        0     1                 
42003856     3856        0     1                 
42003856     3856        0     1                 
42003858     3858        0     1                 
42003858     3858        0     1                 
42003860     3860        0     1                 
42003860     3860        0     1                 
42003874     3874        0     1                 
42003874     3874        0     1                 
42003876     3876        0     1                 
42003878     3878        0     1                 
4200387c     387c        0     1                 
42003880     3880        0     1                 
42003886     3886        0     1                 
42003888     3888        0     1                 
4200388c     388c        0     1                 
42003892     3892        0     1                 
42003892     3892        0     1                 
4200389e     389e        0     1                 
4200389e     389e        0     1                 
420038a0     38a0        0     1                 
420038a4     38a4        0     1                 
420038a4     38a4        0     1                 
420038a8     38a8        0     1                 
420038a8     38a8        0     1                 
420038aa     38aa        0     1                 
420038b0     38b0        0     1                 
420038b2     38b2        0     1                 
420038b6     38b6        0     1                 
420038b6     38b6        0     1                 
420038ba     38ba        0     1                 
420038ba     38ba        0     1                 
420038c4     38c4        0     1                 
420038c8     38c8        0     1                 
420038cc     38cc        0     1                 
420038d0     38d0        0     1                 
420038d6     38d6        0     1                 
420038dc     38dc        0     1                 
420038f0     38f0        0     1                 
420038f0     38f0        0     1                 
420038f0     38f0        0     1                 
420038f0     38f0      25c     2         /Users/mabez/.rustup/toolchains/nightly-aarch64-apple-darwin/lib/rustlib/riscv32imac-unknown-none-elf/lib/libcore-081fd8405fc18f2e.rlib(core-081fd8405fc18f2e.core.756fe54c-cgu.0.rcgu.o):(.text._ZN4core3fmt9Formatter12pad_integral17hc68348d30279f37dE)
420038f0     38f0        0     1                 
420038f0     38f0        0     1                 
420038f0     38f0        0     1                 
420038f0     38f0      25c     1                 core::fmt::Formatter::pad_integral::hc68348d30279f37d
420038f2     38f2        0     1                 
4200390a     390a        0     1                 
42003912     3912        0     1                 
42003914     3914        0     1                 
42003914     3914        0     1                 
42003920     3920        0     1                 
42003920     3920        0     1                 
42003922     3922        0     1                 
42003926     3926        0     1                 
4200392a     392a        0     1                 
4200392a     392a        0     1                 
4200392e     392e        0     1                 
4200392e     392e        0     1                 
42003930     3930        0     1                 
42003932     3932        0     1                 
42003932     3932        0     1                 
42003936     3936        0     1                 
42003936     3936        0     1                 
4200393e     393e        0     1                 
42003942     3942        0     1                 
42003942     3942        0     1                 
42003944     3944        0     1                 
42003944     3944        0     1                 
42003948     3948        0     1                 
42003948     3948        0     1                 
4200394a     394a        0     1                 
4200394a     394a        0     1                 
4200394c     394c        0     1                 
4200394c     394c        0     1                 
4200394e     394e        0     1                 
4200394e     394e        0     1                 
42003952     3952        0     1                 
42003956     3956        0     1                 
4200395a     395a        0     1                 
4200395a     395a        0     1                 
4200395e     395e        0     1                 
4200395e     395e        0     1                 
42003966     3966        0     1                 
42003966     3966        0     1                 
4200396a     396a        0     1                 
4200396a     396a        0     1                 
4200396c     396c        0     1                 
4200396e     396e        0     1                 
42003972     3972        0     1                 
42003974     3974        0     1                 
42003978     3978        0     1                 
4200397c     397c        0     1                 
4200397c     397c        0     1                 
4200397e     397e        0     1                 
4200397e     397e        0     1                 
42003980     3980        0     1                 
42003980     3980        0     1                 
4200398c     398c        0     1                 
4200398e     398e        0     1                 
42003992     3992        0     1                 
42003992     3992        0     1                 
4200399a     399a        0     1                 
4200399a     399a        0     1                 
4200399e     399e        0     1                 
4200399e     399e        0     1                 
420039b6     39b6        0     1                 
420039d4     39d4        0     1                 
420039fe     39fe        0     1                 
420039fe     39fe        0     1                 
42003a06     3a06        0     1                 
42003a06     3a06        0     1                 
42003a0a     3a0a        0     1                 
42003a0a     3a0a        0     1                 
42003a10     3a10        0     1                 
42003a10     3a10        0     1                 
42003a14     3a14        0     1                 
42003a14     3a14        0     1                 
42003a26     3a26        0     1                 
42003a26     3a26        0     1                 
42003a2e     3a2e        0     1                 
42003a32     3a32        0     1                 
42003a34     3a34        0     1                 
42003a38     3a38        0     1                 
42003a38     3a38        0     1                 
42003a3c     3a3c        0     1                 
42003a3c     3a3c        0     1                 
42003a3e     3a3e        0     1                 
42003a40     3a40        0     1                 
42003a44     3a44        0     1                 
42003a44     3a44        0     1                 
42003a4e     3a4e        0     1                 
42003a4e     3a4e        0     1                 
42003a52     3a52        0     1                 
42003a54     3a54        0     1                 
42003a58     3a58        0     1                 
42003a64     3a64        0     1                 
42003a68     3a68        0     1                 
42003a68     3a68        0     1                 
42003a6a     3a6a        0     1                 
42003a6a     3a6a        0     1                 
42003a6c     3a6c        0     1                 
42003a6c     3a6c        0     1                 
42003a78     3a78        0     1                 
42003a78     3a78        0     1                 
42003a7e     3a7e        0     1                 
42003a82     3a82        0     1                 
42003a94     3a94        0     1                 
42003aa6     3aa6        0     1                 
42003ab4     3ab4        0     1                 
42003ab4     3ab4        0     1                 
42003ab6     3ab6        0     1                 
42003ab6     3ab6        0     1                 
42003ab8     3ab8        0     1                 
42003ab8     3ab8        0     1                 
42003ac6     3ac6        0     1                 
42003ac6     3ac6        0     1                 
42003acc     3acc        0     1                 
42003acc     3acc        0     1                 
42003ad0     3ad0        0     1                 
42003ad2     3ad2        0     1                 
42003ad6     3ad6        0     1                 
42003ae2     3ae2        0     1                 
42003ae6     3ae6        0     1                 
42003ae6     3ae6        0     1                 
42003ae8     3ae8        0     1                 
42003ae8     3ae8        0     1                 
42003aea     3aea        0     1                 
42003aea     3aea        0     1                 
42003af4     3af4        0     1                 
42003af4     3af4        0     1                 
42003afe     3afe        0     1                 
42003b02     3b02        0     1                 
42003b16     3b16        0     1                 
42003b20     3b20        0     1                 
42003b20     3b20        0     1                 
42003b24     3b24        0     1                 
42003b24     3b24        0     1                 
42003b26     3b26        0     1                 
42003b26     3b26        0     1                 
42003b28     3b28        0     1                 
42003b28     3b28        0     1                 
42003b30     3b30        0     1                 
42003b30     3b30        0     1                 
42003b34     3b34        0     1                 
42003b34     3b34        0     1                 
42003b38     3b38        0     1                 
42003b3a     3b3a        0     1                 
42003b3e     3b3e        0     1                 
42003b44     3b44        0     1                 
42003b46     3b46        0     1                 
42003b46     3b46        0     1                 
42003b4c     3b4c        0     1                 
42003b4c     3b4c        0     1                 
42003b4c     3b4c        0     1                 
42003b4c     3b4c        0     1                 
42003b4c     3b4c       4c     2         /Users/mabez/.rustup/toolchains/nightly-aarch64-apple-darwin/lib/rustlib/riscv32imac-unknown-none-elf/lib/libcore-081fd8405fc18f2e.rlib(core-081fd8405fc18f2e.core.756fe54c-cgu.0.rcgu.o):(.text._ZN4core3fmt9Formatter12pad_integral12write_prefix17h92a836cf93074e90E)
42003b4c     3b4c       4c     1                 core::fmt::Formatter::pad_integral::write_prefix::h92a836cf93074e90
42003b4c     3b4c        0     1                 
42003b4c     3b4c        0     1                 
42003b4c     3b4c        0     1                 
42003b4e     3b4e        0     1                 
42003b56     3b56        0     1                 
42003b60     3b60        0     1                 
42003b64     3b64        0     1                 
42003b72     3b72        0     1                 
42003b74     3b74        0     1                 
42003b8a     3b8a        0     1                 
42003b8c     3b8c        0     1                 
42003b98     3b98        0     1                 
42003b98     3b98        0     1                 
42003b98     3b98        0     1                 
42003b98     3b98      292     2         /Users/mabez/.rustup/toolchains/nightly-aarch64-apple-darwin/lib/rustlib/riscv32imac-unknown-none-elf/lib/libcore-081fd8405fc18f2e.rlib(core-081fd8405fc18f2e.core.756fe54c-cgu.0.rcgu.o):(.text._ZN4core3fmt9Formatter3pad17h3ab584cac1d27d6eE)
42003b98     3b98        0     1                 
42003b98     3b98        0     1                 
42003b98     3b98        0     1                 
42003b98     3b98      292     1                 core::fmt::Formatter::pad::h3ab584cac1d27d6e
42003b9a     3b9a        0     1                 
42003b9a     3b9a        0     1                 
42003bac     3bac        0     1                 
42003bae     3bae        0     1                 
42003bb4     3bb4        0     1                 
42003bbe     3bbe        0     1                 
42003bc2     3bc2        0     1                 
42003bc6     3bc6        0     1                 
42003bca     3bca        0     1                 
42003bcc     3bcc        0     1                 
42003bd4     3bd4        0     1                 
42003bd4     3bd4        0     1                 
42003bda     3bda        0     1                 
42003bda     3bda        0     1                 
42003bdc     3bdc        0     1                 
42003bdc     3bdc        0     1                 
42003bec     3bec        0     1                 
42003bec     3bec        0     1                 
42003bf0     3bf0        0     1                 
42003bf0     3bf0        0     1                 
42003bf2     3bf2        0     1                 
42003bf2     3bf2        0     1                 
42003bf6     3bf6        0     1                 
42003bf6     3bf6        0     1                 
42003bfc     3bfc        0     1                 
42003bfc     3bfc        0     1                 
42003c0a     3c0a        0     1                 
42003c0a     3c0a        0     1                 
42003c0e     3c0e        0     1                 
42003c0e     3c0e        0     1                 
42003c12     3c12        0     1                 
42003c14     3c14        0     1                 
42003c14     3c14        0     1                 
42003c16     3c16        0     1                 
42003c16     3c16        0     1                 
42003c1a     3c1a        0     1                 
42003c1a     3c1a        0     1                 
42003c1c     3c1c        0     1                 
42003c1c     3c1c        0     1                 
42003c20     3c20        0     1                 
42003c20     3c20        0     1                 
42003c24     3c24        0     1                 
42003c24     3c24        0     1                 
42003c28     3c28        0     1                 
42003c28     3c28        0     1                 
42003c2c     3c2c        0     1                 
42003c2c     3c2c        0     1                 
42003c30     3c30        0     1                 
42003c30     3c30        0     1                 
42003c34     3c34        0     1                 
42003c34     3c34        0     1                 
42003c38     3c38        0     1                 
42003c38     3c38        0     1                 
42003c40     3c40        0     1                 
42003c40     3c40        0     1                 
42003c46     3c46        0     1                 
42003c4e     3c4e        0     1                 
42003c52     3c52        0     1                 
42003c52     3c52        0     1                 
42003c56     3c56        0     1                 
42003c56     3c56        0     1                 
42003c5a     3c5a        0     1                 
42003c5a     3c5a        0     1                 
42003c5c     3c5c        0     1                 
42003c5c     3c5c        0     1                 
42003c60     3c60        0     1                 
42003c60     3c60        0     1                 
42003c66     3c66        0     1                 
42003c6a     3c6a        0     1                 
42003c6e     3c6e        0     1                 
42003c6e     3c6e        0     1                 
42003c72     3c72        0     1                 
42003c72     3c72        0     1                 
42003c7a     3c7a        0     1                 
42003c7a     3c7a        0     1                 
42003c7e     3c7e        0     1                 
42003c7e     3c7e        0     1                 
42003c82     3c82        0     1                 
42003c86     3c86        0     1                 
42003c86     3c86        0     1                 
42003c88     3c88        0     1                 
42003c8c     3c8c        0     1                 
42003c90     3c90        0     1                 
42003c98     3c98        0     1                 
42003c98     3c98        0     1                 
42003c9c     3c9c        0     1                 
42003c9c     3c9c        0     1                 
42003ca2     3ca2        0     1                 
42003ca2     3ca2        0     1                 
42003ca6     3ca6        0     1                 
42003ca6     3ca6        0     1                 
42003cae     3cae        0     1                 
42003cae     3cae        0     1                 
42003cb2     3cb2        0     1                 
42003cb2     3cb2        0     1                 
42003cb6     3cb6        0     1                 
42003cb6     3cb6        0     1                 
42003cba     3cba        0     1                 
42003cba     3cba        0     1                 
42003cc4     3cc4        0     1                 
42003cc4     3cc4        0     1                 
42003cca     3cca        0     1                 
42003cca     3cca        0     1                 
42003cd0     3cd0        0     1                 
42003cd0     3cd0        0     1                 
42003cd4     3cd4        0     1                 
42003cd4     3cd4        0     1                 
42003cd6     3cd6        0     1                 
42003cd6     3cd6        0     1                 
42003cda     3cda        0     1                 
42003cda     3cda        0     1                 
42003cde     3cde        0     1                 
42003cde     3cde        0     1                 
42003ce2     3ce2        0     1                 
42003ce4     3ce4        0     1                 
42003ce6     3ce6        0     1                 
42003ce6     3ce6        0     1                 
42003cea     3cea        0     1                 
42003cee     3cee        0     1                 
42003cf6     3cf6        0     1                 
42003cfe     3cfe        0     1                 
42003cfe     3cfe        0     1                 
42003d02     3d02        0     1                 
42003d02     3d02        0     1                 
42003d04     3d04        0     1                 
42003d04     3d04        0     1                 
42003d08     3d08        0     1                 
42003d08     3d08        0     1                 
42003d0a     3d0a        0     1                 
42003d0a     3d0a        0     1                 
42003d0e     3d0e        0     1                 
42003d0e     3d0e        0     1                 
42003d12     3d12        0     1                 
42003d12     3d12        0     1                 
42003d1e     3d1e        0     1                 
42003d20     3d20        0     1                 
42003d24     3d24        0     1                 
42003d24     3d24        0     1                 
42003d2a     3d2a        0     1                 
42003d2a     3d2a        0     1                 
42003d2e     3d2e        0     1                 
42003d2e     3d2e        0     1                 
42003d58     3d58        0     1                 
42003d58     3d58        0     1                 
42003d5c     3d5c        0     1                 
42003d5e     3d5e        0     1                 
42003d62     3d62        0     1                 
42003d6c     3d6c        0     1                 
42003d70     3d70        0     1                 
42003d70     3d70        0     1                 
42003d72     3d72        0     1                 
42003d72     3d72        0     1                 
42003d74     3d74        0     1                 
42003d74     3d74        0     1                 
42003d80     3d80        0     1                 
42003d80     3d80        0     1                 
42003d8a     3d8a        0     1                 
42003d8e     3d8e        0     1                 
42003d9c     3d9c        0     1                 
42003d9e     3d9e        0     1                 
42003d9e     3d9e        0     1                 
42003da2     3da2        0     1                 
42003da2     3da2        0     1                 
42003da6     3da6        0     1                 
42003da6     3da6        0     1                 
42003da8     3da8        0     1                 
42003da8     3da8        0     1                 
42003db6     3db6        0     1                 
42003db6     3db6        0     1                 
42003dbe     3dbe        0     1                 
42003dbe     3dbe        0     1                 
42003dc2     3dc2        0     1                 
42003dc2     3dc2        0     1                 
42003dc6     3dc6        0     1                 
42003dc6     3dc6        0     1                 
42003dca     3dca        0     1                 
42003dca     3dca        0     1                 
42003dcc     3dcc        0     1                 
42003dcc     3dcc        0     1                 
42003dd4     3dd4        0     1                 
42003dd4     3dd4        0     1                 
42003dda     3dda        0     1                 
42003dda     3dda        0     1                 
42003ddc     3ddc        0     1                 
42003ddc     3ddc        0     1                 
42003de0     3de0        0     1                 
42003de0     3de0        0     1                 
42003df8     3df8        0     1                 
42003e00     3e00        0     1                 
42003e00     3e00        0     1                 
42003e04     3e04        0     1                 
42003e06     3e06        0     1                 
42003e06     3e06        0     1                 
42003e0a     3e0a        0     1                 
42003e0a     3e0a        0     1                 
42003e0e     3e0e        0     1                 
42003e14     3e14        0     1                 
42003e14     3e14        0     1                 
42003e16     3e16        0     1                 
42003e1a     3e1a        0     1                 
42003e1a     3e1a        0     1                 
42003e1e     3e1e        0     1                 
42003e1e     3e1e        0     1                 
42003e24     3e24        0     1                 
42003e24     3e24        0     1                 
42003e2a     3e2a        0     1                 
42003e2a     3e2a        0     1                 
42003e2a     3e2a        0     1                 
42003e2a     3e2a        0     1                 
42003e2a     3e2a        a     2         /Users/mabez/.rustup/toolchains/nightly-aarch64-apple-darwin/lib/rustlib/riscv32imac-unknown-none-elf/lib/libcore-081fd8405fc18f2e.rlib(core-081fd8405fc18f2e.core.756fe54c-cgu.0.rcgu.o):(.text._ZN4core3fmt9Formatter15debug_lower_hex17h6eb2d3e5c39d5487E)
42003e2a     3e2a        0     1                 
42003e2a     3e2a        0     1                 
42003e2a     3e2a        0     1                 
42003e2a     3e2a        0     1                 
42003e2a     3e2a        a     1                 core::fmt::Formatter::debug_lower_hex::h6eb2d3e5c39d5487
42003e32     3e32        0     1                 
42003e34     3e34        0     1                 
42003e34     3e34        0     1                 
42003e34     3e34        0     1                 
42003e34     3e34        c     2         /Users/mabez/.rustup/toolchains/nightly-aarch64-apple-darwin/lib/rustlib/riscv32imac-unknown-none-elf/lib/libcore-081fd8405fc18f2e.rlib(core-081fd8405fc18f2e.core.756fe54c-cgu.0.rcgu.o):(.text._ZN4core3fmt9Formatter15debug_upper_hex17ha0e0f25a16a661deE)
42003e34     3e34        0     1                 
42003e34     3e34        0     1                 
42003e34     3e34        0     1                 
42003e34     3e34        0     1                 
42003e34     3e34        c     1                 core::fmt::Formatter::debug_upper_hex::ha0e0f25a16a661de
42003e3e     3e3e        0     1                 
42003e40     3e40        0     1                 
42003e40     3e40        0     1                 
42003e40     3e40        0     1                 
42003e40     3e40       1c     2         /Users/mabez/.rustup/toolchains/nightly-aarch64-apple-darwin/lib/rustlib/riscv32imac-unknown-none-elf/lib/libcore-081fd8405fc18f2e.rlib(core-081fd8405fc18f2e.core.756fe54c-cgu.0.rcgu.o):(.text._ZN4core3fmt9Formatter12debug_struct17h23cb0561b02f3898E)
42003e40     3e40        0     1                 
42003e40     3e40        0     1                 
42003e40     3e40        0     1                 
42003e40     3e40       1c     1                 core::fmt::Formatter::debug_struct::h23cb0561b02f3898
42003e42     3e42        0     1                 
42003e46     3e46        0     1                 
42003e48     3e48        0     1                 
42003e48     3e48        0     1                 
42003e52     3e52        0     1                 
42003e52     3e52        0     1                 
42003e5c     3e5c        0     1                 
42003e5c     3e5c        0     1                 
42003e5c     3e5c        0     1                 
42003e5c     3e5c      50a     2         /Users/mabez/.rustup/toolchains/nightly-aarch64-apple-darwin/lib/rustlib/riscv32imac-unknown-none-elf/lib/libcore-081fd8405fc18f2e.rlib(core-081fd8405fc18f2e.core.756fe54c-cgu.0.rcgu.o):(.text._ZN40_$LT$str$u20$as$u20$core..fmt..Debug$GT$3fmt17hcccdaec8afe094d8E)
42003e5c     3e5c        0     1                 
42003e5c     3e5c        0     1                 
42003e5c     3e5c        0     1                 
42003e5c     3e5c      50a     1                 _$LT$str$u20$as$u20$core..fmt..Debug$GT$::fmt::hcccdaec8afe094d8
42003e5e     3e5e        0     1                 
42003e5e     3e5e        0     1                 
42003e5e     3e5e        0     1                 
42003e78     3e78        0     1                 
42003e8e     3e8e        0     1                 
42003e8e     3e8e        0     1                 
42003e90     3e90        0     1                 
42003eb0     3eb0        0     1                 
42003eb2     3eb2        0     1                 
42003eb2     3eb2        0     1                 
42003eb6     3eb6        0     1                 
42003eb6     3eb6        0     1                 
42003f8e     3f8e        0     1                 
42003f92     3f92        0     1                 
42003f92     3f92        0     1                 
42003f96     3f96        0     1                 
42003f96     3f96        0     1                 
42003f9a     3f9a        0     1                 
42003f9e     3f9e        0     1                 
42003fa2     3fa2        0     1                 
42003fa2     3fa2        0     1                 
42003fa6     3fa6        0     1                 
42003fa6     3fa6        0     1                 
42003faa     3faa        0     1                 
42003faa     3faa        0     1                 
42003fac     3fac        0     1                 
42003fac     3fac        0     1                 
42003fb0     3fb0        0     1                 
42003fb0     3fb0        0     1                 
42003fb4     3fb4        0     1                 
42003fbc     3fbc        0     1                 
42003fbc     3fbc        0     1                 
42003fc0     3fc0        0     1                 
42003fc0     3fc0        0     1                 
42003fc4     3fc4        0     1                 
42003fc4     3fc4        0     1                 
42003fc6     3fc6        0     1                 
42003fc6     3fc6        0     1                 
42003fca     3fca        0     1                 
42003fca     3fca        0     1                 
42003fce     3fce        0     1                 
42003fce     3fce        0     1                 
42003fd6     3fd6        0     1                 
42003fd6     3fd6        0     1                 
42003fda     3fda        0     1                 
42003fda     3fda        0     1                 
42003fde     3fde        0     1                 
42003fde     3fde        0     1                 
42003fe0     3fe0        0     1                 
42003fe0     3fe0        0     1                 
42003fe6     3fe6        0     1                 
42003fe6     3fe6        0     1                 
42003fee     3fee        0     1                 
42003ff6     3ff6        0     1                 
42003ffe     3ffe        0     1                 
42003ffe     3ffe        0     1                 
42004002     4002        0     1                 
42004002     4002        0     1                 
4200400a     400a        0     1                 
42004016     4016        0     1                 
4200401a     401a        0     1                 
4200401a     401a        0     1                 
4200401e     401e        0     1                 
4200401e     401e        0     1                 
42004022     4022        0     1                 
42004022     4022        0     1                 
4200402a     402a        0     1                 
4200402a     402a        0     1                 
4200402c     402c        0     1                 
4200402c     402c        0     1                 
42004048     4048        0     1                 
42004054     4054        0     1                 
42004060     4060        0     1                 
42004060     4060        0     1                 
4200407e     407e        0     1                 
4200407e     407e        0     1                 
42004082     4082        0     1                 
42004082     4082        0     1                 
4200408c     408c        0     1                 
42004090     4090        0     1                 
42004090     4090        0     1                 
42004094     4094        0     1                 
42004098     4098        0     1                 
4200409c     409c        0     1                 
420040a0     40a0        0     1                 
420040a0     40a0        0     1                 
420040ae     40ae        0     1                 
420040ae     40ae        0     1                 
420040b2     40b2        0     1                 
420040b2     40b2        0     1                 
420040b6     40b6        0     1                 
420040b6     40b6        0     1                 
420040be     40be        0     1                 
420040be     40be        0     1                 .LBB197_38
420040be     40be        0     1                 
420040d6     40d6        0     1                 
420040d6     40d6        0     1                 
420040de     40de        0     1                 
420040de     40de        0     1                 
420040e2     40e2        0     1                 
420040e4     40e4        0     1                 
420040e4     40e4        0     1                 
420040e8     40e8        0     1                 
420040ec     40ec        0     1                 
420040f0     40f0        0     1                 
420040f0     40f0        0     1                 
420040fc     40fc        0     1                 .LBB197_43
420040fc     40fc        0     1                 
42004112     4112        0     1                 
42004112     4112        0     1                 
42004118     4118        0     1                 
4200411e     411e        0     1                 .LBB197_46
4200411e     411e        0     1                 
4200411e     411e        0     1                 
42004122     4122        0     1                 
4200412c     412c        0     1                 
4200412c     412c        0     1                 
42004132     4132        0     1                 
42004136     4136        0     1                 
42004138     4138        0     1                 
42004138     4138        0     1                 
4200413c     413c        0     1                 
42004142     4142        0     1                 .LBB197_50
42004142     4142        0     1                 
4200415c     415c        0     1                 .LBB197_51
4200415c     415c        0     1                 
42004172     4172        0     1                 
42004188     4188        0     1                 .LBB197_53
42004188     4188        0     1                 
42004188     4188        0     1                 
4200418a     418a        0     1                 
4200418a     418a        0     1                 
42004192     4192        0     1                 
4200419a     419a        0     1                 
420041a2     41a2        0     1                 
420041a8     41a8        0     1                 
420041a8     41a8        0     1                 
420041b0     41b0        0     1                 
420041b2     41b2        0     1                 
420041bc     41bc        0     1                 
420041bc     41bc        0     1                 
420041c2     41c2        0     1                 
420041c2     41c2        0     1                 
420041cc     41cc        0     1                 
420041cc     41cc        0     1                 
420041ce     41ce        0     1                 
420041ce     41ce        0     1                 
420041d4     41d4        0     1                 
420041ea     41ea        0     1                 
420041f0     41f0        0     1                 
42004204     4204        0     1                 
42004210     4210        0     1                 
42004278     4278        0     1                 
42004278     4278        0     1                 
4200427a     427a        0     1                 
420042d6     42d6        0     1                 
420042d6     42d6        0     1                 
420042f0     42f0        0     1                 
420042f0     42f0        0     1                 
420042f2     42f2        0     1                 
420042f6     42f6        0     1                 
420042fa     42fa        0     1                 
42004302     4302        0     1                 
42004302     4302        0     1                 
42004308     4308        0     1                 
4200430c     430c        0     1                 
42004310     4310        0     1                 
42004310     4310        0     1                 
42004314     4314        0     1                 
42004314     4314        0     1                 
4200431a     431a        0     1                 
4200431a     431a        0     1                 
4200431e     431e        0     1                 
4200431e     431e        0     1                 
42004322     4322        0     1                 
42004322     4322        0     1                 
42004326     4326        0     1                 
42004326     4326        0     1                 
4200434c     434c        0     1                 
4200434c     434c        0     1                 
42004366     4366        0     1                 
42004366     4366        0     1                 
42004366     4366        0     1                 
42004366     4366        0     1                 
42004366     4366       10     2         /Users/mabez/.rustup/toolchains/nightly-aarch64-apple-darwin/lib/rustlib/riscv32imac-unknown-none-elf/lib/libcore-081fd8405fc18f2e.rlib(core-081fd8405fc18f2e.core.756fe54c-cgu.0.rcgu.o):(.text._ZN42_$LT$str$u20$as$u20$core..fmt..Display$GT$3fmt17h008158b5290718ffE)
42004366     4366        0     1                 
42004366     4366        0     1                 
42004366     4366        0     1                 
42004366     4366       10     1                 _$LT$str$u20$as$u20$core..fmt..Display$GT$::fmt::h008158b5290718ff
4200436a     436a        0     1                 
42004376     4376        0     1                 
42004376     4376        0     1                 
42004376     4376        0     1                 
42004376     4376      2fc     2         /Users/mabez/.rustup/toolchains/nightly-aarch64-apple-darwin/lib/rustlib/riscv32imac-unknown-none-elf/lib/libcore-081fd8405fc18f2e.rlib(core-081fd8405fc18f2e.core.756fe54c-cgu.0.rcgu.o):(.text._ZN41_$LT$char$u20$as$u20$core..fmt..Debug$GT$3fmt17hdf4500e5dfef8767E)
42004376     4376        0     1                 
42004376     4376        0     1                 
42004376     4376        0     1                 
42004376     4376      2fc     1                 _$LT$char$u20$as$u20$core..fmt..Debug$GT$::fmt::hdf4500e5dfef8767
42004378     4378        0     1                 
42004378     4378        0     1                 
42004378     4378        0     1                 
42004390     4390        0     1                 
420043a4     43a4        0     1                 
420043a4     43a4        0     1                 
420043a6     43a6        0     1                 
420043c4     43c4        0     1                 
420043cc     43cc        0     1                 
420043cc     43cc        0     1                 
420043d0     43d0        0     1                 
420043d2     43d2        0     1                 
420043d6     43d6        0     1                 
420043da     43da        0     1                 
420043de     43de        0     1                 
420043e2     43e2        0     1                 
420043e8     43e8        0     1                 
420043ea     43ea        0     1                 
420043ee     43ee        0     1                 
420043f0     43f0        0     1                 
420043f4     43f4        0     1                 
42004406     4406        0     1                 
42004406     4406        0     1                 
42004410     4410        0     1                 
42004410     4410        0     1                 
42004414     4414        0     1                 
42004414     4414        0     1                 
4200441a     441a        0     1                 
4200443e     443e        0     1                 
4200444e     444e        0     1                 
42004454     4454        0     1                 
42004478     4478        0     1                 
42004486     4486        0     1                 
42004526     4526        0     1                 
42004526     4526        0     1                 
42004528     4528        0     1                 
42004596     4596        0     1                 
420045b2     45b2        0     1                 
420045b2     45b2        0     1                 
420045b8     45b8        0     1                 
420045b8     45b8        0     1                 
420045bc     45bc        0     1                 
420045bc     45bc        0     1                 
420045c4     45c4        0     1                 
420045c4     45c4        0     1                 
420045d0     45d0        0     1                 .LBB199_26
420045d0     45d0        0     1                 
420045de     45de        0     1                 
420045de     45de        0     1                 
420045e2     45e2        0     1                 
420045e8     45e8        0     1                 .LBB199_29
420045e8     45e8        0     1                 
420045e8     45e8        0     1                 
420045ec     45ec        0     1                 
420045f6     45f6        0     1                 
420045f6     45f6        0     1                 
420045fa     45fa        0     1                 
420045fe     45fe        0     1                 
42004600     4600        0     1                 
42004600     4600        0     1                 
42004604     4604        0     1                 
42004608     4608        0     1                 .LBB199_33
42004608     4608        0     1                 
4200461a     461a        0     1                 .LBB199_34
4200461a     461a        0     1                 
4200462c     462c        0     1                 .LBB199_35
4200462c     462c        0     1                 
4200463e     463e        0     1                 
4200464a     464a        0     1                 
4200464a     464a        0     1                 
4200464e     464e        0     1                 .LBB199_38
4200464e     464e        0     1                 
4200464e     464e        0     1                 
42004672     4672        0     1                 
42004672     4672        0     1                 
42004672     4672        0     1                 
42004672     4672        0     1                 
42004672     4672       40     2         /Users/mabez/.rustup/toolchains/nightly-aarch64-apple-darwin/lib/rustlib/riscv32imac-unknown-none-elf/lib/libcore-081fd8405fc18f2e.rlib(core-081fd8405fc18f2e.core.756fe54c-cgu.0.rcgu.o):(.text.unlikely._ZN4core5slice5index26slice_start_index_len_fail17hdab66f8c91db18f1E)
42004672     4672        0     1                 
42004672     4672        0     1                 
42004672     4672        0     1                 
42004672     4672       40     1                 core::slice::index::slice_start_index_len_fail::hdab66f8c91db18f1
42004674     4674        0     1                 
42004676     4676        0     1                 
4200467c     467c        0     1                 
4200468e     468e        0     1                 
4200468e     468e        0     1                 
420046a4     46a4        0     1                 
420046a4     46a4        0     1                 
420046b2     46b2        0     1                 
420046b2     46b2        0     1                 
420046b2     46b2        0     1                 
420046b2     46b2       40     2         /Users/mabez/.rustup/toolchains/nightly-aarch64-apple-darwin/lib/rustlib/riscv32imac-unknown-none-elf/lib/libcore-081fd8405fc18f2e.rlib(core-081fd8405fc18f2e.core.756fe54c-cgu.0.rcgu.o):(.text.unlikely._ZN4core5slice5index24slice_end_index_len_fail17ha66dfe3e03135a0bE)
420046b2     46b2        0     1                 
420046b2     46b2        0     1                 
420046b2     46b2        0     1                 
420046b2     46b2       40     1                 core::slice::index::slice_end_index_len_fail::ha66dfe3e03135a0b
420046b4     46b4        0     1                 
420046b6     46b6        0     1                 
420046bc     46bc        0     1                 
420046ce     46ce        0     1                 
420046ce     46ce        0     1                 
420046e4     46e4        0     1                 
420046e4     46e4        0     1                 
420046f2     46f2        0     1                 
420046f2     46f2        0     1                 
420046f2     46f2        0     1                 
420046f2     46f2       40     2         /Users/mabez/.rustup/toolchains/nightly-aarch64-apple-darwin/lib/rustlib/riscv32imac-unknown-none-elf/lib/libcore-081fd8405fc18f2e.rlib(core-081fd8405fc18f2e.core.756fe54c-cgu.0.rcgu.o):(.text.unlikely._ZN4core5slice5index22slice_index_order_fail17h8e894af7b68265c5E)
420046f2     46f2        0     1                 
420046f2     46f2        0     1                 
420046f2     46f2        0     1                 
420046f2     46f2       40     1                 core::slice::index::slice_index_order_fail::h8e894af7b68265c5
420046f4     46f4        0     1                 
420046f6     46f6        0     1                 
420046fc     46fc        0     1                 
4200470e     470e        0     1                 
4200470e     470e        0     1                 
42004724     4724        0     1                 
42004724     4724        0     1                 
42004732     4732        0     1                 
42004732     4732        0     1                 
42004732     4732        0     1                 
42004732     4732      282     2         /Users/mabez/.rustup/toolchains/nightly-aarch64-apple-darwin/lib/rustlib/riscv32imac-unknown-none-elf/lib/libcore-081fd8405fc18f2e.rlib(core-081fd8405fc18f2e.core.756fe54c-cgu.0.rcgu.o):(.text.unlikely._ZN4core3str16slice_error_fail17hf3651b9c804ef8e8E)
42004732     4732        0     1                 
42004732     4732        0     1                 
42004732     4732        0     1                 
42004732     4732      282     1                 core::str::slice_error_fail::hf3651b9c804ef8e8
42004734     4734        0     1                 
42004736     4736        0     1                 
4200473e     473e        0     1                 
4200473e     473e        0     1                 
42004742     4742        0     1                 
42004742     4742        0     1                 
42004744     4744        0     1                 
42004748     4748        0     1                 
42004754     4754        0     1                 
4200475c     475c        0     1                 
4200475c     475c        0     1                 
42004764     4764        0     1                 
42004764     4764        0     1                 
42004768     4768        0     1                 
4200476a     476a        0     1                 
4200476a     476a        0     1                 
4200476e     476e        0     1                 
4200476e     476e        0     1                 
42004772     4772        0     1                 
42004772     4772        0     1                 
42004776     4776        0     1                 
42004776     4776        0     1                 
4200477c     477c        0     1                 
42004780     4780        0     1                 
42004780     4780        0     1                 
42004784     4784        0     1                 
42004790     4790        0     1                 
4200479c     479c        0     1                 
4200479e     479e        0     1                 
420047a0     47a0        0     1                 
420047aa     47aa        0     1                 
420047ca     47ca        0     1                 
420047ca     47ca        0     1                 
420047d8     47d8        0     1                 
420047d8     47d8        0     1                 
420047dc     47dc        0     1                 
420047de     47de        0     1                 
42004804     4804        0     1                 
42004804     4804        0     1                 
42004812     4812        0     1                 
42004812     4812        0     1                 
42004822     4822        0     1                 
42004822     4822        0     1                 
4200482a     482a        0     1                 
4200482e     482e        0     1                 
4200482e     482e        0     1                 
42004834     4834        0     1                 
42004834     4834        0     1                 
42004838     4838        0     1                 
4200483c     483c        0     1                 
42004844     4844        0     1                 
42004844     4844        0     1                 
4200484a     484a        0     1                 
4200484a     484a        0     1                 
42004860     4860        0     1                 
42004860     4860        0     1                 
42004864     4864        0     1                 
4200486e     486e        0     1                 
4200486e     486e        0     1                 
42004876     4876        0     1                 
42004876     4876        0     1                 
4200487a     487a        0     1                 
4200487c     487c        0     1                 
4200487c     487c        0     1                 
4200487e     487e        0     1                 
42004882     4882        0     1                 
42004882     4882        0     1                 
42004886     4886        0     1                 
42004886     4886        0     1                 
4200489e     489e        0     1                 
4200489e     489e        0     1                 
420048a0     48a0        0     1                 
420048a4     48a4        0     1                 
420048a4     48a4        0     1                 
420048a8     48a8        0     1                 
420048a8     48a8        0     1                 
420048b4     48b4        0     1                 
420048b8     48b8        0     1                 
420048c0     48c0        0     1                 
420048c0     48c0        0     1                 
420048c4     48c4        0     1                 
420048c4     48c4        0     1                 
420048c8     48c8        0     1                 
420048c8     48c8        0     1                 
420048d4     48d4        0     1                 
420048d4     48d4        0     1                 
420048d8     48d8        0     1                 
420048d8     48d8        0     1                 
420048dc     48dc        0     1                 
420048dc     48dc        0     1                 
420048e2     48e2        0     1                 
420048e2     48e2        0     1                 
420048e6     48e6        0     1                 
420048e6     48e6        0     1                 
420048ea     48ea        0     1                 
420048ea     48ea        0     1                 
420048ee     48ee        0     1                 
420048ee     48ee        0     1                 
420048fa     48fa        0     1                 
420048fa     48fa        0     1                 
420048fe     48fe        0     1                 
420048fe     48fe        0     1                 
42004902     4902        0     1                 
42004902     4902        0     1                 
4200490e     490e        0     1                 
4200490e     490e        0     1                 
42004912     4912        0     1                 
42004916     4916        0     1                 
42004916     4916        0     1                 
4200491c     491c        0     1                 
4200491c     491c        0     1                 
42004922     4922        0     1                 
42004922     4922        0     1                 
42004928     4928        0     1                 
42004928     4928        0     1                 
4200492c     492c        0     1                 
4200492c     492c        0     1                 
42004934     4934        0     1                 
42004934     4934        0     1                 
42004938     4938        0     1                 
42004940     4940        0     1                 
42004948     4948        0     1                 
4200494a     494a        0     1                 
4200494a     494a        0     1                 
4200494e     494e        0     1                 
42004954     4954        0     1                 
42004990     4990        0     1                 
42004990     4990        0     1                 
4200499c     499c        0     1                 
4200499c     499c        0     1                 
420049b4     49b4        0     1                 
420049b4     49b4        0     1                 
420049b4     49b4        0     1                 
420049b4     49b4      116     2         /Users/mabez/.rustup/toolchains/nightly-aarch64-apple-darwin/lib/rustlib/riscv32imac-unknown-none-elf/lib/libcore-081fd8405fc18f2e.rlib(core-081fd8405fc18f2e.core.756fe54c-cgu.0.rcgu.o):(.text._ZN4core7unicode9printable5check17h7553926595cb49f5E)
420049b4     49b4      116     1                 core::unicode::printable::check::h7553926595cb49f5
420049b4     49b4        0     1                 
420049b4     49b4        0     1                 
420049b4     49b4        0     1                 
420049b6     49b6        0     1                 
420049b6     49b6        0     1                 
420049b6     49b6        0     1                 
420049b8     49b8        0     1                 
420049ba     49ba        0     1                 
420049ba     49ba        0     1                 
420049d0     49d0        0     1                 
420049e4     49e4        0     1                 
420049e8     49e8        0     1                 
420049ec     49ec        0     1                 
420049ec     49ec        0     1                 
420049ee     49ee        0     1                 
420049ee     49ee        0     1                 
420049f2     49f2        0     1                 
420049f6     49f6        0     1                 
420049f6     49f6        0     1                 
420049fa     49fa        0     1                 
420049fe     49fe        0     1                 
420049fe     49fe        0     1                 
42004a00     4a00        0     1                 
42004a00     4a00        0     1                 
42004a02     4a02        0     1                 
42004a02     4a02        0     1                 
42004a06     4a06        0     1                 
42004a06     4a06        0     1                 
42004a08     4a08        0     1                 
42004a08     4a08        0     1                 
42004a10     4a10        0     1                 
42004a12     4a12        0     1                 
42004a12     4a12        0     1                 
42004a16     4a16        0     1                 
42004a16     4a16        0     1                 
42004a1a     4a1a        0     1                 
42004a1a     4a1a        0     1                 
42004a20     4a20        0     1                 
42004a20     4a20        0     1                 
42004a26     4a26        0     1                 
42004a26     4a26        0     1                 
42004a32     4a32        0     1                 
42004a32     4a32        0     1                 
42004a36     4a36        0     1                 
42004a36     4a36        0     1                 
42004a3a     4a3a        0     1                 
42004a3c     4a3c        0     1                 
42004a44     4a44        0     1                 
42004a44     4a44        0     1                 
42004a48     4a48        0     1                 
42004a48     4a48        0     1                 
42004a4c     4a4c        0     1                 
42004a4c     4a4c        0     1                 
42004a52     4a52        0     1                 
42004a52     4a52        0     1                 
42004a54     4a54        0     1                 
42004a54     4a54        0     1                 
42004a56     4a56        0     1                 
42004a58     4a58        0     1                 
42004a5c     4a5c        0     1                 
42004a60     4a60        0     1                 
42004a60     4a60        0     1                 
42004a64     4a64        0     1                 
42004a64     4a64        0     1                 
42004a6c     4a6c        0     1                 
42004a6e     4a6e        0     1                 
42004a76     4a76        0     1                 
42004a78     4a78        0     1                 
42004a80     4a80        0     1                 
42004a80     4a80        0     1                 
42004a9e     4a9e        0     1                 
42004a9e     4a9e        0     1                 
42004ab4     4ab4        0     1                 
42004aca     4aca        0     1                 
42004aca     4aca        0     1                 
42004aca     4aca        0     1                 
42004aca     4aca        0     1                 
42004aca     4aca       dc     2         /Users/mabez/.rustup/toolchains/nightly-aarch64-apple-darwin/lib/rustlib/riscv32imac-unknown-none-elf/lib/libcore-081fd8405fc18f2e.rlib(core-081fd8405fc18f2e.core.756fe54c-cgu.0.rcgu.o):(.text._ZN68_$LT$core..panic..location..Location$u20$as$u20$core..fmt..Debug$GT$3fmt17h6138f301e9495677E)
42004aca     4aca        0     1                 
42004aca     4aca        0     1                 
42004aca     4aca        0     1                 
42004aca     4aca       dc     1                 _$LT$core..panic..location..Location$u20$as$u20$core..fmt..Debug$GT$::fmt::h6138f301e9495677
42004acc     4acc        0     1                 
42004ad6     4ad6        0     1                 
42004ad8     4ad8        0     1                 
42004ad8     4ad8        0     1                 
42004ae0     4ae0        0     1                 
42004ae0     4ae0        0     1                 
42004ae4     4ae4        0     1                 
42004ae8     4ae8        0     1                 
42004ae8     4ae8        0     1                 
42004af6     4af6        0     1                 
42004af6     4af6        0     1                 
42004afa     4afa        0     1                 
42004afc     4afc        0     1                 
42004b1a     4b1a        0     1                 
42004b1c     4b1c        0     1                 
42004b3c     4b3c        0     1                 
42004b3e     4b3e        0     1                 
42004b56     4b56        0     1                 
42004b56     4b56        0     1                 
42004b5a     4b5a        0     1                 
42004b5e     4b5e        0     1                 
42004b60     4b60        0     1                 
42004b62     4b62        0     1                 
42004b62     4b62        0     1                 
42004b64     4b64        0     1                 
42004b64     4b64        0     1                 
42004b66     4b66        0     1                 
42004b66     4b66        0     1                 
42004b6c     4b6c        0     1                 
42004b6c     4b6c        0     1                 
42004b6e     4b6e        0     1                 
42004b6e     4b6e        0     1                 
42004b80     4b80        0     1                 
42004b80     4b80        0     1                 
42004b90     4b90        0     1                 
42004b90     4b90        0     1                 
42004b92     4b92        0     1                 
42004b94     4b94        0     1                 
42004b98     4b98        0     1                 
42004b98     4b98        0     1                 
42004ba6     4ba6        0     1                 
42004ba6     4ba6        0     1                 
42004ba6     4ba6        0     1                 
42004ba6     4ba6       e0     2         /Users/mabez/.rustup/toolchains/nightly-aarch64-apple-darwin/lib/rustlib/riscv32imac-unknown-none-elf/lib/libcore-081fd8405fc18f2e.rlib(core-081fd8405fc18f2e.core.756fe54c-cgu.0.rcgu.o):(.text._ZN71_$LT$core..panic..panic_info..PanicInfo$u20$as$u20$core..fmt..Debug$GT$3fmt17h3aa005868798f638E)
42004ba6     4ba6        0     1                 
42004ba6     4ba6        0     1                 
42004ba6     4ba6        0     1                 
42004ba6     4ba6       e0     1                 _$LT$core..panic..panic_info..PanicInfo$u20$as$u20$core..fmt..Debug$GT$::fmt::h3aa005868798f638
42004ba8     4ba8        0     1                 
42004bb2     4bb2        0     1                 
42004bb4     4bb4        0     1                 
42004bb4     4bb4        0     1                 
42004bbc     4bbc        0     1                 
42004bbc     4bbc        0     1                 
42004bc0     4bc0        0     1                 
42004bc4     4bc4        0     1                 
42004bc4     4bc4        0     1                 
42004bd2     4bd2        0     1                 
42004bd2     4bd2        0     1                 
42004bd6     4bd6        0     1                 
42004bd8     4bd8        0     1                 
42004bf6     4bf6        0     1                 
42004bf8     4bf8        0     1                 
42004c16     4c16        0     1                 
42004c18     4c18        0     1                 
42004c36     4c36        0     1                 
42004c36     4c36        0     1                 
42004c3a     4c3a        0     1                 
42004c3e     4c3e        0     1                 
42004c40     4c40        0     1                 
42004c42     4c42        0     1                 
42004c42     4c42        0     1                 
42004c44     4c44        0     1                 
42004c44     4c44        0     1                 
42004c46     4c46        0     1                 
42004c46     4c46        0     1                 
42004c4c     4c4c        0     1                 
42004c4c     4c4c        0     1                 
42004c4e     4c4e        0     1                 
42004c4e     4c4e        0     1                 
42004c60     4c60        0     1                 
42004c60     4c60        0     1                 
42004c70     4c70        0     1                 
42004c70     4c70        0     1                 
42004c72     4c72        0     1                 
42004c74     4c74        0     1                 
42004c78     4c78        0     1                 
42004c78     4c78        0     1                 
42004c86     4c86        0     1                 
42004c86     4c86        0     1                 
42004c86     4c86        0     1                 
42004c86     4c86       86     2         /Users/mabez/.rustup/toolchains/nightly-aarch64-apple-darwin/lib/rustlib/riscv32imac-unknown-none-elf/lib/libcore-081fd8405fc18f2e.rlib(core-081fd8405fc18f2e.core.756fe54c-cgu.0.rcgu.o):(.text._ZN4core3fmt3num53_$LT$impl$u20$core..fmt..LowerHex$u20$for$u20$i32$GT$3fmt17h1bf4736efcdaea61E)
42004c86     4c86        0     1                 
42004c86     4c86        0     1                 
42004c86     4c86        0     1                 
42004c86     4c86       86     1                 core::fmt::num::_$LT$impl$u20$core..fmt..LowerHex$u20$for$u20$i32$GT$::fmt::h1bf4736efcdaea61
42004c86     4c86       86     1                 core::fmt::num::_$LT$impl$u20$core..fmt..LowerHex$u20$for$u20$usize$GT$::fmt::h9c7549e597f0fe26
42004c86     4c86       86     1                 core::fmt::num::_$LT$impl$u20$core..fmt..LowerHex$u20$for$u20$isize$GT$::fmt::h0a3c60f45bbec4ab
42004c86     4c86       86     1                 core::fmt::num::_$LT$impl$u20$core..fmt..LowerHex$u20$for$u20$u32$GT$::fmt::h9d1542a507b7d93d
42004c88     4c88        0     1                 
42004c8a     4c8a        0     1                 
42004c8e     4c8e        0     1                 
42004c9a     4c9a        0     1                 
42004c9a     4c9a        0     1                 
42004ca2     4ca2        0     1                 
42004ca4     4ca4        0     1                 
42004ca4     4ca4        0     1                 
42004ca8     4ca8        0     1                 
42004ca8     4ca8        0     1                 
42004cae     4cae        0     1                 
42004cb0     4cb0        0     1                 
42004cb0     4cb0        0     1                 
42004cb8     4cb8        0     1                 
42004cb8     4cb8        0     1                 
42004cbc     4cbc        0     1                 
42004cbc     4cbc        0     1                 
42004cc2     4cc2        0     1                 
42004cc2     4cc2        0     1                 
42004cce     4cce        0     1                 
42004cce     4cce        0     1                 
42004cd4     4cd4        0     1                 
42004cd4     4cd4        0     1                 
42004cf0     4cf0        0     1                 
42004cf0     4cf0        0     1                 
42004cf6     4cf6        0     1                 
42004cf6     4cf6        0     1                 
42004d0c     4d0c        0     1                 
42004d0c     4d0c        0     1                 
42004d0c     4d0c        0     1                 
42004d0c     4d0c        0     1                 
42004d0c     4d0c       86     2         /Users/mabez/.rustup/toolchains/nightly-aarch64-apple-darwin/lib/rustlib/riscv32imac-unknown-none-elf/lib/libcore-081fd8405fc18f2e.rlib(core-081fd8405fc18f2e.core.756fe54c-cgu.0.rcgu.o):(.text._ZN4core3fmt3num53_$LT$impl$u20$core..fmt..UpperHex$u20$for$u20$i32$GT$3fmt17h78194a7b4370f960E)
42004d0c     4d0c        0     1                 
42004d0c     4d0c        0     1                 
42004d0c     4d0c        0     1                 
42004d0c     4d0c       86     1                 core::fmt::num::_$LT$impl$u20$core..fmt..UpperHex$u20$for$u20$i32$GT$::fmt::h78194a7b4370f960
42004d0c     4d0c       86     1                 core::fmt::num::_$LT$impl$u20$core..fmt..UpperHex$u20$for$u20$usize$GT$::fmt::hcbe88bb81fb479db
42004d0c     4d0c       86     1                 core::fmt::num::_$LT$impl$u20$core..fmt..UpperHex$u20$for$u20$isize$GT$::fmt::hc80d4907c186d899
42004d0c     4d0c       86     1                 core::fmt::num::_$LT$impl$u20$core..fmt..UpperHex$u20$for$u20$u32$GT$::fmt::h60e678a287fc9921
42004d0e     4d0e        0     1                 
42004d10     4d10        0     1                 
42004d14     4d14        0     1                 
42004d20     4d20        0     1                 
42004d20     4d20        0     1                 
42004d28     4d28        0     1                 
42004d2a     4d2a        0     1                 
42004d2a     4d2a        0     1                 
42004d2e     4d2e        0     1                 
42004d2e     4d2e        0     1                 
42004d34     4d34        0     1                 
42004d36     4d36        0     1                 
42004d36     4d36        0     1                 
42004d3e     4d3e        0     1                 
42004d3e     4d3e        0     1                 
42004d42     4d42        0     1                 
42004d42     4d42        0     1                 
42004d48     4d48        0     1                 
42004d48     4d48        0     1                 
42004d54     4d54        0     1                 
42004d54     4d54        0     1                 
42004d5a     4d5a        0     1                 
42004d5a     4d5a        0     1                 
42004d76     4d76        0     1                 
42004d76     4d76        0     1                 
42004d7c     4d7c        0     1                 
42004d7c     4d7c        0     1                 
42004d92     4d92        0     1                 
42004d92     4d92        0     1                 
42004d92     4d92        0     1                 
42004d92     4d92        0     1                 
42004d92     4d92       dc     2         /Users/mabez/.rustup/toolchains/nightly-aarch64-apple-darwin/lib/rustlib/riscv32imac-unknown-none-elf/lib/libcore-081fd8405fc18f2e.rlib(core-081fd8405fc18f2e.core.756fe54c-cgu.0.rcgu.o):(.text._ZN4core3fmt3num52_$LT$impl$u20$core..fmt..Debug$u20$for$u20$usize$GT$3fmt17hc36110ef658364b2E)
42004d92     4d92       dc     1                 core::fmt::num::_$LT$impl$u20$core..fmt..Debug$u20$for$u20$usize$GT$::fmt::hc36110ef658364b2
42004d92     4d92        0     1                 
42004d92     4d92        0     1                 
42004d92     4d92        0     1                 
42004d94     4d94        0     1                 
42004d96     4d96        0     1                 
42004d98     4d98        0     1                 
42004d98     4d98        0     1                 
42004d9e     4d9e        0     1                 
42004d9e     4d9e        0     1                 
42004da0     4da0        0     1                 
42004da0     4da0        0     1                 
42004da4     4da4        0     1                 
42004da4     4da4        0     1                 
42004da6     4da6        0     1                 
42004da6     4da6        0     1                 
42004da8     4da8        0     1                 
42004da8     4da8        0     1                 
42004db8     4db8        0     1                 
42004db8     4db8        0     1                 
42004dba     4dba        0     1                 
42004dba     4dba        0     1                 
42004dc6     4dc6        0     1                 
42004dc6     4dc6        0     1                 
42004dce     4dce        0     1                 
42004dd0     4dd0        0     1                 
42004dd0     4dd0        0     1                 
42004dd4     4dd4        0     1                 
42004dd4     4dd4        0     1                 
42004dda     4dda        0     1                 
42004ddc     4ddc        0     1                 
42004ddc     4ddc        0     1                 
42004de4     4de4        0     1                 
42004de4     4de4        0     1                 
42004de8     4de8        0     1                 
42004de8     4de8        0     1                 
42004df0     4df0        0     1                 
42004df0     4df0        0     1                 
42004dfc     4dfc        0     1                 
42004dfc     4dfc        0     1                 
42004e04     4e04        0     1                 
42004e06     4e06        0     1                 
42004e06     4e06        0     1                 
42004e0a     4e0a        0     1                 
42004e0a     4e0a        0     1                 
42004e10     4e10        0     1                 
42004e12     4e12        0     1                 
42004e12     4e12        0     1                 
42004e1a     4e1a        0     1                 
42004e1a     4e1a        0     1                 
42004e1e     4e1e        0     1                 
42004e1e     4e1e        0     1                 
42004e52     4e52        0     1                 
42004e58     4e58        0     1                 
42004e6e     4e6e        0     1                 
42004e6e     4e6e        0     1                 
42004e6e     4e6e        0     1                 
42004e6e     4e6e      16e     2         /Users/mabez/.rustup/toolchains/nightly-aarch64-apple-darwin/lib/rustlib/riscv32imac-unknown-none-elf/lib/libcore-081fd8405fc18f2e.rlib(core-081fd8405fc18f2e.core.756fe54c-cgu.0.rcgu.o):(.text._ZN4core3fmt3num3imp7fmt_u3217h692938b18ef1d188E)
42004e6e     4e6e      16e     1                 core::fmt::num::imp::fmt_u32::h692938b18ef1d188
42004e6e     4e6e        0     1                 
42004e6e     4e6e        0     1                 
42004e6e     4e6e        0     1                 
42004e70     4e70        0     1                 
42004e76     4e76        0     1                 
42004e78     4e78        0     1                 
42004e88     4e88        0     1                 
42004e8c     4e8c        0     1                 
42004e90     4e90        0     1                 
42004e92     4e92        0     1                 
42004e96     4e96        0     1                 
42004e9c     4e9c        0     1                 
42004e9c     4e9c        0     1                 
42004e9e     4e9e        0     1                 
42004e9e     4e9e        0     1                 
42004ea8     4ea8        0     1                 
42004ed8     4ed8        0     1                 
42004ee6     4ee6        0     1                 
42004efe     4efe        0     1                 
42004f04     4f04        0     1                 
42004f04     4f04        0     1                 
42004f08     4f08        0     1                 
42004f08     4f08        0     1                 
42004f14     4f14        0     1                 
42004f14     4f14        0     1                 
42004f16     4f16        0     1                 
42004f16     4f16        0     1                 
42004f1e     4f1e        0     1                 
42004f1e     4f1e        0     1                 
42004f26     4f26        0     1                 
42004f26     4f26        0     1                 
42004f2e     4f2e        0     1                 
42004f2e     4f2e        0     1                 
42004f34     4f34        0     1                 
42004f40     4f40        0     1                 
42004f5c     4f5c        0     1                 
42004f60     4f60        0     1                 
42004f62     4f62        0     1                 
42004f62     4f62        0     1                 
42004f6c     4f6c        0     1                 
42004f6c     4f6c        0     1                 
42004f78     4f78        0     1                 
42004f78     4f78        0     1                 
42004f7a     4f7a        0     1                 
42004f7a     4f7a        0     1                 
42004f86     4f86        0     1                 
42004f86     4f86        0     1                 
42004f8a     4f8a        0     1                 
42004f8c     4f8c        0     1                 
42004f8e     4f8e        0     1                 
42004f8e     4f8e        0     1                 
42004f98     4f98        0     1                 
42004f98     4f98        0     1                 
42004fa4     4fa4        0     1                 
42004fa4     4fa4        0     1                 
42004fa6     4fa6        0     1                 
42004fa6     4fa6        0     1                 
42004fae     4fae        0     1                 
42004fae     4fae        0     1                 
42004fb2     4fb2        0     1                 
42004fb2     4fb2        0     1                 
42004fba     4fba        0     1                 
42004fba     4fba        0     1                 
42004fbe     4fbe        0     1                 
42004fd2     4fd2        0     1                 
42004fdc     4fdc        0     1                 
42004fdc     4fdc        0     1                 
42004fdc     4fdc        0     1                 
42004fdc     4fdc        e     2         /Users/mabez/.rustup/toolchains/nightly-aarch64-apple-darwin/lib/rustlib/riscv32imac-unknown-none-elf/lib/libcore-081fd8405fc18f2e.rlib(core-081fd8405fc18f2e.core.756fe54c-cgu.0.rcgu.o):(.text._ZN4core3fmt3num3imp52_$LT$impl$u20$core..fmt..Display$u20$for$u20$u32$GT$3fmt17h9316138a6cd01a24E)
42004fdc     4fdc        0     1                 
42004fdc     4fdc        0     1                 
42004fdc     4fdc        0     1                 
42004fdc     4fdc        0     1                 
42004fdc     4fdc        e     1                 core::fmt::num::imp::_$LT$impl$u20$core..fmt..Display$u20$for$u20$u32$GT$::fmt::h9316138a6cd01a24
42004fdc     4fdc        e     1                 core::fmt::num::imp::_$LT$impl$u20$core..fmt..Display$u20$for$u20$usize$GT$::fmt::h2469bec0aa3331b6
42004fe0     4fe0        0     1                 
42004fe0     4fe0        0     1                 
42004fea     4fea        0     1                 
42004fea     4fea        0     1                 
42004fea     4fea        0     1                 
42004fea     4fea       12     2         /Users/mabez/.rustup/toolchains/nightly-aarch64-apple-darwin/lib/rustlib/riscv32imac-unknown-none-elf/lib/libcore-081fd8405fc18f2e.rlib(core-081fd8405fc18f2e.core.756fe54c-cgu.0.rcgu.o):(.text._ZN53_$LT$core..fmt..Error$u20$as$u20$core..fmt..Debug$GT$3fmt17h8a8ef5898e323d42E)
42004fea     4fea        0     1                 
42004fea     4fea        0     1                 
42004fea     4fea        0     1                 
42004fea     4fea        0     1                 
42004fea     4fea       12     1                 _$LT$core..fmt..Error$u20$as$u20$core..fmt..Debug$GT$::fmt::h8a8ef5898e323d42
42004ffc     4ffc        0     1                 
42004ffc     4ffc        0     1                 
42004ffc     4ffc        0     1                 
42004ffc     4ffc        0     1                 
42004ffc     4ffc        c     2         /Users/mabez/.rustup/toolchains/nightly-aarch64-apple-darwin/lib/rustlib/riscv32imac-unknown-none-elf/lib/libcore-081fd8405fc18f2e.rlib(core-081fd8405fc18f2e.core.756fe54c-cgu.0.rcgu.o):(.text._ZN42_$LT$$RF$T$u20$as$u20$core..fmt..Debug$GT$3fmt17h183459a932e0c0cfE)
42004ffc     4ffc        c     1                 _$LT$$RF$T$u20$as$u20$core..fmt..Debug$GT$::fmt::h183459a932e0c0cf
42004ffc     4ffc        0     1                 
42004ffc     4ffc        0     1                 
42004ffc     4ffc        0     1                 
42004ffc     4ffc        0     1                 
42004ffe     4ffe        0     1                 
42005000     5000        0     1                 
42005000     5000        0     1                 
42005008     5008        0     1                 
42005008     5008        0     1                 
42005008     5008        0     1                 
42005008     5008        0     1                 
42005008     5008       14     2         /Users/mabez/.rustup/toolchains/nightly-aarch64-apple-darwin/lib/rustlib/riscv32imac-unknown-none-elf/lib/libcore-081fd8405fc18f2e.rlib(core-081fd8405fc18f2e.core.756fe54c-cgu.0.rcgu.o):(.text._ZN42_$LT$$RF$T$u20$as$u20$core..fmt..Debug$GT$3fmt17h2458f1e13370f2ecE)
42005008     5008       14     1                 _$LT$$RF$T$u20$as$u20$core..fmt..Debug$GT$::fmt::h2458f1e13370f2ec
42005008     5008        0     1                 
42005008     5008        0     1                 
42005008     5008        0     1                 
42005008     5008        0     1                 
4200500a     500a        0     1                 
4200500a     500a        0     1                 
42005010     5010        0     1                 
4200501c     501c        0     1                 
4200501c     501c        0     1                 
4200501c     501c        0     1                 
4200501c     501c        0     1                 
4200501c     501c       34     2         /Users/mabez/.rustup/toolchains/nightly-aarch64-apple-darwin/lib/rustlib/riscv32imac-unknown-none-elf/lib/libcore-081fd8405fc18f2e.rlib(core-081fd8405fc18f2e.core.756fe54c-cgu.0.rcgu.o):(.text._ZN42_$LT$$RF$T$u20$as$u20$core..fmt..Debug$GT$3fmt17h3556e9a7fba0e1c7E)
4200501c     501c       34     1                 _$LT$$RF$T$u20$as$u20$core..fmt..Debug$GT$::fmt::h3556e9a7fba0e1c7
4200501c     501c        0     1                 
4200501c     501c        0     1                 
4200501c     501c        0     1                 
4200501e     501e        0     1                 
4200501e     501e        0     1                 
42005020     5020        0     1                 
42005022     5022        0     1                 
42005024     5024        0     1                 
42005024     5024        0     1                 
42005036     5036        0     1                 
42005036     5036        0     1                 
42005038     5038        0     1                 
42005038     5038        0     1                 
4200503c     503c        0     1                 
4200503c     503c        0     1                 
4200503e     503e        0     1                 
4200503e     503e        0     1                 
42005040     5040        0     1                 
4200504a     504a        0     1                 
4200504a     504a        0     1                 
42005050     5050        0     1                 
42005050     5050        0     1                 
42005050     5050        0     1                 
42005050     5050       3e     2         /Users/mabez/.rustup/toolchains/nightly-aarch64-apple-darwin/lib/rustlib/riscv32imac-unknown-none-elf/lib/libcore-081fd8405fc18f2e.rlib(core-081fd8405fc18f2e.core.756fe54c-cgu.0.rcgu.o):(.text._ZN42_$LT$$RF$T$u20$as$u20$core..fmt..Debug$GT$3fmt17h418a2d0c5db73ae8E)
42005050     5050       3e     1                 _$LT$$RF$T$u20$as$u20$core..fmt..Debug$GT$::fmt::h418a2d0c5db73ae8
42005050     5050        0     1                 
42005050     5050        0     1                 
42005050     5050        0     1                 
42005052     5052        0     1                 
42005052     5052        0     1                 
42005052     5052        0     1                 
42005056     5056        0     1                 
4200506c     506c        0     1                 
4200506c     506c        0     1                 
4200506e     506e        0     1                 
4200506e     506e        0     1                 
42005078     5078        0     1                 
42005078     5078        0     1                 
4200508e     508e        0     1                 
4200508e     508e        0     1                 
4200508e     508e        0     1                 
4200508e     508e        0     1                 
4200508e     508e        8     2         /Users/mabez/.rustup/toolchains/nightly-aarch64-apple-darwin/lib/rustlib/riscv32imac-unknown-none-elf/lib/libcore-081fd8405fc18f2e.rlib(core-081fd8405fc18f2e.core.756fe54c-cgu.0.rcgu.o):(.text._ZN42_$LT$$RF$T$u20$as$u20$core..fmt..Debug$GT$3fmt17h595cc801ec50f5daE)
4200508e     508e        8     1                 _$LT$$RF$T$u20$as$u20$core..fmt..Debug$GT$::fmt::h595cc801ec50f5da
4200508e     508e        0     1                 
4200508e     508e        0     1                 
4200508e     508e        0     1                 
4200508e     508e        0     1                 
42005092     5092        0     1                 
42005096     5096        0     1                 
42005096     5096        0     1                 
42005096     5096        0     1                 
42005096     5096       de     2         /Users/mabez/.rustup/toolchains/nightly-aarch64-apple-darwin/lib/rustlib/riscv32imac-unknown-none-elf/lib/libcore-081fd8405fc18f2e.rlib(core-081fd8405fc18f2e.core.756fe54c-cgu.0.rcgu.o):(.text._ZN42_$LT$$RF$T$u20$as$u20$core..fmt..Debug$GT$3fmt17h6077c14044202c8dE)
42005096     5096       de     1                 _$LT$$RF$T$u20$as$u20$core..fmt..Debug$GT$::fmt::h6077c14044202c8d
42005096     5096        0     1                 
42005096     5096        0     1                 
42005096     5096        0     1                 
42005098     5098        0     1                 
4200509a     509a        0     1                 
4200509c     509c        0     1                 
4200509c     509c        0     1                 
4200509e     509e        0     1                 
4200509e     509e        0     1                 
420050a0     50a0        0     1                 
420050a0     50a0        0     1                 
420050a4     50a4        0     1                 
420050a4     50a4        0     1                 
420050a6     50a6        0     1                 
420050a6     50a6        0     1                 
420050aa     50aa        0     1                 
420050aa     50aa        0     1                 
420050ac     50ac        0     1                 
420050ac     50ac        0     1                 
420050ae     50ae        0     1                 
420050ae     50ae        0     1                 
420050be     50be        0     1                 
420050be     50be        0     1                 
420050c0     50c0        0     1                 
420050c0     50c0        0     1                 
420050cc     50cc        0     1                 
420050cc     50cc        0     1                 
420050d4     50d4        0     1                 
420050d6     50d6        0     1                 
420050d6     50d6        0     1                 
420050da     50da        0     1                 
420050da     50da        0     1                 
420050e0     50e0        0     1                 
420050e2     50e2        0     1                 
420050e2     50e2        0     1                 
420050ea     50ea        0     1                 
420050ea     50ea        0     1                 
420050ee     50ee        0     1                 
420050ee     50ee        0     1                 
420050f6     50f6        0     1                 
420050f6     50f6        0     1                 
42005102     5102        0     1                 
42005102     5102        0     1                 
4200510a     510a        0     1                 
4200510c     510c        0     1                 
4200510c     510c        0     1                 
42005110     5110        0     1                 
42005110     5110        0     1                 
42005116     5116        0     1                 
42005118     5118        0     1                 
42005118     5118        0     1                 
42005120     5120        0     1                 
42005120     5120        0     1                 
42005124     5124        0     1                 
42005124     5124        0     1                 
42005158     5158        0     1                 
42005158     5158        0     1                 
4200515e     515e        0     1                 
4200515e     515e        0     1                 
42005174     5174        0     1                 
42005174     5174        0     1                 
42005174     5174        0     1                 
42005174     5174        0     1                 
42005174     5174       c0     2         /Users/mabez/.rustup/toolchains/nightly-aarch64-apple-darwin/lib/rustlib/riscv32imac-unknown-none-elf/lib/libcore-081fd8405fc18f2e.rlib(core-081fd8405fc18f2e.core.756fe54c-cgu.0.rcgu.o):(.text._ZN42_$LT$$RF$T$u20$as$u20$core..fmt..Debug$GT$3fmt17hbf78e50af60f2f35E)
42005174     5174       c0     1                 _$LT$$RF$T$u20$as$u20$core..fmt..Debug$GT$::fmt::hbf78e50af60f2f35
42005174     5174        0     1                 
42005174     5174        0     1                 
42005174     5174        0     1                 
42005176     5176        0     1                 
42005176     5176        0     1                 
4200517c     517c        0     1                 
4200517e     517e        0     1                 
4200517e     517e        0     1                 
42005184     5184        0     1                 
42005184     5184        0     1                 
42005196     5196        0     1                 
42005196     5196        0     1                 
420051a2     51a2        0     1                 
420051a2     51a2        0     1                 
420051a4     51a4        0     1                 
420051b8     51b8        0     1                 
420051b8     51b8        0     1                 
420051ba     51ba        0     1                 
420051be     51be        0     1                 
420051c0     51c0        0     1                 
420051c2     51c2        0     1                 
420051c2     51c2        0     1                 
420051c4     51c4        0     1                 
420051c8     51c8        0     1                 
420051c8     51c8        0     1                 
420051ce     51ce        0     1                 
420051d4     51d4        0     1                 
420051d8     51d8        0     1                 
420051d8     51d8        0     1                 
420051de     51de        0     1                 
420051de     51de        0     1                 
420051e0     51e0        0     1                 
420051e0     51e0        0     1                 
420051f4     51f4        0     1                 
420051f4     51f4        0     1                 
420051f6     51f6        0     1                 
420051f6     51f6        0     1                 
4200520a     520a        0     1                 
4200520a     520a        0     1                 
4200520c     520c        0     1                 
42005210     5210        0     1                 
42005210     5210        0     1                 
4200521a     521a        0     1                 
4200521a     521a        0     1                 
42005234     5234        0     1                 
42005234     5234        0     1                 
42005234     5234        0     1                 
42005234     5234        0     1                 
42005234     5234       10     2         /Users/mabez/.rustup/toolchains/nightly-aarch64-apple-darwin/lib/rustlib/riscv32imac-unknown-none-elf/lib/libcore-081fd8405fc18f2e.rlib(core-081fd8405fc18f2e.core.756fe54c-cgu.0.rcgu.o):(.text._ZN44_$LT$$RF$T$u20$as$u20$core..fmt..Display$GT$3fmt17h7a266e96d93e7d6bE)
42005234     5234       10     1                 _$LT$$RF$T$u20$as$u20$core..fmt..Display$GT$::fmt::h7a266e96d93e7d6b
42005234     5234        0     1                 
42005234     5234        0     1                 
42005234     5234        0     1                 
42005234     5234        0     1                 
4200523a     523a        0     1                 
4200523a     523a        0     1                 
42005244     5244        0     1                 
42005244     5244        0     1                 
42005244     5244        0     1                 
42005244     5244        0     1                 
42005244     5244      138     2         /Users/mabez/.rustup/toolchains/nightly-aarch64-apple-darwin/lib/rustlib/riscv32imac-unknown-none-elf/lib/libcore-081fd8405fc18f2e.rlib(core-081fd8405fc18f2e.core.756fe54c-cgu.0.rcgu.o):(.text._ZN4core7unicode12unicode_data15grapheme_extend6lookup17h2fe7290486e8d868E)
42005244     5244        0     1                 
42005244     5244        0     1                 
42005244     5244        0     1                 
42005244     5244      138     1                 core::unicode::unicode_data::grapheme_extend::lookup::h2fe7290486e8d868
42005246     5246        0     1                 
42005248     5248        0     1                 
4200524a     524a        0     1                 
4200524a     524a        0     1                 
42005260     5260        0     1                 
42005260     5260        0     1                 
42005264     5264        0     1                 
42005268     5268        0     1                 
4200526c     526c        0     1                 
42005270     5270        0     1                 
42005274     5274        0     1                 
42005274     5274        0     1                 
4200527a     527a        0     1                 
4200527a     527a        0     1                 
4200527c     527c        0     1                 
4200527c     527c        0     1                 
4200527e     527e        0     1                 
4200527e     527e        0     1                 
42005282     5282        0     1                 
42005286     5286        0     1                 
42005288     5288        0     1                 
4200528c     528c        0     1                 
42005292     5292        0     1                 
42005292     5292        0     1                 
42005296     5296        0     1                 
42005298     5298        0     1                 
420052ac     52ac        0     1                 
420052b0     52b0        0     1                 
420052b4     52b4        0     1                 
420052b6     52b6        0     1                 
420052b6     52b6        0     1                 
420052b8     52b8        0     1                 
420052b8     52b8        0     1                 
420052bc     52bc        0     1                 
420052bc     52bc        0     1                 
420052c0     52c0        0     1                 
420052c8     52c8        0     1                 
420052c8     52c8        0     1                 
420052e0     52e0        0     1                 
420052e0     52e0        0     1                 
420052e2     52e2        0     1                 
420052e2     52e2        0     1                 
420052e8     52e8        0     1                 
420052ec     52ec        0     1                 
420052ec     52ec        0     1                 
420052f0     52f0        0     1                 
420052f0     52f0        0     1                 
420052f6     52f6        0     1                 
420052fa     52fa        0     1                 
42005304     5304        0     1                 
4200531c     531c        0     1                 
4200531e     531e        0     1                 
42005322     5322        0     1                 
42005324     5324        0     1                 
42005324     5324        0     1                 
42005328     5328        0     1                 
42005328     5328        0     1                 
4200532a     532a        0     1                 
4200532e     532e        0     1                 
4200532e     532e        0     1                 
42005334     5334        0     1                 
42005334     5334        0     1                 
4200534c     534c        0     1                 
42005364     5364        0     1                 
42005364     5364        0     1                 
4200537c     537c        0     1                 
4200537c     537c        0     1                 
4200537c     537c        0     1                 
4200537c     537c        0     1                 
4200537c     537c       10     2         /Users/mabez/.rustup/toolchains/nightly-aarch64-apple-darwin/lib/rustlib/riscv32imac-unknown-none-elf/lib/libcompiler_builtins-1e32d751d3fb162c.rlib(compiler_builtins-1e32d751d3fb162c.compiler_builtins.864c03ce-cgu.20.rcgu.o):(.text.memset)
4200537c     537c        0     1                 
4200537c     537c        0     1                 
4200537c     537c        0     1                 
4200537c     537c        0     1                 
4200537c     537c       10     1                 memset
4200537e     537e        0     1                 
42005380     5380        0     1                 
42005384     5384        0     1                 
4200538a     538a        0     1                 
4200538a     538a        0     1                 
4200538c     538c        0     1                 
4200538c     538c        0     1                 
4200538c     538c        0     1                 
4200538c     538c       10     2         /Users/mabez/Development/rust/embedded/experiments/esp32c3-experiments/target/riscv32imac-unknown-none-elf/debug/deps/libriscv_rt-792395b706c7e295.rlib(riscv-rt.o):(.text)
4200538c     538c        0     1                 .L0 
4200538c     538c        0     1                 .L0 
4200538c     538c        0     1                 .L0 
4200538c     538c        0     1                 .L0 
4200538c     538c        0     1                 default_setup_interrupts
42005394     5394        0     1                 .L0 
42005398     5398        0     1                 .L0 
4200539a     539a        0     1                 .L0 
4200539a     539a        0     1                 abort
4200539c     539c        0     1                 .L0 
4200539c     539c        0     1                 .L0 
4200539c     539c        0     1         _etext = .
4200539c     539c        0     1 _text_size = _etext - _stext + 8
3c00539c     539c     1870    16 .rodata
3c00539c     539c        0     1         _srodata = .
3c00539c     539c       50     1         /Users/mabez/Development/rust/embedded/experiments/esp32c3-experiments/target/riscv32imac-unknown-none-elf/debug/deps/esp32c3-5c92695bd7d79a0b.1167rr2z31gresnb.rcgu.o:(.rodata..L__unnamed_5)
3c00539c     539c       50     1                 .L__unnamed_5
3c0053ec     53ec       10     4         /Users/mabez/Development/rust/embedded/experiments/esp32c3-experiments/target/riscv32imac-unknown-none-elf/debug/deps/esp32c3-5c92695bd7d79a0b.1167rr2z31gresnb.rcgu.o:(.rodata..L__unnamed_1)
3c0053ec     53ec       10     1                 .L__unnamed_1
3c0053fc     53fc       10     4         /Users/mabez/Development/rust/embedded/experiments/esp32c3-experiments/target/riscv32imac-unknown-none-elf/debug/deps/esp32c3-5c92695bd7d79a0b.1167rr2z31gresnb.rcgu.o:(.rodata..L__unnamed_2)
3c0053fc     53fc       10     1                 .L__unnamed_2
3c00540c     540c       12     1         /Users/mabez/Development/rust/embedded/experiments/esp32c3-experiments/target/riscv32imac-unknown-none-elf/debug/deps/esp32c3-5c92695bd7d79a0b.1167rr2z31gresnb.rcgu.o:(.rodata..L__unnamed_6)
3c00540c     540c       12     1                 .L__unnamed_6
3c00541e     541e       13     1         /Users/mabez/Development/rust/embedded/experiments/esp32c3-experiments/target/riscv32imac-unknown-none-elf/debug/deps/esp32c3-5c92695bd7d79a0b.1167rr2z31gresnb.rcgu.o:(.rodata..L__unnamed_7)
3c00541e     541e       13     1                 .L__unnamed_7
3c005431     5431       15     1         /Users/mabez/Development/rust/embedded/experiments/esp32c3-experiments/target/riscv32imac-unknown-none-elf/debug/deps/esp32c3-5c92695bd7d79a0b.1167rr2z31gresnb.rcgu.o:(.rodata..L__unnamed_8)
3c005431     5431       15     1                 .L__unnamed_8
3c005448     5448       18     4         /Users/mabez/Development/rust/embedded/experiments/esp32c3-experiments/target/riscv32imac-unknown-none-elf/debug/deps/esp32c3-5c92695bd7d79a0b.1167rr2z31gresnb.rcgu.o:(.rodata..L__unnamed_3)
3c005448     5448       18     1                 .L__unnamed_3
3c005460     5460       10     4         /Users/mabez/Development/rust/embedded/experiments/esp32c3-experiments/target/riscv32imac-unknown-none-elf/debug/deps/esp32c3-5c92695bd7d79a0b.1167rr2z31gresnb.rcgu.o:(.rodata..L__unnamed_4)
3c005460     5460       10     1                 .L__unnamed_4
3c005470     5470        9     1         /Users/mabez/Development/rust/embedded/experiments/esp32c3-experiments/target/riscv32imac-unknown-none-elf/debug/deps/esp32c3-5c92695bd7d79a0b.17kfpczq76poenv8.rcgu.o:(.rodata..L__unnamed_26)
3c005470     5470        9     1                 .L__unnamed_26
3c00547c     547c        8     4         /Users/mabez/Development/rust/embedded/experiments/esp32c3-experiments/target/riscv32imac-unknown-none-elf/debug/deps/esp32c3-5c92695bd7d79a0b.17kfpczq76poenv8.rcgu.o:(.rodata._ZN7esp32c317DATA_SECTION_TEST17h60efd0563684bbfcE)
3c00547c     547c        8     1                 esp32c3::DATA_SECTION_TEST::h60efd0563684bbfc
3c005484     5484        7     1         /Users/mabez/Development/rust/embedded/experiments/esp32c3-experiments/target/riscv32imac-unknown-none-elf/debug/deps/esp32c3-5c92695bd7d79a0b.17kfpczq76poenv8.rcgu.o:(.rodata..L__unnamed_27)
3c005484     5484        7     1                 .L__unnamed_27
3c00548b     548b        1     1         /Users/mabez/Development/rust/embedded/experiments/esp32c3-experiments/target/riscv32imac-unknown-none-elf/debug/deps/esp32c3-5c92695bd7d79a0b.17kfpczq76poenv8.rcgu.o:(.rodata..L__unnamed_28)
3c00548b     548b        1     1                 .L__unnamed_28
3c00548c     548c       10     4         /Users/mabez/Development/rust/embedded/experiments/esp32c3-experiments/target/riscv32imac-unknown-none-elf/debug/deps/esp32c3-5c92695bd7d79a0b.17kfpczq76poenv8.rcgu.o:(.rodata..L__unnamed_1)
3c00548c     548c       10     1                 .L__unnamed_1
3c00549c     549c       a0     4         <internal>:(.rodata)
3c00553c     553c       18     1         /Users/mabez/Development/rust/embedded/experiments/esp32c3-experiments/target/riscv32imac-unknown-none-elf/debug/deps/esp32c3-5c92695bd7d79a0b.17kfpczq76poenv8.rcgu.o:(.rodata..L__unnamed_29)
3c00553c     553c       18     1                 .L__unnamed_29
3c005554     5554       10     4         /Users/mabez/Development/rust/embedded/experiments/esp32c3-experiments/target/riscv32imac-unknown-none-elf/debug/deps/esp32c3-5c92695bd7d79a0b.17kfpczq76poenv8.rcgu.o:(.rodata..L__unnamed_3)
3c005554     5554       10     1                 .L__unnamed_3
3c005564     5564        d     1         /Users/mabez/Development/rust/embedded/experiments/esp32c3-experiments/target/riscv32imac-unknown-none-elf/debug/deps/esp32c3-5c92695bd7d79a0b.17kfpczq76poenv8.rcgu.o:(.rodata..L__unnamed_30)
3c005564     5564        d     1                 .L__unnamed_30
3c005574     5574       10     4         /Users/mabez/Development/rust/embedded/experiments/esp32c3-experiments/target/riscv32imac-unknown-none-elf/debug/deps/esp32c3-5c92695bd7d79a0b.17kfpczq76poenv8.rcgu.o:(.rodata..L__unnamed_5)
3c005574     5574       10     1                 .L__unnamed_5
3c005584     5584        c     1         /Users/mabez/Development/rust/embedded/experiments/esp32c3-experiments/target/riscv32imac-unknown-none-elf/debug/deps/esp32c3-5c92695bd7d79a0b.17kfpczq76poenv8.rcgu.o:(.rodata..L__unnamed_31)
3c005584     5584        c     1                 .L__unnamed_31
3c005590     5590       10     4         /Users/mabez/Development/rust/embedded/experiments/esp32c3-experiments/target/riscv32imac-unknown-none-elf/debug/deps/esp32c3-5c92695bd7d79a0b.17kfpczq76poenv8.rcgu.o:(.rodata..L__unnamed_6)
3c005590     5590       10     1                 .L__unnamed_6
3c0055a0     55a0        b     1         /Users/mabez/Development/rust/embedded/experiments/esp32c3-experiments/target/riscv32imac-unknown-none-elf/debug/deps/esp32c3-5c92695bd7d79a0b.17kfpczq76poenv8.rcgu.o:(.rodata..L__unnamed_32)
3c0055a0     55a0        b     1                 .L__unnamed_32
3c0055ac     55ac       10     4         /Users/mabez/Development/rust/embedded/experiments/esp32c3-experiments/target/riscv32imac-unknown-none-elf/debug/deps/esp32c3-5c92695bd7d79a0b.17kfpczq76poenv8.rcgu.o:(.rodata..L__unnamed_7)
3c0055ac     55ac       10     1                 .L__unnamed_7
3c0055c0     55c0       1c    16         /Users/mabez/Development/rust/embedded/experiments/esp32c3-experiments/target/riscv32imac-unknown-none-elf/debug/deps/esp32c3-5c92695bd7d79a0b.17kfpczq76poenv8.rcgu.o:(.rodata.str.0)
3c0055c0     55c0       1c     1                 str.0
3c0055dc     55dc       19     1         /Users/mabez/Development/rust/embedded/experiments/esp32c3-experiments/target/riscv32imac-unknown-none-elf/debug/deps/esp32c3-5c92695bd7d79a0b.17kfpczq76poenv8.rcgu.o:(.rodata..L__unnamed_33)
3c0055dc     55dc       19     1                 .L__unnamed_33
3c0055f8     55f8        8     4         /Users/mabez/Development/rust/embedded/experiments/esp32c3-experiments/target/riscv32imac-unknown-none-elf/debug/deps/esp32c3-5c92695bd7d79a0b.17kfpczq76poenv8.rcgu.o:(.rodata..L__unnamed_8)
3c0055f8     55f8        8     1                 .L__unnamed_8
3c005600     5600       10     4         /Users/mabez/Development/rust/embedded/experiments/esp32c3-experiments/target/riscv32imac-unknown-none-elf/debug/deps/esp32c3-5c92695bd7d79a0b.17kfpczq76poenv8.rcgu.o:(.rodata..L__unnamed_9)
3c005600     5600       10     1                 .L__unnamed_9
3c005610     5610        d     1         /Users/mabez/Development/rust/embedded/experiments/esp32c3-experiments/target/riscv32imac-unknown-none-elf/debug/deps/esp32c3-5c92695bd7d79a0b.17kfpczq76poenv8.rcgu.o:(.rodata..L__unnamed_34)
3c005610     5610        d     1                 .L__unnamed_34
3c005620     5620        8     4         /Users/mabez/Development/rust/embedded/experiments/esp32c3-experiments/target/riscv32imac-unknown-none-elf/debug/deps/esp32c3-5c92695bd7d79a0b.17kfpczq76poenv8.rcgu.o:(.rodata..L__unnamed_10)
3c005620     5620        8     1                 .L__unnamed_10
3c005628     5628        0     4         /Users/mabez/Development/rust/embedded/experiments/esp32c3-experiments/target/riscv32imac-unknown-none-elf/debug/deps/esp32c3-5c92695bd7d79a0b.17kfpczq76poenv8.rcgu.o:(.rodata..L__unnamed_11)
3c005628     5628        0     1                 .L__unnamed_11
3c005628     5628       10     4         /Users/mabez/Development/rust/embedded/experiments/esp32c3-experiments/target/riscv32imac-unknown-none-elf/debug/deps/esp32c3-5c92695bd7d79a0b.17kfpczq76poenv8.rcgu.o:(.rodata..L__unnamed_12)
3c005628     5628       10     1                 .L__unnamed_12
3c005638     5638       10     4         /Users/mabez/Development/rust/embedded/experiments/esp32c3-experiments/target/riscv32imac-unknown-none-elf/debug/deps/esp32c3-5c92695bd7d79a0b.17kfpczq76poenv8.rcgu.o:(.rodata..L__unnamed_13)
3c005638     5638       10     1                 .L__unnamed_13
3c005648     5648       10     4         /Users/mabez/Development/rust/embedded/experiments/esp32c3-experiments/target/riscv32imac-unknown-none-elf/debug/deps/esp32c3-5c92695bd7d79a0b.17kfpczq76poenv8.rcgu.o:(.rodata..L__unnamed_14)
3c005648     5648       10     1                 .L__unnamed_14
3c005658     5658       10     4         /Users/mabez/Development/rust/embedded/experiments/esp32c3-experiments/target/riscv32imac-unknown-none-elf/debug/deps/esp32c3-5c92695bd7d79a0b.17kfpczq76poenv8.rcgu.o:(.rodata..L__unnamed_15)
3c005658     5658       10     1                 .L__unnamed_15
3c005668     5668        c     1         /Users/mabez/Development/rust/embedded/experiments/esp32c3-experiments/target/riscv32imac-unknown-none-elf/debug/deps/esp32c3-5c92695bd7d79a0b.17kfpczq76poenv8.rcgu.o:(.rodata..L__unnamed_35)
3c005668     5668        c     1                 .L__unnamed_35
3c005674     5674       10     4         /Users/mabez/Development/rust/embedded/experiments/esp32c3-experiments/target/riscv32imac-unknown-none-elf/debug/deps/esp32c3-5c92695bd7d79a0b.17kfpczq76poenv8.rcgu.o:(.rodata..L__unnamed_16)
3c005674     5674       10     1                 .L__unnamed_16
3c005684     5684       10     4         /Users/mabez/Development/rust/embedded/experiments/esp32c3-experiments/target/riscv32imac-unknown-none-elf/debug/deps/esp32c3-5c92695bd7d79a0b.17kfpczq76poenv8.rcgu.o:(.rodata..L__unnamed_17)
3c005684     5684       10     1                 .L__unnamed_17
3c005694     5694        5     1         /Users/mabez/Development/rust/embedded/experiments/esp32c3-experiments/target/riscv32imac-unknown-none-elf/debug/deps/esp32c3-5c92695bd7d79a0b.17kfpczq76poenv8.rcgu.o:(.rodata..L__unnamed_36)
3c005694     5694        5     1                 .L__unnamed_36
3c00569c     569c        8     4         /Users/mabez/Development/rust/embedded/experiments/esp32c3-experiments/target/riscv32imac-unknown-none-elf/debug/deps/esp32c3-5c92695bd7d79a0b.17kfpczq76poenv8.rcgu.o:(.rodata..L__unnamed_18)
3c00569c     569c        8     1                 .L__unnamed_18
3c0056a4     56a4       10     4         /Users/mabez/Development/rust/embedded/experiments/esp32c3-experiments/target/riscv32imac-unknown-none-elf/debug/deps/esp32c3-5c92695bd7d79a0b.17kfpczq76poenv8.rcgu.o:(.rodata..L__unnamed_19)
3c0056a4     56a4       10     1                 .L__unnamed_19
3c0056b4     56b4       10     4         /Users/mabez/Development/rust/embedded/experiments/esp32c3-experiments/target/riscv32imac-unknown-none-elf/debug/deps/esp32c3-5c92695bd7d79a0b.17kfpczq76poenv8.rcgu.o:(.rodata..L__unnamed_20)
3c0056b4     56b4       10     1                 .L__unnamed_20
3c0056c4     56c4       10     4         /Users/mabez/Development/rust/embedded/experiments/esp32c3-experiments/target/riscv32imac-unknown-none-elf/debug/deps/esp32c3-5c92695bd7d79a0b.17kfpczq76poenv8.rcgu.o:(.rodata..L__unnamed_21)
3c0056c4     56c4       10     1                 .L__unnamed_21
3c0056d4     56d4       2c     1         <internal>:(.rodata)
3c005700     5700        8     4         /Users/mabez/Development/rust/embedded/experiments/esp32c3-experiments/target/riscv32imac-unknown-none-elf/debug/deps/esp32c3-5c92695bd7d79a0b.17kfpczq76poenv8.rcgu.o:(.rodata..L__unnamed_22)
3c005700     5700        8     1                 .L__unnamed_22
3c005708     5708       10     4         /Users/mabez/Development/rust/embedded/experiments/esp32c3-experiments/target/riscv32imac-unknown-none-elf/debug/deps/esp32c3-5c92695bd7d79a0b.17kfpczq76poenv8.rcgu.o:(.rodata..L__unnamed_23)
3c005708     5708       10     1                 .L__unnamed_23
3c005718     5718       10     4         /Users/mabez/Development/rust/embedded/experiments/esp32c3-experiments/target/riscv32imac-unknown-none-elf/debug/deps/esp32c3-5c92695bd7d79a0b.17kfpczq76poenv8.rcgu.o:(.rodata..L__unnamed_24)
3c005718     5718       10     1                 .L__unnamed_24
3c005728     5728       10     4         /Users/mabez/Development/rust/embedded/experiments/esp32c3-experiments/target/riscv32imac-unknown-none-elf/debug/deps/esp32c3-5c92695bd7d79a0b.17kfpczq76poenv8.rcgu.o:(.rodata..L__unnamed_25)
3c005728     5728       10     1                 .L__unnamed_25
3c005738     5738        2     1         /Users/mabez/Development/rust/embedded/experiments/esp32c3-experiments/target/riscv32imac-unknown-none-elf/debug/deps/esp32c3-5c92695bd7d79a0b.2bt420y5da8z26cy.rcgu.o:(.rodata..L__unnamed_1)
3c005738     5738        2     1                 .L__unnamed_1
3c00573a     573a        c     1         /Users/mabez/Development/rust/embedded/experiments/esp32c3-experiments/target/riscv32imac-unknown-none-elf/debug/deps/esp32c3-5c92695bd7d79a0b.2bt420y5da8z26cy.rcgu.o:(.rodata..L__unnamed_2)
3c00573a     573a        c     1                 .L__unnamed_2
3c005746     5746       4b     1         /Users/mabez/Development/rust/embedded/experiments/esp32c3-experiments/target/riscv32imac-unknown-none-elf/debug/deps/esp32c3-5c92695bd7d79a0b.2bt420y5da8z26cy.rcgu.o:(.rodata..L__unnamed_4)
3c005746     5746       4b     1                 .L__unnamed_4
3c005794     5794       10     4         /Users/mabez/Development/rust/embedded/experiments/esp32c3-experiments/target/riscv32imac-unknown-none-elf/debug/deps/esp32c3-5c92695bd7d79a0b.2bt420y5da8z26cy.rcgu.o:(.rodata..L__unnamed_3)
3c005794     5794       10     1                 .L__unnamed_3
3c0057a4     57a4       18     4         /Users/mabez/Development/rust/embedded/experiments/esp32c3-experiments/target/riscv32imac-unknown-none-elf/debug/deps/esp32c3-5c92695bd7d79a0b.4d3o56o4s3rmpew1.rcgu.o:(.rodata..L__unnamed_1)
3c0057a4     57a4       18     1                 .L__unnamed_1
3c0057bc     57bc       2b     1         /Users/mabez/Development/rust/embedded/experiments/esp32c3-experiments/target/riscv32imac-unknown-none-elf/debug/deps/esp32c3-5c92695bd7d79a0b.57j3pmw6ctaj3l7m.rcgu.o:(.rodata..L__unnamed_5)
3c0057bc     57bc       2b     1                 .L__unnamed_5
3c0057e8     57e8       10     4         /Users/mabez/Development/rust/embedded/experiments/esp32c3-experiments/target/riscv32imac-unknown-none-elf/debug/deps/esp32c3-5c92695bd7d79a0b.57j3pmw6ctaj3l7m.rcgu.o:(.rodata..L__unnamed_1)
3c0057e8     57e8       10     1                 .L__unnamed_1
3c0057f8     57f8       10     4         /Users/mabez/Development/rust/embedded/experiments/esp32c3-experiments/target/riscv32imac-unknown-none-elf/debug/deps/esp32c3-5c92695bd7d79a0b.57j3pmw6ctaj3l7m.rcgu.o:(.rodata..L__unnamed_2)
3c0057f8     57f8       10     1                 .L__unnamed_2
3c005808     5808       10     4         /Users/mabez/Development/rust/embedded/experiments/esp32c3-experiments/target/riscv32imac-unknown-none-elf/debug/deps/esp32c3-5c92695bd7d79a0b.57j3pmw6ctaj3l7m.rcgu.o:(.rodata..L__unnamed_3)
3c005808     5808       10     1                 .L__unnamed_3
3c005818     5818       10     4         /Users/mabez/Development/rust/embedded/experiments/esp32c3-experiments/target/riscv32imac-unknown-none-elf/debug/deps/esp32c3-5c92695bd7d79a0b.57j3pmw6ctaj3l7m.rcgu.o:(.rodata..L__unnamed_4)
3c005818     5818       10     1                 .L__unnamed_4
3c005828     5828       14     4         /Users/mabez/Development/rust/embedded/experiments/esp32c3-experiments/target/riscv32imac-unknown-none-elf/debug/deps/esp32c3-5c92695bd7d79a0b.57vaia0p0nh7h46b.rcgu.o:(.rodata._ZN4core4sync6atomic23atomic_compare_exchange17h3bace4b6d5f0a5bcE)
3c005828     5828        0     1                 .LJTI0_0
3c00583c     583c       3c     1         /Users/mabez/Development/rust/embedded/experiments/esp32c3-experiments/target/riscv32imac-unknown-none-elf/debug/deps/esp32c3-5c92695bd7d79a0b.57vaia0p0nh7h46b.rcgu.o:(.rodata..L__unnamed_1)
3c00583c     583c       3c     1                 .L__unnamed_1
3c005878     5878       4f     1         /Users/mabez/Development/rust/embedded/experiments/esp32c3-experiments/target/riscv32imac-unknown-none-elf/debug/deps/esp32c3-5c92695bd7d79a0b.57vaia0p0nh7h46b.rcgu.o:(.rodata..L__unnamed_7)
3c005878     5878       4f     1                 .L__unnamed_7
3c0058c8     58c8       10     4         /Users/mabez/Development/rust/embedded/experiments/esp32c3-experiments/target/riscv32imac-unknown-none-elf/debug/deps/esp32c3-5c92695bd7d79a0b.57vaia0p0nh7h46b.rcgu.o:(.rodata..L__unnamed_2)
3c0058c8     58c8       10     1                 .L__unnamed_2
3c0058d8     58d8       3d     1         /Users/mabez/Development/rust/embedded/experiments/esp32c3-experiments/target/riscv32imac-unknown-none-elf/debug/deps/esp32c3-5c92695bd7d79a0b.57vaia0p0nh7h46b.rcgu.o:(.rodata..L__unnamed_5)
3c0058d8     58d8       3d     1                 .L__unnamed_5
3c005918     5918       10     4         /Users/mabez/Development/rust/embedded/experiments/esp32c3-experiments/target/riscv32imac-unknown-none-elf/debug/deps/esp32c3-5c92695bd7d79a0b.57vaia0p0nh7h46b.rcgu.o:(.rodata..L__unnamed_6)
3c005918     5918       10     1                 .L__unnamed_6
3c005928     5928       34     1         /Users/mabez/Development/rust/embedded/experiments/esp32c3-experiments/target/riscv32imac-unknown-none-elf/debug/deps/esp32c3-5c92695bd7d79a0b.57vaia0p0nh7h46b.rcgu.o:(.rodata..L__unnamed_3)
3c005928     5928       34     1                 .L__unnamed_3
3c00595c     595c       10     4         /Users/mabez/Development/rust/embedded/experiments/esp32c3-experiments/target/riscv32imac-unknown-none-elf/debug/deps/esp32c3-5c92695bd7d79a0b.57vaia0p0nh7h46b.rcgu.o:(.rodata..L__unnamed_4)
3c00595c     595c       10     1                 .L__unnamed_4
3c00596c     596c        a     1         /Users/mabez/Development/rust/embedded/experiments/esp32c3-experiments/target/riscv32imac-unknown-none-elf/debug/deps/libesp32c3_lib-435c508db645f62b.rlib(esp32c3_lib-435c508db645f62b.enpltv37r0tja3s.rcgu.o):(.rodata..L__unnamed_6)
3c00596c     596c        a     1                 .L__unnamed_6
3c005978     5978       10     4         /Users/mabez/Development/rust/embedded/experiments/esp32c3-experiments/target/riscv32imac-unknown-none-elf/debug/deps/libesp32c3_lib-435c508db645f62b.rlib(esp32c3_lib-435c508db645f62b.enpltv37r0tja3s.rcgu.o):(.rodata..L__unnamed_1)
3c005978     5978       10     1                 .L__unnamed_1
3c005990     5990       21    16         /Users/mabez/Development/rust/embedded/experiments/esp32c3-experiments/target/riscv32imac-unknown-none-elf/debug/deps/libesp32c3_lib-435c508db645f62b.rlib(esp32c3_lib-435c508db645f62b.enpltv37r0tja3s.rcgu.o):(.rodata.str.0)
3c005990     5990       21     1                 str.0
3c0059b4     59b4       10     4         /Users/mabez/Development/rust/embedded/experiments/esp32c3-experiments/target/riscv32imac-unknown-none-elf/debug/deps/libesp32c3_lib-435c508db645f62b.rlib(esp32c3_lib-435c508db645f62b.enpltv37r0tja3s.rcgu.o):(.rodata..L__unnamed_2)
3c0059b4     59b4       10     1                 .L__unnamed_2
3c0059d0     59d0       1c    16         /Users/mabez/Development/rust/embedded/experiments/esp32c3-experiments/target/riscv32imac-unknown-none-elf/debug/deps/libesp32c3_lib-435c508db645f62b.rlib(esp32c3_lib-435c508db645f62b.enpltv37r0tja3s.rcgu.o):(.rodata.str.1)
3c0059d0     59d0       1c     1                 str.1
3c0059ec     59ec       10     4         /Users/mabez/Development/rust/embedded/experiments/esp32c3-experiments/target/riscv32imac-unknown-none-elf/debug/deps/libesp32c3_lib-435c508db645f62b.rlib(esp32c3_lib-435c508db645f62b.enpltv37r0tja3s.rcgu.o):(.rodata..L__unnamed_3)
3c0059ec     59ec       10     1                 .L__unnamed_3
3c005a00     5a00       23    16         /Users/mabez/Development/rust/embedded/experiments/esp32c3-experiments/target/riscv32imac-unknown-none-elf/debug/deps/libesp32c3_lib-435c508db645f62b.rlib(esp32c3_lib-435c508db645f62b.enpltv37r0tja3s.rcgu.o):(.rodata.str.2)
3c005a00     5a00       23     1                 str.2
3c005a24     5a24       10     4         /Users/mabez/Development/rust/embedded/experiments/esp32c3-experiments/target/riscv32imac-unknown-none-elf/debug/deps/libesp32c3_lib-435c508db645f62b.rlib(esp32c3_lib-435c508db645f62b.enpltv37r0tja3s.rcgu.o):(.rodata..L__unnamed_4)
3c005a24     5a24       10     1                 .L__unnamed_4
3c005a34     5a34       10     4         /Users/mabez/Development/rust/embedded/experiments/esp32c3-experiments/target/riscv32imac-unknown-none-elf/debug/deps/libesp32c3_lib-435c508db645f62b.rlib(esp32c3_lib-435c508db645f62b.enpltv37r0tja3s.rcgu.o):(.rodata..L__unnamed_5)
3c005a34     5a34       10     1                 .L__unnamed_5
3c005a44     5a44       56     1         /Users/mabez/Development/rust/embedded/experiments/esp32c3-experiments/target/riscv32imac-unknown-none-elf/debug/deps/libriscv_atomic_emulation_trap-9111affe446510c3.rlib(riscv_atomic_emulation_trap-9111affe446510c3.7puluphka9w3g90.rcgu.o):(.rodata..L__unnamed_53)
3c005a44     5a44       56     1                 .L__unnamed_53
3c005a9c     5a9c       10     4         /Users/mabez/Development/rust/embedded/experiments/esp32c3-experiments/target/riscv32imac-unknown-none-elf/debug/deps/libriscv_atomic_emulation_trap-9111affe446510c3.rlib(riscv_atomic_emulation_trap-9111affe446510c3.7puluphka9w3g90.rcgu.o):(.rodata..L__unnamed_2)
3c005a9c     5a9c       10     1                 .L__unnamed_2
3c005ab0     5ab0       19    16         /Users/mabez/Development/rust/embedded/experiments/esp32c3-experiments/target/riscv32imac-unknown-none-elf/debug/deps/libriscv_atomic_emulation_trap-9111affe446510c3.rlib(riscv_atomic_emulation_trap-9111affe446510c3.7puluphka9w3g90.rcgu.o):(.rodata.str.0)
3c005ab0     5ab0       19     1                 str.0
3c005ac9     5ac9        3     1         /Users/mabez/Development/rust/embedded/experiments/esp32c3-experiments/target/riscv32imac-unknown-none-elf/debug/deps/libriscv_atomic_emulation_trap-9111affe446510c3.rlib(riscv_atomic_emulation_trap-9111affe446510c3.7puluphka9w3g90.rcgu.o):(.rodata..L__unnamed_54)
3c005ac9     5ac9        3     1                 .L__unnamed_54
3c005acc     5acc        1     1         /Users/mabez/Development/rust/embedded/experiments/esp32c3-experiments/target/riscv32imac-unknown-none-elf/debug/deps/libriscv_atomic_emulation_trap-9111affe446510c3.rlib(riscv_atomic_emulation_trap-9111affe446510c3.7puluphka9w3g90.rcgu.o):(.rodata..L__unnamed_56)
3c005acc     5acc        1     1                 .L__unnamed_56
3c005ad0     5ad0       18     4         /Users/mabez/Development/rust/embedded/experiments/esp32c3-experiments/target/riscv32imac-unknown-none-elf/debug/deps/libriscv_atomic_emulation_trap-9111affe446510c3.rlib(riscv_atomic_emulation_trap-9111affe446510c3.7puluphka9w3g90.rcgu.o):(.rodata..L__unnamed_4)
3c005ad0     5ad0       18     1                 .L__unnamed_4
3c005ae8     5ae8       10     4         /Users/mabez/Development/rust/embedded/experiments/esp32c3-experiments/target/riscv32imac-unknown-none-elf/debug/deps/libriscv_atomic_emulation_trap-9111affe446510c3.rlib(riscv_atomic_emulation_trap-9111affe446510c3.7puluphka9w3g90.rcgu.o):(.rodata..L__unnamed_3)
3c005ae8     5ae8       10     1                 .L__unnamed_3
3c005af8     5af8       18     4         /Users/mabez/Development/rust/embedded/experiments/esp32c3-experiments/target/riscv32imac-unknown-none-elf/debug/deps/libriscv_atomic_emulation_trap-9111affe446510c3.rlib(riscv_atomic_emulation_trap-9111affe446510c3.7puluphka9w3g90.rcgu.o):(.rodata..L__unnamed_6)
3c005af8     5af8       18     1                 .L__unnamed_6
3c005b10     5b10       10     4         /Users/mabez/Development/rust/embedded/experiments/esp32c3-experiments/target/riscv32imac-unknown-none-elf/debug/deps/libriscv_atomic_emulation_trap-9111affe446510c3.rlib(riscv_atomic_emulation_trap-9111affe446510c3.7puluphka9w3g90.rcgu.o):(.rodata..L__unnamed_5)
3c005b10     5b10       10     1                 .L__unnamed_5
3c005b20     5b20       18     4         /Users/mabez/Development/rust/embedded/experiments/esp32c3-experiments/target/riscv32imac-unknown-none-elf/debug/deps/libriscv_atomic_emulation_trap-9111affe446510c3.rlib(riscv_atomic_emulation_trap-9111affe446510c3.7puluphka9w3g90.rcgu.o):(.rodata..L__unnamed_8)
3c005b20     5b20       18     1                 .L__unnamed_8
3c005b38     5b38       10     4         /Users/mabez/Development/rust/embedded/experiments/esp32c3-experiments/target/riscv32imac-unknown-none-elf/debug/deps/libriscv_atomic_emulation_trap-9111affe446510c3.rlib(riscv_atomic_emulation_trap-9111affe446510c3.7puluphka9w3g90.rcgu.o):(.rodata..L__unnamed_7)
3c005b38     5b38       10     1                 .L__unnamed_7
3c005b48     5b48        d     1         /Users/mabez/Development/rust/embedded/experiments/esp32c3-experiments/target/riscv32imac-unknown-none-elf/debug/deps/libriscv_atomic_emulation_trap-9111affe446510c3.rlib(riscv_atomic_emulation_trap-9111affe446510c3.7puluphka9w3g90.rcgu.o):(.rodata..L__unnamed_59)
3c005b48     5b48        d     1                 .L__unnamed_59
3c005b58     5b58        8     4         /Users/mabez/Development/rust/embedded/experiments/esp32c3-experiments/target/riscv32imac-unknown-none-elf/debug/deps/libriscv_atomic_emulation_trap-9111affe446510c3.rlib(riscv_atomic_emulation_trap-9111affe446510c3.7puluphka9w3g90.rcgu.o):(.rodata..L__unnamed_11)
3c005b58     5b58        8     1                 .L__unnamed_11
3c005b60     5b60        0     4         /Users/mabez/Development/rust/embedded/experiments/esp32c3-experiments/target/riscv32imac-unknown-none-elf/debug/deps/libriscv_atomic_emulation_trap-9111affe446510c3.rlib(riscv_atomic_emulation_trap-9111affe446510c3.7puluphka9w3g90.rcgu.o):(.rodata..L__unnamed_10)
3c005b60     5b60        0     1                 .L__unnamed_10
3c005b60     5b60       10     4         /Users/mabez/Development/rust/embedded/experiments/esp32c3-experiments/target/riscv32imac-unknown-none-elf/debug/deps/libriscv_atomic_emulation_trap-9111affe446510c3.rlib(riscv_atomic_emulation_trap-9111affe446510c3.7puluphka9w3g90.rcgu.o):(.rodata..L__unnamed_12)
3c005b60     5b60       10     1                 .L__unnamed_12
3c005b70     5b70       10     4         /Users/mabez/Development/rust/embedded/experiments/esp32c3-experiments/target/riscv32imac-unknown-none-elf/debug/deps/libriscv_atomic_emulation_trap-9111affe446510c3.rlib(riscv_atomic_emulation_trap-9111affe446510c3.7puluphka9w3g90.rcgu.o):(.rodata..L__unnamed_13)
3c005b70     5b70       10     1                 .L__unnamed_13
3c005b80     5b80       10     4         /Users/mabez/Development/rust/embedded/experiments/esp32c3-experiments/target/riscv32imac-unknown-none-elf/debug/deps/libriscv_atomic_emulation_trap-9111affe446510c3.rlib(riscv_atomic_emulation_trap-9111affe446510c3.7puluphka9w3g90.rcgu.o):(.rodata..L__unnamed_14)
3c005b80     5b80       10     1                 .L__unnamed_14
3c005b90     5b90       10     4         /Users/mabez/Development/rust/embedded/experiments/esp32c3-experiments/target/riscv32imac-unknown-none-elf/debug/deps/libriscv_atomic_emulation_trap-9111affe446510c3.rlib(riscv_atomic_emulation_trap-9111affe446510c3.7puluphka9w3g90.rcgu.o):(.rodata..L__unnamed_15)
3c005b90     5b90       10     1                 .L__unnamed_15
3c005ba0     5ba0        d     1         /Users/mabez/Development/rust/embedded/experiments/esp32c3-experiments/target/riscv32imac-unknown-none-elf/debug/deps/libriscv_atomic_emulation_trap-9111affe446510c3.rlib(riscv_atomic_emulation_trap-9111affe446510c3.7puluphka9w3g90.rcgu.o):(.rodata..L__unnamed_60)
3c005ba0     5ba0        d     1                 .L__unnamed_60
3c005bb0     5bb0        8     4         /Users/mabez/Development/rust/embedded/experiments/esp32c3-experiments/target/riscv32imac-unknown-none-elf/debug/deps/libriscv_atomic_emulation_trap-9111affe446510c3.rlib(riscv_atomic_emulation_trap-9111affe446510c3.7puluphka9w3g90.rcgu.o):(.rodata..L__unnamed_9)
3c005bb0     5bb0        8     1                 .L__unnamed_9
3c005bb8     5bb8       10     4         /Users/mabez/Development/rust/embedded/experiments/esp32c3-experiments/target/riscv32imac-unknown-none-elf/debug/deps/libriscv_atomic_emulation_trap-9111affe446510c3.rlib(riscv_atomic_emulation_trap-9111affe446510c3.7puluphka9w3g90.rcgu.o):(.rodata..L__unnamed_16)
3c005bb8     5bb8       10     1                 .L__unnamed_16
3c005bc8     5bc8        6     1         /Users/mabez/Development/rust/embedded/experiments/esp32c3-experiments/target/riscv32imac-unknown-none-elf/debug/deps/libriscv_atomic_emulation_trap-9111affe446510c3.rlib(riscv_atomic_emulation_trap-9111affe446510c3.7puluphka9w3g90.rcgu.o):(.rodata..L__unnamed_61)
3c005bc8     5bc8        6     1                 .L__unnamed_61
3c005bd0     5bd0       10     4         /Users/mabez/Development/rust/embedded/experiments/esp32c3-experiments/target/riscv32imac-unknown-none-elf/debug/deps/libriscv_atomic_emulation_trap-9111affe446510c3.rlib(riscv_atomic_emulation_trap-9111affe446510c3.7puluphka9w3g90.rcgu.o):(.rodata..L__unnamed_17)
3c005bd0     5bd0       10     1                 .L__unnamed_17
3c005be0     5be0       10     4         /Users/mabez/Development/rust/embedded/experiments/esp32c3-experiments/target/riscv32imac-unknown-none-elf/debug/deps/libriscv_atomic_emulation_trap-9111affe446510c3.rlib(riscv_atomic_emulation_trap-9111affe446510c3.7puluphka9w3g90.rcgu.o):(.rodata..L__unnamed_18)
3c005be0     5be0       10     1                 .L__unnamed_18
3c005bf0     5bf0        9     1         /Users/mabez/Development/rust/embedded/experiments/esp32c3-experiments/target/riscv32imac-unknown-none-elf/debug/deps/libriscv_atomic_emulation_trap-9111affe446510c3.rlib(riscv_atomic_emulation_trap-9111affe446510c3.7puluphka9w3g90.rcgu.o):(.rodata..L__unnamed_20)
3c005bf0     5bf0        9     1                 .L__unnamed_20
3c005bfc     5bfc       10     4         /Users/mabez/Development/rust/embedded/experiments/esp32c3-experiments/target/riscv32imac-unknown-none-elf/debug/deps/libriscv_atomic_emulation_trap-9111affe446510c3.rlib(riscv_atomic_emulation_trap-9111affe446510c3.7puluphka9w3g90.rcgu.o):(.rodata..L__unnamed_1)
3c005bfc     5bfc       10     1                 .L__unnamed_1
3c005c0c     5c0c        2     1         /Users/mabez/Development/rust/embedded/experiments/esp32c3-experiments/target/riscv32imac-unknown-none-elf/debug/deps/libriscv_atomic_emulation_trap-9111affe446510c3.rlib(riscv_atomic_emulation_trap-9111affe446510c3.7puluphka9w3g90.rcgu.o):(.rodata..L__unnamed_22)
3c005c0c     5c0c        2     1                 .L__unnamed_22
3c005c0e     5c0e        2     1         /Users/mabez/Development/rust/embedded/experiments/esp32c3-experiments/target/riscv32imac-unknown-none-elf/debug/deps/libriscv_atomic_emulation_trap-9111affe446510c3.rlib(riscv_atomic_emulation_trap-9111affe446510c3.7puluphka9w3g90.rcgu.o):(.rodata..L__unnamed_23)
3c005c0e     5c0e        2     1                 .L__unnamed_23
3c005c10     5c10        2     1         /Users/mabez/Development/rust/embedded/experiments/esp32c3-experiments/target/riscv32imac-unknown-none-elf/debug/deps/libriscv_atomic_emulation_trap-9111affe446510c3.rlib(riscv_atomic_emulation_trap-9111affe446510c3.7puluphka9w3g90.rcgu.o):(.rodata..L__unnamed_24)
3c005c10     5c10        2     1                 .L__unnamed_24
3c005c12     5c12        2     1         /Users/mabez/Development/rust/embedded/experiments/esp32c3-experiments/target/riscv32imac-unknown-none-elf/debug/deps/libriscv_atomic_emulation_trap-9111affe446510c3.rlib(riscv_atomic_emulation_trap-9111affe446510c3.7puluphka9w3g90.rcgu.o):(.rodata..L__unnamed_25)
3c005c12     5c12        2     1                 .L__unnamed_25
3c005c14     5c14        2     1         /Users/mabez/Development/rust/embedded/experiments/esp32c3-experiments/target/riscv32imac-unknown-none-elf/debug/deps/libriscv_atomic_emulation_trap-9111affe446510c3.rlib(riscv_atomic_emulation_trap-9111affe446510c3.7puluphka9w3g90.rcgu.o):(.rodata..L__unnamed_26)
3c005c14     5c14        2     1                 .L__unnamed_26
3c005c16     5c16        2     1         /Users/mabez/Development/rust/embedded/experiments/esp32c3-experiments/target/riscv32imac-unknown-none-elf/debug/deps/libriscv_atomic_emulation_trap-9111affe446510c3.rlib(riscv_atomic_emulation_trap-9111affe446510c3.7puluphka9w3g90.rcgu.o):(.rodata..L__unnamed_27)
3c005c16     5c16        2     1                 .L__unnamed_27
3c005c18     5c18        2     1         /Users/mabez/Development/rust/embedded/experiments/esp32c3-experiments/target/riscv32imac-unknown-none-elf/debug/deps/libriscv_atomic_emulation_trap-9111affe446510c3.rlib(riscv_atomic_emulation_trap-9111affe446510c3.7puluphka9w3g90.rcgu.o):(.rodata..L__unnamed_28)
3c005c18     5c18        2     1                 .L__unnamed_28
3c005c1a     5c1a        2     1         /Users/mabez/Development/rust/embedded/experiments/esp32c3-experiments/target/riscv32imac-unknown-none-elf/debug/deps/libriscv_atomic_emulation_trap-9111affe446510c3.rlib(riscv_atomic_emulation_trap-9111affe446510c3.7puluphka9w3g90.rcgu.o):(.rodata..L__unnamed_29)
3c005c1a     5c1a        2     1                 .L__unnamed_29
3c005c1c     5c1c        2     1         /Users/mabez/Development/rust/embedded/experiments/esp32c3-experiments/target/riscv32imac-unknown-none-elf/debug/deps/libriscv_atomic_emulation_trap-9111affe446510c3.rlib(riscv_atomic_emulation_trap-9111affe446510c3.7puluphka9w3g90.rcgu.o):(.rodata..L__unnamed_30)
3c005c1c     5c1c        2     1                 .L__unnamed_30
3c005c1e     5c1e        2     1         /Users/mabez/Development/rust/embedded/experiments/esp32c3-experiments/target/riscv32imac-unknown-none-elf/debug/deps/libriscv_atomic_emulation_trap-9111affe446510c3.rlib(riscv_atomic_emulation_trap-9111affe446510c3.7puluphka9w3g90.rcgu.o):(.rodata..L__unnamed_31)
3c005c1e     5c1e        2     1                 .L__unnamed_31
3c005c20     5c20        2     1         /Users/mabez/Development/rust/embedded/experiments/esp32c3-experiments/target/riscv32imac-unknown-none-elf/debug/deps/libriscv_atomic_emulation_trap-9111affe446510c3.rlib(riscv_atomic_emulation_trap-9111affe446510c3.7puluphka9w3g90.rcgu.o):(.rodata..L__unnamed_32)
3c005c20     5c20        2     1                 .L__unnamed_32
3c005c22     5c22        2     1         /Users/mabez/Development/rust/embedded/experiments/esp32c3-experiments/target/riscv32imac-unknown-none-elf/debug/deps/libriscv_atomic_emulation_trap-9111affe446510c3.rlib(riscv_atomic_emulation_trap-9111affe446510c3.7puluphka9w3g90.rcgu.o):(.rodata..L__unnamed_33)
3c005c22     5c22        2     1                 .L__unnamed_33
3c005c24     5c24        2     1         /Users/mabez/Development/rust/embedded/experiments/esp32c3-experiments/target/riscv32imac-unknown-none-elf/debug/deps/libriscv_atomic_emulation_trap-9111affe446510c3.rlib(riscv_atomic_emulation_trap-9111affe446510c3.7puluphka9w3g90.rcgu.o):(.rodata..L__unnamed_34)
3c005c24     5c24        2     1                 .L__unnamed_34
3c005c26     5c26        2     1         /Users/mabez/Development/rust/embedded/experiments/esp32c3-experiments/target/riscv32imac-unknown-none-elf/debug/deps/libriscv_atomic_emulation_trap-9111affe446510c3.rlib(riscv_atomic_emulation_trap-9111affe446510c3.7puluphka9w3g90.rcgu.o):(.rodata..L__unnamed_35)
3c005c26     5c26        2     1                 .L__unnamed_35
3c005c28     5c28        2     1         /Users/mabez/Development/rust/embedded/experiments/esp32c3-experiments/target/riscv32imac-unknown-none-elf/debug/deps/libriscv_atomic_emulation_trap-9111affe446510c3.rlib(riscv_atomic_emulation_trap-9111affe446510c3.7puluphka9w3g90.rcgu.o):(.rodata..L__unnamed_36)
3c005c28     5c28        2     1                 .L__unnamed_36
3c005c2a     5c2a        2     1         /Users/mabez/Development/rust/embedded/experiments/esp32c3-experiments/target/riscv32imac-unknown-none-elf/debug/deps/libriscv_atomic_emulation_trap-9111affe446510c3.rlib(riscv_atomic_emulation_trap-9111affe446510c3.7puluphka9w3g90.rcgu.o):(.rodata..L__unnamed_37)
3c005c2a     5c2a        2     1                 .L__unnamed_37
3c005c2c     5c2c        2     1         /Users/mabez/Development/rust/embedded/experiments/esp32c3-experiments/target/riscv32imac-unknown-none-elf/debug/deps/libriscv_atomic_emulation_trap-9111affe446510c3.rlib(riscv_atomic_emulation_trap-9111affe446510c3.7puluphka9w3g90.rcgu.o):(.rodata..L__unnamed_38)
3c005c2c     5c2c        2     1                 .L__unnamed_38
3c005c2e     5c2e        2     1         /Users/mabez/Development/rust/embedded/experiments/esp32c3-experiments/target/riscv32imac-unknown-none-elf/debug/deps/libriscv_atomic_emulation_trap-9111affe446510c3.rlib(riscv_atomic_emulation_trap-9111affe446510c3.7puluphka9w3g90.rcgu.o):(.rodata..L__unnamed_39)
3c005c2e     5c2e        2     1                 .L__unnamed_39
3c005c30     5c30        2     1         /Users/mabez/Development/rust/embedded/experiments/esp32c3-experiments/target/riscv32imac-unknown-none-elf/debug/deps/libriscv_atomic_emulation_trap-9111affe446510c3.rlib(riscv_atomic_emulation_trap-9111affe446510c3.7puluphka9w3g90.rcgu.o):(.rodata..L__unnamed_40)
3c005c30     5c30        2     1                 .L__unnamed_40
3c005c32     5c32        2     1         /Users/mabez/Development/rust/embedded/experiments/esp32c3-experiments/target/riscv32imac-unknown-none-elf/debug/deps/libriscv_atomic_emulation_trap-9111affe446510c3.rlib(riscv_atomic_emulation_trap-9111affe446510c3.7puluphka9w3g90.rcgu.o):(.rodata..L__unnamed_41)
3c005c32     5c32        2     1                 .L__unnamed_41
3c005c34     5c34        2     1         /Users/mabez/Development/rust/embedded/experiments/esp32c3-experiments/target/riscv32imac-unknown-none-elf/debug/deps/libriscv_atomic_emulation_trap-9111affe446510c3.rlib(riscv_atomic_emulation_trap-9111affe446510c3.7puluphka9w3g90.rcgu.o):(.rodata..L__unnamed_42)
3c005c34     5c34        2     1                 .L__unnamed_42
3c005c36     5c36        2     1         /Users/mabez/Development/rust/embedded/experiments/esp32c3-experiments/target/riscv32imac-unknown-none-elf/debug/deps/libriscv_atomic_emulation_trap-9111affe446510c3.rlib(riscv_atomic_emulation_trap-9111affe446510c3.7puluphka9w3g90.rcgu.o):(.rodata..L__unnamed_43)
3c005c36     5c36        2     1                 .L__unnamed_43
3c005c38     5c38        2     1         /Users/mabez/Development/rust/embedded/experiments/esp32c3-experiments/target/riscv32imac-unknown-none-elf/debug/deps/libriscv_atomic_emulation_trap-9111affe446510c3.rlib(riscv_atomic_emulation_trap-9111affe446510c3.7puluphka9w3g90.rcgu.o):(.rodata..L__unnamed_44)
3c005c38     5c38        2     1                 .L__unnamed_44
3c005c3a     5c3a        2     1         /Users/mabez/Development/rust/embedded/experiments/esp32c3-experiments/target/riscv32imac-unknown-none-elf/debug/deps/libriscv_atomic_emulation_trap-9111affe446510c3.rlib(riscv_atomic_emulation_trap-9111affe446510c3.7puluphka9w3g90.rcgu.o):(.rodata..L__unnamed_45)
3c005c3a     5c3a        2     1                 .L__unnamed_45
3c005c3c     5c3c        2     1         /Users/mabez/Development/rust/embedded/experiments/esp32c3-experiments/target/riscv32imac-unknown-none-elf/debug/deps/libriscv_atomic_emulation_trap-9111affe446510c3.rlib(riscv_atomic_emulation_trap-9111affe446510c3.7puluphka9w3g90.rcgu.o):(.rodata..L__unnamed_46)
3c005c3c     5c3c        2     1                 .L__unnamed_46
3c005c3e     5c3e        3     1         /Users/mabez/Development/rust/embedded/experiments/esp32c3-experiments/target/riscv32imac-unknown-none-elf/debug/deps/libriscv_atomic_emulation_trap-9111affe446510c3.rlib(riscv_atomic_emulation_trap-9111affe446510c3.7puluphka9w3g90.rcgu.o):(.rodata..L__unnamed_47)
3c005c3e     5c3e        3     1                 .L__unnamed_47
3c005c41     5c41        3     1         /Users/mabez/Development/rust/embedded/experiments/esp32c3-experiments/target/riscv32imac-unknown-none-elf/debug/deps/libriscv_atomic_emulation_trap-9111affe446510c3.rlib(riscv_atomic_emulation_trap-9111affe446510c3.7puluphka9w3g90.rcgu.o):(.rodata..L__unnamed_48)
3c005c41     5c41        3     1                 .L__unnamed_48
3c005c44     5c44        2     1         /Users/mabez/Development/rust/embedded/experiments/esp32c3-experiments/target/riscv32imac-unknown-none-elf/debug/deps/libriscv_atomic_emulation_trap-9111affe446510c3.rlib(riscv_atomic_emulation_trap-9111affe446510c3.7puluphka9w3g90.rcgu.o):(.rodata..L__unnamed_49)
3c005c44     5c44        2     1                 .L__unnamed_49
3c005c46     5c46        2     1         /Users/mabez/Development/rust/embedded/experiments/esp32c3-experiments/target/riscv32imac-unknown-none-elf/debug/deps/libriscv_atomic_emulation_trap-9111affe446510c3.rlib(riscv_atomic_emulation_trap-9111affe446510c3.7puluphka9w3g90.rcgu.o):(.rodata..L__unnamed_50)
3c005c46     5c46        2     1                 .L__unnamed_50
3c005c48     5c48        2     1         /Users/mabez/Development/rust/embedded/experiments/esp32c3-experiments/target/riscv32imac-unknown-none-elf/debug/deps/libriscv_atomic_emulation_trap-9111affe446510c3.rlib(riscv_atomic_emulation_trap-9111affe446510c3.7puluphka9w3g90.rcgu.o):(.rodata..L__unnamed_51)
3c005c48     5c48        2     1                 .L__unnamed_51
3c005c4a     5c4a        2     1         /Users/mabez/Development/rust/embedded/experiments/esp32c3-experiments/target/riscv32imac-unknown-none-elf/debug/deps/libriscv_atomic_emulation_trap-9111affe446510c3.rlib(riscv_atomic_emulation_trap-9111affe446510c3.7puluphka9w3g90.rcgu.o):(.rodata..L__unnamed_52)
3c005c4a     5c4a        2     1                 .L__unnamed_52
3c005c4c     5c4c        c     1         /Users/mabez/Development/rust/embedded/experiments/esp32c3-experiments/target/riscv32imac-unknown-none-elf/debug/deps/libriscv_atomic_emulation_trap-9111affe446510c3.rlib(riscv_atomic_emulation_trap-9111affe446510c3.411zpn36fj0rdh69.rcgu.o):(.rodata..L__unnamed_1)
3c005c4c     5c4c        c     1                 .L__unnamed_1
3c005c58     5c58       4b     1         /Users/mabez/Development/rust/embedded/experiments/esp32c3-experiments/target/riscv32imac-unknown-none-elf/debug/deps/libriscv_atomic_emulation_trap-9111affe446510c3.rlib(riscv_atomic_emulation_trap-9111affe446510c3.411zpn36fj0rdh69.rcgu.o):(.rodata..L__unnamed_3)
3c005c58     5c58       4b     1                 .L__unnamed_3
3c005ca4     5ca4       10     4         /Users/mabez/Development/rust/embedded/experiments/esp32c3-experiments/target/riscv32imac-unknown-none-elf/debug/deps/libriscv_atomic_emulation_trap-9111affe446510c3.rlib(riscv_atomic_emulation_trap-9111affe446510c3.411zpn36fj0rdh69.rcgu.o):(.rodata..L__unnamed_2)
3c005ca4     5ca4       10     1                 .L__unnamed_2
3c005cb4     5cb4       18     4         /Users/mabez/Development/rust/embedded/experiments/esp32c3-experiments/target/riscv32imac-unknown-none-elf/debug/deps/libriscv_atomic_emulation_trap-9111affe446510c3.rlib(riscv_atomic_emulation_trap-9111affe446510c3.4em3hgrap6mo60l5.rcgu.o):(.rodata..L__unnamed_1)
3c005cb4     5cb4       18     1                 .L__unnamed_1
3c005ccc     5ccc       50     1         /Users/mabez/Development/rust/embedded/experiments/esp32c3-experiments/target/riscv32imac-unknown-none-elf/debug/deps/libriscv_atomic_emulation_trap-9111affe446510c3.rlib(riscv_atomic_emulation_trap-9111affe446510c3.1ainjqznfmasr5um.rcgu.o):(.rodata..L__unnamed_5)
3c005ccc     5ccc       50     1                 .L__unnamed_5
3c005d1c     5d1c       10     4         /Users/mabez/Development/rust/embedded/experiments/esp32c3-experiments/target/riscv32imac-unknown-none-elf/debug/deps/libriscv_atomic_emulation_trap-9111affe446510c3.rlib(riscv_atomic_emulation_trap-9111affe446510c3.1ainjqznfmasr5um.rcgu.o):(.rodata..L__unnamed_1)
3c005d1c     5d1c       10     1                 .L__unnamed_1
3c005d2c     5d2c       10     4         /Users/mabez/Development/rust/embedded/experiments/esp32c3-experiments/target/riscv32imac-unknown-none-elf/debug/deps/libriscv_atomic_emulation_trap-9111affe446510c3.rlib(riscv_atomic_emulation_trap-9111affe446510c3.1ainjqznfmasr5um.rcgu.o):(.rodata..L__unnamed_2)
3c005d2c     5d2c       10     1                 .L__unnamed_2
3c005d3c     5d3c       12     1         /Users/mabez/Development/rust/embedded/experiments/esp32c3-experiments/target/riscv32imac-unknown-none-elf/debug/deps/libriscv_atomic_emulation_trap-9111affe446510c3.rlib(riscv_atomic_emulation_trap-9111affe446510c3.1ainjqznfmasr5um.rcgu.o):(.rodata..L__unnamed_6)
3c005d3c     5d3c       12     1                 .L__unnamed_6
3c005d4e     5d4e       13     1         /Users/mabez/Development/rust/embedded/experiments/esp32c3-experiments/target/riscv32imac-unknown-none-elf/debug/deps/libriscv_atomic_emulation_trap-9111affe446510c3.rlib(riscv_atomic_emulation_trap-9111affe446510c3.1ainjqznfmasr5um.rcgu.o):(.rodata..L__unnamed_7)
3c005d4e     5d4e       13     1                 .L__unnamed_7
3c005d61     5d61       15     1         /Users/mabez/Development/rust/embedded/experiments/esp32c3-experiments/target/riscv32imac-unknown-none-elf/debug/deps/libriscv_atomic_emulation_trap-9111affe446510c3.rlib(riscv_atomic_emulation_trap-9111affe446510c3.1ainjqznfmasr5um.rcgu.o):(.rodata..L__unnamed_8)
3c005d61     5d61       15     1                 .L__unnamed_8
3c005d78     5d78       18     4         /Users/mabez/Development/rust/embedded/experiments/esp32c3-experiments/target/riscv32imac-unknown-none-elf/debug/deps/libriscv_atomic_emulation_trap-9111affe446510c3.rlib(riscv_atomic_emulation_trap-9111affe446510c3.1ainjqznfmasr5um.rcgu.o):(.rodata..L__unnamed_3)
3c005d78     5d78       18     1                 .L__unnamed_3
3c005d90     5d90       10     4         /Users/mabez/Development/rust/embedded/experiments/esp32c3-experiments/target/riscv32imac-unknown-none-elf/debug/deps/libriscv_atomic_emulation_trap-9111affe446510c3.rlib(riscv_atomic_emulation_trap-9111affe446510c3.1ainjqznfmasr5um.rcgu.o):(.rodata..L__unnamed_4)
3c005d90     5d90       10     1                 .L__unnamed_4
3c005da0     5da0       3f     1         /Users/mabez/Development/rust/embedded/experiments/esp32c3-experiments/target/riscv32imac-unknown-none-elf/debug/deps/libriscv_rt-792395b706c7e295.rlib(riscv_rt-792395b706c7e295.n23zmh27zi56vj2.rcgu.o):(.rodata..L__unnamed_20)
3c005da0     5da0       3f     1                 .L__unnamed_20
3c005de0     5de0       10     4         /Users/mabez/Development/rust/embedded/experiments/esp32c3-experiments/target/riscv32imac-unknown-none-elf/debug/deps/libriscv_rt-792395b706c7e295.rlib(riscv_rt-792395b706c7e295.n23zmh27zi56vj2.rcgu.o):(.rodata..L__unnamed_2)
3c005de0     5de0       10     1                 .L__unnamed_2
3c005df0     5df0       30     4         /Users/mabez/Development/rust/embedded/experiments/esp32c3-experiments/target/riscv32imac-unknown-none-elf/debug/deps/libriscv_rt-792395b706c7e295.rlib(riscv_rt-792395b706c7e295.n23zmh27zi56vj2.rcgu.o):(.rodata.__INTERRUPTS)
3c005df0     5df0       30     1                 __INTERRUPTS
3c005e20     5e20       18     4         /Users/mabez/.rustup/toolchains/nightly-aarch64-apple-darwin/lib/rustlib/riscv32imac-unknown-none-elf/lib/libcore-081fd8405fc18f2e.rlib(core-081fd8405fc18f2e.core.756fe54c-cgu.0.rcgu.o):(.rodata._ZN40_$LT$str$u20$as$u20$core..fmt..Debug$GT$3fmt17hcccdaec8afe094d8E)
3c005e20     5e20        0     1                 .LJTI197_0
3c005e38     5e38       18     4         /Users/mabez/.rustup/toolchains/nightly-aarch64-apple-darwin/lib/rustlib/riscv32imac-unknown-none-elf/lib/libcore-081fd8405fc18f2e.rlib(core-081fd8405fc18f2e.core.756fe54c-cgu.0.rcgu.o):(.rodata._ZN41_$LT$char$u20$as$u20$core..fmt..Debug$GT$3fmt17hdf4500e5dfef8767E)
3c005e38     5e38        0     1                 .LJTI199_0
3c005e50     5e50        0     4         /Users/mabez/.rustup/toolchains/nightly-aarch64-apple-darwin/lib/rustlib/riscv32imac-unknown-none-elf/lib/libcore-081fd8405fc18f2e.rlib(core-081fd8405fc18f2e.core.756fe54c-cgu.0.rcgu.o):(.rodata..Lanon.6576d0208e50a9ab262801bbdd388cb2.101)
3c005e50     5e50        0     1                 .Lanon.6576d0208e50a9ab262801bbdd388cb2.101
3c005e50     5e50        2     1         /Users/mabez/.rustup/toolchains/nightly-aarch64-apple-darwin/lib/rustlib/riscv32imac-unknown-none-elf/lib/libcore-081fd8405fc18f2e.rlib(core-081fd8405fc18f2e.core.756fe54c-cgu.0.rcgu.o):(.rodata..Lanon.6576d0208e50a9ab262801bbdd388cb2.130)
3c005e50     5e50        2     1                 .Lanon.6576d0208e50a9ab262801bbdd388cb2.130
3c005e54     5e54        8     4         /Users/mabez/.rustup/toolchains/nightly-aarch64-apple-darwin/lib/rustlib/riscv32imac-unknown-none-elf/lib/libcore-081fd8405fc18f2e.rlib(core-081fd8405fc18f2e.core.756fe54c-cgu.0.rcgu.o):(.rodata..Lanon.6576d0208e50a9ab262801bbdd388cb2.131)
3c005e54     5e54        8     1                 .Lanon.6576d0208e50a9ab262801bbdd388cb2.131
3c005e5c     5e5c        3     1         /Users/mabez/.rustup/toolchains/nightly-aarch64-apple-darwin/lib/rustlib/riscv32imac-unknown-none-elf/lib/libcore-081fd8405fc18f2e.rlib(core-081fd8405fc18f2e.core.756fe54c-cgu.0.rcgu.o):(.rodata..Lanon.6576d0208e50a9ab262801bbdd388cb2.132)
3c005e5c     5e5c        3     1                 .Lanon.6576d0208e50a9ab262801bbdd388cb2.132
3c005e60     5e60       20     4         <internal>:(.rodata)
3c005e80     5e80       2b     1         /Users/mabez/.rustup/toolchains/nightly-aarch64-apple-darwin/lib/rustlib/riscv32imac-unknown-none-elf/lib/libcore-081fd8405fc18f2e.rlib(core-081fd8405fc18f2e.core.756fe54c-cgu.0.rcgu.o):(.rodata..Lanon.6576d0208e50a9ab262801bbdd388cb2.165)
3c005e80     5e80       2b     1                 .Lanon.6576d0208e50a9ab262801bbdd388cb2.165
3c005eac     5eac       10     4         /Users/mabez/.rustup/toolchains/nightly-aarch64-apple-darwin/lib/rustlib/riscv32imac-unknown-none-elf/lib/libcore-081fd8405fc18f2e.rlib(core-081fd8405fc18f2e.core.756fe54c-cgu.0.rcgu.o):(.rodata..Lanon.6576d0208e50a9ab262801bbdd388cb2.168)
3c005eac     5eac       10     1                 .Lanon.6576d0208e50a9ab262801bbdd388cb2.168
3c005ebc     5ebc       12     1         /Users/mabez/.rustup/toolchains/nightly-aarch64-apple-darwin/lib/rustlib/riscv32imac-unknown-none-elf/lib/libcore-081fd8405fc18f2e.rlib(core-081fd8405fc18f2e.core.756fe54c-cgu.0.rcgu.o):(.rodata..Lanon.6576d0208e50a9ab262801bbdd388cb2.175)
3c005ebc     5ebc       12     1                 .Lanon.6576d0208e50a9ab262801bbdd388cb2.175
3c005ed0     5ed0       10     4         /Users/mabez/.rustup/toolchains/nightly-aarch64-apple-darwin/lib/rustlib/riscv32imac-unknown-none-elf/lib/libcore-081fd8405fc18f2e.rlib(core-081fd8405fc18f2e.core.756fe54c-cgu.0.rcgu.o):(.rodata..Lanon.6576d0208e50a9ab262801bbdd388cb2.176)
3c005ed0     5ed0       10     1                 .Lanon.6576d0208e50a9ab262801bbdd388cb2.176
3c005ee0     5ee0        1     1         /Users/mabez/.rustup/toolchains/nightly-aarch64-apple-darwin/lib/rustlib/riscv32imac-unknown-none-elf/lib/libcore-081fd8405fc18f2e.rlib(core-081fd8405fc18f2e.core.756fe54c-cgu.0.rcgu.o):(.rodata..Lanon.6576d0208e50a9ab262801bbdd388cb2.188)
3c005ee0     5ee0        1     1                 .Lanon.6576d0208e50a9ab262801bbdd388cb2.188
3c005ee1     5ee1        2     1         /Users/mabez/.rustup/toolchains/nightly-aarch64-apple-darwin/lib/rustlib/riscv32imac-unknown-none-elf/lib/libcore-081fd8405fc18f2e.rlib(core-081fd8405fc18f2e.core.756fe54c-cgu.0.rcgu.o):(.rodata..Lanon.6576d0208e50a9ab262801bbdd388cb2.190)
3c005ee1     5ee1        2     1                 .Lanon.6576d0208e50a9ab262801bbdd388cb2.190
3c005ee4     5ee4       10     4         /Users/mabez/.rustup/toolchains/nightly-aarch64-apple-darwin/lib/rustlib/riscv32imac-unknown-none-elf/lib/libcore-081fd8405fc18f2e.rlib(core-081fd8405fc18f2e.core.756fe54c-cgu.0.rcgu.o):(.rodata..Lanon.6576d0208e50a9ab262801bbdd388cb2.191)
3c005ee4     5ee4       10     1                 .Lanon.6576d0208e50a9ab262801bbdd388cb2.191
3c005ef4     5ef4       18     4         /Users/mabez/.rustup/toolchains/nightly-aarch64-apple-darwin/lib/rustlib/riscv32imac-unknown-none-elf/lib/libcore-081fd8405fc18f2e.rlib(core-081fd8405fc18f2e.core.756fe54c-cgu.0.rcgu.o):(.rodata..Lanon.6576d0208e50a9ab262801bbdd388cb2.192)
3c005ef4     5ef4       18     1                 .Lanon.6576d0208e50a9ab262801bbdd388cb2.192
3c005f0c     5f0c       10     4         /Users/mabez/.rustup/toolchains/nightly-aarch64-apple-darwin/lib/rustlib/riscv32imac-unknown-none-elf/lib/libcore-081fd8405fc18f2e.rlib(core-081fd8405fc18f2e.core.756fe54c-cgu.0.rcgu.o):(.rodata..Lanon.6576d0208e50a9ab262801bbdd388cb2.195)
3c005f0c     5f0c       10     1                 .Lanon.6576d0208e50a9ab262801bbdd388cb2.195
3c005f1c     5f1c       10     4         /Users/mabez/.rustup/toolchains/nightly-aarch64-apple-darwin/lib/rustlib/riscv32imac-unknown-none-elf/lib/libcore-081fd8405fc18f2e.rlib(core-081fd8405fc18f2e.core.756fe54c-cgu.0.rcgu.o):(.rodata..Lanon.6576d0208e50a9ab262801bbdd388cb2.196)
3c005f1c     5f1c       10     1                 .Lanon.6576d0208e50a9ab262801bbdd388cb2.196
3c005f2c     5f2c        3     1         /Users/mabez/.rustup/toolchains/nightly-aarch64-apple-darwin/lib/rustlib/riscv32imac-unknown-none-elf/lib/libcore-081fd8405fc18f2e.rlib(core-081fd8405fc18f2e.core.756fe54c-cgu.0.rcgu.o):(.rodata..Lanon.6576d0208e50a9ab262801bbdd388cb2.197)
3c005f2c     5f2c        3     1                 .Lanon.6576d0208e50a9ab262801bbdd388cb2.197
3c005f2f     5f2f        2     1         /Users/mabez/.rustup/toolchains/nightly-aarch64-apple-darwin/lib/rustlib/riscv32imac-unknown-none-elf/lib/libcore-081fd8405fc18f2e.rlib(core-081fd8405fc18f2e.core.756fe54c-cgu.0.rcgu.o):(.rodata..Lanon.6576d0208e50a9ab262801bbdd388cb2.198)
3c005f2f     5f2f        2     1                 .Lanon.6576d0208e50a9ab262801bbdd388cb2.198
3c005f31     5f31        2     1         /Users/mabez/.rustup/toolchains/nightly-aarch64-apple-darwin/lib/rustlib/riscv32imac-unknown-none-elf/lib/libcore-081fd8405fc18f2e.rlib(core-081fd8405fc18f2e.core.756fe54c-cgu.0.rcgu.o):(.rodata..Lanon.6576d0208e50a9ab262801bbdd388cb2.199)
3c005f31     5f31        2     1                 .Lanon.6576d0208e50a9ab262801bbdd388cb2.199
3c005f33     5f33        3     1         /Users/mabez/.rustup/toolchains/nightly-aarch64-apple-darwin/lib/rustlib/riscv32imac-unknown-none-elf/lib/libcore-081fd8405fc18f2e.rlib(core-081fd8405fc18f2e.core.756fe54c-cgu.0.rcgu.o):(.rodata..Lanon.6576d0208e50a9ab262801bbdd388cb2.200)
3c005f33     5f33        3     1                 .Lanon.6576d0208e50a9ab262801bbdd388cb2.200
3c005f36     5f36        1     1         /Users/mabez/.rustup/toolchains/nightly-aarch64-apple-darwin/lib/rustlib/riscv32imac-unknown-none-elf/lib/libcore-081fd8405fc18f2e.rlib(core-081fd8405fc18f2e.core.756fe54c-cgu.0.rcgu.o):(.rodata..Lanon.6576d0208e50a9ab262801bbdd388cb2.202)
3c005f36     5f36        1     1                 .Lanon.6576d0208e50a9ab262801bbdd388cb2.202
3c005f37     5f37        7     1         /Users/mabez/.rustup/toolchains/nightly-aarch64-apple-darwin/lib/rustlib/riscv32imac-unknown-none-elf/lib/libcore-081fd8405fc18f2e.rlib(core-081fd8405fc18f2e.core.756fe54c-cgu.0.rcgu.o):(.rodata..Lanon.6576d0208e50a9ab262801bbdd388cb2.204)
3c005f37     5f37        7     1                 .Lanon.6576d0208e50a9ab262801bbdd388cb2.204
3c005f3e     5f3e        2     1         /Users/mabez/.rustup/toolchains/nightly-aarch64-apple-darwin/lib/rustlib/riscv32imac-unknown-none-elf/lib/libcore-081fd8405fc18f2e.rlib(core-081fd8405fc18f2e.core.756fe54c-cgu.0.rcgu.o):(.rodata..Lanon.6576d0208e50a9ab262801bbdd388cb2.205)
3c005f3e     5f3e        2     1                 .Lanon.6576d0208e50a9ab262801bbdd388cb2.205
3c005f40     5f40        2     1         /Users/mabez/.rustup/toolchains/nightly-aarch64-apple-darwin/lib/rustlib/riscv32imac-unknown-none-elf/lib/libcore-081fd8405fc18f2e.rlib(core-081fd8405fc18f2e.core.756fe54c-cgu.0.rcgu.o):(.rodata..Lanon.6576d0208e50a9ab262801bbdd388cb2.206)
3c005f40     5f40        2     1                 .Lanon.6576d0208e50a9ab262801bbdd388cb2.206
3c005f42     5f42        1     1         /Users/mabez/.rustup/toolchains/nightly-aarch64-apple-darwin/lib/rustlib/riscv32imac-unknown-none-elf/lib/libcore-081fd8405fc18f2e.rlib(core-081fd8405fc18f2e.core.756fe54c-cgu.0.rcgu.o):(.rodata..Lanon.6576d0208e50a9ab262801bbdd388cb2.207)
3c005f42     5f42        1     1                 .Lanon.6576d0208e50a9ab262801bbdd388cb2.207
3c005f43     5f43        1     1         /Users/mabez/.rustup/toolchains/nightly-aarch64-apple-darwin/lib/rustlib/riscv32imac-unknown-none-elf/lib/libcore-081fd8405fc18f2e.rlib(core-081fd8405fc18f2e.core.756fe54c-cgu.0.rcgu.o):(.rodata..Lanon.6576d0208e50a9ab262801bbdd388cb2.208)
3c005f43     5f43        1     1                 .Lanon.6576d0208e50a9ab262801bbdd388cb2.208
3c005f44     5f44        1     1         /Users/mabez/.rustup/toolchains/nightly-aarch64-apple-darwin/lib/rustlib/riscv32imac-unknown-none-elf/lib/libcore-081fd8405fc18f2e.rlib(core-081fd8405fc18f2e.core.756fe54c-cgu.0.rcgu.o):(.rodata..Lanon.6576d0208e50a9ab262801bbdd388cb2.209)
3c005f44     5f44        1     1                 .Lanon.6576d0208e50a9ab262801bbdd388cb2.209
3c005f45     5f45       1b     1         /Users/mabez/.rustup/toolchains/nightly-aarch64-apple-darwin/lib/rustlib/riscv32imac-unknown-none-elf/lib/libcore-081fd8405fc18f2e.rlib(core-081fd8405fc18f2e.core.756fe54c-cgu.0.rcgu.o):(.rodata..Lanon.6576d0208e50a9ab262801bbdd388cb2.223)
3c005f45     5f45       1b     1                 .Lanon.6576d0208e50a9ab262801bbdd388cb2.223
3c005f60     5f60       10     4         /Users/mabez/.rustup/toolchains/nightly-aarch64-apple-darwin/lib/rustlib/riscv32imac-unknown-none-elf/lib/libcore-081fd8405fc18f2e.rlib(core-081fd8405fc18f2e.core.756fe54c-cgu.0.rcgu.o):(.rodata..Lanon.6576d0208e50a9ab262801bbdd388cb2.224)
3c005f60     5f60       10     1                 .Lanon.6576d0208e50a9ab262801bbdd388cb2.224
3c005f70     5f70        2     1         /Users/mabez/.rustup/toolchains/nightly-aarch64-apple-darwin/lib/rustlib/riscv32imac-unknown-none-elf/lib/libcore-081fd8405fc18f2e.rlib(core-081fd8405fc18f2e.core.756fe54c-cgu.0.rcgu.o):(.rodata..Lanon.6576d0208e50a9ab262801bbdd388cb2.225)
3c005f70     5f70        2     1                 .Lanon.6576d0208e50a9ab262801bbdd388cb2.225
3c005f72     5f72       c8     1         /Users/mabez/.rustup/toolchains/nightly-aarch64-apple-darwin/lib/rustlib/riscv32imac-unknown-none-elf/lib/libcore-081fd8405fc18f2e.rlib(core-081fd8405fc18f2e.core.756fe54c-cgu.0.rcgu.o):(.rodata..Lanon.6576d0208e50a9ab262801bbdd388cb2.228)
3c005f72     5f72       c8     1                 .Lanon.6576d0208e50a9ab262801bbdd388cb2.228
3c00603c     603c       18     4         /Users/mabez/.rustup/toolchains/nightly-aarch64-apple-darwin/lib/rustlib/riscv32imac-unknown-none-elf/lib/libcore-081fd8405fc18f2e.rlib(core-081fd8405fc18f2e.core.756fe54c-cgu.0.rcgu.o):(.rodata..Lanon.6576d0208e50a9ab262801bbdd388cb2.231)
3c00603c     603c       18     1                 .Lanon.6576d0208e50a9ab262801bbdd388cb2.231
3c006054     6054       1b     1         /Users/mabez/.rustup/toolchains/nightly-aarch64-apple-darwin/lib/rustlib/riscv32imac-unknown-none-elf/lib/libcore-081fd8405fc18f2e.rlib(core-081fd8405fc18f2e.core.756fe54c-cgu.0.rcgu.o):(.rodata..Lanon.6576d0208e50a9ab262801bbdd388cb2.232)
3c006054     6054       1b     1                 .Lanon.6576d0208e50a9ab262801bbdd388cb2.232
3c006070     6070       10     4         /Users/mabez/.rustup/toolchains/nightly-aarch64-apple-darwin/lib/rustlib/riscv32imac-unknown-none-elf/lib/libcore-081fd8405fc18f2e.rlib(core-081fd8405fc18f2e.core.756fe54c-cgu.0.rcgu.o):(.rodata..Lanon.6576d0208e50a9ab262801bbdd388cb2.239)
3c006070     6070       10     1                 .Lanon.6576d0208e50a9ab262801bbdd388cb2.239
3c006080     6080       10     4         /Users/mabez/.rustup/toolchains/nightly-aarch64-apple-darwin/lib/rustlib/riscv32imac-unknown-none-elf/lib/libcore-081fd8405fc18f2e.rlib(core-081fd8405fc18f2e.core.756fe54c-cgu.0.rcgu.o):(.rodata..Lanon.6576d0208e50a9ab262801bbdd388cb2.240)
3c006080     6080       10     1                 .Lanon.6576d0208e50a9ab262801bbdd388cb2.240
3c006090     6090       10     4         /Users/mabez/.rustup/toolchains/nightly-aarch64-apple-darwin/lib/rustlib/riscv32imac-unknown-none-elf/lib/libcore-081fd8405fc18f2e.rlib(core-081fd8405fc18f2e.core.756fe54c-cgu.0.rcgu.o):(.rodata..Lanon.6576d0208e50a9ab262801bbdd388cb2.245)
3c006090     6090       10     1                 .Lanon.6576d0208e50a9ab262801bbdd388cb2.245
3c0060a0     60a0       12     1         /Users/mabez/.rustup/toolchains/nightly-aarch64-apple-darwin/lib/rustlib/riscv32imac-unknown-none-elf/lib/libcore-081fd8405fc18f2e.rlib(core-081fd8405fc18f2e.core.756fe54c-cgu.0.rcgu.o):(.rodata..Lanon.6576d0208e50a9ab262801bbdd388cb2.249)
3c0060a0     60a0       12     1                 .Lanon.6576d0208e50a9ab262801bbdd388cb2.249
3c0060b2     60b2       22     1         /Users/mabez/.rustup/toolchains/nightly-aarch64-apple-darwin/lib/rustlib/riscv32imac-unknown-none-elf/lib/libcore-081fd8405fc18f2e.rlib(core-081fd8405fc18f2e.core.756fe54c-cgu.0.rcgu.o):(.rodata..Lanon.6576d0208e50a9ab262801bbdd388cb2.250)
3c0060b2     60b2       22     1                 .Lanon.6576d0208e50a9ab262801bbdd388cb2.250
3c0060d4     60d4       10     4         /Users/mabez/.rustup/toolchains/nightly-aarch64-apple-darwin/lib/rustlib/riscv32imac-unknown-none-elf/lib/libcore-081fd8405fc18f2e.rlib(core-081fd8405fc18f2e.core.756fe54c-cgu.0.rcgu.o):(.rodata..Lanon.6576d0208e50a9ab262801bbdd388cb2.251)
3c0060d4     60d4       10     1                 .Lanon.6576d0208e50a9ab262801bbdd388cb2.251
3c0060e4     60e4       10     4         /Users/mabez/.rustup/toolchains/nightly-aarch64-apple-darwin/lib/rustlib/riscv32imac-unknown-none-elf/lib/libcore-081fd8405fc18f2e.rlib(core-081fd8405fc18f2e.core.756fe54c-cgu.0.rcgu.o):(.rodata..Lanon.6576d0208e50a9ab262801bbdd388cb2.253)
3c0060e4     60e4       10     1                 .Lanon.6576d0208e50a9ab262801bbdd388cb2.253
3c0060f4     60f4       16     1         /Users/mabez/.rustup/toolchains/nightly-aarch64-apple-darwin/lib/rustlib/riscv32imac-unknown-none-elf/lib/libcore-081fd8405fc18f2e.rlib(core-081fd8405fc18f2e.core.756fe54c-cgu.0.rcgu.o):(.rodata..Lanon.6576d0208e50a9ab262801bbdd388cb2.254)
3c0060f4     60f4       16     1                 .Lanon.6576d0208e50a9ab262801bbdd388cb2.254
3c00610a     610a        d     1         /Users/mabez/.rustup/toolchains/nightly-aarch64-apple-darwin/lib/rustlib/riscv32imac-unknown-none-elf/lib/libcore-081fd8405fc18f2e.rlib(core-081fd8405fc18f2e.core.756fe54c-cgu.0.rcgu.o):(.rodata..Lanon.6576d0208e50a9ab262801bbdd388cb2.255)
3c00610a     610a        d     1                 .Lanon.6576d0208e50a9ab262801bbdd388cb2.255
3c006118     6118       10     4         /Users/mabez/.rustup/toolchains/nightly-aarch64-apple-darwin/lib/rustlib/riscv32imac-unknown-none-elf/lib/libcore-081fd8405fc18f2e.rlib(core-081fd8405fc18f2e.core.756fe54c-cgu.0.rcgu.o):(.rodata..Lanon.6576d0208e50a9ab262801bbdd388cb2.256)
3c006118     6118       10     1                 .Lanon.6576d0208e50a9ab262801bbdd388cb2.256
3c006128     6128       18     1         <internal>:(.rodata)
3c006140     6140       23     1         /Users/mabez/.rustup/toolchains/nightly-aarch64-apple-darwin/lib/rustlib/riscv32imac-unknown-none-elf/lib/libcore-081fd8405fc18f2e.rlib(core-081fd8405fc18f2e.core.756fe54c-cgu.0.rcgu.o):(.rodata..Lanon.6576d0208e50a9ab262801bbdd388cb2.290)
3c006140     6140       23     1                 .Lanon.6576d0208e50a9ab262801bbdd388cb2.290
3c006164     6164       10     4         /Users/mabez/.rustup/toolchains/nightly-aarch64-apple-darwin/lib/rustlib/riscv32imac-unknown-none-elf/lib/libcore-081fd8405fc18f2e.rlib(core-081fd8405fc18f2e.core.756fe54c-cgu.0.rcgu.o):(.rodata..Lanon.6576d0208e50a9ab262801bbdd388cb2.291)
3c006164     6164       10     1                 .Lanon.6576d0208e50a9ab262801bbdd388cb2.291
3c006174     6174        5     1         /Users/mabez/.rustup/toolchains/nightly-aarch64-apple-darwin/lib/rustlib/riscv32imac-unknown-none-elf/lib/libcore-081fd8405fc18f2e.rlib(core-081fd8405fc18f2e.core.756fe54c-cgu.0.rcgu.o):(.rodata..Lanon.6576d0208e50a9ab262801bbdd388cb2.319)
3c006174     6174        5     1                 .Lanon.6576d0208e50a9ab262801bbdd388cb2.319
3c006179     6179        b     1         /Users/mabez/.rustup/toolchains/nightly-aarch64-apple-darwin/lib/rustlib/riscv32imac-unknown-none-elf/lib/libcore-081fd8405fc18f2e.rlib(core-081fd8405fc18f2e.core.756fe54c-cgu.0.rcgu.o):(.rodata..Lanon.6576d0208e50a9ab262801bbdd388cb2.320)
3c006179     6179        b     1                 .Lanon.6576d0208e50a9ab262801bbdd388cb2.320
3c006184     6184       16     1         /Users/mabez/.rustup/toolchains/nightly-aarch64-apple-darwin/lib/rustlib/riscv32imac-unknown-none-elf/lib/libcore-081fd8405fc18f2e.rlib(core-081fd8405fc18f2e.core.756fe54c-cgu.0.rcgu.o):(.rodata..Lanon.6576d0208e50a9ab262801bbdd388cb2.321)
3c006184     6184       16     1                 .Lanon.6576d0208e50a9ab262801bbdd388cb2.321
3c00619c     619c       18     4         /Users/mabez/.rustup/toolchains/nightly-aarch64-apple-darwin/lib/rustlib/riscv32imac-unknown-none-elf/lib/libcore-081fd8405fc18f2e.rlib(core-081fd8405fc18f2e.core.756fe54c-cgu.0.rcgu.o):(.rodata..Lanon.6576d0208e50a9ab262801bbdd388cb2.322)
3c00619c     619c       18     1                 .Lanon.6576d0208e50a9ab262801bbdd388cb2.322
3c0061b4     61b4        e     1         /Users/mabez/.rustup/toolchains/nightly-aarch64-apple-darwin/lib/rustlib/riscv32imac-unknown-none-elf/lib/libcore-081fd8405fc18f2e.rlib(core-081fd8405fc18f2e.core.756fe54c-cgu.0.rcgu.o):(.rodata..Lanon.6576d0208e50a9ab262801bbdd388cb2.323)
3c0061b4     61b4        e     1                 .Lanon.6576d0208e50a9ab262801bbdd388cb2.323
3c0061c4     61c4       20     4         /Users/mabez/.rustup/toolchains/nightly-aarch64-apple-darwin/lib/rustlib/riscv32imac-unknown-none-elf/lib/libcore-081fd8405fc18f2e.rlib(core-081fd8405fc18f2e.core.756fe54c-cgu.0.rcgu.o):(.rodata..Lanon.6576d0208e50a9ab262801bbdd388cb2.326)
3c0061c4     61c4       20     1                 .Lanon.6576d0208e50a9ab262801bbdd388cb2.326
3c0061e4     61e4       26     1         /Users/mabez/.rustup/toolchains/nightly-aarch64-apple-darwin/lib/rustlib/riscv32imac-unknown-none-elf/lib/libcore-081fd8405fc18f2e.rlib(core-081fd8405fc18f2e.core.756fe54c-cgu.0.rcgu.o):(.rodata..Lanon.6576d0208e50a9ab262801bbdd388cb2.327)
3c0061e4     61e4       26     1                 .Lanon.6576d0208e50a9ab262801bbdd388cb2.327
3c00620a     620a        6     1         /Users/mabez/.rustup/toolchains/nightly-aarch64-apple-darwin/lib/rustlib/riscv32imac-unknown-none-elf/lib/libcore-081fd8405fc18f2e.rlib(core-081fd8405fc18f2e.core.756fe54c-cgu.0.rcgu.o):(.rodata..Lanon.6576d0208e50a9ab262801bbdd388cb2.329)
3c00620a     620a        6     1                 .Lanon.6576d0208e50a9ab262801bbdd388cb2.329
3c006210     6210       28     4         /Users/mabez/.rustup/toolchains/nightly-aarch64-apple-darwin/lib/rustlib/riscv32imac-unknown-none-elf/lib/libcore-081fd8405fc18f2e.rlib(core-081fd8405fc18f2e.core.756fe54c-cgu.0.rcgu.o):(.rodata..Lanon.6576d0208e50a9ab262801bbdd388cb2.330)
3c006210     6210       28     1                 .Lanon.6576d0208e50a9ab262801bbdd388cb2.330
3c006238     6238       25     1         /Users/mabez/.rustup/toolchains/nightly-aarch64-apple-darwin/lib/rustlib/riscv32imac-unknown-none-elf/lib/libcore-081fd8405fc18f2e.rlib(core-081fd8405fc18f2e.core.756fe54c-cgu.0.rcgu.o):(.rodata..Lanon.6576d0208e50a9ab262801bbdd388cb2.353)
3c006238     6238       25     1                 .Lanon.6576d0208e50a9ab262801bbdd388cb2.353
3c006260     6260       10     4         /Users/mabez/.rustup/toolchains/nightly-aarch64-apple-darwin/lib/rustlib/riscv32imac-unknown-none-elf/lib/libcore-081fd8405fc18f2e.rlib(core-081fd8405fc18f2e.core.756fe54c-cgu.0.rcgu.o):(.rodata..Lanon.6576d0208e50a9ab262801bbdd388cb2.354)
3c006260     6260       10     1                 .Lanon.6576d0208e50a9ab262801bbdd388cb2.354
3c006270     6270       10     4         /Users/mabez/.rustup/toolchains/nightly-aarch64-apple-darwin/lib/rustlib/riscv32imac-unknown-none-elf/lib/libcore-081fd8405fc18f2e.rlib(core-081fd8405fc18f2e.core.756fe54c-cgu.0.rcgu.o):(.rodata..Lanon.6576d0208e50a9ab262801bbdd388cb2.355)
3c006270     6270       10     1                 .Lanon.6576d0208e50a9ab262801bbdd388cb2.355
3c006280     6280       50     1         /Users/mabez/.rustup/toolchains/nightly-aarch64-apple-darwin/lib/rustlib/riscv32imac-unknown-none-elf/lib/libcore-081fd8405fc18f2e.rlib(core-081fd8405fc18f2e.core.756fe54c-cgu.0.rcgu.o):(.rodata..Lanon.6576d0208e50a9ab262801bbdd388cb2.356)
3c006280     6280       50     1                 .Lanon.6576d0208e50a9ab262801bbdd388cb2.356
3c0062d0     62d0      120     1         /Users/mabez/.rustup/toolchains/nightly-aarch64-apple-darwin/lib/rustlib/riscv32imac-unknown-none-elf/lib/libcore-081fd8405fc18f2e.rlib(core-081fd8405fc18f2e.core.756fe54c-cgu.0.rcgu.o):(.rodata..Lanon.6576d0208e50a9ab262801bbdd388cb2.357)
3c0062d0     62d0      120     1                 .Lanon.6576d0208e50a9ab262801bbdd388cb2.357
3c0063f0     63f0      12f     1         /Users/mabez/.rustup/toolchains/nightly-aarch64-apple-darwin/lib/rustlib/riscv32imac-unknown-none-elf/lib/libcore-081fd8405fc18f2e.rlib(core-081fd8405fc18f2e.core.756fe54c-cgu.0.rcgu.o):(.rodata..Lanon.6576d0208e50a9ab262801bbdd388cb2.358)
3c0063f0     63f0      12f     1                 .Lanon.6576d0208e50a9ab262801bbdd388cb2.358
3c00651f     651f       54     1         /Users/mabez/.rustup/toolchains/nightly-aarch64-apple-darwin/lib/rustlib/riscv32imac-unknown-none-elf/lib/libcore-081fd8405fc18f2e.rlib(core-081fd8405fc18f2e.core.756fe54c-cgu.0.rcgu.o):(.rodata..Lanon.6576d0208e50a9ab262801bbdd388cb2.359)
3c00651f     651f       54     1                 .Lanon.6576d0208e50a9ab262801bbdd388cb2.359
3c006573     6573       c0     1         /Users/mabez/.rustup/toolchains/nightly-aarch64-apple-darwin/lib/rustlib/riscv32imac-unknown-none-elf/lib/libcore-081fd8405fc18f2e.rlib(core-081fd8405fc18f2e.core.756fe54c-cgu.0.rcgu.o):(.rodata..Lanon.6576d0208e50a9ab262801bbdd388cb2.360)
3c006573     6573       c0     1                 .Lanon.6576d0208e50a9ab262801bbdd388cb2.360
3c006633     6633      1b6     1         /Users/mabez/.rustup/toolchains/nightly-aarch64-apple-darwin/lib/rustlib/riscv32imac-unknown-none-elf/lib/libcore-081fd8405fc18f2e.rlib(core-081fd8405fc18f2e.core.756fe54c-cgu.0.rcgu.o):(.rodata..Lanon.6576d0208e50a9ab262801bbdd388cb2.361)
3c006633     6633      1b6     1                 .Lanon.6576d0208e50a9ab262801bbdd388cb2.361
3c0067e9     67e9       28     1         /Users/mabez/.rustup/toolchains/nightly-aarch64-apple-darwin/lib/rustlib/riscv32imac-unknown-none-elf/lib/libcore-081fd8405fc18f2e.rlib(core-081fd8405fc18f2e.core.756fe54c-cgu.0.rcgu.o):(.rodata..Lanon.6576d0208e50a9ab262801bbdd388cb2.362)
3c0067e9     67e9       28     1                 .Lanon.6576d0208e50a9ab262801bbdd388cb2.362
3c006814     6814       10     4         /Users/mabez/.rustup/toolchains/nightly-aarch64-apple-darwin/lib/rustlib/riscv32imac-unknown-none-elf/lib/libcore-081fd8405fc18f2e.rlib(core-081fd8405fc18f2e.core.756fe54c-cgu.0.rcgu.o):(.rodata..Lanon.6576d0208e50a9ab262801bbdd388cb2.366)
3c006814     6814       10     1                 .Lanon.6576d0208e50a9ab262801bbdd388cb2.366
3c006824     6824       10     4         /Users/mabez/.rustup/toolchains/nightly-aarch64-apple-darwin/lib/rustlib/riscv32imac-unknown-none-elf/lib/libcore-081fd8405fc18f2e.rlib(core-081fd8405fc18f2e.core.756fe54c-cgu.0.rcgu.o):(.rodata..Lanon.6576d0208e50a9ab262801bbdd388cb2.367)
3c006824     6824       10     1                 .Lanon.6576d0208e50a9ab262801bbdd388cb2.367
3c006834     6834       10     4         /Users/mabez/.rustup/toolchains/nightly-aarch64-apple-darwin/lib/rustlib/riscv32imac-unknown-none-elf/lib/libcore-081fd8405fc18f2e.rlib(core-081fd8405fc18f2e.core.756fe54c-cgu.0.rcgu.o):(.rodata..Lanon.6576d0208e50a9ab262801bbdd388cb2.368)
3c006834     6834       10     1                 .Lanon.6576d0208e50a9ab262801bbdd388cb2.368
3c006844     6844       10     4         /Users/mabez/.rustup/toolchains/nightly-aarch64-apple-darwin/lib/rustlib/riscv32imac-unknown-none-elf/lib/libcore-081fd8405fc18f2e.rlib(core-081fd8405fc18f2e.core.756fe54c-cgu.0.rcgu.o):(.rodata..Lanon.6576d0208e50a9ab262801bbdd388cb2.504)
3c006844     6844       10     1                 .Lanon.6576d0208e50a9ab262801bbdd388cb2.504
3c006854     6854       10     4         /Users/mabez/.rustup/toolchains/nightly-aarch64-apple-darwin/lib/rustlib/riscv32imac-unknown-none-elf/lib/libcore-081fd8405fc18f2e.rlib(core-081fd8405fc18f2e.core.756fe54c-cgu.0.rcgu.o):(.rodata..Lanon.6576d0208e50a9ab262801bbdd388cb2.515)
3c006854     6854       10     1                 .Lanon.6576d0208e50a9ab262801bbdd388cb2.515
3c006864     6864       10     4         /Users/mabez/.rustup/toolchains/nightly-aarch64-apple-darwin/lib/rustlib/riscv32imac-unknown-none-elf/lib/libcore-081fd8405fc18f2e.rlib(core-081fd8405fc18f2e.core.756fe54c-cgu.0.rcgu.o):(.rodata..Lanon.6576d0208e50a9ab262801bbdd388cb2.517)
3c006864     6864       10     1                 .Lanon.6576d0208e50a9ab262801bbdd388cb2.517
3c006874     6874        3     1         /Users/mabez/.rustup/toolchains/nightly-aarch64-apple-darwin/lib/rustlib/riscv32imac-unknown-none-elf/lib/libcore-081fd8405fc18f2e.rlib(core-081fd8405fc18f2e.core.756fe54c-cgu.0.rcgu.o):(.rodata..Lanon.6576d0208e50a9ab262801bbdd388cb2.518)
3c006874     6874        3     1                 .Lanon.6576d0208e50a9ab262801bbdd388cb2.518
3c006877     6877        9     1         /Users/mabez/.rustup/toolchains/nightly-aarch64-apple-darwin/lib/rustlib/riscv32imac-unknown-none-elf/lib/libcore-081fd8405fc18f2e.rlib(core-081fd8405fc18f2e.core.756fe54c-cgu.0.rcgu.o):(.rodata..Lanon.6576d0208e50a9ab262801bbdd388cb2.519)
3c006877     6877        9     1                 .Lanon.6576d0208e50a9ab262801bbdd388cb2.519
3c006880     6880        7     1         /Users/mabez/.rustup/toolchains/nightly-aarch64-apple-darwin/lib/rustlib/riscv32imac-unknown-none-elf/lib/libcore-081fd8405fc18f2e.rlib(core-081fd8405fc18f2e.core.756fe54c-cgu.0.rcgu.o):(.rodata..Lanon.6576d0208e50a9ab262801bbdd388cb2.520)
3c006880     6880        7     1                 .Lanon.6576d0208e50a9ab262801bbdd388cb2.520
3c006888     6888       10     4         /Users/mabez/.rustup/toolchains/nightly-aarch64-apple-darwin/lib/rustlib/riscv32imac-unknown-none-elf/lib/libcore-081fd8405fc18f2e.rlib(core-081fd8405fc18f2e.core.756fe54c-cgu.0.rcgu.o):(.rodata..Lanon.6576d0208e50a9ab262801bbdd388cb2.521)
3c006888     6888       10     1                 .Lanon.6576d0208e50a9ab262801bbdd388cb2.521
3c006898     6898        7     1         /Users/mabez/.rustup/toolchains/nightly-aarch64-apple-darwin/lib/rustlib/riscv32imac-unknown-none-elf/lib/libcore-081fd8405fc18f2e.rlib(core-081fd8405fc18f2e.core.756fe54c-cgu.0.rcgu.o):(.rodata..Lanon.6576d0208e50a9ab262801bbdd388cb2.522)
3c006898     6898        7     1                 .Lanon.6576d0208e50a9ab262801bbdd388cb2.522
3c0068a0     68a0       10     4         /Users/mabez/.rustup/toolchains/nightly-aarch64-apple-darwin/lib/rustlib/riscv32imac-unknown-none-elf/lib/libcore-081fd8405fc18f2e.rlib(core-081fd8405fc18f2e.core.756fe54c-cgu.0.rcgu.o):(.rodata..Lanon.6576d0208e50a9ab262801bbdd388cb2.523)
3c0068a0     68a0       10     1                 .Lanon.6576d0208e50a9ab262801bbdd388cb2.523
3c0068b0     68b0       10     4         /Users/mabez/.rustup/toolchains/nightly-aarch64-apple-darwin/lib/rustlib/riscv32imac-unknown-none-elf/lib/libcore-081fd8405fc18f2e.rlib(core-081fd8405fc18f2e.core.756fe54c-cgu.0.rcgu.o):(.rodata..Lanon.6576d0208e50a9ab262801bbdd388cb2.525)
3c0068b0     68b0       10     1                 .Lanon.6576d0208e50a9ab262801bbdd388cb2.525
3c0068c0     68c0        5     1         /Users/mabez/.rustup/toolchains/nightly-aarch64-apple-darwin/lib/rustlib/riscv32imac-unknown-none-elf/lib/libcore-081fd8405fc18f2e.rlib(core-081fd8405fc18f2e.core.756fe54c-cgu.0.rcgu.o):(.rodata..Lanon.6576d0208e50a9ab262801bbdd388cb2.545)
3c0068c0     68c0        5     1                 .Lanon.6576d0208e50a9ab262801bbdd388cb2.545
3c0068c8     68c8       80     4         /Users/mabez/.rustup/toolchains/nightly-aarch64-apple-darwin/lib/rustlib/riscv32imac-unknown-none-elf/lib/libcore-081fd8405fc18f2e.rlib(core-081fd8405fc18f2e.core.756fe54c-cgu.0.rcgu.o):(.rodata._ZN4core7unicode12unicode_data15grapheme_extend17SHORT_OFFSET_RUNS17hddefd0be4ce83000E)
3c0068c8     68c8       80     1                 core::unicode::unicode_data::grapheme_extend::SHORT_OFFSET_RUNS::hddefd0be4ce83000
3c006948     6948      2c3     1         /Users/mabez/.rustup/toolchains/nightly-aarch64-apple-darwin/lib/rustlib/riscv32imac-unknown-none-elf/lib/libcore-081fd8405fc18f2e.rlib(core-081fd8405fc18f2e.core.756fe54c-cgu.0.rcgu.o):(.rodata._ZN4core7unicode12unicode_data15grapheme_extend7OFFSETS17h23e67a771568ea8eE)
3c006948     6948      2c3     1                 core::unicode::unicode_data::grapheme_extend::OFFSETS::h23e67a771568ea8e
3c006c0b     6c0b        1     1         . = ALIGN ( 4 )
3c006c0c     6c0c        0     1         _erodata = .
3c006c0c     6c0c        0     1 _rodata_size = _erodata - _srodata + 8
3fc80000 3fc80000        0     1 .data
3fc80000 3fc80000        0     1         _sidata = LOADADDR ( .data )
3fc80000 3fc80000        0     1         _sdata = .
3fc80000 3fc80000        0     1         PROVIDE ( __global_pointer$ = . + 0x800 )
3fc80000 3fc80000        0     1         . = ALIGN ( 4 )
3fc80000 3fc80000        0     1         _edata = .
3fc80000     6c14        4     4 .bss
3fc80000     6c14        0     1         _sbss = .
3fc80000     6c14        4     4         /Users/mabez/Development/rust/embedded/experiments/esp32c3-experiments/target/riscv32imac-unknown-none-elf/debug/deps/libriscv_atomic_emulation_trap-9111affe446510c3.rlib(riscv_atomic_emulation_trap-9111affe446510c3.7puluphka9w3g90.rcgu.o):(.sbss)
3fc80000     6c14        4     1                 riscv_atomic_emulation_trap::atomic_emulation::S_LR_ADDR::h618c1e5143a18291
3fc80004     6c18        0     1         . = ALIGN ( 4 )
3fc80004     6c18        0     1         _ebss = .
3fc80004     6c18        0     1 .heap
3fc80004     6c18        0     1         _sheap = .
3fc80004     6c18        0     1         . += _heap_size
3fc80004     6c18        0     1         . = ALIGN ( 4 )
3fc80004     6c18        0     1         _eheap = .
3fc80004     6c18    4fffc     1 .stack
3fc80004     6c18        0     1         _estack = .
3fc80004     6c18    4fffc     1         . = ABSOLUTE ( _stack_start )
3fcd0000    56c14        0     1         _sstack = .
       0        0      588     4 .eh_frame
       0        0       3c     1         /Users/mabez/.rustup/toolchains/nightly-aarch64-apple-darwin/lib/rustlib/riscv32imac-unknown-none-elf/lib/libcore-081fd8405fc18f2e.rlib(core-081fd8405fc18f2e.core.756fe54c-cgu.0.rcgu.o):(.eh_frame+0x0)
      3c       3c       30     1         /Users/mabez/.rustup/toolchains/nightly-aarch64-apple-darwin/lib/rustlib/riscv32imac-unknown-none-elf/lib/libcore-081fd8405fc18f2e.rlib(core-081fd8405fc18f2e.core.756fe54c-cgu.0.rcgu.o):(.eh_frame+0x754)
      6c       6c       18     1         /Users/mabez/.rustup/toolchains/nightly-aarch64-apple-darwin/lib/rustlib/riscv32imac-unknown-none-elf/lib/libcore-081fd8405fc18f2e.rlib(core-081fd8405fc18f2e.core.756fe54c-cgu.0.rcgu.o):(.eh_frame+0xc00)
      84       84       30     1         /Users/mabez/.rustup/toolchains/nightly-aarch64-apple-darwin/lib/rustlib/riscv32imac-unknown-none-elf/lib/libcore-081fd8405fc18f2e.rlib(core-081fd8405fc18f2e.core.756fe54c-cgu.0.rcgu.o):(.eh_frame+0xc48)
      b4       b4       18     1         /Users/mabez/.rustup/toolchains/nightly-aarch64-apple-darwin/lib/rustlib/riscv32imac-unknown-none-elf/lib/libcore-081fd8405fc18f2e.rlib(core-081fd8405fc18f2e.core.756fe54c-cgu.0.rcgu.o):(.eh_frame+0xcd4)
      cc       cc       58     1         /Users/mabez/.rustup/toolchains/nightly-aarch64-apple-darwin/lib/rustlib/riscv32imac-unknown-none-elf/lib/libcore-081fd8405fc18f2e.rlib(core-081fd8405fc18f2e.core.756fe54c-cgu.0.rcgu.o):(.eh_frame+0xd00)
     124      124       40     1         /Users/mabez/.rustup/toolchains/nightly-aarch64-apple-darwin/lib/rustlib/riscv32imac-unknown-none-elf/lib/libcore-081fd8405fc18f2e.rlib(core-081fd8405fc18f2e.core.756fe54c-cgu.0.rcgu.o):(.eh_frame+0xd78)
     164      164       74     1         /Users/mabez/.rustup/toolchains/nightly-aarch64-apple-darwin/lib/rustlib/riscv32imac-unknown-none-elf/lib/libcore-081fd8405fc18f2e.rlib(core-081fd8405fc18f2e.core.756fe54c-cgu.0.rcgu.o):(.eh_frame+0x1054)
     1d8      1d8       a0     1         /Users/mabez/.rustup/toolchains/nightly-aarch64-apple-darwin/lib/rustlib/riscv32imac-unknown-none-elf/lib/libcore-081fd8405fc18f2e.rlib(core-081fd8405fc18f2e.core.756fe54c-cgu.0.rcgu.o):(.eh_frame+0x1120)
     278      278       44     1         /Users/mabez/.rustup/toolchains/nightly-aarch64-apple-darwin/lib/rustlib/riscv32imac-unknown-none-elf/lib/libcore-081fd8405fc18f2e.rlib(core-081fd8405fc18f2e.core.756fe54c-cgu.0.rcgu.o):(.eh_frame+0x12fc)
     2bc      2bc       74     1         /Users/mabez/.rustup/toolchains/nightly-aarch64-apple-darwin/lib/rustlib/riscv32imac-unknown-none-elf/lib/libcore-081fd8405fc18f2e.rlib(core-081fd8405fc18f2e.core.756fe54c-cgu.0.rcgu.o):(.eh_frame+0x1418)
     330      330       48     1         /Users/mabez/.rustup/toolchains/nightly-aarch64-apple-darwin/lib/rustlib/riscv32imac-unknown-none-elf/lib/libcore-081fd8405fc18f2e.rlib(core-081fd8405fc18f2e.core.756fe54c-cgu.0.rcgu.o):(.eh_frame+0x15cc)
     378      378       18     1         /Users/mabez/.rustup/toolchains/nightly-aarch64-apple-darwin/lib/rustlib/riscv32imac-unknown-none-elf/lib/libcore-081fd8405fc18f2e.rlib(core-081fd8405fc18f2e.core.756fe54c-cgu.0.rcgu.o):(.eh_frame+0x18e0)
     390      390       18     1         /Users/mabez/.rustup/toolchains/nightly-aarch64-apple-darwin/lib/rustlib/riscv32imac-unknown-none-elf/lib/libcore-081fd8405fc18f2e.rlib(core-081fd8405fc18f2e.core.756fe54c-cgu.0.rcgu.o):(.eh_frame+0x1af8)
     3a8      3a8       40     1         /Users/mabez/.rustup/toolchains/nightly-aarch64-apple-darwin/lib/rustlib/riscv32imac-unknown-none-elf/lib/libcore-081fd8405fc18f2e.rlib(core-081fd8405fc18f2e.core.756fe54c-cgu.0.rcgu.o):(.eh_frame+0x2830)
     3e8      3e8       30     1         /Users/mabez/.rustup/toolchains/nightly-aarch64-apple-darwin/lib/rustlib/riscv32imac-unknown-none-elf/lib/libcore-081fd8405fc18f2e.rlib(core-081fd8405fc18f2e.core.756fe54c-cgu.0.rcgu.o):(.eh_frame+0x2efc)
     418      418       34     1         /Users/mabez/.rustup/toolchains/nightly-aarch64-apple-darwin/lib/rustlib/riscv32imac-unknown-none-elf/lib/libcore-081fd8405fc18f2e.rlib(core-081fd8405fc18f2e.core.756fe54c-cgu.0.rcgu.o):(.eh_frame+0x2fec)
     44c      44c       14     1         /Users/mabez/.rustup/toolchains/nightly-aarch64-apple-darwin/lib/rustlib/riscv32imac-unknown-none-elf/lib/libcore-081fd8405fc18f2e.rlib(core-081fd8405fc18f2e.core.756fe54c-cgu.0.rcgu.o):(.eh_frame+0x3084)
     460      460       14     1         /Users/mabez/.rustup/toolchains/nightly-aarch64-apple-darwin/lib/rustlib/riscv32imac-unknown-none-elf/lib/libcore-081fd8405fc18f2e.rlib(core-081fd8405fc18f2e.core.756fe54c-cgu.0.rcgu.o):(.eh_frame+0x3310)
     474      474       14     1         /Users/mabez/.rustup/toolchains/nightly-aarch64-apple-darwin/lib/rustlib/riscv32imac-unknown-none-elf/lib/libcore-081fd8405fc18f2e.rlib(core-081fd8405fc18f2e.core.756fe54c-cgu.0.rcgu.o):(.eh_frame+0x33b4)
     488      488       14     1         /Users/mabez/.rustup/toolchains/nightly-aarch64-apple-darwin/lib/rustlib/riscv32imac-unknown-none-elf/lib/libcore-081fd8405fc18f2e.rlib(core-081fd8405fc18f2e.core.756fe54c-cgu.0.rcgu.o):(.eh_frame+0x3438)
     49c      49c       18     1         /Users/mabez/.rustup/toolchains/nightly-aarch64-apple-darwin/lib/rustlib/riscv32imac-unknown-none-elf/lib/libcore-081fd8405fc18f2e.rlib(core-081fd8405fc18f2e.core.756fe54c-cgu.0.rcgu.o):(.eh_frame+0x34e0)
     4b4      4b4       1c     1         /Users/mabez/.rustup/toolchains/nightly-aarch64-apple-darwin/lib/rustlib/riscv32imac-unknown-none-elf/lib/libcore-081fd8405fc18f2e.rlib(core-081fd8405fc18f2e.core.756fe54c-cgu.0.rcgu.o):(.eh_frame+0x35a4)
     4d0      4d0       14     1         /Users/mabez/.rustup/toolchains/nightly-aarch64-apple-darwin/lib/rustlib/riscv32imac-unknown-none-elf/lib/libcore-081fd8405fc18f2e.rlib(core-081fd8405fc18f2e.core.756fe54c-cgu.0.rcgu.o):(.eh_frame+0x35f8)
     4e4      4e4       18     1         /Users/mabez/.rustup/toolchains/nightly-aarch64-apple-darwin/lib/rustlib/riscv32imac-unknown-none-elf/lib/libcore-081fd8405fc18f2e.rlib(core-081fd8405fc18f2e.core.756fe54c-cgu.0.rcgu.o):(.eh_frame+0x365c)
     4fc      4fc       1c     1         /Users/mabez/.rustup/toolchains/nightly-aarch64-apple-darwin/lib/rustlib/riscv32imac-unknown-none-elf/lib/libcore-081fd8405fc18f2e.rlib(core-081fd8405fc18f2e.core.756fe54c-cgu.0.rcgu.o):(.eh_frame+0x391c)
     518      518       14     1         /Users/mabez/.rustup/toolchains/nightly-aarch64-apple-darwin/lib/rustlib/riscv32imac-unknown-none-elf/lib/libcore-081fd8405fc18f2e.rlib(core-081fd8405fc18f2e.core.756fe54c-cgu.0.rcgu.o):(.eh_frame+0x3bb8)
     52c      52c       18     1         /Users/mabez/.rustup/toolchains/nightly-aarch64-apple-darwin/lib/rustlib/riscv32imac-unknown-none-elf/lib/libcore-081fd8405fc18f2e.rlib(core-081fd8405fc18f2e.core.756fe54c-cgu.0.rcgu.o):(.eh_frame+0x4004)
     544      544       14     1         /Users/mabez/.rustup/toolchains/nightly-aarch64-apple-darwin/lib/rustlib/riscv32imac-unknown-none-elf/lib/libcompiler_builtins-1e32d751d3fb162c.rlib(compiler_builtins-1e32d751d3fb162c.compiler_builtins.864c03ce-cgu.20.rcgu.o):(.eh_frame+0x3c)
     558      558       2c     1         /Users/mabez/Development/rust/embedded/experiments/esp32c3-experiments/target/riscv32imac-unknown-none-elf/debug/deps/libriscv_rt-792395b706c7e295.rlib(riscv-rt.o):(.eh_frame+0x0)
3fcd0000 3fcd0000        0     1 
3fcd0000 3fcd0000        0     1 
3fcd0000 3fcd0000        0     1 
3fcd0000 3fcd0000        0     1 
3fcd0000 3fcd0000        0     1 
3fcd0000 3fcd0000        0     1 
3fcd0000 3fcd0000        0     1 
3fcd0000 3fcd0000        0     1 
3fcd0000 3fcd0000        0     1 
3fcd0000 3fcd0000        0     1 
3fcd0000 3fcd0000        0     1 
3fcd0000 3fcd0000        0     1 
3fcd0000 3fcd0000        0     1 
3fcd0000 3fcd0000        0     1 
3fcd0000 3fcd0000        0     1 uart_tx_one_char = 0x40000068
3fcd0000 3fcd0000        0     1 ets_delay_us = 0x40000050
       0        0     3bfe     1 .debug_abbrev
       0        0       91     1         /Users/mabez/Development/rust/embedded/experiments/esp32c3-experiments/target/riscv32imac-unknown-none-elf/debug/deps/esp32c3-5c92695bd7d79a0b.1167rr2z31gresnb.rcgu.o:(.debug_abbrev)
      91       91      151     1         /Users/mabez/Development/rust/embedded/experiments/esp32c3-experiments/target/riscv32imac-unknown-none-elf/debug/deps/esp32c3-5c92695bd7d79a0b.17kfpczq76poenv8.rcgu.o:(.debug_abbrev)
     1e2      1e2       7a     1         /Users/mabez/Development/rust/embedded/experiments/esp32c3-experiments/target/riscv32imac-unknown-none-elf/debug/deps/esp32c3-5c92695bd7d79a0b.1iu2tfaecczf5k50.rcgu.o:(.debug_abbrev)
     25c      25c       fc     1         /Users/mabez/Development/rust/embedded/experiments/esp32c3-experiments/target/riscv32imac-unknown-none-elf/debug/deps/esp32c3-5c92695bd7d79a0b.2146etiuaoyugpgb.rcgu.o:(.debug_abbrev)
     358      358       fc     1         /Users/mabez/Development/rust/embedded/experiments/esp32c3-experiments/target/riscv32imac-unknown-none-elf/debug/deps/esp32c3-5c92695bd7d79a0b.2bt420y5da8z26cy.rcgu.o:(.debug_abbrev)
     454      454       dd     1         /Users/mabez/Development/rust/embedded/experiments/esp32c3-experiments/target/riscv32imac-unknown-none-elf/debug/deps/esp32c3-5c92695bd7d79a0b.2y0w5m30si0qvc1i.rcgu.o:(.debug_abbrev)
     531      531       e8     1         /Users/mabez/Development/rust/embedded/experiments/esp32c3-experiments/target/riscv32imac-unknown-none-elf/debug/deps/esp32c3-5c92695bd7d79a0b.36jwgnll5937lngu.rcgu.o:(.debug_abbrev)
     619      619       72     1         /Users/mabez/Development/rust/embedded/experiments/esp32c3-experiments/target/riscv32imac-unknown-none-elf/debug/deps/esp32c3-5c92695bd7d79a0b.46tzsed5680ekwya.rcgu.o:(.debug_abbrev)
     68b      68b      116     1         /Users/mabez/Development/rust/embedded/experiments/esp32c3-experiments/target/riscv32imac-unknown-none-elf/debug/deps/esp32c3-5c92695bd7d79a0b.4d3o56o4s3rmpew1.rcgu.o:(.debug_abbrev)
     7a1      7a1       dd     1         /Users/mabez/Development/rust/embedded/experiments/esp32c3-experiments/target/riscv32imac-unknown-none-elf/debug/deps/esp32c3-5c92695bd7d79a0b.4sieayjll78w32te.rcgu.o:(.debug_abbrev)
     87e      87e      11e     1         /Users/mabez/Development/rust/embedded/experiments/esp32c3-experiments/target/riscv32imac-unknown-none-elf/debug/deps/esp32c3-5c92695bd7d79a0b.57j3pmw6ctaj3l7m.rcgu.o:(.debug_abbrev)
     99c      99c       c6     1         /Users/mabez/Development/rust/embedded/experiments/esp32c3-experiments/target/riscv32imac-unknown-none-elf/debug/deps/esp32c3-5c92695bd7d79a0b.57vaia0p0nh7h46b.rcgu.o:(.debug_abbrev)
     a62      a62       60     1         /Users/mabez/Development/rust/embedded/experiments/esp32c3-experiments/target/riscv32imac-unknown-none-elf/debug/deps/esp32c3-5c92695bd7d79a0b.vifbgxjspdn3ixi.rcgu.o:(.debug_abbrev)
     ac2      ac2      105     1         /Users/mabez/Development/rust/embedded/experiments/esp32c3-experiments/target/riscv32imac-unknown-none-elf/debug/deps/esp32c3-5c92695bd7d79a0b.w0jfp97vxp3n0e0.rcgu.o:(.debug_abbrev)
     bc7      bc7      10e     1         /Users/mabez/Development/rust/embedded/experiments/esp32c3-experiments/target/riscv32imac-unknown-none-elf/debug/deps/libesp32c3_lib-435c508db645f62b.rlib(esp32c3_lib-435c508db645f62b.enpltv37r0tja3s.rcgu.o):(.debug_abbrev)
     cd5      cd5       74     1         /Users/mabez/Development/rust/embedded/experiments/esp32c3-experiments/target/riscv32imac-unknown-none-elf/debug/deps/libesp32c3_lib-435c508db645f62b.rlib(esp32c3_lib-435c508db645f62b.4qunmpv8rlyr20lx.rcgu.o):(.debug_abbrev)
     d49      d49      13d     1         /Users/mabez/Development/rust/embedded/experiments/esp32c3-experiments/target/riscv32imac-unknown-none-elf/debug/deps/libesp32c3_lib-435c508db645f62b.rlib(esp32c3_lib-435c508db645f62b.3xdn0a03wuv3lfvi.rcgu.o):(.debug_abbrev)
     e86      e86       7b     1         /Users/mabez/Development/rust/embedded/experiments/esp32c3-experiments/target/riscv32imac-unknown-none-elf/debug/deps/libesp32c3_lib-435c508db645f62b.rlib(esp32c3_lib-435c508db645f62b.10h0j41trqvefdik.rcgu.o):(.debug_abbrev)
     f01      f01       85     1         /Users/mabez/Development/rust/embedded/experiments/esp32c3-experiments/target/riscv32imac-unknown-none-elf/debug/deps/libesp32c3_lib-435c508db645f62b.rlib(esp32c3_lib-435c508db645f62b.3ja21lwj0yew0pl1.rcgu.o):(.debug_abbrev)
     f86      f86       9f     1         /Users/mabez/Development/rust/embedded/experiments/esp32c3-experiments/target/riscv32imac-unknown-none-elf/debug/deps/libesp32c3_lib-435c508db645f62b.rlib(esp32c3_lib-435c508db645f62b.2vqs4zh0r4p5a1ya.rcgu.o):(.debug_abbrev)
    1025     1025       85     1         /Users/mabez/Development/rust/embedded/experiments/esp32c3-experiments/target/riscv32imac-unknown-none-elf/debug/deps/libesp32c3_lib-435c508db645f62b.rlib(esp32c3_lib-435c508db645f62b.2wzydu5xsvwfbdws.rcgu.o):(.debug_abbrev)
    10aa     10aa       f7     1         /Users/mabez/Development/rust/embedded/experiments/esp32c3-experiments/target/riscv32imac-unknown-none-elf/debug/deps/libriscv_atomic_emulation_trap-9111affe446510c3.rlib(riscv_atomic_emulation_trap-9111affe446510c3.3mjkh8i7otdbof7e.rcgu.o):(.debug_abbrev)
    11a1     11a1       93     1         /Users/mabez/Development/rust/embedded/experiments/esp32c3-experiments/target/riscv32imac-unknown-none-elf/debug/deps/libriscv_atomic_emulation_trap-9111affe446510c3.rlib(riscv_atomic_emulation_trap-9111affe446510c3.47nrs7arfzyngfvl.rcgu.o):(.debug_abbrev)
    1234     1234      199     1         /Users/mabez/Development/rust/embedded/experiments/esp32c3-experiments/target/riscv32imac-unknown-none-elf/debug/deps/libriscv_atomic_emulation_trap-9111affe446510c3.rlib(riscv_atomic_emulation_trap-9111affe446510c3.7puluphka9w3g90.rcgu.o):(.debug_abbrev)
    13cd     13cd       3e     1         /Users/mabez/Development/rust/embedded/experiments/esp32c3-experiments/target/riscv32imac-unknown-none-elf/debug/deps/libriscv_atomic_emulation_trap-9111affe446510c3.rlib(riscv_atomic_emulation_trap-9111affe446510c3.29cdtova41s09pd8.rcgu.o):(.debug_abbrev)
    140b     140b       fc     1         /Users/mabez/Development/rust/embedded/experiments/esp32c3-experiments/target/riscv32imac-unknown-none-elf/debug/deps/libriscv_atomic_emulation_trap-9111affe446510c3.rlib(riscv_atomic_emulation_trap-9111affe446510c3.411zpn36fj0rdh69.rcgu.o):(.debug_abbrev)
    1507     1507      116     1         /Users/mabez/Development/rust/embedded/experiments/esp32c3-experiments/target/riscv32imac-unknown-none-elf/debug/deps/libriscv_atomic_emulation_trap-9111affe446510c3.rlib(riscv_atomic_emulation_trap-9111affe446510c3.4em3hgrap6mo60l5.rcgu.o):(.debug_abbrev)
    161d     161d       91     1         /Users/mabez/Development/rust/embedded/experiments/esp32c3-experiments/target/riscv32imac-unknown-none-elf/debug/deps/libriscv_atomic_emulation_trap-9111affe446510c3.rlib(riscv_atomic_emulation_trap-9111affe446510c3.1ainjqznfmasr5um.rcgu.o):(.debug_abbrev)
    16ae     16ae       72     1         /Users/mabez/Development/rust/embedded/experiments/esp32c3-experiments/target/riscv32imac-unknown-none-elf/debug/deps/libriscv_atomic_emulation_trap-9111affe446510c3.rlib(riscv_atomic_emulation_trap-9111affe446510c3.1e14zek980l7c5wd.rcgu.o):(.debug_abbrev)
    1720     1720       87     1         /Users/mabez/Development/rust/embedded/experiments/esp32c3-experiments/target/riscv32imac-unknown-none-elf/debug/deps/libriscv_atomic_emulation_trap-9111affe446510c3.rlib(riscv_atomic_emulation_trap-9111affe446510c3.3jxb2alfotone25d.rcgu.o):(.debug_abbrev)
    17a7     17a7      1b8     1         /Users/mabez/Development/rust/embedded/experiments/esp32c3-experiments/target/riscv32imac-unknown-none-elf/debug/deps/libriscv_rt-792395b706c7e295.rlib(riscv_rt-792395b706c7e295.n23zmh27zi56vj2.rcgu.o):(.debug_abbrev)
    195f     195f       b9     1         /Users/mabez/Development/rust/embedded/experiments/esp32c3-experiments/target/riscv32imac-unknown-none-elf/debug/deps/libriscv_rt-792395b706c7e295.rlib(riscv_rt-792395b706c7e295.2si3iiyx4w55gh9p.rcgu.o):(.debug_abbrev)
    1a18     1a18       e8     1         /Users/mabez/Development/rust/embedded/experiments/esp32c3-experiments/target/riscv32imac-unknown-none-elf/debug/deps/libriscv_rt-792395b706c7e295.rlib(riscv_rt-792395b706c7e295.nu58l7xx5z184oa.rcgu.o):(.debug_abbrev)
    1b00     1b00       5f     1         /Users/mabez/Development/rust/embedded/experiments/esp32c3-experiments/target/riscv32imac-unknown-none-elf/debug/deps/libriscv_rt-792395b706c7e295.rlib(riscv_rt-792395b706c7e295.40ecbdq24jylbsk0.rcgu.o):(.debug_abbrev)
    1b5f     1b5f       d4     1         /Users/mabez/Development/rust/embedded/experiments/esp32c3-experiments/target/riscv32imac-unknown-none-elf/debug/deps/libriscv_rt-792395b706c7e295.rlib(riscv_rt-792395b706c7e295.4l8nnv0gz5uboi7y.rcgu.o):(.debug_abbrev)
    1c33     1c33       87     1         /Users/mabez/Development/rust/embedded/experiments/esp32c3-experiments/target/riscv32imac-unknown-none-elf/debug/deps/libriscv_rt-792395b706c7e295.rlib(riscv_rt-792395b706c7e295.a1pdmtq419pk4l9.rcgu.o):(.debug_abbrev)
    1cba     1cba      12d     1         /Users/mabez/Development/rust/embedded/experiments/esp32c3-experiments/target/riscv32imac-unknown-none-elf/debug/deps/libriscv-58bee4c49f9f92ec.rlib(riscv-58bee4c49f9f92ec.riscv.8be94b29-cgu.0.rcgu.o):(.debug_abbrev)
    1de7     1de7      146     1         /Users/mabez/Development/rust/embedded/experiments/esp32c3-experiments/target/riscv32imac-unknown-none-elf/debug/deps/libriscv-58bee4c49f9f92ec.rlib(riscv-58bee4c49f9f92ec.riscv.8be94b29-cgu.9.rcgu.o):(.debug_abbrev)
    1f2d     1f2d       dd     1         /Users/mabez/Development/rust/embedded/experiments/esp32c3-experiments/target/riscv32imac-unknown-none-elf/debug/deps/libriscv-58bee4c49f9f92ec.rlib(riscv-58bee4c49f9f92ec.riscv.8be94b29-cgu.4.rcgu.o):(.debug_abbrev)
    200a     200a       3e     1         /Users/mabez/Development/rust/embedded/experiments/esp32c3-experiments/target/riscv32imac-unknown-none-elf/debug/deps/libriscv_rt-792395b706c7e295.rlib(riscv_rt-792395b706c7e295.2fig4fon7wqsswts.rcgu.o):(.debug_abbrev)
    2048     2048       31     1         /Users/mabez/Development/rust/embedded/experiments/esp32c3-experiments/target/riscv32imac-unknown-none-elf/debug/deps/libriscv_rt-792395b706c7e295.rlib(riscv_rt-792395b706c7e295.53lukflzfjg86k6f.rcgu.o):(.debug_abbrev)
    2079     2079       5d     1         /Users/mabez/Development/rust/embedded/experiments/esp32c3-experiments/target/riscv32imac-unknown-none-elf/debug/deps/libriscv_rt-792395b706c7e295.rlib(riscv_rt-792395b706c7e295.2h85xx65g8aqsgk3.rcgu.o):(.debug_abbrev)
    20d6     20d6      13d     1         /Users/mabez/Development/rust/embedded/experiments/esp32c3-experiments/target/riscv32imac-unknown-none-elf/debug/deps/libriscv_atomic_emulation_trap-9111affe446510c3.rlib(riscv_atomic_emulation_trap-9111affe446510c3.473ch88oilsz6zg3.rcgu.o):(.debug_abbrev)
    2213     2213       85     1         /Users/mabez/Development/rust/embedded/experiments/esp32c3-experiments/target/riscv32imac-unknown-none-elf/debug/deps/libriscv_atomic_emulation_trap-9111affe446510c3.rlib(riscv_atomic_emulation_trap-9111affe446510c3.1x01haq1ilk8wjw8.rcgu.o):(.debug_abbrev)
    2298     2298       9f     1         /Users/mabez/Development/rust/embedded/experiments/esp32c3-experiments/target/riscv32imac-unknown-none-elf/debug/deps/libriscv_atomic_emulation_trap-9111affe446510c3.rlib(riscv_atomic_emulation_trap-9111affe446510c3.3eam8rvf5fviumdo.rcgu.o):(.debug_abbrev)
    2337     2337       87     1         /Users/mabez/Development/rust/embedded/experiments/esp32c3-experiments/target/riscv32imac-unknown-none-elf/debug/deps/libriscv_atomic_emulation_trap-9111affe446510c3.rlib(riscv_atomic_emulation_trap-9111affe446510c3.92c3mso3f7tifm.rcgu.o):(.debug_abbrev)
    23be     23be      112     1         /Users/mabez/Development/rust/embedded/experiments/esp32c3-experiments/target/riscv32imac-unknown-none-elf/debug/deps/libriscv_atomic_emulation_trap-9111affe446510c3.rlib(riscv_atomic_emulation_trap-9111affe446510c3.1ujfldlpaqv6u59a.rcgu.o):(.debug_abbrev)
    24d0     24d0       7b     1         /Users/mabez/Development/rust/embedded/experiments/esp32c3-experiments/target/riscv32imac-unknown-none-elf/debug/deps/libriscv_atomic_emulation_trap-9111affe446510c3.rlib(riscv_atomic_emulation_trap-9111affe446510c3.5dmrm1faws2v64w9.rcgu.o):(.debug_abbrev)
    254b     254b       96     1         /Users/mabez/Development/rust/embedded/experiments/esp32c3-experiments/target/riscv32imac-unknown-none-elf/debug/deps/libriscv_atomic_emulation_trap-9111affe446510c3.rlib(riscv_atomic_emulation_trap-9111affe446510c3.32s2sfn2d8x0z4vp.rcgu.o):(.debug_abbrev)
    25e1     25e1       69     1         /Users/mabez/Development/rust/embedded/experiments/esp32c3-experiments/target/riscv32imac-unknown-none-elf/debug/deps/libriscv_atomic_emulation_trap-9111affe446510c3.rlib(riscv_atomic_emulation_trap-9111affe446510c3.iorsoyj01ig67gw.rcgu.o):(.debug_abbrev)
    264a     264a       85     1         /Users/mabez/Development/rust/embedded/experiments/esp32c3-experiments/target/riscv32imac-unknown-none-elf/debug/deps/libriscv_atomic_emulation_trap-9111affe446510c3.rlib(riscv_atomic_emulation_trap-9111affe446510c3.koyzaehax49d9k4.rcgu.o):(.debug_abbrev)
    26cf     26cf       8e     1         /Users/mabez/Development/rust/embedded/experiments/esp32c3-experiments/target/riscv32imac-unknown-none-elf/debug/deps/libriscv_atomic_emulation_trap-9111affe446510c3.rlib(riscv_atomic_emulation_trap-9111affe446510c3.r9quz5yo0c3c66a.rcgu.o):(.debug_abbrev)
    275d     275d       7b     1         /Users/mabez/Development/rust/embedded/experiments/esp32c3-experiments/target/riscv32imac-unknown-none-elf/debug/deps/libriscv_atomic_emulation_trap-9111affe446510c3.rlib(riscv_atomic_emulation_trap-9111affe446510c3.um9btop5pm89mqk.rcgu.o):(.debug_abbrev)
    27d8     27d8      12d     1         /Users/mabez/Development/rust/embedded/experiments/esp32c3-experiments/target/riscv32imac-unknown-none-elf/debug/deps/libriscv-e6570dc03e37c02b.rlib(riscv-e6570dc03e37c02b.riscv.6a3f384f-cgu.0.rcgu.o):(.debug_abbrev)
    2905     2905      122     1         /Users/mabez/Development/rust/embedded/experiments/esp32c3-experiments/target/riscv32imac-unknown-none-elf/debug/deps/libriscv-e6570dc03e37c02b.rlib(riscv-e6570dc03e37c02b.riscv.6a3f384f-cgu.10.rcgu.o):(.debug_abbrev)
    2a27     2a27      126     1         /Users/mabez/Development/rust/embedded/experiments/esp32c3-experiments/target/riscv32imac-unknown-none-elf/debug/deps/libriscv-e6570dc03e37c02b.rlib(riscv-e6570dc03e37c02b.riscv.6a3f384f-cgu.11.rcgu.o):(.debug_abbrev)
    2b4d     2b4d       dd     1         /Users/mabez/Development/rust/embedded/experiments/esp32c3-experiments/target/riscv32imac-unknown-none-elf/debug/deps/libriscv-e6570dc03e37c02b.rlib(riscv-e6570dc03e37c02b.riscv.6a3f384f-cgu.4.rcgu.o):(.debug_abbrev)
    2c2a     2c2a      13b     1         /Users/mabez/Development/rust/embedded/experiments/esp32c3-experiments/target/riscv32imac-unknown-none-elf/debug/deps/libriscv-e6570dc03e37c02b.rlib(riscv-e6570dc03e37c02b.riscv.6a3f384f-cgu.8.rcgu.o):(.debug_abbrev)
    2d65     2d65      139     1         /Users/mabez/Development/rust/embedded/experiments/esp32c3-experiments/target/riscv32imac-unknown-none-elf/debug/deps/libvoid-d8bfa8eb72c6fce6.rlib(void-d8bfa8eb72c6fce6.void.0c48974b-cgu.0.rcgu.o):(.debug_abbrev)
    2e9e     2e9e      224     1         /Users/mabez/.rustup/toolchains/nightly-aarch64-apple-darwin/lib/rustlib/riscv32imac-unknown-none-elf/lib/libcore-081fd8405fc18f2e.rlib(core-081fd8405fc18f2e.core.756fe54c-cgu.0.rcgu.o):(.debug_abbrev)
    30c2     30c2       8f     1         /Users/mabez/.rustup/toolchains/nightly-aarch64-apple-darwin/lib/rustlib/riscv32imac-unknown-none-elf/lib/libcompiler_builtins-1e32d751d3fb162c.rlib(compiler_builtins-1e32d751d3fb162c.compiler_builtins.864c03ce-cgu.104.rcgu.o):(.debug_abbrev)
    3151     3151       c0     1         /Users/mabez/.rustup/toolchains/nightly-aarch64-apple-darwin/lib/rustlib/riscv32imac-unknown-none-elf/lib/libcompiler_builtins-1e32d751d3fb162c.rlib(compiler_builtins-1e32d751d3fb162c.compiler_builtins.864c03ce-cgu.106.rcgu.o):(.debug_abbrev)
    3211     3211       b5     1         /Users/mabez/.rustup/toolchains/nightly-aarch64-apple-darwin/lib/rustlib/riscv32imac-unknown-none-elf/lib/libcompiler_builtins-1e32d751d3fb162c.rlib(compiler_builtins-1e32d751d3fb162c.compiler_builtins.864c03ce-cgu.11.rcgu.o):(.debug_abbrev)
    32c6     32c6       ed     1         /Users/mabez/.rustup/toolchains/nightly-aarch64-apple-darwin/lib/rustlib/riscv32imac-unknown-none-elf/lib/libcompiler_builtins-1e32d751d3fb162c.rlib(compiler_builtins-1e32d751d3fb162c.compiler_builtins.864c03ce-cgu.111.rcgu.o):(.debug_abbrev)
    33b3     33b3       8f     1         /Users/mabez/.rustup/toolchains/nightly-aarch64-apple-darwin/lib/rustlib/riscv32imac-unknown-none-elf/lib/libcompiler_builtins-1e32d751d3fb162c.rlib(compiler_builtins-1e32d751d3fb162c.compiler_builtins.864c03ce-cgu.2.rcgu.o):(.debug_abbrev)
    3442     3442       aa     1         /Users/mabez/.rustup/toolchains/nightly-aarch64-apple-darwin/lib/rustlib/riscv32imac-unknown-none-elf/lib/libcompiler_builtins-1e32d751d3fb162c.rlib(compiler_builtins-1e32d751d3fb162c.compiler_builtins.864c03ce-cgu.20.rcgu.o):(.debug_abbrev)
    34ec     34ec       53     1         /Users/mabez/.rustup/toolchains/nightly-aarch64-apple-darwin/lib/rustlib/riscv32imac-unknown-none-elf/lib/libcompiler_builtins-1e32d751d3fb162c.rlib(compiler_builtins-1e32d751d3fb162c.compiler_builtins.864c03ce-cgu.21.rcgu.o):(.debug_abbrev)
    353f     353f       c2     1         /Users/mabez/.rustup/toolchains/nightly-aarch64-apple-darwin/lib/rustlib/riscv32imac-unknown-none-elf/lib/libcompiler_builtins-1e32d751d3fb162c.rlib(compiler_builtins-1e32d751d3fb162c.compiler_builtins.864c03ce-cgu.27.rcgu.o):(.debug_abbrev)
    3601     3601       53     1         /Users/mabez/.rustup/toolchains/nightly-aarch64-apple-darwin/lib/rustlib/riscv32imac-unknown-none-elf/lib/libcompiler_builtins-1e32d751d3fb162c.rlib(compiler_builtins-1e32d751d3fb162c.compiler_builtins.864c03ce-cgu.28.rcgu.o):(.debug_abbrev)
    3654     3654       8f     1         /Users/mabez/.rustup/toolchains/nightly-aarch64-apple-darwin/lib/rustlib/riscv32imac-unknown-none-elf/lib/libcompiler_builtins-1e32d751d3fb162c.rlib(compiler_builtins-1e32d751d3fb162c.compiler_builtins.864c03ce-cgu.69.rcgu.o):(.debug_abbrev)
    36e3     36e3       e2     1         /Users/mabez/.rustup/toolchains/nightly-aarch64-apple-darwin/lib/rustlib/riscv32imac-unknown-none-elf/lib/libcompiler_builtins-1e32d751d3fb162c.rlib(compiler_builtins-1e32d751d3fb162c.compiler_builtins.864c03ce-cgu.7.rcgu.o):(.debug_abbrev)
    37c5     37c5       53     1         /Users/mabez/.rustup/toolchains/nightly-aarch64-apple-darwin/lib/rustlib/riscv32imac-unknown-none-elf/lib/libcompiler_builtins-1e32d751d3fb162c.rlib(compiler_builtins-1e32d751d3fb162c.compiler_builtins.864c03ce-cgu.70.rcgu.o):(.debug_abbrev)
    3818     3818       8f     1         /Users/mabez/.rustup/toolchains/nightly-aarch64-apple-darwin/lib/rustlib/riscv32imac-unknown-none-elf/lib/libcompiler_builtins-1e32d751d3fb162c.rlib(compiler_builtins-1e32d751d3fb162c.compiler_builtins.864c03ce-cgu.71.rcgu.o):(.debug_abbrev)
    38a7     38a7       8f     1         /Users/mabez/.rustup/toolchains/nightly-aarch64-apple-darwin/lib/rustlib/riscv32imac-unknown-none-elf/lib/libcompiler_builtins-1e32d751d3fb162c.rlib(compiler_builtins-1e32d751d3fb162c.compiler_builtins.864c03ce-cgu.79.rcgu.o):(.debug_abbrev)
    3936     3936       c0     1         /Users/mabez/.rustup/toolchains/nightly-aarch64-apple-darwin/lib/rustlib/riscv32imac-unknown-none-elf/lib/libcompiler_builtins-1e32d751d3fb162c.rlib(compiler_builtins-1e32d751d3fb162c.compiler_builtins.864c03ce-cgu.8.rcgu.o):(.debug_abbrev)
    39f6     39f6       91     1         /Users/mabez/.rustup/toolchains/nightly-aarch64-apple-darwin/lib/rustlib/riscv32imac-unknown-none-elf/lib/libcompiler_builtins-1e32d751d3fb162c.rlib(compiler_builtins-1e32d751d3fb162c.compiler_builtins.864c03ce-cgu.82.rcgu.o):(.debug_abbrev)
    3a87     3a87       c2     1         /Users/mabez/.rustup/toolchains/nightly-aarch64-apple-darwin/lib/rustlib/riscv32imac-unknown-none-elf/lib/libcompiler_builtins-1e32d751d3fb162c.rlib(compiler_builtins-1e32d751d3fb162c.compiler_builtins.864c03ce-cgu.120.rcgu.o):(.debug_abbrev)
    3b49     3b49       8f     1         /Users/mabez/.rustup/toolchains/nightly-aarch64-apple-darwin/lib/rustlib/riscv32imac-unknown-none-elf/lib/libcompiler_builtins-1e32d751d3fb162c.rlib(compiler_builtins-1e32d751d3fb162c.compiler_builtins.864c03ce-cgu.92.rcgu.o):(.debug_abbrev)
    3bd8     3bd8       12     1         /Users/mabez/Development/rust/embedded/experiments/esp32c3-experiments/target/riscv32imac-unknown-none-elf/debug/deps/libriscv_rt-792395b706c7e295.rlib(riscv-rt.o):(.debug_abbrev)
    3bea     3bea       14     1         /Users/mabez/Development/rust/embedded/experiments/esp32c3-experiments/target/riscv32imac-unknown-none-elf/debug/deps/libriscv_atomic_emulation_trap-9111affe446510c3.rlib(riscv-atomic-emulation-trap.o):(.debug_abbrev)
       0        0    2bcd8     1 .debug_info
       0        0      27d     1         /Users/mabez/Development/rust/embedded/experiments/esp32c3-experiments/target/riscv32imac-unknown-none-elf/debug/deps/esp32c3-5c92695bd7d79a0b.1167rr2z31gresnb.rcgu.o:(.debug_info)
       0        0        0     1                 
     27d      27d      8d2     1         /Users/mabez/Development/rust/embedded/experiments/esp32c3-experiments/target/riscv32imac-unknown-none-elf/debug/deps/esp32c3-5c92695bd7d79a0b.17kfpczq76poenv8.rcgu.o:(.debug_info)
     27d      27d        0     1                 
     b4f      b4f      185     1         /Users/mabez/Development/rust/embedded/experiments/esp32c3-experiments/target/riscv32imac-unknown-none-elf/debug/deps/esp32c3-5c92695bd7d79a0b.1iu2tfaecczf5k50.rcgu.o:(.debug_info)
     b4f      b4f        0     1                 
     cd4      cd4      549     1         /Users/mabez/Development/rust/embedded/experiments/esp32c3-experiments/target/riscv32imac-unknown-none-elf/debug/deps/esp32c3-5c92695bd7d79a0b.2146etiuaoyugpgb.rcgu.o:(.debug_info)
     cd4      cd4        0     1                 
    121d     121d      4e4     1         /Users/mabez/Development/rust/embedded/experiments/esp32c3-experiments/target/riscv32imac-unknown-none-elf/debug/deps/esp32c3-5c92695bd7d79a0b.2bt420y5da8z26cy.rcgu.o:(.debug_info)
    121d     121d        0     1                 
    1701     1701      1f3     1         /Users/mabez/Development/rust/embedded/experiments/esp32c3-experiments/target/riscv32imac-unknown-none-elf/debug/deps/esp32c3-5c92695bd7d79a0b.2y0w5m30si0qvc1i.rcgu.o:(.debug_info)
    1701     1701        0     1                 
    18f4     18f4      20c     1         /Users/mabez/Development/rust/embedded/experiments/esp32c3-experiments/target/riscv32imac-unknown-none-elf/debug/deps/esp32c3-5c92695bd7d79a0b.36jwgnll5937lngu.rcgu.o:(.debug_info)
    18f4     18f4        0     1                 
    1b00     1b00       b8     1         /Users/mabez/Development/rust/embedded/experiments/esp32c3-experiments/target/riscv32imac-unknown-none-elf/debug/deps/esp32c3-5c92695bd7d79a0b.46tzsed5680ekwya.rcgu.o:(.debug_info)
    1b00     1b00        0     1                 
    1bb8     1bb8      58e     1         /Users/mabez/Development/rust/embedded/experiments/esp32c3-experiments/target/riscv32imac-unknown-none-elf/debug/deps/esp32c3-5c92695bd7d79a0b.4d3o56o4s3rmpew1.rcgu.o:(.debug_info)
    1bb8     1bb8        0     1                 
    2146     2146      374     1         /Users/mabez/Development/rust/embedded/experiments/esp32c3-experiments/target/riscv32imac-unknown-none-elf/debug/deps/esp32c3-5c92695bd7d79a0b.4sieayjll78w32te.rcgu.o:(.debug_info)
    2146     2146        0     1                 
    24ba     24ba      2df     1         /Users/mabez/Development/rust/embedded/experiments/esp32c3-experiments/target/riscv32imac-unknown-none-elf/debug/deps/esp32c3-5c92695bd7d79a0b.57j3pmw6ctaj3l7m.rcgu.o:(.debug_info)
    24ba     24ba        0     1                 
    2799     2799      1a7     1         /Users/mabez/Development/rust/embedded/experiments/esp32c3-experiments/target/riscv32imac-unknown-none-elf/debug/deps/esp32c3-5c92695bd7d79a0b.57vaia0p0nh7h46b.rcgu.o:(.debug_info)
    2799     2799        0     1                 
    2940     2940       ba     1         /Users/mabez/Development/rust/embedded/experiments/esp32c3-experiments/target/riscv32imac-unknown-none-elf/debug/deps/esp32c3-5c92695bd7d79a0b.vifbgxjspdn3ixi.rcgu.o:(.debug_info)
    2940     2940        0     1                 
    29fa     29fa      80e     1         /Users/mabez/Development/rust/embedded/experiments/esp32c3-experiments/target/riscv32imac-unknown-none-elf/debug/deps/esp32c3-5c92695bd7d79a0b.w0jfp97vxp3n0e0.rcgu.o:(.debug_info)
    29fa     29fa        0     1                 
    3208     3208      362     1         /Users/mabez/Development/rust/embedded/experiments/esp32c3-experiments/target/riscv32imac-unknown-none-elf/debug/deps/libesp32c3_lib-435c508db645f62b.rlib(esp32c3_lib-435c508db645f62b.enpltv37r0tja3s.rcgu.o):(.debug_info)
    3208     3208        0     1                 
    356a     356a      117     1         /Users/mabez/Development/rust/embedded/experiments/esp32c3-experiments/target/riscv32imac-unknown-none-elf/debug/deps/libesp32c3_lib-435c508db645f62b.rlib(esp32c3_lib-435c508db645f62b.4qunmpv8rlyr20lx.rcgu.o):(.debug_info)
    356a     356a        0     1                 
    3681     3681      473     1         /Users/mabez/Development/rust/embedded/experiments/esp32c3-experiments/target/riscv32imac-unknown-none-elf/debug/deps/libesp32c3_lib-435c508db645f62b.rlib(esp32c3_lib-435c508db645f62b.3xdn0a03wuv3lfvi.rcgu.o):(.debug_info)
    3681     3681        0     1                 
    3af4     3af4      15c     1         /Users/mabez/Development/rust/embedded/experiments/esp32c3-experiments/target/riscv32imac-unknown-none-elf/debug/deps/libesp32c3_lib-435c508db645f62b.rlib(esp32c3_lib-435c508db645f62b.10h0j41trqvefdik.rcgu.o):(.debug_info)
    3af4     3af4        0     1                 
    3c50     3c50       cd     1         /Users/mabez/Development/rust/embedded/experiments/esp32c3-experiments/target/riscv32imac-unknown-none-elf/debug/deps/libesp32c3_lib-435c508db645f62b.rlib(esp32c3_lib-435c508db645f62b.3ja21lwj0yew0pl1.rcgu.o):(.debug_info)
    3c50     3c50        0     1                 
    3d1d     3d1d       da     1         /Users/mabez/Development/rust/embedded/experiments/esp32c3-experiments/target/riscv32imac-unknown-none-elf/debug/deps/libesp32c3_lib-435c508db645f62b.rlib(esp32c3_lib-435c508db645f62b.2vqs4zh0r4p5a1ya.rcgu.o):(.debug_info)
    3d1d     3d1d        0     1                 
    3df7     3df7       cd     1         /Users/mabez/Development/rust/embedded/experiments/esp32c3-experiments/target/riscv32imac-unknown-none-elf/debug/deps/libesp32c3_lib-435c508db645f62b.rlib(esp32c3_lib-435c508db645f62b.2wzydu5xsvwfbdws.rcgu.o):(.debug_info)
    3df7     3df7        0     1                 
    3ec4     3ec4      2cb     1         /Users/mabez/Development/rust/embedded/experiments/esp32c3-experiments/target/riscv32imac-unknown-none-elf/debug/deps/libriscv_atomic_emulation_trap-9111affe446510c3.rlib(riscv_atomic_emulation_trap-9111affe446510c3.3mjkh8i7otdbof7e.rcgu.o):(.debug_info)
    3ec4     3ec4        0     1                 
    418f     418f       d9     1         /Users/mabez/Development/rust/embedded/experiments/esp32c3-experiments/target/riscv32imac-unknown-none-elf/debug/deps/libriscv_atomic_emulation_trap-9111affe446510c3.rlib(riscv_atomic_emulation_trap-9111affe446510c3.47nrs7arfzyngfvl.rcgu.o):(.debug_info)
    418f     418f        0     1                 
    4268     4268      a50     1         /Users/mabez/Development/rust/embedded/experiments/esp32c3-experiments/target/riscv32imac-unknown-none-elf/debug/deps/libriscv_atomic_emulation_trap-9111affe446510c3.rlib(riscv_atomic_emulation_trap-9111affe446510c3.7puluphka9w3g90.rcgu.o):(.debug_info)
    4268     4268        0     1                 
    4cb8     4cb8       72     1         /Users/mabez/Development/rust/embedded/experiments/esp32c3-experiments/target/riscv32imac-unknown-none-elf/debug/deps/libriscv_atomic_emulation_trap-9111affe446510c3.rlib(riscv_atomic_emulation_trap-9111affe446510c3.29cdtova41s09pd8.rcgu.o):(.debug_info)
    4cb8     4cb8        0     1                 
    4d2a     4d2a      427     1         /Users/mabez/Development/rust/embedded/experiments/esp32c3-experiments/target/riscv32imac-unknown-none-elf/debug/deps/libriscv_atomic_emulation_trap-9111affe446510c3.rlib(riscv_atomic_emulation_trap-9111affe446510c3.411zpn36fj0rdh69.rcgu.o):(.debug_info)
    4d2a     4d2a        0     1                 
    5151     5151      58e     1         /Users/mabez/Development/rust/embedded/experiments/esp32c3-experiments/target/riscv32imac-unknown-none-elf/debug/deps/libriscv_atomic_emulation_trap-9111affe446510c3.rlib(riscv_atomic_emulation_trap-9111affe446510c3.4em3hgrap6mo60l5.rcgu.o):(.debug_info)
    5151     5151        0     1                 
    56df     56df      27d     1         /Users/mabez/Development/rust/embedded/experiments/esp32c3-experiments/target/riscv32imac-unknown-none-elf/debug/deps/libriscv_atomic_emulation_trap-9111affe446510c3.rlib(riscv_atomic_emulation_trap-9111affe446510c3.1ainjqznfmasr5um.rcgu.o):(.debug_info)
    56df     56df        0     1                 
    595c     595c       b8     1         /Users/mabez/Development/rust/embedded/experiments/esp32c3-experiments/target/riscv32imac-unknown-none-elf/debug/deps/libriscv_atomic_emulation_trap-9111affe446510c3.rlib(riscv_atomic_emulation_trap-9111affe446510c3.1e14zek980l7c5wd.rcgu.o):(.debug_info)
    595c     595c        0     1                 
    5a14     5a14       e9     1         /Users/mabez/Development/rust/embedded/experiments/esp32c3-experiments/target/riscv32imac-unknown-none-elf/debug/deps/libriscv_atomic_emulation_trap-9111affe446510c3.rlib(riscv_atomic_emulation_trap-9111affe446510c3.3jxb2alfotone25d.rcgu.o):(.debug_info)
    5a14     5a14        0     1                 
    5afd     5afd      5ce     1         /Users/mabez/Development/rust/embedded/experiments/esp32c3-experiments/target/riscv32imac-unknown-none-elf/debug/deps/libriscv_rt-792395b706c7e295.rlib(riscv_rt-792395b706c7e295.n23zmh27zi56vj2.rcgu.o):(.debug_info)
    5afd     5afd        0     1                 
    60cb     60cb      1f1     1         /Users/mabez/Development/rust/embedded/experiments/esp32c3-experiments/target/riscv32imac-unknown-none-elf/debug/deps/libriscv_rt-792395b706c7e295.rlib(riscv_rt-792395b706c7e295.2si3iiyx4w55gh9p.rcgu.o):(.debug_info)
    60cb     60cb        0     1                 
    62bc     62bc      18b     1         /Users/mabez/Development/rust/embedded/experiments/esp32c3-experiments/target/riscv32imac-unknown-none-elf/debug/deps/libriscv_rt-792395b706c7e295.rlib(riscv_rt-792395b706c7e295.nu58l7xx5z184oa.rcgu.o):(.debug_info)
    62bc     62bc        0     1                 
    6447     6447       a2     1         /Users/mabez/Development/rust/embedded/experiments/esp32c3-experiments/target/riscv32imac-unknown-none-elf/debug/deps/libriscv_rt-792395b706c7e295.rlib(riscv_rt-792395b706c7e295.40ecbdq24jylbsk0.rcgu.o):(.debug_info)
    6447     6447        0     1                 
    64e9     64e9      1a4     1         /Users/mabez/Development/rust/embedded/experiments/esp32c3-experiments/target/riscv32imac-unknown-none-elf/debug/deps/libriscv_rt-792395b706c7e295.rlib(riscv_rt-792395b706c7e295.4l8nnv0gz5uboi7y.rcgu.o):(.debug_info)
    64e9     64e9        0     1                 
    668d     668d       e9     1         /Users/mabez/Development/rust/embedded/experiments/esp32c3-experiments/target/riscv32imac-unknown-none-elf/debug/deps/libriscv_rt-792395b706c7e295.rlib(riscv_rt-792395b706c7e295.a1pdmtq419pk4l9.rcgu.o):(.debug_info)
    668d     668d        0     1                 
    6776     6776      67f     1         /Users/mabez/Development/rust/embedded/experiments/esp32c3-experiments/target/riscv32imac-unknown-none-elf/debug/deps/libriscv-58bee4c49f9f92ec.rlib(riscv-58bee4c49f9f92ec.riscv.8be94b29-cgu.0.rcgu.o):(.debug_info)
    6776     6776        0     1                 
    6df5     6df5      697     1         /Users/mabez/Development/rust/embedded/experiments/esp32c3-experiments/target/riscv32imac-unknown-none-elf/debug/deps/libriscv-58bee4c49f9f92ec.rlib(riscv-58bee4c49f9f92ec.riscv.8be94b29-cgu.9.rcgu.o):(.debug_info)
    6df5     6df5        0     1                 
    748c     748c      23c     1         /Users/mabez/Development/rust/embedded/experiments/esp32c3-experiments/target/riscv32imac-unknown-none-elf/debug/deps/libriscv-58bee4c49f9f92ec.rlib(riscv-58bee4c49f9f92ec.riscv.8be94b29-cgu.4.rcgu.o):(.debug_info)
    748c     748c        0     1                 
    76c8     76c8       72     1         /Users/mabez/Development/rust/embedded/experiments/esp32c3-experiments/target/riscv32imac-unknown-none-elf/debug/deps/libriscv_rt-792395b706c7e295.rlib(riscv_rt-792395b706c7e295.2fig4fon7wqsswts.rcgu.o):(.debug_info)
    76c8     76c8        0     1                 
    773a     773a       48     1         /Users/mabez/Development/rust/embedded/experiments/esp32c3-experiments/target/riscv32imac-unknown-none-elf/debug/deps/libriscv_rt-792395b706c7e295.rlib(riscv_rt-792395b706c7e295.53lukflzfjg86k6f.rcgu.o):(.debug_info)
    773a     773a        0     1                 
    7782     7782       7d     1         /Users/mabez/Development/rust/embedded/experiments/esp32c3-experiments/target/riscv32imac-unknown-none-elf/debug/deps/libriscv_rt-792395b706c7e295.rlib(riscv_rt-792395b706c7e295.2h85xx65g8aqsgk3.rcgu.o):(.debug_info)
    7782     7782        0     1                 
    77ff     77ff      473     1         /Users/mabez/Development/rust/embedded/experiments/esp32c3-experiments/target/riscv32imac-unknown-none-elf/debug/deps/libriscv_atomic_emulation_trap-9111affe446510c3.rlib(riscv_atomic_emulation_trap-9111affe446510c3.473ch88oilsz6zg3.rcgu.o):(.debug_info)
    77ff     77ff        0     1                 
    7c72     7c72       cd     1         /Users/mabez/Development/rust/embedded/experiments/esp32c3-experiments/target/riscv32imac-unknown-none-elf/debug/deps/libriscv_atomic_emulation_trap-9111affe446510c3.rlib(riscv_atomic_emulation_trap-9111affe446510c3.1x01haq1ilk8wjw8.rcgu.o):(.debug_info)
    7c72     7c72        0     1                 
    7d3f     7d3f       da     1         /Users/mabez/Development/rust/embedded/experiments/esp32c3-experiments/target/riscv32imac-unknown-none-elf/debug/deps/libriscv_atomic_emulation_trap-9111affe446510c3.rlib(riscv_atomic_emulation_trap-9111affe446510c3.3eam8rvf5fviumdo.rcgu.o):(.debug_info)
    7d3f     7d3f        0     1                 
    7e19     7e19      137     1         /Users/mabez/Development/rust/embedded/experiments/esp32c3-experiments/target/riscv32imac-unknown-none-elf/debug/deps/libriscv_atomic_emulation_trap-9111affe446510c3.rlib(riscv_atomic_emulation_trap-9111affe446510c3.92c3mso3f7tifm.rcgu.o):(.debug_info)
    7e19     7e19        0     1                 
    7f50     7f50      2c6     1         /Users/mabez/Development/rust/embedded/experiments/esp32c3-experiments/target/riscv32imac-unknown-none-elf/debug/deps/libriscv_atomic_emulation_trap-9111affe446510c3.rlib(riscv_atomic_emulation_trap-9111affe446510c3.1ujfldlpaqv6u59a.rcgu.o):(.debug_info)
    7f50     7f50        0     1                 
    8216     8216      135     1         /Users/mabez/Development/rust/embedded/experiments/esp32c3-experiments/target/riscv32imac-unknown-none-elf/debug/deps/libriscv_atomic_emulation_trap-9111affe446510c3.rlib(riscv_atomic_emulation_trap-9111affe446510c3.5dmrm1faws2v64w9.rcgu.o):(.debug_info)
    8216     8216        0     1                 
    834b     834b      14e     1         /Users/mabez/Development/rust/embedded/experiments/esp32c3-experiments/target/riscv32imac-unknown-none-elf/debug/deps/libriscv_atomic_emulation_trap-9111affe446510c3.rlib(riscv_atomic_emulation_trap-9111affe446510c3.32s2sfn2d8x0z4vp.rcgu.o):(.debug_info)
    834b     834b        0     1                 
    8499     8499       cd     1         /Users/mabez/Development/rust/embedded/experiments/esp32c3-experiments/target/riscv32imac-unknown-none-elf/debug/deps/libriscv_atomic_emulation_trap-9111affe446510c3.rlib(riscv_atomic_emulation_trap-9111affe446510c3.iorsoyj01ig67gw.rcgu.o):(.debug_info)
    8499     8499        0     1                 
    8566     8566       cd     1         /Users/mabez/Development/rust/embedded/experiments/esp32c3-experiments/target/riscv32imac-unknown-none-elf/debug/deps/libriscv_atomic_emulation_trap-9111affe446510c3.rlib(riscv_atomic_emulation_trap-9111affe446510c3.koyzaehax49d9k4.rcgu.o):(.debug_info)
    8566     8566        0     1                 
    8633     8633       f2     1         /Users/mabez/Development/rust/embedded/experiments/esp32c3-experiments/target/riscv32imac-unknown-none-elf/debug/deps/libriscv_atomic_emulation_trap-9111affe446510c3.rlib(riscv_atomic_emulation_trap-9111affe446510c3.r9quz5yo0c3c66a.rcgu.o):(.debug_info)
    8633     8633        0     1                 
    8725     8725      15c     1         /Users/mabez/Development/rust/embedded/experiments/esp32c3-experiments/target/riscv32imac-unknown-none-elf/debug/deps/libriscv_atomic_emulation_trap-9111affe446510c3.rlib(riscv_atomic_emulation_trap-9111affe446510c3.um9btop5pm89mqk.rcgu.o):(.debug_info)
    8725     8725        0     1                 
    8881     8881      67f     1         /Users/mabez/Development/rust/embedded/experiments/esp32c3-experiments/target/riscv32imac-unknown-none-elf/debug/deps/libriscv-e6570dc03e37c02b.rlib(riscv-e6570dc03e37c02b.riscv.6a3f384f-cgu.0.rcgu.o):(.debug_info)
    8881     8881        0     1                 
    8f00     8f00      6e4     1         /Users/mabez/Development/rust/embedded/experiments/esp32c3-experiments/target/riscv32imac-unknown-none-elf/debug/deps/libriscv-e6570dc03e37c02b.rlib(riscv-e6570dc03e37c02b.riscv.6a3f384f-cgu.10.rcgu.o):(.debug_info)
    8f00     8f00        0     1                 
    95e4     95e4      3c7     1         /Users/mabez/Development/rust/embedded/experiments/esp32c3-experiments/target/riscv32imac-unknown-none-elf/debug/deps/libriscv-e6570dc03e37c02b.rlib(riscv-e6570dc03e37c02b.riscv.6a3f384f-cgu.11.rcgu.o):(.debug_info)
    95e4     95e4        0     1                 
    99ab     99ab      23c     1         /Users/mabez/Development/rust/embedded/experiments/esp32c3-experiments/target/riscv32imac-unknown-none-elf/debug/deps/libriscv-e6570dc03e37c02b.rlib(riscv-e6570dc03e37c02b.riscv.6a3f384f-cgu.4.rcgu.o):(.debug_info)
    99ab     99ab        0     1                 
    9be7     9be7      408     1         /Users/mabez/Development/rust/embedded/experiments/esp32c3-experiments/target/riscv32imac-unknown-none-elf/debug/deps/libriscv-e6570dc03e37c02b.rlib(riscv-e6570dc03e37c02b.riscv.6a3f384f-cgu.8.rcgu.o):(.debug_info)
    9be7     9be7        0     1                 
    9fef     9fef      2a2     1         /Users/mabez/Development/rust/embedded/experiments/esp32c3-experiments/target/riscv32imac-unknown-none-elf/debug/deps/libvoid-d8bfa8eb72c6fce6.rlib(void-d8bfa8eb72c6fce6.void.0c48974b-cgu.0.rcgu.o):(.debug_info)
    9fef     9fef        0     1                 
    a291     a291    1faa5     1         /Users/mabez/.rustup/toolchains/nightly-aarch64-apple-darwin/lib/rustlib/riscv32imac-unknown-none-elf/lib/libcore-081fd8405fc18f2e.rlib(core-081fd8405fc18f2e.core.756fe54c-cgu.0.rcgu.o):(.debug_info)
    a291     a291        0     1                 
   29d36    29d36      13e     1         /Users/mabez/.rustup/toolchains/nightly-aarch64-apple-darwin/lib/rustlib/riscv32imac-unknown-none-elf/lib/libcompiler_builtins-1e32d751d3fb162c.rlib(compiler_builtins-1e32d751d3fb162c.compiler_builtins.864c03ce-cgu.104.rcgu.o):(.debug_info)
   29d36    29d36        0     1                 
   29e74    29e74      287     1         /Users/mabez/.rustup/toolchains/nightly-aarch64-apple-darwin/lib/rustlib/riscv32imac-unknown-none-elf/lib/libcompiler_builtins-1e32d751d3fb162c.rlib(compiler_builtins-1e32d751d3fb162c.compiler_builtins.864c03ce-cgu.106.rcgu.o):(.debug_info)
   29e74    29e74        0     1                 
   2a0fb    2a0fb      209     1         /Users/mabez/.rustup/toolchains/nightly-aarch64-apple-darwin/lib/rustlib/riscv32imac-unknown-none-elf/lib/libcompiler_builtins-1e32d751d3fb162c.rlib(compiler_builtins-1e32d751d3fb162c.compiler_builtins.864c03ce-cgu.11.rcgu.o):(.debug_info)
   2a0fb    2a0fb        0     1                 
   2a304    2a304      244     1         /Users/mabez/.rustup/toolchains/nightly-aarch64-apple-darwin/lib/rustlib/riscv32imac-unknown-none-elf/lib/libcompiler_builtins-1e32d751d3fb162c.rlib(compiler_builtins-1e32d751d3fb162c.compiler_builtins.864c03ce-cgu.111.rcgu.o):(.debug_info)
   2a304    2a304        0     1                 
   2a548    2a548      1a1     1         /Users/mabez/.rustup/toolchains/nightly-aarch64-apple-darwin/lib/rustlib/riscv32imac-unknown-none-elf/lib/libcompiler_builtins-1e32d751d3fb162c.rlib(compiler_builtins-1e32d751d3fb162c.compiler_builtins.864c03ce-cgu.2.rcgu.o):(.debug_info)
   2a548    2a548        0     1                 
   2a6e9    2a6e9      33d     1         /Users/mabez/.rustup/toolchains/nightly-aarch64-apple-darwin/lib/rustlib/riscv32imac-unknown-none-elf/lib/libcompiler_builtins-1e32d751d3fb162c.rlib(compiler_builtins-1e32d751d3fb162c.compiler_builtins.864c03ce-cgu.20.rcgu.o):(.debug_info)
   2a6e9    2a6e9        0     1                 
   2aa26    2aa26       70     1         /Users/mabez/.rustup/toolchains/nightly-aarch64-apple-darwin/lib/rustlib/riscv32imac-unknown-none-elf/lib/libcompiler_builtins-1e32d751d3fb162c.rlib(compiler_builtins-1e32d751d3fb162c.compiler_builtins.864c03ce-cgu.21.rcgu.o):(.debug_info)
   2aa26    2aa26        0     1                 
   2aa96    2aa96      164     1         /Users/mabez/.rustup/toolchains/nightly-aarch64-apple-darwin/lib/rustlib/riscv32imac-unknown-none-elf/lib/libcompiler_builtins-1e32d751d3fb162c.rlib(compiler_builtins-1e32d751d3fb162c.compiler_builtins.864c03ce-cgu.27.rcgu.o):(.debug_info)
   2aa96    2aa96        0     1                 
   2abfa    2abfa       70     1         /Users/mabez/.rustup/toolchains/nightly-aarch64-apple-darwin/lib/rustlib/riscv32imac-unknown-none-elf/lib/libcompiler_builtins-1e32d751d3fb162c.rlib(compiler_builtins-1e32d751d3fb162c.compiler_builtins.864c03ce-cgu.28.rcgu.o):(.debug_info)
   2abfa    2abfa        0     1                 
   2ac6a    2ac6a      1a1     1         /Users/mabez/.rustup/toolchains/nightly-aarch64-apple-darwin/lib/rustlib/riscv32imac-unknown-none-elf/lib/libcompiler_builtins-1e32d751d3fb162c.rlib(compiler_builtins-1e32d751d3fb162c.compiler_builtins.864c03ce-cgu.69.rcgu.o):(.debug_info)
   2ac6a    2ac6a        0     1                 
   2ae0b    2ae0b      264     1         /Users/mabez/.rustup/toolchains/nightly-aarch64-apple-darwin/lib/rustlib/riscv32imac-unknown-none-elf/lib/libcompiler_builtins-1e32d751d3fb162c.rlib(compiler_builtins-1e32d751d3fb162c.compiler_builtins.864c03ce-cgu.7.rcgu.o):(.debug_info)
   2ae0b    2ae0b        0     1                 
   2b06f    2b06f       70     1         /Users/mabez/.rustup/toolchains/nightly-aarch64-apple-darwin/lib/rustlib/riscv32imac-unknown-none-elf/lib/libcompiler_builtins-1e32d751d3fb162c.rlib(compiler_builtins-1e32d751d3fb162c.compiler_builtins.864c03ce-cgu.70.rcgu.o):(.debug_info)
   2b06f    2b06f        0     1                 
   2b0df    2b0df      1a1     1         /Users/mabez/.rustup/toolchains/nightly-aarch64-apple-darwin/lib/rustlib/riscv32imac-unknown-none-elf/lib/libcompiler_builtins-1e32d751d3fb162c.rlib(compiler_builtins-1e32d751d3fb162c.compiler_builtins.864c03ce-cgu.71.rcgu.o):(.debug_info)
   2b0df    2b0df        0     1                 
   2b280    2b280      13e     1         /Users/mabez/.rustup/toolchains/nightly-aarch64-apple-darwin/lib/rustlib/riscv32imac-unknown-none-elf/lib/libcompiler_builtins-1e32d751d3fb162c.rlib(compiler_builtins-1e32d751d3fb162c.compiler_builtins.864c03ce-cgu.79.rcgu.o):(.debug_info)
   2b280    2b280        0     1                 
   2b3be    2b3be      287     1         /Users/mabez/.rustup/toolchains/nightly-aarch64-apple-darwin/lib/rustlib/riscv32imac-unknown-none-elf/lib/libcompiler_builtins-1e32d751d3fb162c.rlib(compiler_builtins-1e32d751d3fb162c.compiler_builtins.864c03ce-cgu.8.rcgu.o):(.debug_info)
   2b3be    2b3be        0     1                 
   2b645    2b645      390     1         /Users/mabez/.rustup/toolchains/nightly-aarch64-apple-darwin/lib/rustlib/riscv32imac-unknown-none-elf/lib/libcompiler_builtins-1e32d751d3fb162c.rlib(compiler_builtins-1e32d751d3fb162c.compiler_builtins.864c03ce-cgu.82.rcgu.o):(.debug_info)
   2b645    2b645        0     1                 
   2b9d5    2b9d5      17d     1         /Users/mabez/.rustup/toolchains/nightly-aarch64-apple-darwin/lib/rustlib/riscv32imac-unknown-none-elf/lib/libcompiler_builtins-1e32d751d3fb162c.rlib(compiler_builtins-1e32d751d3fb162c.compiler_builtins.864c03ce-cgu.120.rcgu.o):(.debug_info)
   2b9d5    2b9d5        0     1                 
   2bb52    2bb52      13e     1         /Users/mabez/.rustup/toolchains/nightly-aarch64-apple-darwin/lib/rustlib/riscv32imac-unknown-none-elf/lib/libcompiler_builtins-1e32d751d3fb162c.rlib(compiler_builtins-1e32d751d3fb162c.compiler_builtins.864c03ce-cgu.92.rcgu.o):(.debug_info)
   2bb52    2bb52        0     1                 
   2bc90    2bc90       23     1         /Users/mabez/Development/rust/embedded/experiments/esp32c3-experiments/target/riscv32imac-unknown-none-elf/debug/deps/libriscv_rt-792395b706c7e295.rlib(riscv-rt.o):(.debug_info)
   2bcb3    2bcb3       25     1         /Users/mabez/Development/rust/embedded/experiments/esp32c3-experiments/target/riscv32imac-unknown-none-elf/debug/deps/libriscv_atomic_emulation_trap-9111affe446510c3.rlib(riscv-atomic-emulation-trap.o):(.debug_info)
       0        0     24f8     8 .debug_aranges
       0        0       30     1         /Users/mabez/Development/rust/embedded/experiments/esp32c3-experiments/target/riscv32imac-unknown-none-elf/debug/deps/esp32c3-5c92695bd7d79a0b.1167rr2z31gresnb.rcgu.o:(.debug_aranges)
      30       30       40     1         /Users/mabez/Development/rust/embedded/experiments/esp32c3-experiments/target/riscv32imac-unknown-none-elf/debug/deps/esp32c3-5c92695bd7d79a0b.17kfpczq76poenv8.rcgu.o:(.debug_aranges)
      70       70       40     1         /Users/mabez/Development/rust/embedded/experiments/esp32c3-experiments/target/riscv32imac-unknown-none-elf/debug/deps/esp32c3-5c92695bd7d79a0b.1iu2tfaecczf5k50.rcgu.o:(.debug_aranges)
      b0       b0       20     1         /Users/mabez/Development/rust/embedded/experiments/esp32c3-experiments/target/riscv32imac-unknown-none-elf/debug/deps/esp32c3-5c92695bd7d79a0b.2146etiuaoyugpgb.rcgu.o:(.debug_aranges)
      d0       d0       30     1         /Users/mabez/Development/rust/embedded/experiments/esp32c3-experiments/target/riscv32imac-unknown-none-elf/debug/deps/esp32c3-5c92695bd7d79a0b.2bt420y5da8z26cy.rcgu.o:(.debug_aranges)
     100      100       20     1         /Users/mabez/Development/rust/embedded/experiments/esp32c3-experiments/target/riscv32imac-unknown-none-elf/debug/deps/esp32c3-5c92695bd7d79a0b.2y0w5m30si0qvc1i.rcgu.o:(.debug_aranges)
     120      120       28     1         /Users/mabez/Development/rust/embedded/experiments/esp32c3-experiments/target/riscv32imac-unknown-none-elf/debug/deps/esp32c3-5c92695bd7d79a0b.36jwgnll5937lngu.rcgu.o:(.debug_aranges)
     148      148       20     1         /Users/mabez/Development/rust/embedded/experiments/esp32c3-experiments/target/riscv32imac-unknown-none-elf/debug/deps/esp32c3-5c92695bd7d79a0b.46tzsed5680ekwya.rcgu.o:(.debug_aranges)
     168      168       48     1         /Users/mabez/Development/rust/embedded/experiments/esp32c3-experiments/target/riscv32imac-unknown-none-elf/debug/deps/esp32c3-5c92695bd7d79a0b.4d3o56o4s3rmpew1.rcgu.o:(.debug_aranges)
     1b0      1b0       20     1         /Users/mabez/Development/rust/embedded/experiments/esp32c3-experiments/target/riscv32imac-unknown-none-elf/debug/deps/esp32c3-5c92695bd7d79a0b.4sieayjll78w32te.rcgu.o:(.debug_aranges)
     1d0      1d0       58     1         /Users/mabez/Development/rust/embedded/experiments/esp32c3-experiments/target/riscv32imac-unknown-none-elf/debug/deps/esp32c3-5c92695bd7d79a0b.57j3pmw6ctaj3l7m.rcgu.o:(.debug_aranges)
     228      228       20     1         /Users/mabez/Development/rust/embedded/experiments/esp32c3-experiments/target/riscv32imac-unknown-none-elf/debug/deps/esp32c3-5c92695bd7d79a0b.57vaia0p0nh7h46b.rcgu.o:(.debug_aranges)
     248      248       38     1         /Users/mabez/Development/rust/embedded/experiments/esp32c3-experiments/target/riscv32imac-unknown-none-elf/debug/deps/esp32c3-5c92695bd7d79a0b.vifbgxjspdn3ixi.rcgu.o:(.debug_aranges)
     280      280       38     1         /Users/mabez/Development/rust/embedded/experiments/esp32c3-experiments/target/riscv32imac-unknown-none-elf/debug/deps/esp32c3-5c92695bd7d79a0b.w0jfp97vxp3n0e0.rcgu.o:(.debug_aranges)
     2b8      2b8       50     1         /Users/mabez/Development/rust/embedded/experiments/esp32c3-experiments/target/riscv32imac-unknown-none-elf/debug/deps/libesp32c3_lib-435c508db645f62b.rlib(esp32c3_lib-435c508db645f62b.enpltv37r0tja3s.rcgu.o):(.debug_aranges)
     308      308       30     1         /Users/mabez/Development/rust/embedded/experiments/esp32c3-experiments/target/riscv32imac-unknown-none-elf/debug/deps/libesp32c3_lib-435c508db645f62b.rlib(esp32c3_lib-435c508db645f62b.4qunmpv8rlyr20lx.rcgu.o):(.debug_aranges)
     338      338       30     1         /Users/mabez/Development/rust/embedded/experiments/esp32c3-experiments/target/riscv32imac-unknown-none-elf/debug/deps/libesp32c3_lib-435c508db645f62b.rlib(esp32c3_lib-435c508db645f62b.3xdn0a03wuv3lfvi.rcgu.o):(.debug_aranges)
     368      368       28     1         /Users/mabez/Development/rust/embedded/experiments/esp32c3-experiments/target/riscv32imac-unknown-none-elf/debug/deps/libesp32c3_lib-435c508db645f62b.rlib(esp32c3_lib-435c508db645f62b.10h0j41trqvefdik.rcgu.o):(.debug_aranges)
     390      390       28     1         /Users/mabez/Development/rust/embedded/experiments/esp32c3-experiments/target/riscv32imac-unknown-none-elf/debug/deps/libesp32c3_lib-435c508db645f62b.rlib(esp32c3_lib-435c508db645f62b.3ja21lwj0yew0pl1.rcgu.o):(.debug_aranges)
     3b8      3b8       28     1         /Users/mabez/Development/rust/embedded/experiments/esp32c3-experiments/target/riscv32imac-unknown-none-elf/debug/deps/libesp32c3_lib-435c508db645f62b.rlib(esp32c3_lib-435c508db645f62b.2vqs4zh0r4p5a1ya.rcgu.o):(.debug_aranges)
     3e0      3e0       28     1         /Users/mabez/Development/rust/embedded/experiments/esp32c3-experiments/target/riscv32imac-unknown-none-elf/debug/deps/libesp32c3_lib-435c508db645f62b.rlib(esp32c3_lib-435c508db645f62b.2wzydu5xsvwfbdws.rcgu.o):(.debug_aranges)
     408      408       28     1         /Users/mabez/Development/rust/embedded/experiments/esp32c3-experiments/target/riscv32imac-unknown-none-elf/debug/deps/libriscv_atomic_emulation_trap-9111affe446510c3.rlib(riscv_atomic_emulation_trap-9111affe446510c3.3mjkh8i7otdbof7e.rcgu.o):(.debug_aranges)
     430      430       20     1         /Users/mabez/Development/rust/embedded/experiments/esp32c3-experiments/target/riscv32imac-unknown-none-elf/debug/deps/libriscv_atomic_emulation_trap-9111affe446510c3.rlib(riscv_atomic_emulation_trap-9111affe446510c3.47nrs7arfzyngfvl.rcgu.o):(.debug_aranges)
     450      450       50     1         /Users/mabez/Development/rust/embedded/experiments/esp32c3-experiments/target/riscv32imac-unknown-none-elf/debug/deps/libriscv_atomic_emulation_trap-9111affe446510c3.rlib(riscv_atomic_emulation_trap-9111affe446510c3.7puluphka9w3g90.rcgu.o):(.debug_aranges)
     4a0      4a0       28     1         /Users/mabez/Development/rust/embedded/experiments/esp32c3-experiments/target/riscv32imac-unknown-none-elf/debug/deps/libriscv_atomic_emulation_trap-9111affe446510c3.rlib(riscv_atomic_emulation_trap-9111affe446510c3.29cdtova41s09pd8.rcgu.o):(.debug_aranges)
     4c8      4c8       20     1         /Users/mabez/Development/rust/embedded/experiments/esp32c3-experiments/target/riscv32imac-unknown-none-elf/debug/deps/libriscv_atomic_emulation_trap-9111affe446510c3.rlib(riscv_atomic_emulation_trap-9111affe446510c3.411zpn36fj0rdh69.rcgu.o):(.debug_aranges)
     4e8      4e8       48     1         /Users/mabez/Development/rust/embedded/experiments/esp32c3-experiments/target/riscv32imac-unknown-none-elf/debug/deps/libriscv_atomic_emulation_trap-9111affe446510c3.rlib(riscv_atomic_emulation_trap-9111affe446510c3.4em3hgrap6mo60l5.rcgu.o):(.debug_aranges)
     530      530       30     1         /Users/mabez/Development/rust/embedded/experiments/esp32c3-experiments/target/riscv32imac-unknown-none-elf/debug/deps/libriscv_atomic_emulation_trap-9111affe446510c3.rlib(riscv_atomic_emulation_trap-9111affe446510c3.1ainjqznfmasr5um.rcgu.o):(.debug_aranges)
     560      560       20     1         /Users/mabez/Development/rust/embedded/experiments/esp32c3-experiments/target/riscv32imac-unknown-none-elf/debug/deps/libriscv_atomic_emulation_trap-9111affe446510c3.rlib(riscv_atomic_emulation_trap-9111affe446510c3.1e14zek980l7c5wd.rcgu.o):(.debug_aranges)
     580      580       38     1         /Users/mabez/Development/rust/embedded/experiments/esp32c3-experiments/target/riscv32imac-unknown-none-elf/debug/deps/libriscv_atomic_emulation_trap-9111affe446510c3.rlib(riscv_atomic_emulation_trap-9111affe446510c3.3jxb2alfotone25d.rcgu.o):(.debug_aranges)
     5b8      5b8       68     1         /Users/mabez/Development/rust/embedded/experiments/esp32c3-experiments/target/riscv32imac-unknown-none-elf/debug/deps/libriscv_rt-792395b706c7e295.rlib(riscv_rt-792395b706c7e295.n23zmh27zi56vj2.rcgu.o):(.debug_aranges)
     620      620       28     1         /Users/mabez/Development/rust/embedded/experiments/esp32c3-experiments/target/riscv32imac-unknown-none-elf/debug/deps/libriscv_rt-792395b706c7e295.rlib(riscv_rt-792395b706c7e295.2si3iiyx4w55gh9p.rcgu.o):(.debug_aranges)
     648      648       20     1         /Users/mabez/Development/rust/embedded/experiments/esp32c3-experiments/target/riscv32imac-unknown-none-elf/debug/deps/libriscv_rt-792395b706c7e295.rlib(riscv_rt-792395b706c7e295.nu58l7xx5z184oa.rcgu.o):(.debug_aranges)
     668      668       20     1         /Users/mabez/Development/rust/embedded/experiments/esp32c3-experiments/target/riscv32imac-unknown-none-elf/debug/deps/libriscv_rt-792395b706c7e295.rlib(riscv_rt-792395b706c7e295.40ecbdq24jylbsk0.rcgu.o):(.debug_aranges)
     688      688       30     1         /Users/mabez/Development/rust/embedded/experiments/esp32c3-experiments/target/riscv32imac-unknown-none-elf/debug/deps/libriscv_rt-792395b706c7e295.rlib(riscv_rt-792395b706c7e295.4l8nnv0gz5uboi7y.rcgu.o):(.debug_aranges)
     6b8      6b8       38     1         /Users/mabez/Development/rust/embedded/experiments/esp32c3-experiments/target/riscv32imac-unknown-none-elf/debug/deps/libriscv_rt-792395b706c7e295.rlib(riscv_rt-792395b706c7e295.a1pdmtq419pk4l9.rcgu.o):(.debug_aranges)
     6f0      6f0       78     1         /Users/mabez/Development/rust/embedded/experiments/esp32c3-experiments/target/riscv32imac-unknown-none-elf/debug/deps/libriscv-58bee4c49f9f92ec.rlib(riscv-58bee4c49f9f92ec.riscv.8be94b29-cgu.0.rcgu.o):(.debug_aranges)
     768      768       70     1         /Users/mabez/Development/rust/embedded/experiments/esp32c3-experiments/target/riscv32imac-unknown-none-elf/debug/deps/libriscv-58bee4c49f9f92ec.rlib(riscv-58bee4c49f9f92ec.riscv.8be94b29-cgu.9.rcgu.o):(.debug_aranges)
     7d8      7d8       28     1         /Users/mabez/Development/rust/embedded/experiments/esp32c3-experiments/target/riscv32imac-unknown-none-elf/debug/deps/libriscv-58bee4c49f9f92ec.rlib(riscv-58bee4c49f9f92ec.riscv.8be94b29-cgu.4.rcgu.o):(.debug_aranges)
     800      800       28     1         /Users/mabez/Development/rust/embedded/experiments/esp32c3-experiments/target/riscv32imac-unknown-none-elf/debug/deps/libriscv_rt-792395b706c7e295.rlib(riscv_rt-792395b706c7e295.2fig4fon7wqsswts.rcgu.o):(.debug_aranges)
     828      828       20     1         /Users/mabez/Development/rust/embedded/experiments/esp32c3-experiments/target/riscv32imac-unknown-none-elf/debug/deps/libriscv_rt-792395b706c7e295.rlib(riscv_rt-792395b706c7e295.53lukflzfjg86k6f.rcgu.o):(.debug_aranges)
     848      848       20     1         /Users/mabez/Development/rust/embedded/experiments/esp32c3-experiments/target/riscv32imac-unknown-none-elf/debug/deps/libriscv_rt-792395b706c7e295.rlib(riscv_rt-792395b706c7e295.2h85xx65g8aqsgk3.rcgu.o):(.debug_aranges)
     868      868       30     1         /Users/mabez/Development/rust/embedded/experiments/esp32c3-experiments/target/riscv32imac-unknown-none-elf/debug/deps/libriscv_atomic_emulation_trap-9111affe446510c3.rlib(riscv_atomic_emulation_trap-9111affe446510c3.473ch88oilsz6zg3.rcgu.o):(.debug_aranges)
     898      898       28     1         /Users/mabez/Development/rust/embedded/experiments/esp32c3-experiments/target/riscv32imac-unknown-none-elf/debug/deps/libriscv_atomic_emulation_trap-9111affe446510c3.rlib(riscv_atomic_emulation_trap-9111affe446510c3.1x01haq1ilk8wjw8.rcgu.o):(.debug_aranges)
     8c0      8c0       28     1         /Users/mabez/Development/rust/embedded/experiments/esp32c3-experiments/target/riscv32imac-unknown-none-elf/debug/deps/libriscv_atomic_emulation_trap-9111affe446510c3.rlib(riscv_atomic_emulation_trap-9111affe446510c3.3eam8rvf5fviumdo.rcgu.o):(.debug_aranges)
     8e8      8e8       28     1         /Users/mabez/Development/rust/embedded/experiments/esp32c3-experiments/target/riscv32imac-unknown-none-elf/debug/deps/libriscv_atomic_emulation_trap-9111affe446510c3.rlib(riscv_atomic_emulation_trap-9111affe446510c3.92c3mso3f7tifm.rcgu.o):(.debug_aranges)
     910      910       38     1         /Users/mabez/Development/rust/embedded/experiments/esp32c3-experiments/target/riscv32imac-unknown-none-elf/debug/deps/libriscv_atomic_emulation_trap-9111affe446510c3.rlib(riscv_atomic_emulation_trap-9111affe446510c3.1ujfldlpaqv6u59a.rcgu.o):(.debug_aranges)
     948      948       28     1         /Users/mabez/Development/rust/embedded/experiments/esp32c3-experiments/target/riscv32imac-unknown-none-elf/debug/deps/libriscv_atomic_emulation_trap-9111affe446510c3.rlib(riscv_atomic_emulation_trap-9111affe446510c3.5dmrm1faws2v64w9.rcgu.o):(.debug_aranges)
     970      970       28     1         /Users/mabez/Development/rust/embedded/experiments/esp32c3-experiments/target/riscv32imac-unknown-none-elf/debug/deps/libriscv_atomic_emulation_trap-9111affe446510c3.rlib(riscv_atomic_emulation_trap-9111affe446510c3.32s2sfn2d8x0z4vp.rcgu.o):(.debug_aranges)
     998      998       28     1         /Users/mabez/Development/rust/embedded/experiments/esp32c3-experiments/target/riscv32imac-unknown-none-elf/debug/deps/libriscv_atomic_emulation_trap-9111affe446510c3.rlib(riscv_atomic_emulation_trap-9111affe446510c3.iorsoyj01ig67gw.rcgu.o):(.debug_aranges)
     9c0      9c0       28     1         /Users/mabez/Development/rust/embedded/experiments/esp32c3-experiments/target/riscv32imac-unknown-none-elf/debug/deps/libriscv_atomic_emulation_trap-9111affe446510c3.rlib(riscv_atomic_emulation_trap-9111affe446510c3.koyzaehax49d9k4.rcgu.o):(.debug_aranges)
     9e8      9e8       28     1         /Users/mabez/Development/rust/embedded/experiments/esp32c3-experiments/target/riscv32imac-unknown-none-elf/debug/deps/libriscv_atomic_emulation_trap-9111affe446510c3.rlib(riscv_atomic_emulation_trap-9111affe446510c3.r9quz5yo0c3c66a.rcgu.o):(.debug_aranges)
     a10      a10       28     1         /Users/mabez/Development/rust/embedded/experiments/esp32c3-experiments/target/riscv32imac-unknown-none-elf/debug/deps/libriscv_atomic_emulation_trap-9111affe446510c3.rlib(riscv_atomic_emulation_trap-9111affe446510c3.um9btop5pm89mqk.rcgu.o):(.debug_aranges)
     a38      a38       78     1         /Users/mabez/Development/rust/embedded/experiments/esp32c3-experiments/target/riscv32imac-unknown-none-elf/debug/deps/libriscv-e6570dc03e37c02b.rlib(riscv-e6570dc03e37c02b.riscv.6a3f384f-cgu.0.rcgu.o):(.debug_aranges)
     ab0      ab0       80     1         /Users/mabez/Development/rust/embedded/experiments/esp32c3-experiments/target/riscv32imac-unknown-none-elf/debug/deps/libriscv-e6570dc03e37c02b.rlib(riscv-e6570dc03e37c02b.riscv.6a3f384f-cgu.10.rcgu.o):(.debug_aranges)
     b30      b30       40     1         /Users/mabez/Development/rust/embedded/experiments/esp32c3-experiments/target/riscv32imac-unknown-none-elf/debug/deps/libriscv-e6570dc03e37c02b.rlib(riscv-e6570dc03e37c02b.riscv.6a3f384f-cgu.11.rcgu.o):(.debug_aranges)
     b70      b70       28     1         /Users/mabez/Development/rust/embedded/experiments/esp32c3-experiments/target/riscv32imac-unknown-none-elf/debug/deps/libriscv-e6570dc03e37c02b.rlib(riscv-e6570dc03e37c02b.riscv.6a3f384f-cgu.4.rcgu.o):(.debug_aranges)
     b98      b98       48     1         /Users/mabez/Development/rust/embedded/experiments/esp32c3-experiments/target/riscv32imac-unknown-none-elf/debug/deps/libriscv-e6570dc03e37c02b.rlib(riscv-e6570dc03e37c02b.riscv.6a3f384f-cgu.8.rcgu.o):(.debug_aranges)
     be0      be0       30     1         /Users/mabez/Development/rust/embedded/experiments/esp32c3-experiments/target/riscv32imac-unknown-none-elf/debug/deps/libvoid-d8bfa8eb72c6fce6.rlib(void-d8bfa8eb72c6fce6.void.0c48974b-cgu.0.rcgu.o):(.debug_aranges)
     c10      c10     15e0     1         /Users/mabez/.rustup/toolchains/nightly-aarch64-apple-darwin/lib/rustlib/riscv32imac-unknown-none-elf/lib/libcore-081fd8405fc18f2e.rlib(core-081fd8405fc18f2e.core.756fe54c-cgu.0.rcgu.o):(.debug_aranges)
    21f0     21f0       20     1         /Users/mabez/.rustup/toolchains/nightly-aarch64-apple-darwin/lib/rustlib/riscv32imac-unknown-none-elf/lib/libcompiler_builtins-1e32d751d3fb162c.rlib(compiler_builtins-1e32d751d3fb162c.compiler_builtins.864c03ce-cgu.104.rcgu.o):(.debug_aranges)
    2210     2210       20     1         /Users/mabez/.rustup/toolchains/nightly-aarch64-apple-darwin/lib/rustlib/riscv32imac-unknown-none-elf/lib/libcompiler_builtins-1e32d751d3fb162c.rlib(compiler_builtins-1e32d751d3fb162c.compiler_builtins.864c03ce-cgu.106.rcgu.o):(.debug_aranges)
    2230     2230       20     1         /Users/mabez/.rustup/toolchains/nightly-aarch64-apple-darwin/lib/rustlib/riscv32imac-unknown-none-elf/lib/libcompiler_builtins-1e32d751d3fb162c.rlib(compiler_builtins-1e32d751d3fb162c.compiler_builtins.864c03ce-cgu.11.rcgu.o):(.debug_aranges)
    2250     2250       20     1         /Users/mabez/.rustup/toolchains/nightly-aarch64-apple-darwin/lib/rustlib/riscv32imac-unknown-none-elf/lib/libcompiler_builtins-1e32d751d3fb162c.rlib(compiler_builtins-1e32d751d3fb162c.compiler_builtins.864c03ce-cgu.111.rcgu.o):(.debug_aranges)
    2270     2270       20     1         /Users/mabez/.rustup/toolchains/nightly-aarch64-apple-darwin/lib/rustlib/riscv32imac-unknown-none-elf/lib/libcompiler_builtins-1e32d751d3fb162c.rlib(compiler_builtins-1e32d751d3fb162c.compiler_builtins.864c03ce-cgu.2.rcgu.o):(.debug_aranges)
    2290     2290       88     1         /Users/mabez/.rustup/toolchains/nightly-aarch64-apple-darwin/lib/rustlib/riscv32imac-unknown-none-elf/lib/libcompiler_builtins-1e32d751d3fb162c.rlib(compiler_builtins-1e32d751d3fb162c.compiler_builtins.864c03ce-cgu.20.rcgu.o):(.debug_aranges)
    2318     2318       20     1         /Users/mabez/.rustup/toolchains/nightly-aarch64-apple-darwin/lib/rustlib/riscv32imac-unknown-none-elf/lib/libcompiler_builtins-1e32d751d3fb162c.rlib(compiler_builtins-1e32d751d3fb162c.compiler_builtins.864c03ce-cgu.21.rcgu.o):(.debug_aranges)
    2338     2338       20     1         /Users/mabez/.rustup/toolchains/nightly-aarch64-apple-darwin/lib/rustlib/riscv32imac-unknown-none-elf/lib/libcompiler_builtins-1e32d751d3fb162c.rlib(compiler_builtins-1e32d751d3fb162c.compiler_builtins.864c03ce-cgu.27.rcgu.o):(.debug_aranges)
    2358     2358       20     1         /Users/mabez/.rustup/toolchains/nightly-aarch64-apple-darwin/lib/rustlib/riscv32imac-unknown-none-elf/lib/libcompiler_builtins-1e32d751d3fb162c.rlib(compiler_builtins-1e32d751d3fb162c.compiler_builtins.864c03ce-cgu.28.rcgu.o):(.debug_aranges)
    2378     2378       20     1         /Users/mabez/.rustup/toolchains/nightly-aarch64-apple-darwin/lib/rustlib/riscv32imac-unknown-none-elf/lib/libcompiler_builtins-1e32d751d3fb162c.rlib(compiler_builtins-1e32d751d3fb162c.compiler_builtins.864c03ce-cgu.69.rcgu.o):(.debug_aranges)
    2398     2398       20     1         /Users/mabez/.rustup/toolchains/nightly-aarch64-apple-darwin/lib/rustlib/riscv32imac-unknown-none-elf/lib/libcompiler_builtins-1e32d751d3fb162c.rlib(compiler_builtins-1e32d751d3fb162c.compiler_builtins.864c03ce-cgu.7.rcgu.o):(.debug_aranges)
    23b8     23b8       20     1         /Users/mabez/.rustup/toolchains/nightly-aarch64-apple-darwin/lib/rustlib/riscv32imac-unknown-none-elf/lib/libcompiler_builtins-1e32d751d3fb162c.rlib(compiler_builtins-1e32d751d3fb162c.compiler_builtins.864c03ce-cgu.70.rcgu.o):(.debug_aranges)
    23d8     23d8       20     1         /Users/mabez/.rustup/toolchains/nightly-aarch64-apple-darwin/lib/rustlib/riscv32imac-unknown-none-elf/lib/libcompiler_builtins-1e32d751d3fb162c.rlib(compiler_builtins-1e32d751d3fb162c.compiler_builtins.864c03ce-cgu.71.rcgu.o):(.debug_aranges)
    23f8     23f8       20     1         /Users/mabez/.rustup/toolchains/nightly-aarch64-apple-darwin/lib/rustlib/riscv32imac-unknown-none-elf/lib/libcompiler_builtins-1e32d751d3fb162c.rlib(compiler_builtins-1e32d751d3fb162c.compiler_builtins.864c03ce-cgu.79.rcgu.o):(.debug_aranges)
    2418     2418       20     1         /Users/mabez/.rustup/toolchains/nightly-aarch64-apple-darwin/lib/rustlib/riscv32imac-unknown-none-elf/lib/libcompiler_builtins-1e32d751d3fb162c.rlib(compiler_builtins-1e32d751d3fb162c.compiler_builtins.864c03ce-cgu.8.rcgu.o):(.debug_aranges)
    2438     2438       30     1         /Users/mabez/.rustup/toolchains/nightly-aarch64-apple-darwin/lib/rustlib/riscv32imac-unknown-none-elf/lib/libcompiler_builtins-1e32d751d3fb162c.rlib(compiler_builtins-1e32d751d3fb162c.compiler_builtins.864c03ce-cgu.82.rcgu.o):(.debug_aranges)
    2468     2468       20     1         /Users/mabez/.rustup/toolchains/nightly-aarch64-apple-darwin/lib/rustlib/riscv32imac-unknown-none-elf/lib/libcompiler_builtins-1e32d751d3fb162c.rlib(compiler_builtins-1e32d751d3fb162c.compiler_builtins.864c03ce-cgu.120.rcgu.o):(.debug_aranges)
    2488     2488       20     1         /Users/mabez/.rustup/toolchains/nightly-aarch64-apple-darwin/lib/rustlib/riscv32imac-unknown-none-elf/lib/libcompiler_builtins-1e32d751d3fb162c.rlib(compiler_builtins-1e32d751d3fb162c.compiler_builtins.864c03ce-cgu.92.rcgu.o):(.debug_aranges)
    24a8     24a8       30     8         /Users/mabez/Development/rust/embedded/experiments/esp32c3-experiments/target/riscv32imac-unknown-none-elf/debug/deps/libriscv_rt-792395b706c7e295.rlib(riscv-rt.o):(.debug_aranges)
    24d8     24d8       20     8         /Users/mabez/Development/rust/embedded/experiments/esp32c3-experiments/target/riscv32imac-unknown-none-elf/debug/deps/libriscv_atomic_emulation_trap-9111affe446510c3.rlib(riscv-atomic-emulation-trap.o):(.debug_aranges)
       0        0     eac8     1 .debug_ranges
       0        0       50     1         /Users/mabez/Development/rust/embedded/experiments/esp32c3-experiments/target/riscv32imac-unknown-none-elf/debug/deps/esp32c3-5c92695bd7d79a0b.1167rr2z31gresnb.rcgu.o:(.debug_ranges)
       0        0        0     1                 
      18       18        0     1                 
      30       30        0     1                 
      50       50       20     1         /Users/mabez/Development/rust/embedded/experiments/esp32c3-experiments/target/riscv32imac-unknown-none-elf/debug/deps/esp32c3-5c92695bd7d79a0b.17kfpczq76poenv8.rcgu.o:(.debug_ranges)
      50       50        0     1                 
      70       70       30     1         /Users/mabez/Development/rust/embedded/experiments/esp32c3-experiments/target/riscv32imac-unknown-none-elf/debug/deps/esp32c3-5c92695bd7d79a0b.1iu2tfaecczf5k50.rcgu.o:(.debug_ranges)
      70       70        0     1                 
      a0       a0       20     1         /Users/mabez/Development/rust/embedded/experiments/esp32c3-experiments/target/riscv32imac-unknown-none-elf/debug/deps/esp32c3-5c92695bd7d79a0b.2bt420y5da8z26cy.rcgu.o:(.debug_ranges)
      a0       a0        0     1                 
      c0       c0       18     1         /Users/mabez/Development/rust/embedded/experiments/esp32c3-experiments/target/riscv32imac-unknown-none-elf/debug/deps/esp32c3-5c92695bd7d79a0b.36jwgnll5937lngu.rcgu.o:(.debug_ranges)
      c0       c0        0     1                 
      d8       d8       30     1         /Users/mabez/Development/rust/embedded/experiments/esp32c3-experiments/target/riscv32imac-unknown-none-elf/debug/deps/esp32c3-5c92695bd7d79a0b.4d3o56o4s3rmpew1.rcgu.o:(.debug_ranges)
      d8       d8        0     1                 
     108      108       28     1         /Users/mabez/Development/rust/embedded/experiments/esp32c3-experiments/target/riscv32imac-unknown-none-elf/debug/deps/esp32c3-5c92695bd7d79a0b.57j3pmw6ctaj3l7m.rcgu.o:(.debug_ranges)
     108      108        0     1                 
     130      130       18     1         /Users/mabez/Development/rust/embedded/experiments/esp32c3-experiments/target/riscv32imac-unknown-none-elf/debug/deps/esp32c3-5c92695bd7d79a0b.57vaia0p0nh7h46b.rcgu.o:(.debug_ranges)
     130      130        0     1                 
     148      148       28     1         /Users/mabez/Development/rust/embedded/experiments/esp32c3-experiments/target/riscv32imac-unknown-none-elf/debug/deps/esp32c3-5c92695bd7d79a0b.vifbgxjspdn3ixi.rcgu.o:(.debug_ranges)
     148      148        0     1                 
     170      170       28     1         /Users/mabez/Development/rust/embedded/experiments/esp32c3-experiments/target/riscv32imac-unknown-none-elf/debug/deps/esp32c3-5c92695bd7d79a0b.w0jfp97vxp3n0e0.rcgu.o:(.debug_ranges)
     170      170        0     1                 
     198      198       88     1         /Users/mabez/Development/rust/embedded/experiments/esp32c3-experiments/target/riscv32imac-unknown-none-elf/debug/deps/libesp32c3_lib-435c508db645f62b.rlib(esp32c3_lib-435c508db645f62b.enpltv37r0tja3s.rcgu.o):(.debug_ranges)
     198      198        0     1                 
     1b0      1b0        0     1                 
     1c8      1c8        0     1                 
     1e0      1e0        0     1                 
     220      220       20     1         /Users/mabez/Development/rust/embedded/experiments/esp32c3-experiments/target/riscv32imac-unknown-none-elf/debug/deps/libesp32c3_lib-435c508db645f62b.rlib(esp32c3_lib-435c508db645f62b.4qunmpv8rlyr20lx.rcgu.o):(.debug_ranges)
     220      220        0     1                 
     240      240       38     1         /Users/mabez/Development/rust/embedded/experiments/esp32c3-experiments/target/riscv32imac-unknown-none-elf/debug/deps/libesp32c3_lib-435c508db645f62b.rlib(esp32c3_lib-435c508db645f62b.3xdn0a03wuv3lfvi.rcgu.o):(.debug_ranges)
     240      240        0     1                 
     258      258        0     1                 
     278      278       18     1         /Users/mabez/Development/rust/embedded/experiments/esp32c3-experiments/target/riscv32imac-unknown-none-elf/debug/deps/libesp32c3_lib-435c508db645f62b.rlib(esp32c3_lib-435c508db645f62b.10h0j41trqvefdik.rcgu.o):(.debug_ranges)
     278      278        0     1                 
     290      290       18     1         /Users/mabez/Development/rust/embedded/experiments/esp32c3-experiments/target/riscv32imac-unknown-none-elf/debug/deps/libesp32c3_lib-435c508db645f62b.rlib(esp32c3_lib-435c508db645f62b.3ja21lwj0yew0pl1.rcgu.o):(.debug_ranges)
     290      290        0     1                 
     2a8      2a8       18     1         /Users/mabez/Development/rust/embedded/experiments/esp32c3-experiments/target/riscv32imac-unknown-none-elf/debug/deps/libesp32c3_lib-435c508db645f62b.rlib(esp32c3_lib-435c508db645f62b.2vqs4zh0r4p5a1ya.rcgu.o):(.debug_ranges)
     2a8      2a8        0     1                 
     2c0      2c0       18     1         /Users/mabez/Development/rust/embedded/experiments/esp32c3-experiments/target/riscv32imac-unknown-none-elf/debug/deps/libesp32c3_lib-435c508db645f62b.rlib(esp32c3_lib-435c508db645f62b.2wzydu5xsvwfbdws.rcgu.o):(.debug_ranges)
     2c0      2c0        0     1                 
     2d8      2d8       18     1         /Users/mabez/Development/rust/embedded/experiments/esp32c3-experiments/target/riscv32imac-unknown-none-elf/debug/deps/libriscv_atomic_emulation_trap-9111affe446510c3.rlib(riscv_atomic_emulation_trap-9111affe446510c3.3mjkh8i7otdbof7e.rcgu.o):(.debug_ranges)
     2d8      2d8        0     1                 
     2f0      2f0      218     1         /Users/mabez/Development/rust/embedded/experiments/esp32c3-experiments/target/riscv32imac-unknown-none-elf/debug/deps/libriscv_atomic_emulation_trap-9111affe446510c3.rlib(riscv_atomic_emulation_trap-9111affe446510c3.7puluphka9w3g90.rcgu.o):(.debug_ranges)
     2f0      2f0        0     1                 
     308      308        0     1                 
     320      320        0     1                 
     338      338        0     1                 
     358      358        0     1                 
     370      370        0     1                 
     390      390        0     1                 
     3b0      3b0        0     1                 
     3d0      3d0        0     1                 
     3f0      3f0        0     1                 
     410      410        0     1                 
     438      438        0     1                 
     458      458        0     1                 
     478      478        0     1                 
     490      490        0     1                 
     4a8      4a8        0     1                 
     4c0      4c0        0     1                 
     4d8      4d8        0     1                 
     508      508       18     1         /Users/mabez/Development/rust/embedded/experiments/esp32c3-experiments/target/riscv32imac-unknown-none-elf/debug/deps/libriscv_atomic_emulation_trap-9111affe446510c3.rlib(riscv_atomic_emulation_trap-9111affe446510c3.29cdtova41s09pd8.rcgu.o):(.debug_ranges)
     508      508        0     1                 
     520      520       30     1         /Users/mabez/Development/rust/embedded/experiments/esp32c3-experiments/target/riscv32imac-unknown-none-elf/debug/deps/libriscv_atomic_emulation_trap-9111affe446510c3.rlib(riscv_atomic_emulation_trap-9111affe446510c3.4em3hgrap6mo60l5.rcgu.o):(.debug_ranges)
     520      520        0     1                 
     550      550       50     1         /Users/mabez/Development/rust/embedded/experiments/esp32c3-experiments/target/riscv32imac-unknown-none-elf/debug/deps/libriscv_atomic_emulation_trap-9111affe446510c3.rlib(riscv_atomic_emulation_trap-9111affe446510c3.1ainjqznfmasr5um.rcgu.o):(.debug_ranges)
     550      550        0     1                 
     568      568        0     1                 
     580      580        0     1                 
     5a0      5a0       28     1         /Users/mabez/Development/rust/embedded/experiments/esp32c3-experiments/target/riscv32imac-unknown-none-elf/debug/deps/libriscv_atomic_emulation_trap-9111affe446510c3.rlib(riscv_atomic_emulation_trap-9111affe446510c3.3jxb2alfotone25d.rcgu.o):(.debug_ranges)
     5a0      5a0        0     1                 
     5c8      5c8       70     1         /Users/mabez/Development/rust/embedded/experiments/esp32c3-experiments/target/riscv32imac-unknown-none-elf/debug/deps/libriscv_rt-792395b706c7e295.rlib(riscv_rt-792395b706c7e295.n23zmh27zi56vj2.rcgu.o):(.debug_ranges)
     5c8      5c8        0     1                 
     5e0      5e0        0     1                 
     5f8      5f8        0     1                 
     638      638       18     1         /Users/mabez/Development/rust/embedded/experiments/esp32c3-experiments/target/riscv32imac-unknown-none-elf/debug/deps/libriscv_rt-792395b706c7e295.rlib(riscv_rt-792395b706c7e295.2si3iiyx4w55gh9p.rcgu.o):(.debug_ranges)
     638      638        0     1                 
     650      650       20     1         /Users/mabez/Development/rust/embedded/experiments/esp32c3-experiments/target/riscv32imac-unknown-none-elf/debug/deps/libriscv_rt-792395b706c7e295.rlib(riscv_rt-792395b706c7e295.4l8nnv0gz5uboi7y.rcgu.o):(.debug_ranges)
     650      650        0     1                 
     670      670       28     1         /Users/mabez/Development/rust/embedded/experiments/esp32c3-experiments/target/riscv32imac-unknown-none-elf/debug/deps/libriscv_rt-792395b706c7e295.rlib(riscv_rt-792395b706c7e295.a1pdmtq419pk4l9.rcgu.o):(.debug_ranges)
     670      670        0     1                 
     698      698       68     1         /Users/mabez/Development/rust/embedded/experiments/esp32c3-experiments/target/riscv32imac-unknown-none-elf/debug/deps/libriscv-58bee4c49f9f92ec.rlib(riscv-58bee4c49f9f92ec.riscv.8be94b29-cgu.0.rcgu.o):(.debug_ranges)
     698      698        0     1                 
     6b0      6b0        0     1                 
     700      700       58     1         /Users/mabez/Development/rust/embedded/experiments/esp32c3-experiments/target/riscv32imac-unknown-none-elf/debug/deps/libriscv-58bee4c49f9f92ec.rlib(riscv-58bee4c49f9f92ec.riscv.8be94b29-cgu.9.rcgu.o):(.debug_ranges)
     700      700        0     1                 
     758      758       18     1         /Users/mabez/Development/rust/embedded/experiments/esp32c3-experiments/target/riscv32imac-unknown-none-elf/debug/deps/libriscv-58bee4c49f9f92ec.rlib(riscv-58bee4c49f9f92ec.riscv.8be94b29-cgu.4.rcgu.o):(.debug_ranges)
     758      758        0     1                 
     770      770       18     1         /Users/mabez/Development/rust/embedded/experiments/esp32c3-experiments/target/riscv32imac-unknown-none-elf/debug/deps/libriscv_rt-792395b706c7e295.rlib(riscv_rt-792395b706c7e295.2fig4fon7wqsswts.rcgu.o):(.debug_ranges)
     770      770        0     1                 
     788      788       38     1         /Users/mabez/Development/rust/embedded/experiments/esp32c3-experiments/target/riscv32imac-unknown-none-elf/debug/deps/libriscv_atomic_emulation_trap-9111affe446510c3.rlib(riscv_atomic_emulation_trap-9111affe446510c3.473ch88oilsz6zg3.rcgu.o):(.debug_ranges)
     788      788        0     1                 
     7a0      7a0        0     1                 
     7c0      7c0       18     1         /Users/mabez/Development/rust/embedded/experiments/esp32c3-experiments/target/riscv32imac-unknown-none-elf/debug/deps/libriscv_atomic_emulation_trap-9111affe446510c3.rlib(riscv_atomic_emulation_trap-9111affe446510c3.1x01haq1ilk8wjw8.rcgu.o):(.debug_ranges)
     7c0      7c0        0     1                 
     7d8      7d8       18     1         /Users/mabez/Development/rust/embedded/experiments/esp32c3-experiments/target/riscv32imac-unknown-none-elf/debug/deps/libriscv_atomic_emulation_trap-9111affe446510c3.rlib(riscv_atomic_emulation_trap-9111affe446510c3.3eam8rvf5fviumdo.rcgu.o):(.debug_ranges)
     7d8      7d8        0     1                 
     7f0      7f0       18     1         /Users/mabez/Development/rust/embedded/experiments/esp32c3-experiments/target/riscv32imac-unknown-none-elf/debug/deps/libriscv_atomic_emulation_trap-9111affe446510c3.rlib(riscv_atomic_emulation_trap-9111affe446510c3.92c3mso3f7tifm.rcgu.o):(.debug_ranges)
     7f0      7f0        0     1                 
     808      808       28     1         /Users/mabez/Development/rust/embedded/experiments/esp32c3-experiments/target/riscv32imac-unknown-none-elf/debug/deps/libriscv_atomic_emulation_trap-9111affe446510c3.rlib(riscv_atomic_emulation_trap-9111affe446510c3.1ujfldlpaqv6u59a.rcgu.o):(.debug_ranges)
     808      808        0     1                 
     830      830       18     1         /Users/mabez/Development/rust/embedded/experiments/esp32c3-experiments/target/riscv32imac-unknown-none-elf/debug/deps/libriscv_atomic_emulation_trap-9111affe446510c3.rlib(riscv_atomic_emulation_trap-9111affe446510c3.5dmrm1faws2v64w9.rcgu.o):(.debug_ranges)
     830      830        0     1                 
     848      848       18     1         /Users/mabez/Development/rust/embedded/experiments/esp32c3-experiments/target/riscv32imac-unknown-none-elf/debug/deps/libriscv_atomic_emulation_trap-9111affe446510c3.rlib(riscv_atomic_emulation_trap-9111affe446510c3.32s2sfn2d8x0z4vp.rcgu.o):(.debug_ranges)
     848      848        0     1                 
     860      860       18     1         /Users/mabez/Development/rust/embedded/experiments/esp32c3-experiments/target/riscv32imac-unknown-none-elf/debug/deps/libriscv_atomic_emulation_trap-9111affe446510c3.rlib(riscv_atomic_emulation_trap-9111affe446510c3.iorsoyj01ig67gw.rcgu.o):(.debug_ranges)
     860      860        0     1                 
     878      878       18     1         /Users/mabez/Development/rust/embedded/experiments/esp32c3-experiments/target/riscv32imac-unknown-none-elf/debug/deps/libriscv_atomic_emulation_trap-9111affe446510c3.rlib(riscv_atomic_emulation_trap-9111affe446510c3.koyzaehax49d9k4.rcgu.o):(.debug_ranges)
     878      878        0     1                 
     890      890       18     1         /Users/mabez/Development/rust/embedded/experiments/esp32c3-experiments/target/riscv32imac-unknown-none-elf/debug/deps/libriscv_atomic_emulation_trap-9111affe446510c3.rlib(riscv_atomic_emulation_trap-9111affe446510c3.r9quz5yo0c3c66a.rcgu.o):(.debug_ranges)
     890      890        0     1                 
     8a8      8a8       18     1         /Users/mabez/Development/rust/embedded/experiments/esp32c3-experiments/target/riscv32imac-unknown-none-elf/debug/deps/libriscv_atomic_emulation_trap-9111affe446510c3.rlib(riscv_atomic_emulation_trap-9111affe446510c3.um9btop5pm89mqk.rcgu.o):(.debug_ranges)
     8a8      8a8        0     1                 
     8c0      8c0       68     1         /Users/mabez/Development/rust/embedded/experiments/esp32c3-experiments/target/riscv32imac-unknown-none-elf/debug/deps/libriscv-e6570dc03e37c02b.rlib(riscv-e6570dc03e37c02b.riscv.6a3f384f-cgu.0.rcgu.o):(.debug_ranges)
     8c0      8c0        0     1                 
     8d8      8d8        0     1                 
     928      928       60     1         /Users/mabez/Development/rust/embedded/experiments/esp32c3-experiments/target/riscv32imac-unknown-none-elf/debug/deps/libriscv-e6570dc03e37c02b.rlib(riscv-e6570dc03e37c02b.riscv.6a3f384f-cgu.10.rcgu.o):(.debug_ranges)
     928      928        0     1                 
     988      988       28     1         /Users/mabez/Development/rust/embedded/experiments/esp32c3-experiments/target/riscv32imac-unknown-none-elf/debug/deps/libriscv-e6570dc03e37c02b.rlib(riscv-e6570dc03e37c02b.riscv.6a3f384f-cgu.11.rcgu.o):(.debug_ranges)
     988      988        0     1                 
     9b0      9b0       18     1         /Users/mabez/Development/rust/embedded/experiments/esp32c3-experiments/target/riscv32imac-unknown-none-elf/debug/deps/libriscv-e6570dc03e37c02b.rlib(riscv-e6570dc03e37c02b.riscv.6a3f384f-cgu.4.rcgu.o):(.debug_ranges)
     9b0      9b0        0     1                 
     9c8      9c8       30     1         /Users/mabez/Development/rust/embedded/experiments/esp32c3-experiments/target/riscv32imac-unknown-none-elf/debug/deps/libriscv-e6570dc03e37c02b.rlib(riscv-e6570dc03e37c02b.riscv.6a3f384f-cgu.8.rcgu.o):(.debug_ranges)
     9c8      9c8        0     1                 
     9f8      9f8       20     1         /Users/mabez/Development/rust/embedded/experiments/esp32c3-experiments/target/riscv32imac-unknown-none-elf/debug/deps/libvoid-d8bfa8eb72c6fce6.rlib(void-d8bfa8eb72c6fce6.void.0c48974b-cgu.0.rcgu.o):(.debug_ranges)
     9f8      9f8        0     1                 
     a18      a18     dbd8     1         /Users/mabez/.rustup/toolchains/nightly-aarch64-apple-darwin/lib/rustlib/riscv32imac-unknown-none-elf/lib/libcore-081fd8405fc18f2e.rlib(core-081fd8405fc18f2e.core.756fe54c-cgu.0.rcgu.o):(.debug_ranges)
     a18      a18        0     1                 
     a30      a30        0     1                 
     a48      a48        0     1                 
     a60      a60        0     1                 
     a78      a78        0     1                 
     a90      a90        0     1                 
     aa8      aa8        0     1                 
     ac0      ac0        0     1                 
     ad8      ad8        0     1                 
     af0      af0        0     1                 
     b10      b10        0     1                 
     b30      b30        0     1                 
     b48      b48        0     1                 
     b60      b60        0     1                 
     b78      b78        0     1                 
     b90      b90        0     1                 
     ba8      ba8        0     1                 
     bc0      bc0        0     1                 
     bd8      bd8        0     1                 
     bf0      bf0        0     1                 
     c08      c08        0     1                 
     c20      c20        0     1                 
     c38      c38        0     1                 
     c50      c50        0     1                 
     c68      c68        0     1                 
     c80      c80        0     1                 
     c98      c98        0     1                 
     cb0      cb0        0     1                 
     cc8      cc8        0     1                 
     ce0      ce0        0     1                 
     d00      d00        0     1                 
     d20      d20        0     1                 
     d38      d38        0     1                 
     d50      d50        0     1                 
     d68      d68        0     1                 
     d80      d80        0     1                 
     d98      d98        0     1                 
     db0      db0        0     1                 
     dc8      dc8        0     1                 
     de0      de0        0     1                 
     df8      df8        0     1                 
     e20      e20        0     1                 
     e38      e38        0     1                 
     e60      e60        0     1                 
     e80      e80        0     1                 
     ea0      ea0        0     1                 
     ec0      ec0        0     1                 
     ed8      ed8        0     1                 
     ef0      ef0        0     1                 
     f08      f08        0     1                 
     f20      f20        0     1                 
     f38      f38        0     1                 
     f58      f58        0     1                 
     f70      f70        0     1                 
     f88      f88        0     1                 
     fb8      fb8        0     1                 
     fd0      fd0        0     1                 
     fe8      fe8        0     1                 
    1000     1000        0     1                 
    1018     1018        0     1                 
    1070     1070        0     1                 
    1088     1088        0     1                 
    10a0     10a0        0     1                 
    10b8     10b8        0     1                 
    10d0     10d0        0     1                 
    10e8     10e8        0     1                 
    1100     1100        0     1                 
    1118     1118        0     1                 
    1140     1140        0     1                 
    1158     1158        0     1                 
    1170     1170        0     1                 
    1198     1198        0     1                 
    11b0     11b0        0     1                 
    11c8     11c8        0     1                 
    11e0     11e0        0     1                 
    1208     1208        0     1                 
    1220     1220        0     1                 
    1238     1238        0     1                 
    1250     1250        0     1                 
    1268     1268        0     1                 
    1290     1290        0     1                 
    12b0     12b0        0     1                 
    12d0     12d0        0     1                 
    12f8     12f8        0     1                 
    1318     1318        0     1                 
    1340     1340        0     1                 
    1360     1360        0     1                 
    1388     1388        0     1                 
    13a8     13a8        0     1                 
    13c8     13c8        0     1                 
    13e8     13e8        0     1                 
    1408     1408        0     1                 
    1428     1428        0     1                 
    1448     1448        0     1                 
    1460     1460        0     1                 
    1478     1478        0     1                 
    1490     1490        0     1                 
    14a8     14a8        0     1                 
    14c0     14c0        0     1                 
    14d8     14d8        0     1                 
    14f0     14f0        0     1                 
    1508     1508        0     1                 
    1528     1528        0     1                 
    1540     1540        0     1                 
    1560     1560        0     1                 
    1578     1578        0     1                 
    1590     1590        0     1                 
    15a8     15a8        0     1                 
    15c0     15c0        0     1                 
    15d8     15d8        0     1                 
    15f0     15f0        0     1                 
    1610     1610        0     1                 
    1638     1638        0     1                 
    1658     1658        0     1                 
    1678     1678        0     1                 
    1690     1690        0     1                 
    16a8     16a8        0     1                 
    16c0     16c0        0     1                 
    16d8     16d8        0     1                 
    1700     1700        0     1                 
    1720     1720        0     1                 
    1738     1738        0     1                 
    1760     1760        0     1                 
    1780     1780        0     1                 
    1798     1798        0     1                 
    17b0     17b0        0     1                 
    17c8     17c8        0     1                 
    17e0     17e0        0     1                 
    17f8     17f8        0     1                 
    1810     1810        0     1                 
    1828     1828        0     1                 
    1840     1840        0     1                 
    1860     1860        0     1                 
    1878     1878        0     1                 
    1890     1890        0     1                 
    18a8     18a8        0     1                 
    18c0     18c0        0     1                 
    18d8     18d8        0     1                 
    18f8     18f8        0     1                 
    1918     1918        0     1                 
    1930     1930        0     1                 
    1950     1950        0     1                 
    1970     1970        0     1                 
    1990     1990        0     1                 
    19a8     19a8        0     1                 
    19c0     19c0        0     1                 
    19d8     19d8        0     1                 
    19f0     19f0        0     1                 
    1a08     1a08        0     1                 
    1a20     1a20        0     1                 
    1a38     1a38        0     1                 
    1a50     1a50        0     1                 
    1a68     1a68        0     1                 
    1a80     1a80        0     1                 
    1a98     1a98        0     1                 
    1ab8     1ab8        0     1                 
    1ae0     1ae0        0     1                 
    1b00     1b00        0     1                 
    1b18     1b18        0     1                 
    1b30     1b30        0     1                 
    1b48     1b48        0     1                 
    1b60     1b60        0     1                 
    1b78     1b78        0     1                 
    1b90     1b90        0     1                 
    1ba8     1ba8        0     1                 
    1bc0     1bc0        0     1                 
    1bd8     1bd8        0     1                 
    1bf0     1bf0        0     1                 
    1c10     1c10        0     1                 
    1c38     1c38        0     1                 
    1c58     1c58        0     1                 
    1c70     1c70        0     1                 
    1c88     1c88        0     1                 
    1ca0     1ca0        0     1                 
    1cb8     1cb8        0     1                 
    1ce8     1ce8        0     1                 
    1d00     1d00        0     1                 
    1d18     1d18        0     1                 
    1d30     1d30        0     1                 
    1d48     1d48        0     1                 
    1d70     1d70        0     1                 
    1d90     1d90        0     1                 
    1db8     1db8        0     1                 
    1dd0     1dd0        0     1                 
    1de8     1de8        0     1                 
    1e00     1e00        0     1                 
    1e18     1e18        0     1                 
    1e30     1e30        0     1                 
    1e48     1e48        0     1                 
    1e60     1e60        0     1                 
    1e78     1e78        0     1                 
    1e90     1e90        0     1                 
    1ea8     1ea8        0     1                 
    1ed0     1ed0        0     1                 
    1ee8     1ee8        0     1                 
    1f00     1f00        0     1                 
    1f18     1f18        0     1                 
    1f30     1f30        0     1                 
    1f48     1f48        0     1                 
    1f60     1f60        0     1                 
    1f78     1f78        0     1                 
    1fa8     1fa8        0     1                 
    1fc0     1fc0        0     1                 
    1fd8     1fd8        0     1                 
    1ff0     1ff0        0     1                 
    2008     2008        0     1                 
    2020     2020        0     1                 
    2048     2048        0     1                 
    2060     2060        0     1                 
    2078     2078        0     1                 
    2090     2090        0     1                 
    20a8     20a8        0     1                 
    20c0     20c0        0     1                 
    20d8     20d8        0     1                 
    20f0     20f0        0     1                 
    2108     2108        0     1                 
    2120     2120        0     1                 
    2140     2140        0     1                 
    2158     2158        0     1                 
    2170     2170        0     1                 
    2188     2188        0     1                 
    21a0     21a0        0     1                 
    21b8     21b8        0     1                 
    21d0     21d0        0     1                 
    21e8     21e8        0     1                 
    2200     2200        0     1                 
    2218     2218        0     1                 
    2230     2230        0     1                 
    2250     2250        0     1                 
    2268     2268        0     1                 
    2280     2280        0     1                 
    2298     2298        0     1                 
    22b0     22b0        0     1                 
    22c8     22c8        0     1                 
    22e0     22e0        0     1                 
    2300     2300        0     1                 
    2318     2318        0     1                 
    2330     2330        0     1                 
    2348     2348        0     1                 
    2360     2360        0     1                 
    2378     2378        0     1                 
    2390     2390        0     1                 
    23a8     23a8        0     1                 
    23c0     23c0        0     1                 
    23d8     23d8        0     1                 
    23f0     23f0        0     1                 
    2408     2408        0     1                 
    2420     2420        0     1                 
    2438     2438        0     1                 
    2450     2450        0     1                 
    2468     2468        0     1                 
    2480     2480        0     1                 
    2498     2498        0     1                 
    24b0     24b0        0     1                 
    24c8     24c8        0     1                 
    24e0     24e0        0     1                 
    24f8     24f8        0     1                 
    2510     2510        0     1                 
    2528     2528        0     1                 
    2548     2548        0     1                 
    2560     2560        0     1                 
    2578     2578        0     1                 
    2590     2590        0     1                 
    25a8     25a8        0     1                 
    25c0     25c0        0     1                 
    25d8     25d8        0     1                 
    25f0     25f0        0     1                 
    2608     2608        0     1                 
    2628     2628        0     1                 
    2640     2640        0     1                 
    2658     2658        0     1                 
    2670     2670        0     1                 
    2688     2688        0     1                 
    26a0     26a0        0     1                 
    26b8     26b8        0     1                 
    26d0     26d0        0     1                 
    26e8     26e8        0     1                 
    2700     2700        0     1                 
    2718     2718        0     1                 
    2730     2730        0     1                 
    2758     2758        0     1                 
    2780     2780        0     1                 
    27a8     27a8        0     1                 
    27c0     27c0        0     1                 
    27d8     27d8        0     1                 
    27f0     27f0        0     1                 
    2808     2808        0     1                 
    2820     2820        0     1                 
    2838     2838        0     1                 
    2858     2858        0     1                 
    2870     2870        0     1                 
    2898     2898        0     1                 
    28c0     28c0        0     1                 
    28e8     28e8        0     1                 
    2900     2900        0     1                 
    2918     2918        0     1                 
    2930     2930        0     1                 
    2948     2948        0     1                 
    2960     2960        0     1                 
    2978     2978        0     1                 
    2990     2990        0     1                 
    29a8     29a8        0     1                 
    29c0     29c0        0     1                 
    29d8     29d8        0     1                 
    29f0     29f0        0     1                 
    2a08     2a08        0     1                 
    2a20     2a20        0     1                 
    2a38     2a38        0     1                 
    2a50     2a50        0     1                 
    2a68     2a68        0     1                 
    2a80     2a80        0     1                 
    2a98     2a98        0     1                 
    2ab0     2ab0        0     1                 
    2ac8     2ac8        0     1                 
    2ae0     2ae0        0     1                 
    2b08     2b08        0     1                 
    2b30     2b30        0     1                 
    2b58     2b58        0     1                 
    2b70     2b70        0     1                 
    2b88     2b88        0     1                 
    2ba0     2ba0        0     1                 
    2bb8     2bb8        0     1                 
    2bd0     2bd0        0     1                 
    2be8     2be8        0     1                 
    2c00     2c00        0     1                 
    2c20     2c20        0     1                 
    2c38     2c38        0     1                 
    2c50     2c50        0     1                 
    2c68     2c68        0     1                 
    2c80     2c80        0     1                 
    2c98     2c98        0     1                 
    2cb0     2cb0        0     1                 
    2cc8     2cc8        0     1                 
    2ce0     2ce0        0     1                 
    2cf8     2cf8        0     1                 
    2d10     2d10        0     1                 
    2d28     2d28        0     1                 
    2d40     2d40        0     1                 
    2d58     2d58        0     1                 
    2d70     2d70        0     1                 
    2d88     2d88        0     1                 
    2da0     2da0        0     1                 
    2db8     2db8        0     1                 
    2dd0     2dd0        0     1                 
    2de8     2de8        0     1                 
    2e08     2e08        0     1                 
    2e20     2e20        0     1                 
    2e48     2e48        0     1                 
    2e70     2e70        0     1                 
    2e98     2e98        0     1                 
    2eb0     2eb0        0     1                 
    2ec8     2ec8        0     1                 
    2ee0     2ee0        0     1                 
    2ef8     2ef8        0     1                 
    2f10     2f10        0     1                 
    2f28     2f28        0     1                 
    2f40     2f40        0     1                 
    2f60     2f60        0     1                 
    2f78     2f78        0     1                 
    2f90     2f90        0     1                 
    2fa8     2fa8        0     1                 
    2fc0     2fc0        0     1                 
    2fd8     2fd8        0     1                 
    2ff0     2ff0        0     1                 
    3008     3008        0     1                 
    3020     3020        0     1                 
    3038     3038        0     1                 
    3050     3050        0     1                 
    3068     3068        0     1                 
    3080     3080        0     1                 
    3098     3098        0     1                 
    30b0     30b0        0     1                 
    30c8     30c8        0     1                 
    30e0     30e0        0     1                 
    30f8     30f8        0     1                 
    3110     3110        0     1                 
    3128     3128        0     1                 
    3140     3140        0     1                 
    3158     3158        0     1                 
    3170     3170        0     1                 
    3188     3188        0     1                 
    31a0     31a0        0     1                 
    31b8     31b8        0     1                 
    31d0     31d0        0     1                 
    31e8     31e8        0     1                 
    3208     3208        0     1                 
    3220     3220        0     1                 
    3238     3238        0     1                 
    3250     3250        0     1                 
    3268     3268        0     1                 
    3280     3280        0     1                 
    3298     3298        0     1                 
    32b0     32b0        0     1                 
    32c8     32c8        0     1                 
    32e0     32e0        0     1                 
    32f8     32f8        0     1                 
    3310     3310        0     1                 
    3328     3328        0     1                 
    3340     3340        0     1                 
    3358     3358        0     1                 
    3370     3370        0     1                 
    3388     3388        0     1                 
    33a0     33a0        0     1                 
    33b8     33b8        0     1                 
    33d0     33d0        0     1                 
    33f0     33f0        0     1                 
    3410     3410        0     1                 
    3430     3430        0     1                 
    3448     3448        0     1                 
    3460     3460        0     1                 
    3478     3478        0     1                 
    34b0     34b0        0     1                 
    34c8     34c8        0     1                 
    34e0     34e0        0     1                 
    34f8     34f8        0     1                 
    3530     3530        0     1                 
    3548     3548        0     1                 
    3560     3560        0     1                 
    3578     3578        0     1                 
    35c8     35c8        0     1                 
    3600     3600        0     1                 
    3620     3620        0     1                 
    3638     3638        0     1                 
    3650     3650        0     1                 
    3668     3668        0     1                 
    3680     3680        0     1                 
    3698     3698        0     1                 
    36b0     36b0        0     1                 
    36c8     36c8        0     1                 
    36e0     36e0        0     1                 
    36f8     36f8        0     1                 
    3710     3710        0     1                 
    3728     3728        0     1                 
    3740     3740        0     1                 
    3758     3758        0     1                 
    3770     3770        0     1                 
    3788     3788        0     1                 
    37a0     37a0        0     1                 
    37b8     37b8        0     1                 
    37d0     37d0        0     1                 
    37e8     37e8        0     1                 
    3800     3800        0     1                 
    3818     3818        0     1                 
    3830     3830        0     1                 
    3848     3848        0     1                 
    3860     3860        0     1                 
    3878     3878        0     1                 
    3890     3890        0     1                 
    38a8     38a8        0     1                 
    38c0     38c0        0     1                 
    38d8     38d8        0     1                 
    38f0     38f0        0     1                 
    3908     3908        0     1                 
    3920     3920        0     1                 
    3938     3938        0     1                 
    3950     3950        0     1                 
    3968     3968        0     1                 
    3980     3980        0     1                 
    3998     3998        0     1                 
    39b0     39b0        0     1                 
    39c8     39c8        0     1                 
    39e0     39e0        0     1                 
    3a00     3a00        0     1                 
    3a20     3a20        0     1                 
    3a38     3a38        0     1                 
    3a58     3a58        0     1                 
    3a78     3a78        0     1                 
    3a90     3a90        0     1                 
    3aa8     3aa8        0     1                 
    3ac0     3ac0        0     1                 
    3ad8     3ad8        0     1                 
    3b00     3b00        0     1                 
    3b18     3b18        0     1                 
    3b30     3b30        0     1                 
    3b48     3b48        0     1                 
    3b70     3b70        0     1                 
    3b88     3b88        0     1                 
    3ba0     3ba0        0     1                 
    3bb8     3bb8        0     1                 
    3bd0     3bd0        0     1                 
    3bf8     3bf8        0     1                 
    3c10     3c10        0     1                 
    3c28     3c28        0     1                 
    3c50     3c50        0     1                 
    3c68     3c68        0     1                 
    3c80     3c80        0     1                 
    3c98     3c98        0     1                 
    3cc0     3cc0        0     1                 
    3cd8     3cd8        0     1                 
    3cf0     3cf0        0     1                 
    3d08     3d08        0     1                 
    3d20     3d20        0     1                 
    3d38     3d38        0     1                 
    3d50     3d50        0     1                 
    3d68     3d68        0     1                 
    3d80     3d80        0     1                 
    3da8     3da8        0     1                 
    3dc0     3dc0        0     1                 
    3dd8     3dd8        0     1                 
    3df0     3df0        0     1                 
    3e08     3e08        0     1                 
    3e20     3e20        0     1                 
    3e38     3e38        0     1                 
    3e50     3e50        0     1                 
    3e78     3e78        0     1                 
    3e90     3e90        0     1                 
    3ea8     3ea8        0     1                 
    3ed0     3ed0        0     1                 
    3ee8     3ee8        0     1                 
    3f00     3f00        0     1                 
    3f20     3f20        0     1                 
    3f38     3f38        0     1                 
    3f50     3f50        0     1                 
    3f68     3f68        0     1                 
    3f80     3f80        0     1                 
    3f98     3f98        0     1                 
    3fb0     3fb0        0     1                 
    3fc8     3fc8        0     1                 
    3fe8     3fe8        0     1                 
    4000     4000        0     1                 
    4018     4018        0     1                 
    4030     4030        0     1                 
    4048     4048        0     1                 
    4060     4060        0     1                 
    4078     4078        0     1                 
    4090     4090        0     1                 
    40b0     40b0        0     1                 
    40d0     40d0        0     1                 
    40e8     40e8        0     1                 
    4100     4100        0     1                 
    4118     4118        0     1                 
    4130     4130        0     1                 
    4150     4150        0     1                 
    4170     4170        0     1                 
    4188     4188        0     1                 
    41a0     41a0        0     1                 
    41c0     41c0        0     1                 
    41e8     41e8        0     1                 
    4200     4200        0     1                 
    4220     4220        0     1                 
    4238     4238        0     1                 
    4250     4250        0     1                 
    4270     4270        0     1                 
    4288     4288        0     1                 
    42a0     42a0        0     1                 
    42b8     42b8        0     1                 
    42d8     42d8        0     1                 
    42f8     42f8        0     1                 
    4320     4320        0     1                 
    4340     4340        0     1                 
    4360     4360        0     1                 
    4380     4380        0     1                 
    4398     4398        0     1                 
    43b0     43b0        0     1                 
    43c8     43c8        0     1                 
    43e0     43e0        0     1                 
    43f8     43f8        0     1                 
    4410     4410        0     1                 
    4428     4428        0     1                 
    4440     4440        0     1                 
    4458     4458        0     1                 
    4480     4480        0     1                 
    44a8     44a8        0     1                 
    44d0     44d0        0     1                 
    44e8     44e8        0     1                 
    4500     4500        0     1                 
    4518     4518        0     1                 
    4530     4530        0     1                 
    4548     4548        0     1                 
    4560     4560        0     1                 
    4580     4580        0     1                 
    4598     4598        0     1                 
    45b0     45b0        0     1                 
    45d0     45d0        0     1                 
    45e8     45e8        0     1                 
    4608     4608        0     1                 
    4628     4628        0     1                 
    4648     4648        0     1                 
    4660     4660        0     1                 
    4678     4678        0     1                 
    4690     4690        0     1                 
    46b0     46b0        0     1                 
    46d0     46d0        0     1                 
    46f0     46f0        0     1                 
    4708     4708        0     1                 
    4728     4728        0     1                 
    4740     4740        0     1                 
    4758     4758        0     1                 
    4770     4770        0     1                 
    4788     4788        0     1                 
    47a0     47a0        0     1                 
    47b8     47b8        0     1                 
    47d0     47d0        0     1                 
    47e8     47e8        0     1                 
    4800     4800        0     1                 
    4818     4818        0     1                 
    4830     4830        0     1                 
    4850     4850        0     1                 
    4868     4868        0     1                 
    4880     4880        0     1                 
    4898     4898        0     1                 
    48b0     48b0        0     1                 
    48c8     48c8        0     1                 
    48e0     48e0        0     1                 
    48f8     48f8        0     1                 
    4910     4910        0     1                 
    4930     4930        0     1                 
    4950     4950        0     1                 
    4968     4968        0     1                 
    4980     4980        0     1                 
    4998     4998        0     1                 
    49b0     49b0        0     1                 
    49d0     49d0        0     1                 
    49f0     49f0        0     1                 
    4a10     4a10        0     1                 
    4a28     4a28        0     1                 
    4a40     4a40        0     1                 
    4a58     4a58        0     1                 
    4a70     4a70        0     1                 
    4a88     4a88        0     1                 
    4aa8     4aa8        0     1                 
    4ac0     4ac0        0     1                 
    4ad8     4ad8        0     1                 
    4af0     4af0        0     1                 
    4b08     4b08        0     1                 
    4b20     4b20        0     1                 
    4b38     4b38        0     1                 
    4b50     4b50        0     1                 
    4b68     4b68        0     1                 
    4b80     4b80        0     1                 
    4b98     4b98        0     1                 
    4bb0     4bb0        0     1                 
    4bc8     4bc8        0     1                 
    4be0     4be0        0     1                 
    4bf8     4bf8        0     1                 
    4c10     4c10        0     1                 
    4c28     4c28        0     1                 
    4c40     4c40        0     1                 
    4c58     4c58        0     1                 
    4c70     4c70        0     1                 
    4c88     4c88        0     1                 
    4ca0     4ca0        0     1                 
    4cb8     4cb8        0     1                 
    4cd0     4cd0        0     1                 
    4ce8     4ce8        0     1                 
    4d08     4d08        0     1                 
    4d20     4d20        0     1                 
    4d38     4d38        0     1                 
    4d50     4d50        0     1                 
    4d68     4d68        0     1                 
    4d80     4d80        0     1                 
    4d98     4d98        0     1                 
    4db8     4db8        0     1                 
    4dd8     4dd8        0     1                 
    4df8     4df8        0     1                 
    4e18     4e18        0     1                 
    4e40     4e40        0     1                 
    4e68     4e68        0     1                 
    4e90     4e90        0     1                 
    4ea8     4ea8        0     1                 
    4ec0     4ec0        0     1                 
    4ed8     4ed8        0     1                 
    4ef0     4ef0        0     1                 
    4f10     4f10        0     1                 
    4f30     4f30        0     1                 
    4f50     4f50        0     1                 
    4f68     4f68        0     1                 
    4f88     4f88        0     1                 
    4fa8     4fa8        0     1                 
    4fc8     4fc8        0     1                 
    4fe8     4fe8        0     1                 
    5008     5008        0     1                 
    5038     5038        0     1                 
    5058     5058        0     1                 
    5078     5078        0     1                 
    5090     5090        0     1                 
    50a8     50a8        0     1                 
    50c8     50c8        0     1                 
    50e8     50e8        0     1                 
    5108     5108        0     1                 
    5128     5128        0     1                 
    5148     5148        0     1                 
    5178     5178        0     1                 
    5190     5190        0     1                 
    51c0     51c0        0     1                 
    51f0     51f0        0     1                 
    5218     5218        0     1                 
    5240     5240        0     1                 
    5268     5268        0     1                 
    5290     5290        0     1                 
    52a8     52a8        0     1                 
    52d8     52d8        0     1                 
    52f8     52f8        0     1                 
    5318     5318        0     1                 
    5330     5330        0     1                 
    5348     5348        0     1                 
    5360     5360        0     1                 
    5378     5378        0     1                 
    5390     5390        0     1                 
    53a8     53a8        0     1                 
    53c0     53c0        0     1                 
    53d8     53d8        0     1                 
    53f0     53f0        0     1                 
    5410     5410        0     1                 
    5428     5428        0     1                 
    5440     5440        0     1                 
    5458     5458        0     1                 
    5470     5470        0     1                 
    5488     5488        0     1                 
    54a0     54a0        0     1                 
    54b8     54b8        0     1                 
    54d0     54d0        0     1                 
    54e8     54e8        0     1                 
    5508     5508        0     1                 
    5520     5520        0     1                 
    5538     5538        0     1                 
    5550     5550        0     1                 
    5568     5568        0     1                 
    5580     5580        0     1                 
    5598     5598        0     1                 
    55b0     55b0        0     1                 
    55c8     55c8        0     1                 
    55e0     55e0        0     1                 
    55f8     55f8        0     1                 
    5610     5610        0     1                 
    5628     5628        0     1                 
    5640     5640        0     1                 
    5658     5658        0     1                 
    5670     5670        0     1                 
    5688     5688        0     1                 
    56a0     56a0        0     1                 
    56b8     56b8        0     1                 
    56d0     56d0        0     1                 
    56e8     56e8        0     1                 
    5700     5700        0     1                 
    5718     5718        0     1                 
    5730     5730        0     1                 
    5748     5748        0     1                 
    5760     5760        0     1                 
    5778     5778        0     1                 
    5790     5790        0     1                 
    57a8     57a8        0     1                 
    57c0     57c0        0     1                 
    57d8     57d8        0     1                 
    57f0     57f0        0     1                 
    5808     5808        0     1                 
    5828     5828        0     1                 
    5848     5848        0     1                 
    5860     5860        0     1                 
    5878     5878        0     1                 
    5890     5890        0     1                 
    58a8     58a8        0     1                 
    58c0     58c0        0     1                 
    58d8     58d8        0     1                 
    58f0     58f0        0     1                 
    5908     5908        0     1                 
    5920     5920        0     1                 
    5938     5938        0     1                 
    5950     5950        0     1                 
    5970     5970        0     1                 
    5990     5990        0     1                 
    59a8     59a8        0     1                 
    59c0     59c0        0     1                 
    59d8     59d8        0     1                 
    59f0     59f0        0     1                 
    5a10     5a10        0     1                 
    5a30     5a30        0     1                 
    5a50     5a50        0     1                 
    5a68     5a68        0     1                 
    5a80     5a80        0     1                 
    5aa0     5aa0        0     1                 
    5ab8     5ab8        0     1                 
    5ad0     5ad0        0     1                 
    5ae8     5ae8        0     1                 
    5b00     5b00        0     1                 
    5b18     5b18        0     1                 
    5b30     5b30        0     1                 
    5b48     5b48        0     1                 
    5b60     5b60        0     1                 
    5b78     5b78        0     1                 
    5b90     5b90        0     1                 
    5ba8     5ba8        0     1                 
    5bd0     5bd0        0     1                 
    5bf8     5bf8        0     1                 
    5c10     5c10        0     1                 
    5c28     5c28        0     1                 
    5c40     5c40        0     1                 
    5c58     5c58        0     1                 
    5c70     5c70        0     1                 
    5c88     5c88        0     1                 
    5ca0     5ca0        0     1                 
    5cb8     5cb8        0     1                 
    5ce0     5ce0        0     1                 
    5d00     5d00        0     1                 
    5d20     5d20        0     1                 
    5d40     5d40        0     1                 
    5d60     5d60        0     1                 
    5d78     5d78        0     1                 
    5d90     5d90        0     1                 
    5da8     5da8        0     1                 
    5dc0     5dc0        0     1                 
    5dd8     5dd8        0     1                 
    5df0     5df0        0     1                 
    5e08     5e08        0     1                 
    5e28     5e28        0     1                 
    5e40     5e40        0     1                 
    5e68     5e68        0     1                 
    5e80     5e80        0     1                 
    5e98     5e98        0     1                 
    5eb0     5eb0        0     1                 
    5ec8     5ec8        0     1                 
    5ee8     5ee8        0     1                 
    5f00     5f00        0     1                 
    5f18     5f18        0     1                 
    5f30     5f30        0     1                 
    5f48     5f48        0     1                 
    5f60     5f60        0     1                 
    5f78     5f78        0     1                 
    5f98     5f98        0     1                 
    5fb0     5fb0        0     1                 
    5fc8     5fc8        0     1                 
    5fe0     5fe0        0     1                 
    6000     6000        0     1                 
    6020     6020        0     1                 
    6038     6038        0     1                 
    6050     6050        0     1                 
    6068     6068        0     1                 
    6080     6080        0     1                 
    6098     6098        0     1                 
    60b0     60b0        0     1                 
    60c8     60c8        0     1                 
    60e0     60e0        0     1                 
    60f8     60f8        0     1                 
    6110     6110        0     1                 
    6128     6128        0     1                 
    6140     6140        0     1                 
    6158     6158        0     1                 
    6170     6170        0     1                 
    6188     6188        0     1                 
    61a0     61a0        0     1                 
    61b8     61b8        0     1                 
    61d0     61d0        0     1                 
    61e8     61e8        0     1                 
    6200     6200        0     1                 
    6220     6220        0     1                 
    6238     6238        0     1                 
    6250     6250        0     1                 
    6268     6268        0     1                 
    6280     6280        0     1                 
    6298     6298        0     1                 
    62b0     62b0        0     1                 
    62c8     62c8        0     1                 
    62e0     62e0        0     1                 
    62f8     62f8        0     1                 
    6310     6310        0     1                 
    6328     6328        0     1                 
    6468     6468        0     1                 
    6480     6480        0     1                 
    6498     6498        0     1                 
    64b0     64b0        0     1                 
    64c8     64c8        0     1                 
    64e0     64e0        0     1                 
    64f8     64f8        0     1                 
    6510     6510        0     1                 
    6528     6528        0     1                 
    6540     6540        0     1                 
    6558     6558        0     1                 
    6580     6580        0     1                 
    65a0     65a0        0     1                 
    65b8     65b8        0     1                 
    65d0     65d0        0     1                 
    65e8     65e8        0     1                 
    6738     6738        0     1                 
    6888     6888        0     1                 
    68a0     68a0        0     1                 
    68b8     68b8        0     1                 
    68d0     68d0        0     1                 
    68f0     68f0        0     1                 
    6910     6910        0     1                 
    6938     6938        0     1                 
    6958     6958        0     1                 
    6978     6978        0     1                 
    69a8     69a8        0     1                 
    69c8     69c8        0     1                 
    69e8     69e8        0     1                 
    6a00     6a00        0     1                 
    6a18     6a18        0     1                 
    6a40     6a40        0     1                 
    6a68     6a68        0     1                 
    6a80     6a80        0     1                 
    6a98     6a98        0     1                 
    6ab0     6ab0        0     1                 
    6ac8     6ac8        0     1                 
    6ae0     6ae0        0     1                 
    6af8     6af8        0     1                 
    6b18     6b18        0     1                 
    6b38     6b38        0     1                 
    6b50     6b50        0     1                 
    6b68     6b68        0     1                 
    6b80     6b80        0     1                 
    6b98     6b98        0     1                 
    6bb0     6bb0        0     1                 
    6bc8     6bc8        0     1                 
    6be0     6be0        0     1                 
    6bf8     6bf8        0     1                 
    6c10     6c10        0     1                 
    6c28     6c28        0     1                 
    6c50     6c50        0     1                 
    6c78     6c78        0     1                 
    6ca0     6ca0        0     1                 
    6cc8     6cc8        0     1                 
    6cf0     6cf0        0     1                 
    6d08     6d08        0     1                 
    6d20     6d20        0     1                 
    6d38     6d38        0     1                 
    6d50     6d50        0     1                 
    6d70     6d70        0     1                 
    6d90     6d90        0     1                 
    6db0     6db0        0     1                 
    6dc8     6dc8        0     1                 
    6de0     6de0        0     1                 
    6df8     6df8        0     1                 
    6e10     6e10        0     1                 
    6e28     6e28        0     1                 
    6e40     6e40        0     1                 
    6e58     6e58        0     1                 
    6e70     6e70        0     1                 
    6e88     6e88        0     1                 
    6ea0     6ea0        0     1                 
    6eb8     6eb8        0     1                 
    6ed0     6ed0        0     1                 
    6ee8     6ee8        0     1                 
    6f00     6f00        0     1                 
    6f18     6f18        0     1                 
    6f30     6f30        0     1                 
    6f48     6f48        0     1                 
    6f60     6f60        0     1                 
    6f78     6f78        0     1                 
    6f90     6f90        0     1                 
    6fa8     6fa8        0     1                 
    6fc0     6fc0        0     1                 
    6fd8     6fd8        0     1                 
    6ff0     6ff0        0     1                 
    7008     7008        0     1                 
    7020     7020        0     1                 
    7038     7038        0     1                 
    7050     7050        0     1                 
    7068     7068        0     1                 
    7080     7080        0     1                 
    7098     7098        0     1                 
    70b0     70b0        0     1                 
    70c8     70c8        0     1                 
    70e0     70e0        0     1                 
    70f8     70f8        0     1                 
    7110     7110        0     1                 
    7128     7128        0     1                 
    7140     7140        0     1                 
    7158     7158        0     1                 
    7170     7170        0     1                 
    7188     7188        0     1                 
    71a0     71a0        0     1                 
    71b8     71b8        0     1                 
    71d0     71d0        0     1                 
    71e8     71e8        0     1                 
    7200     7200        0     1                 
    7218     7218        0     1                 
    7230     7230        0     1                 
    7248     7248        0     1                 
    7268     7268        0     1                 
    7288     7288        0     1                 
    72a8     72a8        0     1                 
    72c8     72c8        0     1                 
    72f0     72f0        0     1                 
    7318     7318        0     1                 
    7330     7330        0     1                 
    7348     7348        0     1                 
    7360     7360        0     1                 
    7380     7380        0     1                 
    73a0     73a0        0     1                 
    73c8     73c8        0     1                 
    73e8     73e8        0     1                 
    7418     7418        0     1                 
    7430     7430        0     1                 
    7448     7448        0     1                 
    7460     7460        0     1                 
    7478     7478        0     1                 
    7498     7498        0     1                 
    74c8     74c8        0     1                 
    74e8     74e8        0     1                 
    7508     7508        0     1                 
    7528     7528        0     1                 
    7540     7540        0     1                 
    7558     7558        0     1                 
    7570     7570        0     1                 
    7588     7588        0     1                 
    75a8     75a8        0     1                 
    75c8     75c8        0     1                 
    75e0     75e0        0     1                 
    75f8     75f8        0     1                 
    7610     7610        0     1                 
    7628     7628        0     1                 
    7640     7640        0     1                 
    7658     7658        0     1                 
    7678     7678        0     1                 
    7698     7698        0     1                 
    76b0     76b0        0     1                 
    76c8     76c8        0     1                 
    76e0     76e0        0     1                 
    76f8     76f8        0     1                 
    7710     7710        0     1                 
    7728     7728        0     1                 
    7740     7740        0     1                 
    7758     7758        0     1                 
    7778     7778        0     1                 
    7798     7798        0     1                 
    77b8     77b8        0     1                 
    77d8     77d8        0     1                 
    77f8     77f8        0     1                 
    7810     7810        0     1                 
    7828     7828        0     1                 
    7840     7840        0     1                 
    7858     7858        0     1                 
    7878     7878        0     1                 
    7898     7898        0     1                 
    78b8     78b8        0     1                 
    78d0     78d0        0     1                 
    78e8     78e8        0     1                 
    7900     7900        0     1                 
    7918     7918        0     1                 
    7930     7930        0     1                 
    7948     7948        0     1                 
    7960     7960        0     1                 
    7978     7978        0     1                 
    7990     7990        0     1                 
    79a8     79a8        0     1                 
    79c0     79c0        0     1                 
    79d8     79d8        0     1                 
    79f0     79f0        0     1                 
    7a08     7a08        0     1                 
    7a20     7a20        0     1                 
    7a38     7a38        0     1                 
    7a50     7a50        0     1                 
    7a68     7a68        0     1                 
    7a80     7a80        0     1                 
    7a98     7a98        0     1                 
    7ab0     7ab0        0     1                 
    7ad0     7ad0        0     1                 
    7af0     7af0        0     1                 
    7b10     7b10        0     1                 
    7b28     7b28        0     1                 
    7b40     7b40        0     1                 
    7b58     7b58        0     1                 
    7b70     7b70        0     1                 
    7b88     7b88        0     1                 
    7ba0     7ba0        0     1                 
    7bb8     7bb8        0     1                 
    7bd0     7bd0        0     1                 
    7be8     7be8        0     1                 
    7c00     7c00        0     1                 
    7c18     7c18        0     1                 
    7c30     7c30        0     1                 
    7c48     7c48        0     1                 
    7c60     7c60        0     1                 
    7c78     7c78        0     1                 
    7c90     7c90        0     1                 
    7ca8     7ca8        0     1                 
    7cc0     7cc0        0     1                 
    7cd8     7cd8        0     1                 
    7cf0     7cf0        0     1                 
    7d08     7d08        0     1                 
    7d20     7d20        0     1                 
    7d38     7d38        0     1                 
    7d50     7d50        0     1                 
    7d68     7d68        0     1                 
    7d80     7d80        0     1                 
    7d98     7d98        0     1                 
    7db0     7db0        0     1                 
    7dc8     7dc8        0     1                 
    7de0     7de0        0     1                 
    7df8     7df8        0     1                 
    7e10     7e10        0     1                 
    7e28     7e28        0     1                 
    7e40     7e40        0     1                 
    7e60     7e60        0     1                 
    7e78     7e78        0     1                 
    7e90     7e90        0     1                 
    7ea8     7ea8        0     1                 
    7ec0     7ec0        0     1                 
    7ed8     7ed8        0     1                 
    7ef8     7ef8        0     1                 
    7f10     7f10        0     1                 
    7f28     7f28        0     1                 
    7f40     7f40        0     1                 
    7f58     7f58        0     1                 
    7f78     7f78        0     1                 
    7f98     7f98        0     1                 
    7fb0     7fb0        0     1                 
    7fc8     7fc8        0     1                 
    7fe0     7fe0        0     1                 
    7ff8     7ff8        0     1                 
    8018     8018        0     1                 
    8030     8030        0     1                 
    8048     8048        0     1                 
    8060     8060        0     1                 
    8078     8078        0     1                 
    8098     8098        0     1                 
    80b0     80b0        0     1                 
    80c8     80c8        0     1                 
    80e0     80e0        0     1                 
    80f8     80f8        0     1                 
    8110     8110        0     1                 
    8128     8128        0     1                 
    8140     8140        0     1                 
    8158     8158        0     1                 
    8170     8170        0     1                 
    8188     8188        0     1                 
    81a0     81a0        0     1                 
    81b8     81b8        0     1                 
    81d0     81d0        0     1                 
    81e8     81e8        0     1                 
    8200     8200        0     1                 
    8218     8218        0     1                 
    8238     8238        0     1                 
    8278     8278        0     1                 
    8290     8290        0     1                 
    82a8     82a8        0     1                 
    82c0     82c0        0     1                 
    82d8     82d8        0     1                 
    8308     8308        0     1                 
    8320     8320        0     1                 
    8338     8338        0     1                 
    8350     8350        0     1                 
    8368     8368        0     1                 
    8398     8398        0     1                 
    83b0     83b0        0     1                 
    83c8     83c8        0     1                 
    83e0     83e0        0     1                 
    83f8     83f8        0     1                 
    8410     8410        0     1                 
    8428     8428        0     1                 
    8440     8440        0     1                 
    8458     8458        0     1                 
    8470     8470        0     1                 
    8488     8488        0     1                 
    84a0     84a0        0     1                 
    84b8     84b8        0     1                 
    84d0     84d0        0     1                 
    84e8     84e8        0     1                 
    8500     8500        0     1                 
    8518     8518        0     1                 
    8530     8530        0     1                 
    8548     8548        0     1                 
    8560     8560        0     1                 
    8578     8578        0     1                 
    8590     8590        0     1                 
    85a8     85a8        0     1                 
    85c0     85c0        0     1                 
    85d8     85d8        0     1                 
    85f0     85f0        0     1                 
    8608     8608        0     1                 
    8620     8620        0     1                 
    8650     8650        0     1                 
    8668     8668        0     1                 
    8680     8680        0     1                 
    8698     8698        0     1                 
    86b0     86b0        0     1                 
    86c8     86c8        0     1                 
    86e0     86e0        0     1                 
    86f8     86f8        0     1                 
    8710     8710        0     1                 
    8728     8728        0     1                 
    8740     8740        0     1                 
    8758     8758        0     1                 
    8780     8780        0     1                 
    8798     8798        0     1                 
    87b0     87b0        0     1                 
    87c8     87c8        0     1                 
    87e0     87e0        0     1                 
    87f8     87f8        0     1                 
    8810     8810        0     1                 
    8828     8828        0     1                 
    8840     8840        0     1                 
    8858     8858        0     1                 
    8870     8870        0     1                 
    8888     8888        0     1                 
    88a0     88a0        0     1                 
    88b8     88b8        0     1                 
    88d0     88d0        0     1                 
    88e8     88e8        0     1                 
    8900     8900        0     1                 
    8918     8918        0     1                 
    8930     8930        0     1                 
    8948     8948        0     1                 
    8960     8960        0     1                 
    8978     8978        0     1                 
    8990     8990        0     1                 
    89a8     89a8        0     1                 
    89c0     89c0        0     1                 
    89d8     89d8        0     1                 
    89f0     89f0        0     1                 
    8a08     8a08        0     1                 
    8a20     8a20        0     1                 
    8a38     8a38        0     1                 
    8a50     8a50        0     1                 
    8a68     8a68        0     1                 
    8a80     8a80        0     1                 
    8a98     8a98        0     1                 
    8ab0     8ab0        0     1                 
    8ac8     8ac8        0     1                 
    8ae0     8ae0        0     1                 
    8af8     8af8        0     1                 
    8b10     8b10        0     1                 
    8b28     8b28        0     1                 
    8b40     8b40        0     1                 
    8b58     8b58        0     1                 
    8b70     8b70        0     1                 
    8b88     8b88        0     1                 
    8ba0     8ba0        0     1                 
    8bb8     8bb8        0     1                 
    8bd0     8bd0        0     1                 
    8be8     8be8        0     1                 
    8c00     8c00        0     1                 
    8c18     8c18        0     1                 
    8c30     8c30        0     1                 
    8c48     8c48        0     1                 
    8c60     8c60        0     1                 
    8c78     8c78        0     1                 
    8c90     8c90        0     1                 
    8ca8     8ca8        0     1                 
    8cc0     8cc0        0     1                 
    8cd8     8cd8        0     1                 
    8cf0     8cf0        0     1                 
    8d08     8d08        0     1                 
    8d20     8d20        0     1                 
    8d38     8d38        0     1                 
    8d50     8d50        0     1                 
    8d68     8d68        0     1                 
    8d80     8d80        0     1                 
    8d98     8d98        0     1                 
    8db0     8db0        0     1                 
    8dc8     8dc8        0     1                 
    8de0     8de0        0     1                 
    8df8     8df8        0     1                 
    8e10     8e10        0     1                 
    8e28     8e28        0     1                 
    8e40     8e40        0     1                 
    8e58     8e58        0     1                 
    8e70     8e70        0     1                 
    8e88     8e88        0     1                 
    8ea0     8ea0        0     1                 
    8eb8     8eb8        0     1                 
    8ed0     8ed0        0     1                 
    8ee8     8ee8        0     1                 
    8f00     8f00        0     1                 
    8f18     8f18        0     1                 
    8f30     8f30        0     1                 
    8f48     8f48        0     1                 
    8f60     8f60        0     1                 
    8f78     8f78        0     1                 
    8f90     8f90        0     1                 
    8fa8     8fa8        0     1                 
    8fc0     8fc0        0     1                 
    8fd8     8fd8        0     1                 
    8ff0     8ff0        0     1                 
    9008     9008        0     1                 
    9020     9020        0     1                 
    9038     9038        0     1                 
    9050     9050        0     1                 
    9068     9068        0     1                 
    9080     9080        0     1                 
    9098     9098        0     1                 
    90b0     90b0        0     1                 
    90c8     90c8        0     1                 
    90e0     90e0        0     1                 
    90f8     90f8        0     1                 
    9110     9110        0     1                 
    9128     9128        0     1                 
    9140     9140        0     1                 
    9158     9158        0     1                 
    9170     9170        0     1                 
    9188     9188        0     1                 
    91a0     91a0        0     1                 
    91b8     91b8        0     1                 
    91d0     91d0        0     1                 
    91e8     91e8        0     1                 
    9200     9200        0     1                 
    9218     9218        0     1                 
    9230     9230        0     1                 
    9248     9248        0     1                 
    9260     9260        0     1                 
    9278     9278        0     1                 
    9290     9290        0     1                 
    92a8     92a8        0     1                 
    92c0     92c0        0     1                 
    92d8     92d8        0     1                 
    92f0     92f0        0     1                 
    9308     9308        0     1                 
    9320     9320        0     1                 
    9338     9338        0     1                 
    9350     9350        0     1                 
    9368     9368        0     1                 
    9380     9380        0     1                 
    9398     9398        0     1                 
    93b0     93b0        0     1                 
    93c8     93c8        0     1                 
    93e0     93e0        0     1                 
    93f8     93f8        0     1                 
    9410     9410        0     1                 
    9428     9428        0     1                 
    9440     9440        0     1                 
    9458     9458        0     1                 
    9470     9470        0     1                 
    9488     9488        0     1                 
    94a0     94a0        0     1                 
    94b8     94b8        0     1                 
    94d0     94d0        0     1                 
    94e8     94e8        0     1                 
    9500     9500        0     1                 
    9518     9518        0     1                 
    9530     9530        0     1                 
    9548     9548        0     1                 
    9560     9560        0     1                 
    9578     9578        0     1                 
    9590     9590        0     1                 
    95a8     95a8        0     1                 
    95c0     95c0        0     1                 
    95d8     95d8        0     1                 
    95f0     95f0        0     1                 
    9608     9608        0     1                 
    9620     9620        0     1                 
    9638     9638        0     1                 
    9650     9650        0     1                 
    9668     9668        0     1                 
    9680     9680        0     1                 
    9698     9698        0     1                 
    96b0     96b0        0     1                 
    96c8     96c8        0     1                 
    96e0     96e0        0     1                 
    96f8     96f8        0     1                 
    9710     9710        0     1                 
    9728     9728        0     1                 
    9740     9740        0     1                 
    9758     9758        0     1                 
    9770     9770        0     1                 
    9788     9788        0     1                 
    97a0     97a0        0     1                 
    97b8     97b8        0     1                 
    97d0     97d0        0     1                 
    97e8     97e8        0     1                 
    9800     9800        0     1                 
    9818     9818        0     1                 
    9830     9830        0     1                 
    9848     9848        0     1                 
    9860     9860        0     1                 
    9878     9878        0     1                 
    9890     9890        0     1                 
    98a8     98a8        0     1                 
    98c0     98c0        0     1                 
    98d8     98d8        0     1                 
    98f0     98f0        0     1                 
    9918     9918        0     1                 
    9940     9940        0     1                 
    9958     9958        0     1                 
    9980     9980        0     1                 
    99a8     99a8        0     1                 
    99c0     99c0        0     1                 
    99d8     99d8        0     1                 
    99f8     99f8        0     1                 
    9a18     9a18        0     1                 
    9a30     9a30        0     1                 
    9a48     9a48        0     1                 
    9a60     9a60        0     1                 
    9a78     9a78        0     1                 
    9a90     9a90        0     1                 
    9aa8     9aa8        0     1                 
    9ac0     9ac0        0     1                 
    9ad8     9ad8        0     1                 
    9af0     9af0        0     1                 
    9b08     9b08        0     1                 
    9b28     9b28        0     1                 
    9b40     9b40        0     1                 
    9b58     9b58        0     1                 
    9b70     9b70        0     1                 
    9b88     9b88        0     1                 
    9ba0     9ba0        0     1                 
    9bb8     9bb8        0     1                 
    9bd0     9bd0        0     1                 
    9be8     9be8        0     1                 
    9c00     9c00        0     1                 
    9c18     9c18        0     1                 
    9c30     9c30        0     1                 
    9c48     9c48        0     1                 
    9c60     9c60        0     1                 
    9c78     9c78        0     1                 
    9c90     9c90        0     1                 
    9ca8     9ca8        0     1                 
    9cc0     9cc0        0     1                 
    9cd8     9cd8        0     1                 
    9cf0     9cf0        0     1                 
    9d08     9d08        0     1                 
    9d28     9d28        0     1                 
    9d40     9d40        0     1                 
    9d58     9d58        0     1                 
    9d70     9d70        0     1                 
    9d90     9d90        0     1                 
    9db0     9db0        0     1                 
    9dd0     9dd0        0     1                 
    9de8     9de8        0     1                 
    9e00     9e00        0     1                 
    9e18     9e18        0     1                 
    9e30     9e30        0     1                 
    9e50     9e50        0     1                 
    9e70     9e70        0     1                 
    9e90     9e90        0     1                 
    9ea8     9ea8        0     1                 
    9ec0     9ec0        0     1                 
    9ed8     9ed8        0     1                 
    9ef0     9ef0        0     1                 
    9f08     9f08        0     1                 
    9f20     9f20        0     1                 
    9f38     9f38        0     1                 
    9f50     9f50        0     1                 
    9f68     9f68        0     1                 
    9f80     9f80        0     1                 
    9f98     9f98        0     1                 
    9fb0     9fb0        0     1                 
    9fc8     9fc8        0     1                 
    9fe0     9fe0        0     1                 
    9ff8     9ff8        0     1                 
    a010     a010        0     1                 
    a028     a028        0     1                 
    a040     a040        0     1                 
    a058     a058        0     1                 
    a070     a070        0     1                 
    a088     a088        0     1                 
    a0a0     a0a0        0     1                 
    a0c0     a0c0        0     1                 
    a0e0     a0e0        0     1                 
    a100     a100        0     1                 
    a128     a128        0     1                 
    a140     a140        0     1                 
    a158     a158        0     1                 
    a170     a170        0     1                 
    a188     a188        0     1                 
    a1a0     a1a0        0     1                 
    a1b8     a1b8        0     1                 
    a1d0     a1d0        0     1                 
    a1e8     a1e8        0     1                 
    a200     a200        0     1                 
    a218     a218        0     1                 
    a230     a230        0     1                 
    a248     a248        0     1                 
    a260     a260        0     1                 
    a278     a278        0     1                 
    a290     a290        0     1                 
    a2a8     a2a8        0     1                 
    a2c8     a2c8        0     1                 
    a2e0     a2e0        0     1                 
    a2f8     a2f8        0     1                 
    a310     a310        0     1                 
    a328     a328        0     1                 
    a340     a340        0     1                 
    a358     a358        0     1                 
    a370     a370        0     1                 
    a390     a390        0     1                 
    a3a8     a3a8        0     1                 
    a3c0     a3c0        0     1                 
    a3d8     a3d8        0     1                 
    a3f0     a3f0        0     1                 
    a408     a408        0     1                 
    a420     a420        0     1                 
    a438     a438        0     1                 
    a450     a450        0     1                 
    a468     a468        0     1                 
    a480     a480        0     1                 
    a498     a498        0     1                 
    a4b0     a4b0        0     1                 
    a4c8     a4c8        0     1                 
    a4e0     a4e0        0     1                 
    a4f8     a4f8        0     1                 
    a510     a510        0     1                 
    a528     a528        0     1                 
    a540     a540        0     1                 
    a558     a558        0     1                 
    a570     a570        0     1                 
    a588     a588        0     1                 
    a5a0     a5a0        0     1                 
    a5b8     a5b8        0     1                 
    a5d0     a5d0        0     1                 
    a5e8     a5e8        0     1                 
    a608     a608        0     1                 
    a620     a620        0     1                 
    a638     a638        0     1                 
    a650     a650        0     1                 
    a668     a668        0     1                 
    a680     a680        0     1                 
    a698     a698        0     1                 
    a6b0     a6b0        0     1                 
    a6c8     a6c8        0     1                 
    a6e0     a6e0        0     1                 
    a6f8     a6f8        0     1                 
    a710     a710        0     1                 
    a728     a728        0     1                 
    a740     a740        0     1                 
    a758     a758        0     1                 
    a770     a770        0     1                 
    a788     a788        0     1                 
    a7a0     a7a0        0     1                 
    a7b8     a7b8        0     1                 
    a7d0     a7d0        0     1                 
    a7e8     a7e8        0     1                 
    a800     a800        0     1                 
    a818     a818        0     1                 
    a830     a830        0     1                 
    a848     a848        0     1                 
    a860     a860        0     1                 
    a878     a878        0     1                 
    a898     a898        0     1                 
    a8b8     a8b8        0     1                 
    a8d8     a8d8        0     1                 
    a8f0     a8f0        0     1                 
    a910     a910        0     1                 
    a930     a930        0     1                 
    a950     a950        0     1                 
    a968     a968        0     1                 
    a980     a980        0     1                 
    a998     a998        0     1                 
    a9b0     a9b0        0     1                 
    a9c8     a9c8        0     1                 
    a9e0     a9e0        0     1                 
    a9f8     a9f8        0     1                 
    aa10     aa10        0     1                 
    aa28     aa28        0     1                 
    aa40     aa40        0     1                 
    aa58     aa58        0     1                 
    aa70     aa70        0     1                 
    aa88     aa88        0     1                 
    aaa0     aaa0        0     1                 
    aab8     aab8        0     1                 
    aad0     aad0        0     1                 
    aaf0     aaf0        0     1                 
    ab08     ab08        0     1                 
    ab20     ab20        0     1                 
    ab38     ab38        0     1                 
    ab50     ab50        0     1                 
    ab68     ab68        0     1                 
    ab80     ab80        0     1                 
    ab98     ab98        0     1                 
    abb0     abb0        0     1                 
    abc8     abc8        0     1                 
    abe0     abe0        0     1                 
    abf8     abf8        0     1                 
    ac10     ac10        0     1                 
    ac28     ac28        0     1                 
    ac40     ac40        0     1                 
    ac58     ac58        0     1                 
    ac70     ac70        0     1                 
    ac90     ac90        0     1                 
    aca8     aca8        0     1                 
    acc0     acc0        0     1                 
    acd8     acd8        0     1                 
    acf8     acf8        0     1                 
    ad10     ad10        0     1                 
    ad28     ad28        0     1                 
    ad40     ad40        0     1                 
    ad60     ad60        0     1                 
    ad80     ad80        0     1                 
    ada0     ada0        0     1                 
    adb8     adb8        0     1                 
    add0     add0        0     1                 
    ade8     ade8        0     1                 
    ae00     ae00        0     1                 
    ae18     ae18        0     1                 
    ae30     ae30        0     1                 
    ae48     ae48        0     1                 
    ae60     ae60        0     1                 
    ae78     ae78        0     1                 
    ae90     ae90        0     1                 
    aea8     aea8        0     1                 
    aed0     aed0        0     1                 
    aef0     aef0        0     1                 
    af10     af10        0     1                 
    af28     af28        0     1                 
    af40     af40        0     1                 
    af58     af58        0     1                 
    af70     af70        0     1                 
    af88     af88        0     1                 
    afa0     afa0        0     1                 
    afb8     afb8        0     1                 
    afd0     afd0        0     1                 
    b000     b000        0     1                 
    b018     b018        0     1                 
    b030     b030        0     1                 
    b048     b048        0     1                 
    b068     b068        0     1                 
    b088     b088        0     1                 
    b0a8     b0a8        0     1                 
    b0c8     b0c8        0     1                 
    b0f0     b0f0        0     1                 
    b108     b108        0     1                 
    b120     b120        0     1                 
    b138     b138        0     1                 
    b150     b150        0     1                 
    b180     b180        0     1                 
    b1a0     b1a0        0     1                 
    b1c0     b1c0        0     1                 
    b1e0     b1e0        0     1                 
    b200     b200        0     1                 
    b218     b218        0     1                 
    b230     b230        0     1                 
    b248     b248        0     1                 
    b268     b268        0     1                 
    b288     b288        0     1                 
    b2a8     b2a8        0     1                 
    b2c8     b2c8        0     1                 
    b2e0     b2e0        0     1                 
    b2f8     b2f8        0     1                 
    b310     b310        0     1                 
    b328     b328        0     1                 
    b340     b340        0     1                 
    b358     b358        0     1                 
    b370     b370        0     1                 
    b388     b388        0     1                 
    b3a0     b3a0        0     1                 
    b3b8     b3b8        0     1                 
    b3d0     b3d0        0     1                 
    b3f0     b3f0        0     1                 
    b410     b410        0     1                 
    b428     b428        0     1                 
    b440     b440        0     1                 
    b460     b460        0     1                 
    b478     b478        0     1                 
    b490     b490        0     1                 
    b4a8     b4a8        0     1                 
    b4c0     b4c0        0     1                 
    b4d8     b4d8        0     1                 
    b4f0     b4f0        0     1                 
    b508     b508        0     1                 
    b520     b520        0     1                 
    b538     b538        0     1                 
    b550     b550        0     1                 
    b568     b568        0     1                 
    b590     b590        0     1                 
    b5b0     b5b0        0     1                 
    b5d0     b5d0        0     1                 
    b5f8     b5f8        0     1                 
    b610     b610        0     1                 
    b628     b628        0     1                 
    b648     b648        0     1                 
    b660     b660        0     1                 
    b678     b678        0     1                 
    b690     b690        0     1                 
    b6a8     b6a8        0     1                 
    b6c0     b6c0        0     1                 
    b6d8     b6d8        0     1                 
    b6f0     b6f0        0     1                 
    b708     b708        0     1                 
    b720     b720        0     1                 
    b738     b738        0     1                 
    b750     b750        0     1                 
    b768     b768        0     1                 
    b780     b780        0     1                 
    b798     b798        0     1                 
    b7b0     b7b0        0     1                 
    b7c8     b7c8        0     1                 
    b7e0     b7e0        0     1                 
    b7f8     b7f8        0     1                 
    b810     b810        0     1                 
    b828     b828        0     1                 
    b840     b840        0     1                 
    b860     b860        0     1                 
    b878     b878        0     1                 
    b890     b890        0     1                 
    b8a8     b8a8        0     1                 
    b8c0     b8c0        0     1                 
    b8d8     b8d8        0     1                 
    b8f0     b8f0        0     1                 
    b908     b908        0     1                 
    b920     b920        0     1                 
    b938     b938        0     1                 
    b950     b950        0     1                 
    b968     b968        0     1                 
    b980     b980        0     1                 
    b998     b998        0     1                 
    b9b8     b9b8        0     1                 
    b9d8     b9d8        0     1                 
    b9f8     b9f8        0     1                 
    ba10     ba10        0     1                 
    ba28     ba28        0     1                 
    ba40     ba40        0     1                 
    ba58     ba58        0     1                 
    ba70     ba70        0     1                 
    ba88     ba88        0     1                 
    baa0     baa0        0     1                 
    bab8     bab8        0     1                 
    bad0     bad0        0     1                 
    baf0     baf0        0     1                 
    bb10     bb10        0     1                 
    bb30     bb30        0     1                 
    bb50     bb50        0     1                 
    bb70     bb70        0     1                 
    bb90     bb90        0     1                 
    bba8     bba8        0     1                 
    bbc0     bbc0        0     1                 
    bbd8     bbd8        0     1                 
    bbf0     bbf0        0     1                 
    bc08     bc08        0     1                 
    bc20     bc20        0     1                 
    bc38     bc38        0     1                 
    bc50     bc50        0     1                 
    bc68     bc68        0     1                 
    bc80     bc80        0     1                 
    bc98     bc98        0     1                 
    bcb0     bcb0        0     1                 
    bcc8     bcc8        0     1                 
    bce0     bce0        0     1                 
    bcf8     bcf8        0     1                 
    bd10     bd10        0     1                 
    bd28     bd28        0     1                 
    bd40     bd40        0     1                 
    bd58     bd58        0     1                 
    bd70     bd70        0     1                 
    bd88     bd88        0     1                 
    bda0     bda0        0     1                 
    bdb8     bdb8        0     1                 
    bde0     bde0        0     1                 
    bdf8     bdf8        0     1                 
    be10     be10        0     1                 
    be28     be28        0     1                 
    be40     be40        0     1                 
    be58     be58        0     1                 
    be70     be70        0     1                 
    be98     be98        0     1                 
    beb0     beb0        0     1                 
    bec8     bec8        0     1                 
    bee0     bee0        0     1                 
    bef8     bef8        0     1                 
    bf10     bf10        0     1                 
    bf28     bf28        0     1                 
    bf40     bf40        0     1                 
    bf58     bf58        0     1                 
    bf70     bf70        0     1                 
    bf88     bf88        0     1                 
    bfa0     bfa0        0     1                 
    bfb8     bfb8        0     1                 
    bfd0     bfd0        0     1                 
    bfe8     bfe8        0     1                 
    c000     c000        0     1                 
    c018     c018        0     1                 
    c030     c030        0     1                 
    c048     c048        0     1                 
    c060     c060        0     1                 
    c078     c078        0     1                 
    c090     c090        0     1                 
    c0a8     c0a8        0     1                 
    c0c0     c0c0        0     1                 
    c0d8     c0d8        0     1                 
    c0f0     c0f0        0     1                 
    c108     c108        0     1                 
    c120     c120        0     1                 
    c138     c138        0     1                 
    c150     c150        0     1                 
    c168     c168        0     1                 
    c180     c180        0     1                 
    c198     c198        0     1                 
    c1b0     c1b0        0     1                 
    c1d0     c1d0        0     1                 
    c1f0     c1f0        0     1                 
    c210     c210        0     1                 
    c228     c228        0     1                 
    c240     c240        0     1                 
    c258     c258        0     1                 
    c270     c270        0     1                 
    c288     c288        0     1                 
    c2a0     c2a0        0     1                 
    c2c0     c2c0        0     1                 
    c2e0     c2e0        0     1                 
    c300     c300        0     1                 
    c318     c318        0     1                 
    c330     c330        0     1                 
    c348     c348        0     1                 
    c360     c360        0     1                 
    c378     c378        0     1                 
    c390     c390        0     1                 
    c3a8     c3a8        0     1                 
    c3c0     c3c0        0     1                 
    c3d8     c3d8        0     1                 
    c3f8     c3f8        0     1                 
    c418     c418        0     1                 
    c438     c438        0     1                 
    c458     c458        0     1                 
    c478     c478        0     1                 
    c498     c498        0     1                 
    c4b0     c4b0        0     1                 
    c4c8     c4c8        0     1                 
    c4e0     c4e0        0     1                 
    c4f8     c4f8        0     1                 
    c510     c510        0     1                 
    c528     c528        0     1                 
    c548     c548        0     1                 
    c568     c568        0     1                 
    c588     c588        0     1                 
    c5a8     c5a8        0     1                 
    c5c8     c5c8        0     1                 
    c5e8     c5e8        0     1                 
    c600     c600        0     1                 
    c618     c618        0     1                 
    c630     c630        0     1                 
    c648     c648        0     1                 
    c660     c660        0     1                 
    c678     c678        0     1                 
    c690     c690        0     1                 
    c6a8     c6a8        0     1                 
    c6c0     c6c0        0     1                 
    c6d8     c6d8        0     1                 
    c6f0     c6f0        0     1                 
    c708     c708        0     1                 
    c720     c720        0     1                 
    c738     c738        0     1                 
    c750     c750        0     1                 
    c770     c770        0     1                 
    c790     c790        0     1                 
    c7b0     c7b0        0     1                 
    c7d0     c7d0        0     1                 
    c7f0     c7f0        0     1                 
    c810     c810        0     1                 
    c828     c828        0     1                 
    c840     c840        0     1                 
    c858     c858        0     1                 
    c870     c870        0     1                 
    c888     c888        0     1                 
    c8a0     c8a0        0     1                 
    c8c8     c8c8        0     1                 
    c8f0     c8f0        0     1                 
    c918     c918        0     1                 
    c938     c938        0     1                 
    c958     c958        0     1                 
    c978     c978        0     1                 
    c998     c998        0     1                 
    c9b8     c9b8        0     1                 
    c9d8     c9d8        0     1                 
    c9f0     c9f0        0     1                 
    ca08     ca08        0     1                 
    ca20     ca20        0     1                 
    ca48     ca48        0     1                 
    ca70     ca70        0     1                 
    ca98     ca98        0     1                 
    cab8     cab8        0     1                 
    cad8     cad8        0     1                 
    caf8     caf8        0     1                 
    cb18     cb18        0     1                 
    cb38     cb38        0     1                 
    cb58     cb58        0     1                 
    cb70     cb70        0     1                 
    cb88     cb88        0     1                 
    cba0     cba0        0     1                 
    cbc0     cbc0        0     1                 
    cbe0     cbe0        0     1                 
    cc00     cc00        0     1                 
    cc28     cc28        0     1                 
    cc50     cc50        0     1                 
    cc78     cc78        0     1                 
    cca0     cca0        0     1                 
    ccc8     ccc8        0     1                 
    ccf0     ccf0        0     1                 
    cd18     cd18        0     1                 
    cd40     cd40        0     1                 
    cd68     cd68        0     1                 
    cd90     cd90        0     1                 
    cdb8     cdb8        0     1                 
    cde0     cde0        0     1                 
    ce00     ce00        0     1                 
    ce20     ce20        0     1                 
    ce40     ce40        0     1                 
    ce60     ce60        0     1                 
    ce80     ce80        0     1                 
    cea0     cea0        0     1                 
    cec0     cec0        0     1                 
    cee0     cee0        0     1                 
    cf00     cf00        0     1                 
    cf20     cf20        0     1                 
    cf40     cf40        0     1                 
    cf60     cf60        0     1                 
    cf80     cf80        0     1                 
    cfa0     cfa0        0     1                 
    cfc0     cfc0        0     1                 
    cfe0     cfe0        0     1                 
    d000     d000        0     1                 
    d020     d020        0     1                 
    e5f0     e5f0       30     1         /Users/mabez/.rustup/toolchains/nightly-aarch64-apple-darwin/lib/rustlib/riscv32imac-unknown-none-elf/lib/libcompiler_builtins-1e32d751d3fb162c.rlib(compiler_builtins-1e32d751d3fb162c.compiler_builtins.864c03ce-cgu.104.rcgu.o):(.debug_ranges)
    e5f0     e5f0        0     1                 
    e608     e608        0     1                 
    e620     e620       78     1         /Users/mabez/.rustup/toolchains/nightly-aarch64-apple-darwin/lib/rustlib/riscv32imac-unknown-none-elf/lib/libcompiler_builtins-1e32d751d3fb162c.rlib(compiler_builtins-1e32d751d3fb162c.compiler_builtins.864c03ce-cgu.106.rcgu.o):(.debug_ranges)
    e620     e620        0     1                 
    e638     e638        0     1                 
    e650     e650        0     1                 
    e668     e668        0     1                 
    e680     e680        0     1                 
    e698     e698       c8     1         /Users/mabez/.rustup/toolchains/nightly-aarch64-apple-darwin/lib/rustlib/riscv32imac-unknown-none-elf/lib/libcompiler_builtins-1e32d751d3fb162c.rlib(compiler_builtins-1e32d751d3fb162c.compiler_builtins.864c03ce-cgu.111.rcgu.o):(.debug_ranges)
    e698     e698        0     1                 
    e6c0     e6c0        0     1                 
    e6e0     e6e0        0     1                 
    e708     e708        0     1                 
    e720     e720        0     1                 
    e740     e740        0     1                 
    e760     e760       40     1         /Users/mabez/.rustup/toolchains/nightly-aarch64-apple-darwin/lib/rustlib/riscv32imac-unknown-none-elf/lib/libcompiler_builtins-1e32d751d3fb162c.rlib(compiler_builtins-1e32d751d3fb162c.compiler_builtins.864c03ce-cgu.2.rcgu.o):(.debug_ranges)
    e760     e760        0     1                 
    e780     e780        0     1                 
    e7a0     e7a0       78     1         /Users/mabez/.rustup/toolchains/nightly-aarch64-apple-darwin/lib/rustlib/riscv32imac-unknown-none-elf/lib/libcompiler_builtins-1e32d751d3fb162c.rlib(compiler_builtins-1e32d751d3fb162c.compiler_builtins.864c03ce-cgu.20.rcgu.o):(.debug_ranges)
    e7a0     e7a0        0     1                 
    e818     e818       48     1         /Users/mabez/.rustup/toolchains/nightly-aarch64-apple-darwin/lib/rustlib/riscv32imac-unknown-none-elf/lib/libcompiler_builtins-1e32d751d3fb162c.rlib(compiler_builtins-1e32d751d3fb162c.compiler_builtins.864c03ce-cgu.27.rcgu.o):(.debug_ranges)
    e818     e818        0     1                 
    e830     e830        0     1                 
    e848     e848        0     1                 
    e860     e860       40     1         /Users/mabez/.rustup/toolchains/nightly-aarch64-apple-darwin/lib/rustlib/riscv32imac-unknown-none-elf/lib/libcompiler_builtins-1e32d751d3fb162c.rlib(compiler_builtins-1e32d751d3fb162c.compiler_builtins.864c03ce-cgu.69.rcgu.o):(.debug_ranges)
    e860     e860        0     1                 
    e880     e880        0     1                 
    e8a0     e8a0       48     1         /Users/mabez/.rustup/toolchains/nightly-aarch64-apple-darwin/lib/rustlib/riscv32imac-unknown-none-elf/lib/libcompiler_builtins-1e32d751d3fb162c.rlib(compiler_builtins-1e32d751d3fb162c.compiler_builtins.864c03ce-cgu.7.rcgu.o):(.debug_ranges)
    e8a0     e8a0        0     1                 
    e8d0     e8d0        0     1                 
    e8e8     e8e8       40     1         /Users/mabez/.rustup/toolchains/nightly-aarch64-apple-darwin/lib/rustlib/riscv32imac-unknown-none-elf/lib/libcompiler_builtins-1e32d751d3fb162c.rlib(compiler_builtins-1e32d751d3fb162c.compiler_builtins.864c03ce-cgu.71.rcgu.o):(.debug_ranges)
    e8e8     e8e8        0     1                 
    e908     e908        0     1                 
    e928     e928       30     1         /Users/mabez/.rustup/toolchains/nightly-aarch64-apple-darwin/lib/rustlib/riscv32imac-unknown-none-elf/lib/libcompiler_builtins-1e32d751d3fb162c.rlib(compiler_builtins-1e32d751d3fb162c.compiler_builtins.864c03ce-cgu.79.rcgu.o):(.debug_ranges)
    e928     e928        0     1                 
    e940     e940        0     1                 
    e958     e958       78     1         /Users/mabez/.rustup/toolchains/nightly-aarch64-apple-darwin/lib/rustlib/riscv32imac-unknown-none-elf/lib/libcompiler_builtins-1e32d751d3fb162c.rlib(compiler_builtins-1e32d751d3fb162c.compiler_builtins.864c03ce-cgu.8.rcgu.o):(.debug_ranges)
    e958     e958        0     1                 
    e970     e970        0     1                 
    e988     e988        0     1                 
    e9a0     e9a0        0     1                 
    e9b8     e9b8        0     1                 
    e9d0     e9d0       50     1         /Users/mabez/.rustup/toolchains/nightly-aarch64-apple-darwin/lib/rustlib/riscv32imac-unknown-none-elf/lib/libcompiler_builtins-1e32d751d3fb162c.rlib(compiler_builtins-1e32d751d3fb162c.compiler_builtins.864c03ce-cgu.82.rcgu.o):(.debug_ranges)
    e9d0     e9d0        0     1                 
    e9e8     e9e8        0     1                 
    ea00     ea00        0     1                 
    ea20     ea20       78     1         /Users/mabez/.rustup/toolchains/nightly-aarch64-apple-darwin/lib/rustlib/riscv32imac-unknown-none-elf/lib/libcompiler_builtins-1e32d751d3fb162c.rlib(compiler_builtins-1e32d751d3fb162c.compiler_builtins.864c03ce-cgu.120.rcgu.o):(.debug_ranges)
    ea20     ea20        0     1                 
    ea38     ea38        0     1                 
    ea50     ea50        0     1                 
    ea68     ea68        0     1                 
    ea80     ea80        0     1                 
    ea98     ea98       30     1         /Users/mabez/.rustup/toolchains/nightly-aarch64-apple-darwin/lib/rustlib/riscv32imac-unknown-none-elf/lib/libcompiler_builtins-1e32d751d3fb162c.rlib(compiler_builtins-1e32d751d3fb162c.compiler_builtins.864c03ce-cgu.92.rcgu.o):(.debug_ranges)
    ea98     ea98        0     1                 
    eab0     eab0        0     1                 
       0        0    33926     1 .debug_str
       0        0    33926     1         <internal>:(.debug_str)
       0        0    1034e     1 .debug_pubnames
       0        0       6e     1         /Users/mabez/Development/rust/embedded/experiments/esp32c3-experiments/target/riscv32imac-unknown-none-elf/debug/deps/esp32c3-5c92695bd7d79a0b.1167rr2z31gresnb.rcgu.o:(.debug_pubnames)
      6e       6e      154     1         /Users/mabez/Development/rust/embedded/experiments/esp32c3-experiments/target/riscv32imac-unknown-none-elf/debug/deps/esp32c3-5c92695bd7d79a0b.17kfpczq76poenv8.rcgu.o:(.debug_pubnames)
     1c2      1c2       df     1         /Users/mabez/Development/rust/embedded/experiments/esp32c3-experiments/target/riscv32imac-unknown-none-elf/debug/deps/esp32c3-5c92695bd7d79a0b.1iu2tfaecczf5k50.rcgu.o:(.debug_pubnames)
     2a1      2a1       e0     1         /Users/mabez/Development/rust/embedded/experiments/esp32c3-experiments/target/riscv32imac-unknown-none-elf/debug/deps/esp32c3-5c92695bd7d79a0b.2146etiuaoyugpgb.rcgu.o:(.debug_pubnames)
     381      381       ae     1         /Users/mabez/Development/rust/embedded/experiments/esp32c3-experiments/target/riscv32imac-unknown-none-elf/debug/deps/esp32c3-5c92695bd7d79a0b.2bt420y5da8z26cy.rcgu.o:(.debug_pubnames)
     42f      42f       96     1         /Users/mabez/Development/rust/embedded/experiments/esp32c3-experiments/target/riscv32imac-unknown-none-elf/debug/deps/esp32c3-5c92695bd7d79a0b.2y0w5m30si0qvc1i.rcgu.o:(.debug_pubnames)
     4c5      4c5       a9     1         /Users/mabez/Development/rust/embedded/experiments/esp32c3-experiments/target/riscv32imac-unknown-none-elf/debug/deps/esp32c3-5c92695bd7d79a0b.36jwgnll5937lngu.rcgu.o:(.debug_pubnames)
     56e      56e       4c     1         /Users/mabez/Development/rust/embedded/experiments/esp32c3-experiments/target/riscv32imac-unknown-none-elf/debug/deps/esp32c3-5c92695bd7d79a0b.46tzsed5680ekwya.rcgu.o:(.debug_pubnames)
     5ba      5ba      146     1         /Users/mabez/Development/rust/embedded/experiments/esp32c3-experiments/target/riscv32imac-unknown-none-elf/debug/deps/esp32c3-5c92695bd7d79a0b.4d3o56o4s3rmpew1.rcgu.o:(.debug_pubnames)
     700      700       de     1         /Users/mabez/Development/rust/embedded/experiments/esp32c3-experiments/target/riscv32imac-unknown-none-elf/debug/deps/esp32c3-5c92695bd7d79a0b.4sieayjll78w32te.rcgu.o:(.debug_pubnames)
     7de      7de      163     1         /Users/mabez/Development/rust/embedded/experiments/esp32c3-experiments/target/riscv32imac-unknown-none-elf/debug/deps/esp32c3-5c92695bd7d79a0b.57j3pmw6ctaj3l7m.rcgu.o:(.debug_pubnames)
     941      941       97     1         /Users/mabez/Development/rust/embedded/experiments/esp32c3-experiments/target/riscv32imac-unknown-none-elf/debug/deps/esp32c3-5c92695bd7d79a0b.57vaia0p0nh7h46b.rcgu.o:(.debug_pubnames)
     9d8      9d8       5a     1         /Users/mabez/Development/rust/embedded/experiments/esp32c3-experiments/target/riscv32imac-unknown-none-elf/debug/deps/esp32c3-5c92695bd7d79a0b.vifbgxjspdn3ixi.rcgu.o:(.debug_pubnames)
     a32      a32      151     1         /Users/mabez/Development/rust/embedded/experiments/esp32c3-experiments/target/riscv32imac-unknown-none-elf/debug/deps/esp32c3-5c92695bd7d79a0b.w0jfp97vxp3n0e0.rcgu.o:(.debug_pubnames)
     b83      b83      10a     1         /Users/mabez/Development/rust/embedded/experiments/esp32c3-experiments/target/riscv32imac-unknown-none-elf/debug/deps/libesp32c3_lib-435c508db645f62b.rlib(esp32c3_lib-435c508db645f62b.enpltv37r0tja3s.rcgu.o):(.debug_pubnames)
     c8d      c8d       6a     1         /Users/mabez/Development/rust/embedded/experiments/esp32c3-experiments/target/riscv32imac-unknown-none-elf/debug/deps/libesp32c3_lib-435c508db645f62b.rlib(esp32c3_lib-435c508db645f62b.4qunmpv8rlyr20lx.rcgu.o):(.debug_pubnames)
     cf7      cf7      119     1         /Users/mabez/Development/rust/embedded/experiments/esp32c3-experiments/target/riscv32imac-unknown-none-elf/debug/deps/libesp32c3_lib-435c508db645f62b.rlib(esp32c3_lib-435c508db645f62b.3xdn0a03wuv3lfvi.rcgu.o):(.debug_pubnames)
     e10      e10       77     1         /Users/mabez/Development/rust/embedded/experiments/esp32c3-experiments/target/riscv32imac-unknown-none-elf/debug/deps/libesp32c3_lib-435c508db645f62b.rlib(esp32c3_lib-435c508db645f62b.10h0j41trqvefdik.rcgu.o):(.debug_pubnames)
     e87      e87       64     1         /Users/mabez/Development/rust/embedded/experiments/esp32c3-experiments/target/riscv32imac-unknown-none-elf/debug/deps/libesp32c3_lib-435c508db645f62b.rlib(esp32c3_lib-435c508db645f62b.3ja21lwj0yew0pl1.rcgu.o):(.debug_pubnames)
     eeb      eeb       55     1         /Users/mabez/Development/rust/embedded/experiments/esp32c3-experiments/target/riscv32imac-unknown-none-elf/debug/deps/libesp32c3_lib-435c508db645f62b.rlib(esp32c3_lib-435c508db645f62b.2vqs4zh0r4p5a1ya.rcgu.o):(.debug_pubnames)
     f40      f40       62     1         /Users/mabez/Development/rust/embedded/experiments/esp32c3-experiments/target/riscv32imac-unknown-none-elf/debug/deps/libesp32c3_lib-435c508db645f62b.rlib(esp32c3_lib-435c508db645f62b.2wzydu5xsvwfbdws.rcgu.o):(.debug_pubnames)
     fa2      fa2       9c     1         /Users/mabez/Development/rust/embedded/experiments/esp32c3-experiments/target/riscv32imac-unknown-none-elf/debug/deps/libriscv_atomic_emulation_trap-9111affe446510c3.rlib(riscv_atomic_emulation_trap-9111affe446510c3.3mjkh8i7otdbof7e.rcgu.o):(.debug_pubnames)
    103e     103e       77     1         /Users/mabez/Development/rust/embedded/experiments/esp32c3-experiments/target/riscv32imac-unknown-none-elf/debug/deps/libriscv_atomic_emulation_trap-9111affe446510c3.rlib(riscv_atomic_emulation_trap-9111affe446510c3.47nrs7arfzyngfvl.rcgu.o):(.debug_pubnames)
    10b5     10b5      1bf     1         /Users/mabez/Development/rust/embedded/experiments/esp32c3-experiments/target/riscv32imac-unknown-none-elf/debug/deps/libriscv_atomic_emulation_trap-9111affe446510c3.rlib(riscv_atomic_emulation_trap-9111affe446510c3.7puluphka9w3g90.rcgu.o):(.debug_pubnames)
    1274     1274       45     1         /Users/mabez/Development/rust/embedded/experiments/esp32c3-experiments/target/riscv32imac-unknown-none-elf/debug/deps/libriscv_atomic_emulation_trap-9111affe446510c3.rlib(riscv_atomic_emulation_trap-9111affe446510c3.29cdtova41s09pd8.rcgu.o):(.debug_pubnames)
    12b9     12b9       8b     1         /Users/mabez/Development/rust/embedded/experiments/esp32c3-experiments/target/riscv32imac-unknown-none-elf/debug/deps/libriscv_atomic_emulation_trap-9111affe446510c3.rlib(riscv_atomic_emulation_trap-9111affe446510c3.411zpn36fj0rdh69.rcgu.o):(.debug_pubnames)
    1344     1344      196     1         /Users/mabez/Development/rust/embedded/experiments/esp32c3-experiments/target/riscv32imac-unknown-none-elf/debug/deps/libriscv_atomic_emulation_trap-9111affe446510c3.rlib(riscv_atomic_emulation_trap-9111affe446510c3.4em3hgrap6mo60l5.rcgu.o):(.debug_pubnames)
    14da     14da       6e     1         /Users/mabez/Development/rust/embedded/experiments/esp32c3-experiments/target/riscv32imac-unknown-none-elf/debug/deps/libriscv_atomic_emulation_trap-9111affe446510c3.rlib(riscv_atomic_emulation_trap-9111affe446510c3.1ainjqznfmasr5um.rcgu.o):(.debug_pubnames)
    1548     1548       4c     1         /Users/mabez/Development/rust/embedded/experiments/esp32c3-experiments/target/riscv32imac-unknown-none-elf/debug/deps/libriscv_atomic_emulation_trap-9111affe446510c3.rlib(riscv_atomic_emulation_trap-9111affe446510c3.1e14zek980l7c5wd.rcgu.o):(.debug_pubnames)
    1594     1594       69     1         /Users/mabez/Development/rust/embedded/experiments/esp32c3-experiments/target/riscv32imac-unknown-none-elf/debug/deps/libriscv_atomic_emulation_trap-9111affe446510c3.rlib(riscv_atomic_emulation_trap-9111affe446510c3.3jxb2alfotone25d.rcgu.o):(.debug_pubnames)
    15fd     15fd      196     1         /Users/mabez/Development/rust/embedded/experiments/esp32c3-experiments/target/riscv32imac-unknown-none-elf/debug/deps/libriscv_rt-792395b706c7e295.rlib(riscv_rt-792395b706c7e295.n23zmh27zi56vj2.rcgu.o):(.debug_pubnames)
    1793     1793       9e     1         /Users/mabez/Development/rust/embedded/experiments/esp32c3-experiments/target/riscv32imac-unknown-none-elf/debug/deps/libriscv_rt-792395b706c7e295.rlib(riscv_rt-792395b706c7e295.2si3iiyx4w55gh9p.rcgu.o):(.debug_pubnames)
    1831     1831       9c     1         /Users/mabez/Development/rust/embedded/experiments/esp32c3-experiments/target/riscv32imac-unknown-none-elf/debug/deps/libriscv_rt-792395b706c7e295.rlib(riscv_rt-792395b706c7e295.nu58l7xx5z184oa.rcgu.o):(.debug_pubnames)
    18cd     18cd       3f     1         /Users/mabez/Development/rust/embedded/experiments/esp32c3-experiments/target/riscv32imac-unknown-none-elf/debug/deps/libriscv_rt-792395b706c7e295.rlib(riscv_rt-792395b706c7e295.40ecbdq24jylbsk0.rcgu.o):(.debug_pubnames)
    190c     190c       93     1         /Users/mabez/Development/rust/embedded/experiments/esp32c3-experiments/target/riscv32imac-unknown-none-elf/debug/deps/libriscv_rt-792395b706c7e295.rlib(riscv_rt-792395b706c7e295.4l8nnv0gz5uboi7y.rcgu.o):(.debug_pubnames)
    199f     199f       69     1         /Users/mabez/Development/rust/embedded/experiments/esp32c3-experiments/target/riscv32imac-unknown-none-elf/debug/deps/libriscv_rt-792395b706c7e295.rlib(riscv_rt-792395b706c7e295.a1pdmtq419pk4l9.rcgu.o):(.debug_pubnames)
    1a08     1a08      3c7     1         /Users/mabez/Development/rust/embedded/experiments/esp32c3-experiments/target/riscv32imac-unknown-none-elf/debug/deps/libriscv-58bee4c49f9f92ec.rlib(riscv-58bee4c49f9f92ec.riscv.8be94b29-cgu.0.rcgu.o):(.debug_pubnames)
    1dcf     1dcf      435     1         /Users/mabez/Development/rust/embedded/experiments/esp32c3-experiments/target/riscv32imac-unknown-none-elf/debug/deps/libriscv-58bee4c49f9f92ec.rlib(riscv-58bee4c49f9f92ec.riscv.8be94b29-cgu.9.rcgu.o):(.debug_pubnames)
    2204     2204       a4     1         /Users/mabez/Development/rust/embedded/experiments/esp32c3-experiments/target/riscv32imac-unknown-none-elf/debug/deps/libriscv-58bee4c49f9f92ec.rlib(riscv-58bee4c49f9f92ec.riscv.8be94b29-cgu.4.rcgu.o):(.debug_pubnames)
    22a8     22a8       48     1         /Users/mabez/Development/rust/embedded/experiments/esp32c3-experiments/target/riscv32imac-unknown-none-elf/debug/deps/libriscv_rt-792395b706c7e295.rlib(riscv_rt-792395b706c7e295.2fig4fon7wqsswts.rcgu.o):(.debug_pubnames)
    22f0     22f0       2c     1         /Users/mabez/Development/rust/embedded/experiments/esp32c3-experiments/target/riscv32imac-unknown-none-elf/debug/deps/libriscv_rt-792395b706c7e295.rlib(riscv_rt-792395b706c7e295.53lukflzfjg86k6f.rcgu.o):(.debug_pubnames)
    231c     231c       3d     1         /Users/mabez/Development/rust/embedded/experiments/esp32c3-experiments/target/riscv32imac-unknown-none-elf/debug/deps/libriscv_rt-792395b706c7e295.rlib(riscv_rt-792395b706c7e295.2h85xx65g8aqsgk3.rcgu.o):(.debug_pubnames)
    2359     2359      119     1         /Users/mabez/Development/rust/embedded/experiments/esp32c3-experiments/target/riscv32imac-unknown-none-elf/debug/deps/libriscv_atomic_emulation_trap-9111affe446510c3.rlib(riscv_atomic_emulation_trap-9111affe446510c3.473ch88oilsz6zg3.rcgu.o):(.debug_pubnames)
    2472     2472       64     1         /Users/mabez/Development/rust/embedded/experiments/esp32c3-experiments/target/riscv32imac-unknown-none-elf/debug/deps/libriscv_atomic_emulation_trap-9111affe446510c3.rlib(riscv_atomic_emulation_trap-9111affe446510c3.1x01haq1ilk8wjw8.rcgu.o):(.debug_pubnames)
    24d6     24d6       55     1         /Users/mabez/Development/rust/embedded/experiments/esp32c3-experiments/target/riscv32imac-unknown-none-elf/debug/deps/libriscv_atomic_emulation_trap-9111affe446510c3.rlib(riscv_atomic_emulation_trap-9111affe446510c3.3eam8rvf5fviumdo.rcgu.o):(.debug_pubnames)
    252b     252b       b1     1         /Users/mabez/Development/rust/embedded/experiments/esp32c3-experiments/target/riscv32imac-unknown-none-elf/debug/deps/libriscv_atomic_emulation_trap-9111affe446510c3.rlib(riscv_atomic_emulation_trap-9111affe446510c3.92c3mso3f7tifm.rcgu.o):(.debug_pubnames)
    25dc     25dc       d0     1         /Users/mabez/Development/rust/embedded/experiments/esp32c3-experiments/target/riscv32imac-unknown-none-elf/debug/deps/libriscv_atomic_emulation_trap-9111affe446510c3.rlib(riscv_atomic_emulation_trap-9111affe446510c3.1ujfldlpaqv6u59a.rcgu.o):(.debug_pubnames)
    26ac     26ac       68     1         /Users/mabez/Development/rust/embedded/experiments/esp32c3-experiments/target/riscv32imac-unknown-none-elf/debug/deps/libriscv_atomic_emulation_trap-9111affe446510c3.rlib(riscv_atomic_emulation_trap-9111affe446510c3.5dmrm1faws2v64w9.rcgu.o):(.debug_pubnames)
    2714     2714       6d     1         /Users/mabez/Development/rust/embedded/experiments/esp32c3-experiments/target/riscv32imac-unknown-none-elf/debug/deps/libriscv_atomic_emulation_trap-9111affe446510c3.rlib(riscv_atomic_emulation_trap-9111affe446510c3.32s2sfn2d8x0z4vp.rcgu.o):(.debug_pubnames)
    2781     2781       97     1         /Users/mabez/Development/rust/embedded/experiments/esp32c3-experiments/target/riscv32imac-unknown-none-elf/debug/deps/libriscv_atomic_emulation_trap-9111affe446510c3.rlib(riscv_atomic_emulation_trap-9111affe446510c3.iorsoyj01ig67gw.rcgu.o):(.debug_pubnames)
    2818     2818       62     1         /Users/mabez/Development/rust/embedded/experiments/esp32c3-experiments/target/riscv32imac-unknown-none-elf/debug/deps/libriscv_atomic_emulation_trap-9111affe446510c3.rlib(riscv_atomic_emulation_trap-9111affe446510c3.koyzaehax49d9k4.rcgu.o):(.debug_pubnames)
    287a     287a       6b     1         /Users/mabez/Development/rust/embedded/experiments/esp32c3-experiments/target/riscv32imac-unknown-none-elf/debug/deps/libriscv_atomic_emulation_trap-9111affe446510c3.rlib(riscv_atomic_emulation_trap-9111affe446510c3.r9quz5yo0c3c66a.rcgu.o):(.debug_pubnames)
    28e5     28e5       77     1         /Users/mabez/Development/rust/embedded/experiments/esp32c3-experiments/target/riscv32imac-unknown-none-elf/debug/deps/libriscv_atomic_emulation_trap-9111affe446510c3.rlib(riscv_atomic_emulation_trap-9111affe446510c3.um9btop5pm89mqk.rcgu.o):(.debug_pubnames)
    295c     295c      3c7     1         /Users/mabez/Development/rust/embedded/experiments/esp32c3-experiments/target/riscv32imac-unknown-none-elf/debug/deps/libriscv-e6570dc03e37c02b.rlib(riscv-e6570dc03e37c02b.riscv.6a3f384f-cgu.0.rcgu.o):(.debug_pubnames)
    2d23     2d23      483     1         /Users/mabez/Development/rust/embedded/experiments/esp32c3-experiments/target/riscv32imac-unknown-none-elf/debug/deps/libriscv-e6570dc03e37c02b.rlib(riscv-e6570dc03e37c02b.riscv.6a3f384f-cgu.10.rcgu.o):(.debug_pubnames)
    31a6     31a6      149     1         /Users/mabez/Development/rust/embedded/experiments/esp32c3-experiments/target/riscv32imac-unknown-none-elf/debug/deps/libriscv-e6570dc03e37c02b.rlib(riscv-e6570dc03e37c02b.riscv.6a3f384f-cgu.11.rcgu.o):(.debug_pubnames)
    32ef     32ef       a4     1         /Users/mabez/Development/rust/embedded/experiments/esp32c3-experiments/target/riscv32imac-unknown-none-elf/debug/deps/libriscv-e6570dc03e37c02b.rlib(riscv-e6570dc03e37c02b.riscv.6a3f384f-cgu.4.rcgu.o):(.debug_pubnames)
    3393     3393      167     1         /Users/mabez/Development/rust/embedded/experiments/esp32c3-experiments/target/riscv32imac-unknown-none-elf/debug/deps/libriscv-e6570dc03e37c02b.rlib(riscv-e6570dc03e37c02b.riscv.6a3f384f-cgu.8.rcgu.o):(.debug_pubnames)
    34fa     34fa       ca     1         /Users/mabez/Development/rust/embedded/experiments/esp32c3-experiments/target/riscv32imac-unknown-none-elf/debug/deps/libvoid-d8bfa8eb72c6fce6.rlib(void-d8bfa8eb72c6fce6.void.0c48974b-cgu.0.rcgu.o):(.debug_pubnames)
    35c4     35c4     b988     1         /Users/mabez/.rustup/toolchains/nightly-aarch64-apple-darwin/lib/rustlib/riscv32imac-unknown-none-elf/lib/libcore-081fd8405fc18f2e.rlib(core-081fd8405fc18f2e.core.756fe54c-cgu.0.rcgu.o):(.debug_pubnames)
    ef4c     ef4c       ca     1         /Users/mabez/.rustup/toolchains/nightly-aarch64-apple-darwin/lib/rustlib/riscv32imac-unknown-none-elf/lib/libcompiler_builtins-1e32d751d3fb162c.rlib(compiler_builtins-1e32d751d3fb162c.compiler_builtins.864c03ce-cgu.104.rcgu.o):(.debug_pubnames)
    f016     f016      1b5     1         /Users/mabez/.rustup/toolchains/nightly-aarch64-apple-darwin/lib/rustlib/riscv32imac-unknown-none-elf/lib/libcompiler_builtins-1e32d751d3fb162c.rlib(compiler_builtins-1e32d751d3fb162c.compiler_builtins.864c03ce-cgu.106.rcgu.o):(.debug_pubnames)
    f1cb     f1cb       e4     1         /Users/mabez/.rustup/toolchains/nightly-aarch64-apple-darwin/lib/rustlib/riscv32imac-unknown-none-elf/lib/libcompiler_builtins-1e32d751d3fb162c.rlib(compiler_builtins-1e32d751d3fb162c.compiler_builtins.864c03ce-cgu.11.rcgu.o):(.debug_pubnames)
    f2af     f2af      12a     1         /Users/mabez/.rustup/toolchains/nightly-aarch64-apple-darwin/lib/rustlib/riscv32imac-unknown-none-elf/lib/libcompiler_builtins-1e32d751d3fb162c.rlib(compiler_builtins-1e32d751d3fb162c.compiler_builtins.864c03ce-cgu.111.rcgu.o):(.debug_pubnames)
    f3d9     f3d9       f4     1         /Users/mabez/.rustup/toolchains/nightly-aarch64-apple-darwin/lib/rustlib/riscv32imac-unknown-none-elf/lib/libcompiler_builtins-1e32d751d3fb162c.rlib(compiler_builtins-1e32d751d3fb162c.compiler_builtins.864c03ce-cgu.2.rcgu.o):(.debug_pubnames)
    f4cd     f4cd      418     1         /Users/mabez/.rustup/toolchains/nightly-aarch64-apple-darwin/lib/rustlib/riscv32imac-unknown-none-elf/lib/libcompiler_builtins-1e32d751d3fb162c.rlib(compiler_builtins-1e32d751d3fb162c.compiler_builtins.864c03ce-cgu.20.rcgu.o):(.debug_pubnames)
    f8e5     f8e5       47     1         /Users/mabez/.rustup/toolchains/nightly-aarch64-apple-darwin/lib/rustlib/riscv32imac-unknown-none-elf/lib/libcompiler_builtins-1e32d751d3fb162c.rlib(compiler_builtins-1e32d751d3fb162c.compiler_builtins.864c03ce-cgu.21.rcgu.o):(.debug_pubnames)
    f92c     f92c       e5     1         /Users/mabez/.rustup/toolchains/nightly-aarch64-apple-darwin/lib/rustlib/riscv32imac-unknown-none-elf/lib/libcompiler_builtins-1e32d751d3fb162c.rlib(compiler_builtins-1e32d751d3fb162c.compiler_builtins.864c03ce-cgu.27.rcgu.o):(.debug_pubnames)
    fa11     fa11       47     1         /Users/mabez/.rustup/toolchains/nightly-aarch64-apple-darwin/lib/rustlib/riscv32imac-unknown-none-elf/lib/libcompiler_builtins-1e32d751d3fb162c.rlib(compiler_builtins-1e32d751d3fb162c.compiler_builtins.864c03ce-cgu.28.rcgu.o):(.debug_pubnames)
    fa58     fa58       f4     1         /Users/mabez/.rustup/toolchains/nightly-aarch64-apple-darwin/lib/rustlib/riscv32imac-unknown-none-elf/lib/libcompiler_builtins-1e32d751d3fb162c.rlib(compiler_builtins-1e32d751d3fb162c.compiler_builtins.864c03ce-cgu.69.rcgu.o):(.debug_pubnames)
    fb4c     fb4c      120     1         /Users/mabez/.rustup/toolchains/nightly-aarch64-apple-darwin/lib/rustlib/riscv32imac-unknown-none-elf/lib/libcompiler_builtins-1e32d751d3fb162c.rlib(compiler_builtins-1e32d751d3fb162c.compiler_builtins.864c03ce-cgu.7.rcgu.o):(.debug_pubnames)
    fc6c     fc6c       47     1         /Users/mabez/.rustup/toolchains/nightly-aarch64-apple-darwin/lib/rustlib/riscv32imac-unknown-none-elf/lib/libcompiler_builtins-1e32d751d3fb162c.rlib(compiler_builtins-1e32d751d3fb162c.compiler_builtins.864c03ce-cgu.70.rcgu.o):(.debug_pubnames)
    fcb3     fcb3       f4     1         /Users/mabez/.rustup/toolchains/nightly-aarch64-apple-darwin/lib/rustlib/riscv32imac-unknown-none-elf/lib/libcompiler_builtins-1e32d751d3fb162c.rlib(compiler_builtins-1e32d751d3fb162c.compiler_builtins.864c03ce-cgu.71.rcgu.o):(.debug_pubnames)
    fda7     fda7       ca     1         /Users/mabez/.rustup/toolchains/nightly-aarch64-apple-darwin/lib/rustlib/riscv32imac-unknown-none-elf/lib/libcompiler_builtins-1e32d751d3fb162c.rlib(compiler_builtins-1e32d751d3fb162c.compiler_builtins.864c03ce-cgu.79.rcgu.o):(.debug_pubnames)
    fe71     fe71      1b5     1         /Users/mabez/.rustup/toolchains/nightly-aarch64-apple-darwin/lib/rustlib/riscv32imac-unknown-none-elf/lib/libcompiler_builtins-1e32d751d3fb162c.rlib(compiler_builtins-1e32d751d3fb162c.compiler_builtins.864c03ce-cgu.8.rcgu.o):(.debug_pubnames)
   10026    10026      179     1         /Users/mabez/.rustup/toolchains/nightly-aarch64-apple-darwin/lib/rustlib/riscv32imac-unknown-none-elf/lib/libcompiler_builtins-1e32d751d3fb162c.rlib(compiler_builtins-1e32d751d3fb162c.compiler_builtins.864c03ce-cgu.82.rcgu.o):(.debug_pubnames)
   1019f    1019f       e5     1         /Users/mabez/.rustup/toolchains/nightly-aarch64-apple-darwin/lib/rustlib/riscv32imac-unknown-none-elf/lib/libcompiler_builtins-1e32d751d3fb162c.rlib(compiler_builtins-1e32d751d3fb162c.compiler_builtins.864c03ce-cgu.120.rcgu.o):(.debug_pubnames)
   10284    10284       ca     1         /Users/mabez/.rustup/toolchains/nightly-aarch64-apple-darwin/lib/rustlib/riscv32imac-unknown-none-elf/lib/libcompiler_builtins-1e32d751d3fb162c.rlib(compiler_builtins-1e32d751d3fb162c.compiler_builtins.864c03ce-cgu.92.rcgu.o):(.debug_pubnames)
       0        0     375a     1 .debug_pubtypes
       0        0       7d     1         /Users/mabez/Development/rust/embedded/experiments/esp32c3-experiments/target/riscv32imac-unknown-none-elf/debug/deps/esp32c3-5c92695bd7d79a0b.1167rr2z31gresnb.rcgu.o:(.debug_pubtypes)
      7d       7d      376     1         /Users/mabez/Development/rust/embedded/experiments/esp32c3-experiments/target/riscv32imac-unknown-none-elf/debug/deps/esp32c3-5c92695bd7d79a0b.17kfpczq76poenv8.rcgu.o:(.debug_pubtypes)
     3f3      3f3       98     1         /Users/mabez/Development/rust/embedded/experiments/esp32c3-experiments/target/riscv32imac-unknown-none-elf/debug/deps/esp32c3-5c92695bd7d79a0b.1iu2tfaecczf5k50.rcgu.o:(.debug_pubtypes)
     48b      48b      2ea     1         /Users/mabez/Development/rust/embedded/experiments/esp32c3-experiments/target/riscv32imac-unknown-none-elf/debug/deps/esp32c3-5c92695bd7d79a0b.2146etiuaoyugpgb.rcgu.o:(.debug_pubtypes)
     775      775      25f     1         /Users/mabez/Development/rust/embedded/experiments/esp32c3-experiments/target/riscv32imac-unknown-none-elf/debug/deps/esp32c3-5c92695bd7d79a0b.2bt420y5da8z26cy.rcgu.o:(.debug_pubtypes)
     9d4      9d4       c5     1         /Users/mabez/Development/rust/embedded/experiments/esp32c3-experiments/target/riscv32imac-unknown-none-elf/debug/deps/esp32c3-5c92695bd7d79a0b.2y0w5m30si0qvc1i.rcgu.o:(.debug_pubtypes)
     a99      a99       88     1         /Users/mabez/Development/rust/embedded/experiments/esp32c3-experiments/target/riscv32imac-unknown-none-elf/debug/deps/esp32c3-5c92695bd7d79a0b.36jwgnll5937lngu.rcgu.o:(.debug_pubtypes)
     b21      b21       4c     1         /Users/mabez/Development/rust/embedded/experiments/esp32c3-experiments/target/riscv32imac-unknown-none-elf/debug/deps/esp32c3-5c92695bd7d79a0b.46tzsed5680ekwya.rcgu.o:(.debug_pubtypes)
     b6d      b6d      281     1         /Users/mabez/Development/rust/embedded/experiments/esp32c3-experiments/target/riscv32imac-unknown-none-elf/debug/deps/esp32c3-5c92695bd7d79a0b.4d3o56o4s3rmpew1.rcgu.o:(.debug_pubtypes)
     dee      dee       ef     1         /Users/mabez/Development/rust/embedded/experiments/esp32c3-experiments/target/riscv32imac-unknown-none-elf/debug/deps/esp32c3-5c92695bd7d79a0b.4sieayjll78w32te.rcgu.o:(.debug_pubtypes)
     edd      edd       92     1         /Users/mabez/Development/rust/embedded/experiments/esp32c3-experiments/target/riscv32imac-unknown-none-elf/debug/deps/esp32c3-5c92695bd7d79a0b.57j3pmw6ctaj3l7m.rcgu.o:(.debug_pubtypes)
     f6f      f6f       69     1         /Users/mabez/Development/rust/embedded/experiments/esp32c3-experiments/target/riscv32imac-unknown-none-elf/debug/deps/esp32c3-5c92695bd7d79a0b.57vaia0p0nh7h46b.rcgu.o:(.debug_pubtypes)
     fd8      fd8       1c     1         /Users/mabez/Development/rust/embedded/experiments/esp32c3-experiments/target/riscv32imac-unknown-none-elf/debug/deps/esp32c3-5c92695bd7d79a0b.vifbgxjspdn3ixi.rcgu.o:(.debug_pubtypes)
     ff4      ff4      47b     1         /Users/mabez/Development/rust/embedded/experiments/esp32c3-experiments/target/riscv32imac-unknown-none-elf/debug/deps/esp32c3-5c92695bd7d79a0b.w0jfp97vxp3n0e0.rcgu.o:(.debug_pubtypes)
    146f     146f       ea     1         /Users/mabez/Development/rust/embedded/experiments/esp32c3-experiments/target/riscv32imac-unknown-none-elf/debug/deps/libesp32c3_lib-435c508db645f62b.rlib(esp32c3_lib-435c508db645f62b.enpltv37r0tja3s.rcgu.o):(.debug_pubtypes)
    1559     1559       4b     1         /Users/mabez/Development/rust/embedded/experiments/esp32c3-experiments/target/riscv32imac-unknown-none-elf/debug/deps/libesp32c3_lib-435c508db645f62b.rlib(esp32c3_lib-435c508db645f62b.4qunmpv8rlyr20lx.rcgu.o):(.debug_pubtypes)
    15a4     15a4       b5     1         /Users/mabez/Development/rust/embedded/experiments/esp32c3-experiments/target/riscv32imac-unknown-none-elf/debug/deps/libesp32c3_lib-435c508db645f62b.rlib(esp32c3_lib-435c508db645f62b.3xdn0a03wuv3lfvi.rcgu.o):(.debug_pubtypes)
    1659     1659       75     1         /Users/mabez/Development/rust/embedded/experiments/esp32c3-experiments/target/riscv32imac-unknown-none-elf/debug/deps/libesp32c3_lib-435c508db645f62b.rlib(esp32c3_lib-435c508db645f62b.10h0j41trqvefdik.rcgu.o):(.debug_pubtypes)
    16ce     16ce       30     1         /Users/mabez/Development/rust/embedded/experiments/esp32c3-experiments/target/riscv32imac-unknown-none-elf/debug/deps/libesp32c3_lib-435c508db645f62b.rlib(esp32c3_lib-435c508db645f62b.3ja21lwj0yew0pl1.rcgu.o):(.debug_pubtypes)
    16fe     16fe       43     1         /Users/mabez/Development/rust/embedded/experiments/esp32c3-experiments/target/riscv32imac-unknown-none-elf/debug/deps/libesp32c3_lib-435c508db645f62b.rlib(esp32c3_lib-435c508db645f62b.2vqs4zh0r4p5a1ya.rcgu.o):(.debug_pubtypes)
    1741     1741       2e     1         /Users/mabez/Development/rust/embedded/experiments/esp32c3-experiments/target/riscv32imac-unknown-none-elf/debug/deps/libesp32c3_lib-435c508db645f62b.rlib(esp32c3_lib-435c508db645f62b.2wzydu5xsvwfbdws.rcgu.o):(.debug_pubtypes)
    176f     176f      208     1         /Users/mabez/Development/rust/embedded/experiments/esp32c3-experiments/target/riscv32imac-unknown-none-elf/debug/deps/libriscv_atomic_emulation_trap-9111affe446510c3.rlib(riscv_atomic_emulation_trap-9111affe446510c3.3mjkh8i7otdbof7e.rcgu.o):(.debug_pubtypes)
    1977     1977       40     1         /Users/mabez/Development/rust/embedded/experiments/esp32c3-experiments/target/riscv32imac-unknown-none-elf/debug/deps/libriscv_atomic_emulation_trap-9111affe446510c3.rlib(riscv_atomic_emulation_trap-9111affe446510c3.47nrs7arfzyngfvl.rcgu.o):(.debug_pubtypes)
    19b7     19b7      21e     1         /Users/mabez/Development/rust/embedded/experiments/esp32c3-experiments/target/riscv32imac-unknown-none-elf/debug/deps/libriscv_atomic_emulation_trap-9111affe446510c3.rlib(riscv_atomic_emulation_trap-9111affe446510c3.7puluphka9w3g90.rcgu.o):(.debug_pubtypes)
    1bd5     1bd5       1c     1         /Users/mabez/Development/rust/embedded/experiments/esp32c3-experiments/target/riscv32imac-unknown-none-elf/debug/deps/libriscv_atomic_emulation_trap-9111affe446510c3.rlib(riscv_atomic_emulation_trap-9111affe446510c3.29cdtova41s09pd8.rcgu.o):(.debug_pubtypes)
    1bf1     1bf1      242     1         /Users/mabez/Development/rust/embedded/experiments/esp32c3-experiments/target/riscv32imac-unknown-none-elf/debug/deps/libriscv_atomic_emulation_trap-9111affe446510c3.rlib(riscv_atomic_emulation_trap-9111affe446510c3.411zpn36fj0rdh69.rcgu.o):(.debug_pubtypes)
    1e33     1e33      281     1         /Users/mabez/Development/rust/embedded/experiments/esp32c3-experiments/target/riscv32imac-unknown-none-elf/debug/deps/libriscv_atomic_emulation_trap-9111affe446510c3.rlib(riscv_atomic_emulation_trap-9111affe446510c3.4em3hgrap6mo60l5.rcgu.o):(.debug_pubtypes)
    20b4     20b4       7d     1         /Users/mabez/Development/rust/embedded/experiments/esp32c3-experiments/target/riscv32imac-unknown-none-elf/debug/deps/libriscv_atomic_emulation_trap-9111affe446510c3.rlib(riscv_atomic_emulation_trap-9111affe446510c3.1ainjqznfmasr5um.rcgu.o):(.debug_pubtypes)
    2131     2131       4c     1         /Users/mabez/Development/rust/embedded/experiments/esp32c3-experiments/target/riscv32imac-unknown-none-elf/debug/deps/libriscv_atomic_emulation_trap-9111affe446510c3.rlib(riscv_atomic_emulation_trap-9111affe446510c3.1e14zek980l7c5wd.rcgu.o):(.debug_pubtypes)
    217d     217d       3c     1         /Users/mabez/Development/rust/embedded/experiments/esp32c3-experiments/target/riscv32imac-unknown-none-elf/debug/deps/libriscv_atomic_emulation_trap-9111affe446510c3.rlib(riscv_atomic_emulation_trap-9111affe446510c3.3jxb2alfotone25d.rcgu.o):(.debug_pubtypes)
    21b9     21b9      177     1         /Users/mabez/Development/rust/embedded/experiments/esp32c3-experiments/target/riscv32imac-unknown-none-elf/debug/deps/libriscv_rt-792395b706c7e295.rlib(riscv_rt-792395b706c7e295.n23zmh27zi56vj2.rcgu.o):(.debug_pubtypes)
    2330     2330       40     1         /Users/mabez/Development/rust/embedded/experiments/esp32c3-experiments/target/riscv32imac-unknown-none-elf/debug/deps/libriscv_rt-792395b706c7e295.rlib(riscv_rt-792395b706c7e295.2si3iiyx4w55gh9p.rcgu.o):(.debug_pubtypes)
    2370     2370       6a     1         /Users/mabez/Development/rust/embedded/experiments/esp32c3-experiments/target/riscv32imac-unknown-none-elf/debug/deps/libriscv_rt-792395b706c7e295.rlib(riscv_rt-792395b706c7e295.nu58l7xx5z184oa.rcgu.o):(.debug_pubtypes)
    23da     23da       38     1         /Users/mabez/Development/rust/embedded/experiments/esp32c3-experiments/target/riscv32imac-unknown-none-elf/debug/deps/libriscv_rt-792395b706c7e295.rlib(riscv_rt-792395b706c7e295.40ecbdq24jylbsk0.rcgu.o):(.debug_pubtypes)
    2412     2412       68     1         /Users/mabez/Development/rust/embedded/experiments/esp32c3-experiments/target/riscv32imac-unknown-none-elf/debug/deps/libriscv_rt-792395b706c7e295.rlib(riscv_rt-792395b706c7e295.4l8nnv0gz5uboi7y.rcgu.o):(.debug_pubtypes)
    247a     247a       3c     1         /Users/mabez/Development/rust/embedded/experiments/esp32c3-experiments/target/riscv32imac-unknown-none-elf/debug/deps/libriscv_rt-792395b706c7e295.rlib(riscv_rt-792395b706c7e295.a1pdmtq419pk4l9.rcgu.o):(.debug_pubtypes)
    24b6     24b6      1af     1         /Users/mabez/Development/rust/embedded/experiments/esp32c3-experiments/target/riscv32imac-unknown-none-elf/debug/deps/libriscv-58bee4c49f9f92ec.rlib(riscv-58bee4c49f9f92ec.riscv.8be94b29-cgu.0.rcgu.o):(.debug_pubtypes)
    2665     2665      1f8     1         /Users/mabez/Development/rust/embedded/experiments/esp32c3-experiments/target/riscv32imac-unknown-none-elf/debug/deps/libriscv-58bee4c49f9f92ec.rlib(riscv-58bee4c49f9f92ec.riscv.8be94b29-cgu.9.rcgu.o):(.debug_pubtypes)
    285d     285d       ce     1         /Users/mabez/Development/rust/embedded/experiments/esp32c3-experiments/target/riscv32imac-unknown-none-elf/debug/deps/libriscv-58bee4c49f9f92ec.rlib(riscv-58bee4c49f9f92ec.riscv.8be94b29-cgu.4.rcgu.o):(.debug_pubtypes)
    292b     292b       1c     1         /Users/mabez/Development/rust/embedded/experiments/esp32c3-experiments/target/riscv32imac-unknown-none-elf/debug/deps/libriscv_rt-792395b706c7e295.rlib(riscv_rt-792395b706c7e295.2fig4fon7wqsswts.rcgu.o):(.debug_pubtypes)
    2947     2947       12     1         /Users/mabez/Development/rust/embedded/experiments/esp32c3-experiments/target/riscv32imac-unknown-none-elf/debug/deps/libriscv_rt-792395b706c7e295.rlib(riscv_rt-792395b706c7e295.53lukflzfjg86k6f.rcgu.o):(.debug_pubtypes)
    2959     2959       37     1         /Users/mabez/Development/rust/embedded/experiments/esp32c3-experiments/target/riscv32imac-unknown-none-elf/debug/deps/libriscv_rt-792395b706c7e295.rlib(riscv_rt-792395b706c7e295.2h85xx65g8aqsgk3.rcgu.o):(.debug_pubtypes)
    2990     2990       b5     1         /Users/mabez/Development/rust/embedded/experiments/esp32c3-experiments/target/riscv32imac-unknown-none-elf/debug/deps/libriscv_atomic_emulation_trap-9111affe446510c3.rlib(riscv_atomic_emulation_trap-9111affe446510c3.473ch88oilsz6zg3.rcgu.o):(.debug_pubtypes)
    2a45     2a45       30     1         /Users/mabez/Development/rust/embedded/experiments/esp32c3-experiments/target/riscv32imac-unknown-none-elf/debug/deps/libriscv_atomic_emulation_trap-9111affe446510c3.rlib(riscv_atomic_emulation_trap-9111affe446510c3.1x01haq1ilk8wjw8.rcgu.o):(.debug_pubtypes)
    2a75     2a75       43     1         /Users/mabez/Development/rust/embedded/experiments/esp32c3-experiments/target/riscv32imac-unknown-none-elf/debug/deps/libriscv_atomic_emulation_trap-9111affe446510c3.rlib(riscv_atomic_emulation_trap-9111affe446510c3.3eam8rvf5fviumdo.rcgu.o):(.debug_pubtypes)
    2ab8     2ab8       60     1         /Users/mabez/Development/rust/embedded/experiments/esp32c3-experiments/target/riscv32imac-unknown-none-elf/debug/deps/libriscv_atomic_emulation_trap-9111affe446510c3.rlib(riscv_atomic_emulation_trap-9111affe446510c3.92c3mso3f7tifm.rcgu.o):(.debug_pubtypes)
    2b18     2b18       95     1         /Users/mabez/Development/rust/embedded/experiments/esp32c3-experiments/target/riscv32imac-unknown-none-elf/debug/deps/libriscv_atomic_emulation_trap-9111affe446510c3.rlib(riscv_atomic_emulation_trap-9111affe446510c3.1ujfldlpaqv6u59a.rcgu.o):(.debug_pubtypes)
    2bad     2bad       7c     1         /Users/mabez/Development/rust/embedded/experiments/esp32c3-experiments/target/riscv32imac-unknown-none-elf/debug/deps/libriscv_atomic_emulation_trap-9111affe446510c3.rlib(riscv_atomic_emulation_trap-9111affe446510c3.5dmrm1faws2v64w9.rcgu.o):(.debug_pubtypes)
    2c29     2c29       74     1         /Users/mabez/Development/rust/embedded/experiments/esp32c3-experiments/target/riscv32imac-unknown-none-elf/debug/deps/libriscv_atomic_emulation_trap-9111affe446510c3.rlib(riscv_atomic_emulation_trap-9111affe446510c3.32s2sfn2d8x0z4vp.rcgu.o):(.debug_pubtypes)
    2c9d     2c9d       61     1         /Users/mabez/Development/rust/embedded/experiments/esp32c3-experiments/target/riscv32imac-unknown-none-elf/debug/deps/libriscv_atomic_emulation_trap-9111affe446510c3.rlib(riscv_atomic_emulation_trap-9111affe446510c3.iorsoyj01ig67gw.rcgu.o):(.debug_pubtypes)
    2cfe     2cfe       2e     1         /Users/mabez/Development/rust/embedded/experiments/esp32c3-experiments/target/riscv32imac-unknown-none-elf/debug/deps/libriscv_atomic_emulation_trap-9111affe446510c3.rlib(riscv_atomic_emulation_trap-9111affe446510c3.koyzaehax49d9k4.rcgu.o):(.debug_pubtypes)
    2d2c     2d2c       4d     1         /Users/mabez/Development/rust/embedded/experiments/esp32c3-experiments/target/riscv32imac-unknown-none-elf/debug/deps/libriscv_atomic_emulation_trap-9111affe446510c3.rlib(riscv_atomic_emulation_trap-9111affe446510c3.r9quz5yo0c3c66a.rcgu.o):(.debug_pubtypes)
    2d79     2d79       75     1         /Users/mabez/Development/rust/embedded/experiments/esp32c3-experiments/target/riscv32imac-unknown-none-elf/debug/deps/libriscv_atomic_emulation_trap-9111affe446510c3.rlib(riscv_atomic_emulation_trap-9111affe446510c3.um9btop5pm89mqk.rcgu.o):(.debug_pubtypes)
    2dee     2dee      1af     1         /Users/mabez/Development/rust/embedded/experiments/esp32c3-experiments/target/riscv32imac-unknown-none-elf/debug/deps/libriscv-e6570dc03e37c02b.rlib(riscv-e6570dc03e37c02b.riscv.6a3f384f-cgu.0.rcgu.o):(.debug_pubtypes)
    2f9d     2f9d      207     1         /Users/mabez/Development/rust/embedded/experiments/esp32c3-experiments/target/riscv32imac-unknown-none-elf/debug/deps/libriscv-e6570dc03e37c02b.rlib(riscv-e6570dc03e37c02b.riscv.6a3f384f-cgu.10.rcgu.o):(.debug_pubtypes)
    31a4     31a4      161     1         /Users/mabez/Development/rust/embedded/experiments/esp32c3-experiments/target/riscv32imac-unknown-none-elf/debug/deps/libriscv-e6570dc03e37c02b.rlib(riscv-e6570dc03e37c02b.riscv.6a3f384f-cgu.11.rcgu.o):(.debug_pubtypes)
    3305     3305       ce     1         /Users/mabez/Development/rust/embedded/experiments/esp32c3-experiments/target/riscv32imac-unknown-none-elf/debug/deps/libriscv-e6570dc03e37c02b.rlib(riscv-e6570dc03e37c02b.riscv.6a3f384f-cgu.4.rcgu.o):(.debug_pubtypes)
    33d3     33d3      164     1         /Users/mabez/Development/rust/embedded/experiments/esp32c3-experiments/target/riscv32imac-unknown-none-elf/debug/deps/libriscv-e6570dc03e37c02b.rlib(riscv-e6570dc03e37c02b.riscv.6a3f384f-cgu.8.rcgu.o):(.debug_pubtypes)
    3537     3537       cd     1         /Users/mabez/Development/rust/embedded/experiments/esp32c3-experiments/target/riscv32imac-unknown-none-elf/debug/deps/libvoid-d8bfa8eb72c6fce6.rlib(void-d8bfa8eb72c6fce6.void.0c48974b-cgu.0.rcgu.o):(.debug_pubtypes)
    3604     3604       12     1         /Users/mabez/.rustup/toolchains/nightly-aarch64-apple-darwin/lib/rustlib/riscv32imac-unknown-none-elf/lib/libcore-081fd8405fc18f2e.rlib(core-081fd8405fc18f2e.core.756fe54c-cgu.0.rcgu.o):(.debug_pubtypes)
    3616     3616       12     1         /Users/mabez/.rustup/toolchains/nightly-aarch64-apple-darwin/lib/rustlib/riscv32imac-unknown-none-elf/lib/libcompiler_builtins-1e32d751d3fb162c.rlib(compiler_builtins-1e32d751d3fb162c.compiler_builtins.864c03ce-cgu.104.rcgu.o):(.debug_pubtypes)
    3628     3628       12     1         /Users/mabez/.rustup/toolchains/nightly-aarch64-apple-darwin/lib/rustlib/riscv32imac-unknown-none-elf/lib/libcompiler_builtins-1e32d751d3fb162c.rlib(compiler_builtins-1e32d751d3fb162c.compiler_builtins.864c03ce-cgu.106.rcgu.o):(.debug_pubtypes)
    363a     363a       12     1         /Users/mabez/.rustup/toolchains/nightly-aarch64-apple-darwin/lib/rustlib/riscv32imac-unknown-none-elf/lib/libcompiler_builtins-1e32d751d3fb162c.rlib(compiler_builtins-1e32d751d3fb162c.compiler_builtins.864c03ce-cgu.11.rcgu.o):(.debug_pubtypes)
    364c     364c       12     1         /Users/mabez/.rustup/toolchains/nightly-aarch64-apple-darwin/lib/rustlib/riscv32imac-unknown-none-elf/lib/libcompiler_builtins-1e32d751d3fb162c.rlib(compiler_builtins-1e32d751d3fb162c.compiler_builtins.864c03ce-cgu.111.rcgu.o):(.debug_pubtypes)
    365e     365e       12     1         /Users/mabez/.rustup/toolchains/nightly-aarch64-apple-darwin/lib/rustlib/riscv32imac-unknown-none-elf/lib/libcompiler_builtins-1e32d751d3fb162c.rlib(compiler_builtins-1e32d751d3fb162c.compiler_builtins.864c03ce-cgu.2.rcgu.o):(.debug_pubtypes)
    3670     3670       12     1         /Users/mabez/.rustup/toolchains/nightly-aarch64-apple-darwin/lib/rustlib/riscv32imac-unknown-none-elf/lib/libcompiler_builtins-1e32d751d3fb162c.rlib(compiler_builtins-1e32d751d3fb162c.compiler_builtins.864c03ce-cgu.20.rcgu.o):(.debug_pubtypes)
    3682     3682       12     1         /Users/mabez/.rustup/toolchains/nightly-aarch64-apple-darwin/lib/rustlib/riscv32imac-unknown-none-elf/lib/libcompiler_builtins-1e32d751d3fb162c.rlib(compiler_builtins-1e32d751d3fb162c.compiler_builtins.864c03ce-cgu.21.rcgu.o):(.debug_pubtypes)
    3694     3694       12     1         /Users/mabez/.rustup/toolchains/nightly-aarch64-apple-darwin/lib/rustlib/riscv32imac-unknown-none-elf/lib/libcompiler_builtins-1e32d751d3fb162c.rlib(compiler_builtins-1e32d751d3fb162c.compiler_builtins.864c03ce-cgu.27.rcgu.o):(.debug_pubtypes)
    36a6     36a6       12     1         /Users/mabez/.rustup/toolchains/nightly-aarch64-apple-darwin/lib/rustlib/riscv32imac-unknown-none-elf/lib/libcompiler_builtins-1e32d751d3fb162c.rlib(compiler_builtins-1e32d751d3fb162c.compiler_builtins.864c03ce-cgu.28.rcgu.o):(.debug_pubtypes)
    36b8     36b8       12     1         /Users/mabez/.rustup/toolchains/nightly-aarch64-apple-darwin/lib/rustlib/riscv32imac-unknown-none-elf/lib/libcompiler_builtins-1e32d751d3fb162c.rlib(compiler_builtins-1e32d751d3fb162c.compiler_builtins.864c03ce-cgu.69.rcgu.o):(.debug_pubtypes)
    36ca     36ca       12     1         /Users/mabez/.rustup/toolchains/nightly-aarch64-apple-darwin/lib/rustlib/riscv32imac-unknown-none-elf/lib/libcompiler_builtins-1e32d751d3fb162c.rlib(compiler_builtins-1e32d751d3fb162c.compiler_builtins.864c03ce-cgu.7.rcgu.o):(.debug_pubtypes)
    36dc     36dc       12     1         /Users/mabez/.rustup/toolchains/nightly-aarch64-apple-darwin/lib/rustlib/riscv32imac-unknown-none-elf/lib/libcompiler_builtins-1e32d751d3fb162c.rlib(compiler_builtins-1e32d751d3fb162c.compiler_builtins.864c03ce-cgu.70.rcgu.o):(.debug_pubtypes)
    36ee     36ee       12     1         /Users/mabez/.rustup/toolchains/nightly-aarch64-apple-darwin/lib/rustlib/riscv32imac-unknown-none-elf/lib/libcompiler_builtins-1e32d751d3fb162c.rlib(compiler_builtins-1e32d751d3fb162c.compiler_builtins.864c03ce-cgu.71.rcgu.o):(.debug_pubtypes)
    3700     3700       12     1         /Users/mabez/.rustup/toolchains/nightly-aarch64-apple-darwin/lib/rustlib/riscv32imac-unknown-none-elf/lib/libcompiler_builtins-1e32d751d3fb162c.rlib(compiler_builtins-1e32d751d3fb162c.compiler_builtins.864c03ce-cgu.79.rcgu.o):(.debug_pubtypes)
    3712     3712       12     1         /Users/mabez/.rustup/toolchains/nightly-aarch64-apple-darwin/lib/rustlib/riscv32imac-unknown-none-elf/lib/libcompiler_builtins-1e32d751d3fb162c.rlib(compiler_builtins-1e32d751d3fb162c.compiler_builtins.864c03ce-cgu.8.rcgu.o):(.debug_pubtypes)
    3724     3724       12     1         /Users/mabez/.rustup/toolchains/nightly-aarch64-apple-darwin/lib/rustlib/riscv32imac-unknown-none-elf/lib/libcompiler_builtins-1e32d751d3fb162c.rlib(compiler_builtins-1e32d751d3fb162c.compiler_builtins.864c03ce-cgu.82.rcgu.o):(.debug_pubtypes)
    3736     3736       12     1         /Users/mabez/.rustup/toolchains/nightly-aarch64-apple-darwin/lib/rustlib/riscv32imac-unknown-none-elf/lib/libcompiler_builtins-1e32d751d3fb162c.rlib(compiler_builtins-1e32d751d3fb162c.compiler_builtins.864c03ce-cgu.120.rcgu.o):(.debug_pubtypes)
    3748     3748       12     1         /Users/mabez/.rustup/toolchains/nightly-aarch64-apple-darwin/lib/rustlib/riscv32imac-unknown-none-elf/lib/libcompiler_builtins-1e32d751d3fb162c.rlib(compiler_builtins-1e32d751d3fb162c.compiler_builtins.864c03ce-cgu.92.rcgu.o):(.debug_pubtypes)
       0        0       2b     1 .riscv.attributes
       0        0       2b     1         /Users/mabez/Development/rust/embedded/experiments/esp32c3-experiments/target/riscv32imac-unknown-none-elf/debug/deps/esp32c3-5c92695bd7d79a0b.1167rr2z31gresnb.rcgu.o:(.riscv.attributes)
       0        0     14b8     4 .debug_frame
       0        0       58     4         /Users/mabez/Development/rust/embedded/experiments/esp32c3-experiments/target/riscv32imac-unknown-none-elf/debug/deps/esp32c3-5c92695bd7d79a0b.1167rr2z31gresnb.rcgu.o:(.debug_frame)
       0        0        0     1                 
      58       58       5c     4         /Users/mabez/Development/rust/embedded/experiments/esp32c3-experiments/target/riscv32imac-unknown-none-elf/debug/deps/esp32c3-5c92695bd7d79a0b.17kfpczq76poenv8.rcgu.o:(.debug_frame)
      58       58        0     1                 
      b4       b4       78     4         /Users/mabez/Development/rust/embedded/experiments/esp32c3-experiments/target/riscv32imac-unknown-none-elf/debug/deps/esp32c3-5c92695bd7d79a0b.1iu2tfaecczf5k50.rcgu.o:(.debug_frame)
      b4       b4        0     1                 
     12c      12c       2c     4         /Users/mabez/Development/rust/embedded/experiments/esp32c3-experiments/target/riscv32imac-unknown-none-elf/debug/deps/esp32c3-5c92695bd7d79a0b.2146etiuaoyugpgb.rcgu.o:(.debug_frame)
     12c      12c        0     1                 
     158      158       54     4         /Users/mabez/Development/rust/embedded/experiments/esp32c3-experiments/target/riscv32imac-unknown-none-elf/debug/deps/esp32c3-5c92695bd7d79a0b.2bt420y5da8z26cy.rcgu.o:(.debug_frame)
     158      158        0     1                 
     1ac      1ac       2c     4         /Users/mabez/Development/rust/embedded/experiments/esp32c3-experiments/target/riscv32imac-unknown-none-elf/debug/deps/esp32c3-5c92695bd7d79a0b.2y0w5m30si0qvc1i.rcgu.o:(.debug_frame)
     1ac      1ac        0     1                 
     1d8      1d8       40     4         /Users/mabez/Development/rust/embedded/experiments/esp32c3-experiments/target/riscv32imac-unknown-none-elf/debug/deps/esp32c3-5c92695bd7d79a0b.36jwgnll5937lngu.rcgu.o:(.debug_frame)
     1d8      1d8        0     1                 
     218      218       28     4         /Users/mabez/Development/rust/embedded/experiments/esp32c3-experiments/target/riscv32imac-unknown-none-elf/debug/deps/esp32c3-5c92695bd7d79a0b.46tzsed5680ekwya.rcgu.o:(.debug_frame)
     218      218        0     1                 
     240      240       8c     4         /Users/mabez/Development/rust/embedded/experiments/esp32c3-experiments/target/riscv32imac-unknown-none-elf/debug/deps/esp32c3-5c92695bd7d79a0b.4d3o56o4s3rmpew1.rcgu.o:(.debug_frame)
     240      240        0     1                 
     2cc      2cc       2c     4         /Users/mabez/Development/rust/embedded/experiments/esp32c3-experiments/target/riscv32imac-unknown-none-elf/debug/deps/esp32c3-5c92695bd7d79a0b.4sieayjll78w32te.rcgu.o:(.debug_frame)
     2cc      2cc        0     1                 
     2f8      2f8       64     4         /Users/mabez/Development/rust/embedded/experiments/esp32c3-experiments/target/riscv32imac-unknown-none-elf/debug/deps/esp32c3-5c92695bd7d79a0b.57j3pmw6ctaj3l7m.rcgu.o:(.debug_frame)
     2f8      2f8        0     1                 
     35c      35c       28     4         /Users/mabez/Development/rust/embedded/experiments/esp32c3-experiments/target/riscv32imac-unknown-none-elf/debug/deps/esp32c3-5c92695bd7d79a0b.57vaia0p0nh7h46b.rcgu.o:(.debug_frame)
     35c      35c        0     1                 
     384      384       74     4         /Users/mabez/Development/rust/embedded/experiments/esp32c3-experiments/target/riscv32imac-unknown-none-elf/debug/deps/esp32c3-5c92695bd7d79a0b.vifbgxjspdn3ixi.rcgu.o:(.debug_frame)
     384      384        0     1                 
     3f8      3f8       68     4         /Users/mabez/Development/rust/embedded/experiments/esp32c3-experiments/target/riscv32imac-unknown-none-elf/debug/deps/esp32c3-5c92695bd7d79a0b.w0jfp97vxp3n0e0.rcgu.o:(.debug_frame)
     3f8      3f8        0     1                 
     460      460       b8     4         /Users/mabez/Development/rust/embedded/experiments/esp32c3-experiments/target/riscv32imac-unknown-none-elf/debug/deps/libesp32c3_lib-435c508db645f62b.rlib(esp32c3_lib-435c508db645f62b.enpltv37r0tja3s.rcgu.o):(.debug_frame)
     460      460        0     1                 
     518      518       50     4         /Users/mabez/Development/rust/embedded/experiments/esp32c3-experiments/target/riscv32imac-unknown-none-elf/debug/deps/libesp32c3_lib-435c508db645f62b.rlib(esp32c3_lib-435c508db645f62b.4qunmpv8rlyr20lx.rcgu.o):(.debug_frame)
     518      518        0     1                 
     568      568       5c     4         /Users/mabez/Development/rust/embedded/experiments/esp32c3-experiments/target/riscv32imac-unknown-none-elf/debug/deps/libesp32c3_lib-435c508db645f62b.rlib(esp32c3_lib-435c508db645f62b.3xdn0a03wuv3lfvi.rcgu.o):(.debug_frame)
     568      568        0     1                 
     5c4      5c4       40     4         /Users/mabez/Development/rust/embedded/experiments/esp32c3-experiments/target/riscv32imac-unknown-none-elf/debug/deps/libesp32c3_lib-435c508db645f62b.rlib(esp32c3_lib-435c508db645f62b.10h0j41trqvefdik.rcgu.o):(.debug_frame)
     5c4      5c4        0     1                 
     604      604       40     4         /Users/mabez/Development/rust/embedded/experiments/esp32c3-experiments/target/riscv32imac-unknown-none-elf/debug/deps/libesp32c3_lib-435c508db645f62b.rlib(esp32c3_lib-435c508db645f62b.3ja21lwj0yew0pl1.rcgu.o):(.debug_frame)
     604      604        0     1                 
     644      644       3c     4         /Users/mabez/Development/rust/embedded/experiments/esp32c3-experiments/target/riscv32imac-unknown-none-elf/debug/deps/libesp32c3_lib-435c508db645f62b.rlib(esp32c3_lib-435c508db645f62b.2vqs4zh0r4p5a1ya.rcgu.o):(.debug_frame)
     644      644        0     1                 
     680      680       40     4         /Users/mabez/Development/rust/embedded/experiments/esp32c3-experiments/target/riscv32imac-unknown-none-elf/debug/deps/libesp32c3_lib-435c508db645f62b.rlib(esp32c3_lib-435c508db645f62b.2wzydu5xsvwfbdws.rcgu.o):(.debug_frame)
     680      680        0     1                 
     6c0      6c0       3c     4         /Users/mabez/Development/rust/embedded/experiments/esp32c3-experiments/target/riscv32imac-unknown-none-elf/debug/deps/libriscv_atomic_emulation_trap-9111affe446510c3.rlib(riscv_atomic_emulation_trap-9111affe446510c3.3mjkh8i7otdbof7e.rcgu.o):(.debug_frame)
     6c0      6c0        0     1                 
     6fc      6fc       28     4         /Users/mabez/Development/rust/embedded/experiments/esp32c3-experiments/target/riscv32imac-unknown-none-elf/debug/deps/libriscv_atomic_emulation_trap-9111affe446510c3.rlib(riscv_atomic_emulation_trap-9111affe446510c3.47nrs7arfzyngfvl.rcgu.o):(.debug_frame)
     6fc      6fc        0     1                 
     724      724       8c     4         /Users/mabez/Development/rust/embedded/experiments/esp32c3-experiments/target/riscv32imac-unknown-none-elf/debug/deps/libriscv_atomic_emulation_trap-9111affe446510c3.rlib(riscv_atomic_emulation_trap-9111affe446510c3.7puluphka9w3g90.rcgu.o):(.debug_frame)
     724      724        0     1                 
     7b0      7b0       44     4         /Users/mabez/Development/rust/embedded/experiments/esp32c3-experiments/target/riscv32imac-unknown-none-elf/debug/deps/libriscv_atomic_emulation_trap-9111affe446510c3.rlib(riscv_atomic_emulation_trap-9111affe446510c3.29cdtova41s09pd8.rcgu.o):(.debug_frame)
     7b0      7b0        0     1                 
     7f4      7f4       28     4         /Users/mabez/Development/rust/embedded/experiments/esp32c3-experiments/target/riscv32imac-unknown-none-elf/debug/deps/libriscv_atomic_emulation_trap-9111affe446510c3.rlib(riscv_atomic_emulation_trap-9111affe446510c3.411zpn36fj0rdh69.rcgu.o):(.debug_frame)
     7f4      7f4        0     1                 
     81c      81c       8c     4         /Users/mabez/Development/rust/embedded/experiments/esp32c3-experiments/target/riscv32imac-unknown-none-elf/debug/deps/libriscv_atomic_emulation_trap-9111affe446510c3.rlib(riscv_atomic_emulation_trap-9111affe446510c3.4em3hgrap6mo60l5.rcgu.o):(.debug_frame)
     81c      81c        0     1                 
     8a8      8a8       58     4         /Users/mabez/Development/rust/embedded/experiments/esp32c3-experiments/target/riscv32imac-unknown-none-elf/debug/deps/libriscv_atomic_emulation_trap-9111affe446510c3.rlib(riscv_atomic_emulation_trap-9111affe446510c3.1ainjqznfmasr5um.rcgu.o):(.debug_frame)
     8a8      8a8        0     1                 
     900      900       28     4         /Users/mabez/Development/rust/embedded/experiments/esp32c3-experiments/target/riscv32imac-unknown-none-elf/debug/deps/libriscv_atomic_emulation_trap-9111affe446510c3.rlib(riscv_atomic_emulation_trap-9111affe446510c3.1e14zek980l7c5wd.rcgu.o):(.debug_frame)
     900      900        0     1                 
     928      928       70     4         /Users/mabez/Development/rust/embedded/experiments/esp32c3-experiments/target/riscv32imac-unknown-none-elf/debug/deps/libriscv_atomic_emulation_trap-9111affe446510c3.rlib(riscv_atomic_emulation_trap-9111affe446510c3.3jxb2alfotone25d.rcgu.o):(.debug_frame)
     928      928        0     1                 
     998      998       a8     4         /Users/mabez/Development/rust/embedded/experiments/esp32c3-experiments/target/riscv32imac-unknown-none-elf/debug/deps/libriscv_rt-792395b706c7e295.rlib(riscv_rt-792395b706c7e295.n23zmh27zi56vj2.rcgu.o):(.debug_frame)
     998      998        0     1                 
     a40      a40       44     4         /Users/mabez/Development/rust/embedded/experiments/esp32c3-experiments/target/riscv32imac-unknown-none-elf/debug/deps/libriscv_rt-792395b706c7e295.rlib(riscv_rt-792395b706c7e295.2si3iiyx4w55gh9p.rcgu.o):(.debug_frame)
     a40      a40        0     1                 
     a84      a84       2c     4         /Users/mabez/Development/rust/embedded/experiments/esp32c3-experiments/target/riscv32imac-unknown-none-elf/debug/deps/libriscv_rt-792395b706c7e295.rlib(riscv_rt-792395b706c7e295.nu58l7xx5z184oa.rcgu.o):(.debug_frame)
     a84      a84        0     1                 
     ab0      ab0       2c     4         /Users/mabez/Development/rust/embedded/experiments/esp32c3-experiments/target/riscv32imac-unknown-none-elf/debug/deps/libriscv_rt-792395b706c7e295.rlib(riscv_rt-792395b706c7e295.40ecbdq24jylbsk0.rcgu.o):(.debug_frame)
     ab0      ab0        0     1                 
     adc      adc       50     4         /Users/mabez/Development/rust/embedded/experiments/esp32c3-experiments/target/riscv32imac-unknown-none-elf/debug/deps/libriscv_rt-792395b706c7e295.rlib(riscv_rt-792395b706c7e295.4l8nnv0gz5uboi7y.rcgu.o):(.debug_frame)
     adc      adc        0     1                 
     b2c      b2c       70     4         /Users/mabez/Development/rust/embedded/experiments/esp32c3-experiments/target/riscv32imac-unknown-none-elf/debug/deps/libriscv_rt-792395b706c7e295.rlib(riscv_rt-792395b706c7e295.a1pdmtq419pk4l9.rcgu.o):(.debug_frame)
     b2c      b2c        0     1                 
     b9c      b9c       e0     4         /Users/mabez/Development/rust/embedded/experiments/esp32c3-experiments/target/riscv32imac-unknown-none-elf/debug/deps/libriscv-58bee4c49f9f92ec.rlib(riscv-58bee4c49f9f92ec.riscv.8be94b29-cgu.0.rcgu.o):(.debug_frame)
     b9c      b9c        0     1                 
     c7c      c7c       e8     4         /Users/mabez/Development/rust/embedded/experiments/esp32c3-experiments/target/riscv32imac-unknown-none-elf/debug/deps/libriscv-58bee4c49f9f92ec.rlib(riscv-58bee4c49f9f92ec.riscv.8be94b29-cgu.9.rcgu.o):(.debug_frame)
     c7c      c7c        0     1                 
     d64      d64       44     4         /Users/mabez/Development/rust/embedded/experiments/esp32c3-experiments/target/riscv32imac-unknown-none-elf/debug/deps/libriscv-58bee4c49f9f92ec.rlib(riscv-58bee4c49f9f92ec.riscv.8be94b29-cgu.4.rcgu.o):(.debug_frame)
     d64      d64        0     1                 
     da8      da8       44     4         /Users/mabez/Development/rust/embedded/experiments/esp32c3-experiments/target/riscv32imac-unknown-none-elf/debug/deps/libriscv_rt-792395b706c7e295.rlib(riscv_rt-792395b706c7e295.2fig4fon7wqsswts.rcgu.o):(.debug_frame)
     da8      da8        0     1                 
     dec      dec       2c     4         /Users/mabez/Development/rust/embedded/experiments/esp32c3-experiments/target/riscv32imac-unknown-none-elf/debug/deps/libriscv_rt-792395b706c7e295.rlib(riscv_rt-792395b706c7e295.53lukflzfjg86k6f.rcgu.o):(.debug_frame)
     dec      dec        0     1                 
     e18      e18       28     4         /Users/mabez/Development/rust/embedded/experiments/esp32c3-experiments/target/riscv32imac-unknown-none-elf/debug/deps/libriscv_rt-792395b706c7e295.rlib(riscv_rt-792395b706c7e295.2h85xx65g8aqsgk3.rcgu.o):(.debug_frame)
     e18      e18        0     1                 
     e40      e40       5c     4         /Users/mabez/Development/rust/embedded/experiments/esp32c3-experiments/target/riscv32imac-unknown-none-elf/debug/deps/libriscv_atomic_emulation_trap-9111affe446510c3.rlib(riscv_atomic_emulation_trap-9111affe446510c3.473ch88oilsz6zg3.rcgu.o):(.debug_frame)
     e40      e40        0     1                 
     e9c      e9c       40     4         /Users/mabez/Development/rust/embedded/experiments/esp32c3-experiments/target/riscv32imac-unknown-none-elf/debug/deps/libriscv_atomic_emulation_trap-9111affe446510c3.rlib(riscv_atomic_emulation_trap-9111affe446510c3.1x01haq1ilk8wjw8.rcgu.o):(.debug_frame)
     e9c      e9c        0     1                 
     edc      edc       3c     4         /Users/mabez/Development/rust/embedded/experiments/esp32c3-experiments/target/riscv32imac-unknown-none-elf/debug/deps/libriscv_atomic_emulation_trap-9111affe446510c3.rlib(riscv_atomic_emulation_trap-9111affe446510c3.3eam8rvf5fviumdo.rcgu.o):(.debug_frame)
     edc      edc        0     1                 
     f18      f18       44     4         /Users/mabez/Development/rust/embedded/experiments/esp32c3-experiments/target/riscv32imac-unknown-none-elf/debug/deps/libriscv_atomic_emulation_trap-9111affe446510c3.rlib(riscv_atomic_emulation_trap-9111affe446510c3.92c3mso3f7tifm.rcgu.o):(.debug_frame)
     f18      f18        0     1                 
     f5c      f5c       70     4         /Users/mabez/Development/rust/embedded/experiments/esp32c3-experiments/target/riscv32imac-unknown-none-elf/debug/deps/libriscv_atomic_emulation_trap-9111affe446510c3.rlib(riscv_atomic_emulation_trap-9111affe446510c3.1ujfldlpaqv6u59a.rcgu.o):(.debug_frame)
     f5c      f5c        0     1                 
     fcc      fcc       44     4         /Users/mabez/Development/rust/embedded/experiments/esp32c3-experiments/target/riscv32imac-unknown-none-elf/debug/deps/libriscv_atomic_emulation_trap-9111affe446510c3.rlib(riscv_atomic_emulation_trap-9111affe446510c3.5dmrm1faws2v64w9.rcgu.o):(.debug_frame)
     fcc      fcc        0     1                 
    1010     1010       3c     4         /Users/mabez/Development/rust/embedded/experiments/esp32c3-experiments/target/riscv32imac-unknown-none-elf/debug/deps/libriscv_atomic_emulation_trap-9111affe446510c3.rlib(riscv_atomic_emulation_trap-9111affe446510c3.32s2sfn2d8x0z4vp.rcgu.o):(.debug_frame)
    1010     1010        0     1                 
    104c     104c       3c     4         /Users/mabez/Development/rust/embedded/experiments/esp32c3-experiments/target/riscv32imac-unknown-none-elf/debug/deps/libriscv_atomic_emulation_trap-9111affe446510c3.rlib(riscv_atomic_emulation_trap-9111affe446510c3.iorsoyj01ig67gw.rcgu.o):(.debug_frame)
    104c     104c        0     1                 
    1088     1088       40     4         /Users/mabez/Development/rust/embedded/experiments/esp32c3-experiments/target/riscv32imac-unknown-none-elf/debug/deps/libriscv_atomic_emulation_trap-9111affe446510c3.rlib(riscv_atomic_emulation_trap-9111affe446510c3.koyzaehax49d9k4.rcgu.o):(.debug_frame)
    1088     1088        0     1                 
    10c8     10c8       40     4         /Users/mabez/Development/rust/embedded/experiments/esp32c3-experiments/target/riscv32imac-unknown-none-elf/debug/deps/libriscv_atomic_emulation_trap-9111affe446510c3.rlib(riscv_atomic_emulation_trap-9111affe446510c3.r9quz5yo0c3c66a.rcgu.o):(.debug_frame)
    10c8     10c8        0     1                 
    1108     1108       40     4         /Users/mabez/Development/rust/embedded/experiments/esp32c3-experiments/target/riscv32imac-unknown-none-elf/debug/deps/libriscv_atomic_emulation_trap-9111affe446510c3.rlib(riscv_atomic_emulation_trap-9111affe446510c3.um9btop5pm89mqk.rcgu.o):(.debug_frame)
    1108     1108        0     1                 
    1148     1148       e0     4         /Users/mabez/Development/rust/embedded/experiments/esp32c3-experiments/target/riscv32imac-unknown-none-elf/debug/deps/libriscv-e6570dc03e37c02b.rlib(riscv-e6570dc03e37c02b.riscv.6a3f384f-cgu.0.rcgu.o):(.debug_frame)
    1148     1148        0     1                 
    1228     1228      100     4         /Users/mabez/Development/rust/embedded/experiments/esp32c3-experiments/target/riscv32imac-unknown-none-elf/debug/deps/libriscv-e6570dc03e37c02b.rlib(riscv-e6570dc03e37c02b.riscv.6a3f384f-cgu.10.rcgu.o):(.debug_frame)
    1228     1228        0     1                 
    1328     1328       74     4         /Users/mabez/Development/rust/embedded/experiments/esp32c3-experiments/target/riscv32imac-unknown-none-elf/debug/deps/libriscv-e6570dc03e37c02b.rlib(riscv-e6570dc03e37c02b.riscv.6a3f384f-cgu.11.rcgu.o):(.debug_frame)
    1328     1328        0     1                 
    139c     139c       44     4         /Users/mabez/Development/rust/embedded/experiments/esp32c3-experiments/target/riscv32imac-unknown-none-elf/debug/deps/libriscv-e6570dc03e37c02b.rlib(riscv-e6570dc03e37c02b.riscv.6a3f384f-cgu.4.rcgu.o):(.debug_frame)
    139c     139c        0     1                 
    13e0     13e0       88     4         /Users/mabez/Development/rust/embedded/experiments/esp32c3-experiments/target/riscv32imac-unknown-none-elf/debug/deps/libriscv-e6570dc03e37c02b.rlib(riscv-e6570dc03e37c02b.riscv.6a3f384f-cgu.8.rcgu.o):(.debug_frame)
    13e0     13e0        0     1                 
    1468     1468       50     4         /Users/mabez/Development/rust/embedded/experiments/esp32c3-experiments/target/riscv32imac-unknown-none-elf/debug/deps/libvoid-d8bfa8eb72c6fce6.rlib(void-d8bfa8eb72c6fce6.void.0c48974b-cgu.0.rcgu.o):(.debug_frame)
    1468     1468        0     1                 
       0        0    31394     1 .debug_line
       0        0      381     1         /Users/mabez/Development/rust/embedded/experiments/esp32c3-experiments/target/riscv32imac-unknown-none-elf/debug/deps/esp32c3-5c92695bd7d79a0b.1167rr2z31gresnb.rcgu.o:(.debug_line)
       0        0        0     1                 .Lline_table_start0
     381      381      2f5     1         /Users/mabez/Development/rust/embedded/experiments/esp32c3-experiments/target/riscv32imac-unknown-none-elf/debug/deps/esp32c3-5c92695bd7d79a0b.17kfpczq76poenv8.rcgu.o:(.debug_line)
     381      381        0     1                 .Lline_table_start0
     676      676       ef     1         /Users/mabez/Development/rust/embedded/experiments/esp32c3-experiments/target/riscv32imac-unknown-none-elf/debug/deps/esp32c3-5c92695bd7d79a0b.1iu2tfaecczf5k50.rcgu.o:(.debug_line)
     676      676        0     1                 .Lline_table_start0
     765      765       98     1         /Users/mabez/Development/rust/embedded/experiments/esp32c3-experiments/target/riscv32imac-unknown-none-elf/debug/deps/esp32c3-5c92695bd7d79a0b.2146etiuaoyugpgb.rcgu.o:(.debug_line)
     765      765        0     1                 .Lline_table_start0
     7fd      7fd      127     1         /Users/mabez/Development/rust/embedded/experiments/esp32c3-experiments/target/riscv32imac-unknown-none-elf/debug/deps/esp32c3-5c92695bd7d79a0b.2bt420y5da8z26cy.rcgu.o:(.debug_line)
     7fd      7fd        0     1                 .Lline_table_start0
     924      924       ef     1         /Users/mabez/Development/rust/embedded/experiments/esp32c3-experiments/target/riscv32imac-unknown-none-elf/debug/deps/esp32c3-5c92695bd7d79a0b.2y0w5m30si0qvc1i.rcgu.o:(.debug_line)
     924      924        0     1                 .Lline_table_start0
     a13      a13      123     1         /Users/mabez/Development/rust/embedded/experiments/esp32c3-experiments/target/riscv32imac-unknown-none-elf/debug/deps/esp32c3-5c92695bd7d79a0b.36jwgnll5937lngu.rcgu.o:(.debug_line)
     a13      a13        0     1                 .Lline_table_start0
     b36      b36       8c     1         /Users/mabez/Development/rust/embedded/experiments/esp32c3-experiments/target/riscv32imac-unknown-none-elf/debug/deps/esp32c3-5c92695bd7d79a0b.46tzsed5680ekwya.rcgu.o:(.debug_line)
     b36      b36        0     1                 .Lline_table_start0
     bc2      bc2      153     1         /Users/mabez/Development/rust/embedded/experiments/esp32c3-experiments/target/riscv32imac-unknown-none-elf/debug/deps/esp32c3-5c92695bd7d79a0b.4d3o56o4s3rmpew1.rcgu.o:(.debug_line)
     bc2      bc2        0     1                 .Lline_table_start0
     d15      d15       98     1         /Users/mabez/Development/rust/embedded/experiments/esp32c3-experiments/target/riscv32imac-unknown-none-elf/debug/deps/esp32c3-5c92695bd7d79a0b.4sieayjll78w32te.rcgu.o:(.debug_line)
     d15      d15        0     1                 .Lline_table_start0
     dad      dad      14d     1         /Users/mabez/Development/rust/embedded/experiments/esp32c3-experiments/target/riscv32imac-unknown-none-elf/debug/deps/esp32c3-5c92695bd7d79a0b.57j3pmw6ctaj3l7m.rcgu.o:(.debug_line)
     dad      dad        0     1                 .Lline_table_start0
     efa      efa      231     1         /Users/mabez/Development/rust/embedded/experiments/esp32c3-experiments/target/riscv32imac-unknown-none-elf/debug/deps/esp32c3-5c92695bd7d79a0b.57vaia0p0nh7h46b.rcgu.o:(.debug_line)
     efa      efa        0     1                 .Lline_table_start0
    112b     112b      106     1         /Users/mabez/Development/rust/embedded/experiments/esp32c3-experiments/target/riscv32imac-unknown-none-elf/debug/deps/esp32c3-5c92695bd7d79a0b.vifbgxjspdn3ixi.rcgu.o:(.debug_line)
    112b     112b        0     1                 .Lline_table_start0
    1231     1231      134     1         /Users/mabez/Development/rust/embedded/experiments/esp32c3-experiments/target/riscv32imac-unknown-none-elf/debug/deps/esp32c3-5c92695bd7d79a0b.w0jfp97vxp3n0e0.rcgu.o:(.debug_line)
    1231     1231        0     1                 .Lline_table_start0
    1365     1365      344     1         /Users/mabez/Development/rust/embedded/experiments/esp32c3-experiments/target/riscv32imac-unknown-none-elf/debug/deps/libesp32c3_lib-435c508db645f62b.rlib(esp32c3_lib-435c508db645f62b.enpltv37r0tja3s.rcgu.o):(.debug_line)
    1365     1365        0     1                 .Lline_table_start0
    16a9     16a9       d3     1         /Users/mabez/Development/rust/embedded/experiments/esp32c3-experiments/target/riscv32imac-unknown-none-elf/debug/deps/libesp32c3_lib-435c508db645f62b.rlib(esp32c3_lib-435c508db645f62b.4qunmpv8rlyr20lx.rcgu.o):(.debug_line)
    16a9     16a9        0     1                 .Lline_table_start0
    177c     177c      2e9     1         /Users/mabez/Development/rust/embedded/experiments/esp32c3-experiments/target/riscv32imac-unknown-none-elf/debug/deps/libesp32c3_lib-435c508db645f62b.rlib(esp32c3_lib-435c508db645f62b.3xdn0a03wuv3lfvi.rcgu.o):(.debug_line)
    177c     177c        0     1                 .Lline_table_start0
    1a65     1a65       ab     1         /Users/mabez/Development/rust/embedded/experiments/esp32c3-experiments/target/riscv32imac-unknown-none-elf/debug/deps/libesp32c3_lib-435c508db645f62b.rlib(esp32c3_lib-435c508db645f62b.10h0j41trqvefdik.rcgu.o):(.debug_line)
    1a65     1a65        0     1                 .Lline_table_start0
    1b10     1b10       c0     1         /Users/mabez/Development/rust/embedded/experiments/esp32c3-experiments/target/riscv32imac-unknown-none-elf/debug/deps/libesp32c3_lib-435c508db645f62b.rlib(esp32c3_lib-435c508db645f62b.3ja21lwj0yew0pl1.rcgu.o):(.debug_line)
    1b10     1b10        0     1                 .Lline_table_start0
    1bd0     1bd0       ae     1         /Users/mabez/Development/rust/embedded/experiments/esp32c3-experiments/target/riscv32imac-unknown-none-elf/debug/deps/libesp32c3_lib-435c508db645f62b.rlib(esp32c3_lib-435c508db645f62b.2vqs4zh0r4p5a1ya.rcgu.o):(.debug_line)
    1bd0     1bd0        0     1                 .Lline_table_start0
    1c7e     1c7e       be     1         /Users/mabez/Development/rust/embedded/experiments/esp32c3-experiments/target/riscv32imac-unknown-none-elf/debug/deps/libesp32c3_lib-435c508db645f62b.rlib(esp32c3_lib-435c508db645f62b.2wzydu5xsvwfbdws.rcgu.o):(.debug_line)
    1c7e     1c7e        0     1                 .Lline_table_start0
    1d3c     1d3c       d5     1         /Users/mabez/Development/rust/embedded/experiments/esp32c3-experiments/target/riscv32imac-unknown-none-elf/debug/deps/libriscv_atomic_emulation_trap-9111affe446510c3.rlib(riscv_atomic_emulation_trap-9111affe446510c3.3mjkh8i7otdbof7e.rcgu.o):(.debug_line)
    1d3c     1d3c        0     1                 .Lline_table_start0
    1e11     1e11       d3     1         /Users/mabez/Development/rust/embedded/experiments/esp32c3-experiments/target/riscv32imac-unknown-none-elf/debug/deps/libriscv_atomic_emulation_trap-9111affe446510c3.rlib(riscv_atomic_emulation_trap-9111affe446510c3.47nrs7arfzyngfvl.rcgu.o):(.debug_line)
    1e11     1e11        0     1                 .Lline_table_start0
    1ee4     1ee4      845     1         /Users/mabez/Development/rust/embedded/experiments/esp32c3-experiments/target/riscv32imac-unknown-none-elf/debug/deps/libriscv_atomic_emulation_trap-9111affe446510c3.rlib(riscv_atomic_emulation_trap-9111affe446510c3.7puluphka9w3g90.rcgu.o):(.debug_line)
    1ee4     1ee4        0     1                 .Lline_table_start0
    2729     2729       c2     1         /Users/mabez/Development/rust/embedded/experiments/esp32c3-experiments/target/riscv32imac-unknown-none-elf/debug/deps/libriscv_atomic_emulation_trap-9111affe446510c3.rlib(riscv_atomic_emulation_trap-9111affe446510c3.29cdtova41s09pd8.rcgu.o):(.debug_line)
    2729     2729        0     1                 .Lline_table_start0
    27eb     27eb       d9     1         /Users/mabez/Development/rust/embedded/experiments/esp32c3-experiments/target/riscv32imac-unknown-none-elf/debug/deps/libriscv_atomic_emulation_trap-9111affe446510c3.rlib(riscv_atomic_emulation_trap-9111affe446510c3.411zpn36fj0rdh69.rcgu.o):(.debug_line)
    27eb     27eb        0     1                 .Lline_table_start0
    28c4     28c4      153     1         /Users/mabez/Development/rust/embedded/experiments/esp32c3-experiments/target/riscv32imac-unknown-none-elf/debug/deps/libriscv_atomic_emulation_trap-9111affe446510c3.rlib(riscv_atomic_emulation_trap-9111affe446510c3.4em3hgrap6mo60l5.rcgu.o):(.debug_line)
    28c4     28c4        0     1                 .Lline_table_start0
    2a17     2a17      381     1         /Users/mabez/Development/rust/embedded/experiments/esp32c3-experiments/target/riscv32imac-unknown-none-elf/debug/deps/libriscv_atomic_emulation_trap-9111affe446510c3.rlib(riscv_atomic_emulation_trap-9111affe446510c3.1ainjqznfmasr5um.rcgu.o):(.debug_line)
    2a17     2a17        0     1                 .Lline_table_start0
    2d98     2d98       8c     1         /Users/mabez/Development/rust/embedded/experiments/esp32c3-experiments/target/riscv32imac-unknown-none-elf/debug/deps/libriscv_atomic_emulation_trap-9111affe446510c3.rlib(riscv_atomic_emulation_trap-9111affe446510c3.1e14zek980l7c5wd.rcgu.o):(.debug_line)
    2d98     2d98        0     1                 .Lline_table_start0
    2e24     2e24      129     1         /Users/mabez/Development/rust/embedded/experiments/esp32c3-experiments/target/riscv32imac-unknown-none-elf/debug/deps/libriscv_atomic_emulation_trap-9111affe446510c3.rlib(riscv_atomic_emulation_trap-9111affe446510c3.3jxb2alfotone25d.rcgu.o):(.debug_line)
    2e24     2e24        0     1                 .Lline_table_start0
    2f4d     2f4d      394     1         /Users/mabez/Development/rust/embedded/experiments/esp32c3-experiments/target/riscv32imac-unknown-none-elf/debug/deps/libriscv_rt-792395b706c7e295.rlib(riscv_rt-792395b706c7e295.n23zmh27zi56vj2.rcgu.o):(.debug_line)
    2f4d     2f4d        0     1                 .Lline_table_start0
    32e1     32e1      24a     1         /Users/mabez/Development/rust/embedded/experiments/esp32c3-experiments/target/riscv32imac-unknown-none-elf/debug/deps/libriscv_rt-792395b706c7e295.rlib(riscv_rt-792395b706c7e295.2si3iiyx4w55gh9p.rcgu.o):(.debug_line)
    32e1     32e1        0     1                 .Lline_table_start0
    352b     352b      126     1         /Users/mabez/Development/rust/embedded/experiments/esp32c3-experiments/target/riscv32imac-unknown-none-elf/debug/deps/libriscv_rt-792395b706c7e295.rlib(riscv_rt-792395b706c7e295.nu58l7xx5z184oa.rcgu.o):(.debug_line)
    352b     352b        0     1                 .Lline_table_start0
    3651     3651       92     1         /Users/mabez/Development/rust/embedded/experiments/esp32c3-experiments/target/riscv32imac-unknown-none-elf/debug/deps/libriscv_rt-792395b706c7e295.rlib(riscv_rt-792395b706c7e295.40ecbdq24jylbsk0.rcgu.o):(.debug_line)
    3651     3651        0     1                 .Lline_table_start0
    36e3     36e3      15b     1         /Users/mabez/Development/rust/embedded/experiments/esp32c3-experiments/target/riscv32imac-unknown-none-elf/debug/deps/libriscv_rt-792395b706c7e295.rlib(riscv_rt-792395b706c7e295.4l8nnv0gz5uboi7y.rcgu.o):(.debug_line)
    36e3     36e3        0     1                 .Lline_table_start0
    383e     383e      129     1         /Users/mabez/Development/rust/embedded/experiments/esp32c3-experiments/target/riscv32imac-unknown-none-elf/debug/deps/libriscv_rt-792395b706c7e295.rlib(riscv_rt-792395b706c7e295.a1pdmtq419pk4l9.rcgu.o):(.debug_line)
    383e     383e        0     1                 .Lline_table_start0
    3967     3967      4ba     1         /Users/mabez/Development/rust/embedded/experiments/esp32c3-experiments/target/riscv32imac-unknown-none-elf/debug/deps/libriscv-58bee4c49f9f92ec.rlib(riscv-58bee4c49f9f92ec.riscv.8be94b29-cgu.0.rcgu.o):(.debug_line)
    3967     3967        0     1                 .Lline_table_start0
    3e21     3e21      2e4     1         /Users/mabez/Development/rust/embedded/experiments/esp32c3-experiments/target/riscv32imac-unknown-none-elf/debug/deps/libriscv-58bee4c49f9f92ec.rlib(riscv-58bee4c49f9f92ec.riscv.8be94b29-cgu.9.rcgu.o):(.debug_line)
    3e21     3e21        0     1                 .Lline_table_start0
    4105     4105      171     1         /Users/mabez/Development/rust/embedded/experiments/esp32c3-experiments/target/riscv32imac-unknown-none-elf/debug/deps/libriscv-58bee4c49f9f92ec.rlib(riscv-58bee4c49f9f92ec.riscv.8be94b29-cgu.4.rcgu.o):(.debug_line)
    4105     4105        0     1                 .Lline_table_start0
    4276     4276       c2     1         /Users/mabez/Development/rust/embedded/experiments/esp32c3-experiments/target/riscv32imac-unknown-none-elf/debug/deps/libriscv_rt-792395b706c7e295.rlib(riscv_rt-792395b706c7e295.2fig4fon7wqsswts.rcgu.o):(.debug_line)
    4276     4276        0     1                 .Lline_table_start0
    4338     4338       94     1         /Users/mabez/Development/rust/embedded/experiments/esp32c3-experiments/target/riscv32imac-unknown-none-elf/debug/deps/libriscv_rt-792395b706c7e295.rlib(riscv_rt-792395b706c7e295.53lukflzfjg86k6f.rcgu.o):(.debug_line)
    4338     4338        0     1                 .Lline_table_start0
    43cc     43cc       87     1         /Users/mabez/Development/rust/embedded/experiments/esp32c3-experiments/target/riscv32imac-unknown-none-elf/debug/deps/libriscv_rt-792395b706c7e295.rlib(riscv_rt-792395b706c7e295.2h85xx65g8aqsgk3.rcgu.o):(.debug_line)
    43cc     43cc        0     1                 .Lline_table_start0
    4453     4453      2e9     1         /Users/mabez/Development/rust/embedded/experiments/esp32c3-experiments/target/riscv32imac-unknown-none-elf/debug/deps/libriscv_atomic_emulation_trap-9111affe446510c3.rlib(riscv_atomic_emulation_trap-9111affe446510c3.473ch88oilsz6zg3.rcgu.o):(.debug_line)
    4453     4453        0     1                 .Lline_table_start0
    473c     473c       c0     1         /Users/mabez/Development/rust/embedded/experiments/esp32c3-experiments/target/riscv32imac-unknown-none-elf/debug/deps/libriscv_atomic_emulation_trap-9111affe446510c3.rlib(riscv_atomic_emulation_trap-9111affe446510c3.1x01haq1ilk8wjw8.rcgu.o):(.debug_line)
    473c     473c        0     1                 .Lline_table_start0
    47fc     47fc       ae     1         /Users/mabez/Development/rust/embedded/experiments/esp32c3-experiments/target/riscv32imac-unknown-none-elf/debug/deps/libriscv_atomic_emulation_trap-9111affe446510c3.rlib(riscv_atomic_emulation_trap-9111affe446510c3.3eam8rvf5fviumdo.rcgu.o):(.debug_line)
    47fc     47fc        0     1                 .Lline_table_start0
    48aa     48aa       b3     1         /Users/mabez/Development/rust/embedded/experiments/esp32c3-experiments/target/riscv32imac-unknown-none-elf/debug/deps/libriscv_atomic_emulation_trap-9111affe446510c3.rlib(riscv_atomic_emulation_trap-9111affe446510c3.92c3mso3f7tifm.rcgu.o):(.debug_line)
    48aa     48aa        0     1                 .Lline_table_start0
    495d     495d      194     1         /Users/mabez/Development/rust/embedded/experiments/esp32c3-experiments/target/riscv32imac-unknown-none-elf/debug/deps/libriscv_atomic_emulation_trap-9111affe446510c3.rlib(riscv_atomic_emulation_trap-9111affe446510c3.1ujfldlpaqv6u59a.rcgu.o):(.debug_line)
    495d     495d        0     1                 .Lline_table_start0
    4af1     4af1       c5     1         /Users/mabez/Development/rust/embedded/experiments/esp32c3-experiments/target/riscv32imac-unknown-none-elf/debug/deps/libriscv_atomic_emulation_trap-9111affe446510c3.rlib(riscv_atomic_emulation_trap-9111affe446510c3.5dmrm1faws2v64w9.rcgu.o):(.debug_line)
    4af1     4af1        0     1                 .Lline_table_start0
    4bb6     4bb6       ca     1         /Users/mabez/Development/rust/embedded/experiments/esp32c3-experiments/target/riscv32imac-unknown-none-elf/debug/deps/libriscv_atomic_emulation_trap-9111affe446510c3.rlib(riscv_atomic_emulation_trap-9111affe446510c3.32s2sfn2d8x0z4vp.rcgu.o):(.debug_line)
    4bb6     4bb6        0     1                 .Lline_table_start0
    4c80     4c80       a1     1         /Users/mabez/Development/rust/embedded/experiments/esp32c3-experiments/target/riscv32imac-unknown-none-elf/debug/deps/libriscv_atomic_emulation_trap-9111affe446510c3.rlib(riscv_atomic_emulation_trap-9111affe446510c3.iorsoyj01ig67gw.rcgu.o):(.debug_line)
    4c80     4c80        0     1                 .Lline_table_start0
    4d21     4d21       be     1         /Users/mabez/Development/rust/embedded/experiments/esp32c3-experiments/target/riscv32imac-unknown-none-elf/debug/deps/libriscv_atomic_emulation_trap-9111affe446510c3.rlib(riscv_atomic_emulation_trap-9111affe446510c3.koyzaehax49d9k4.rcgu.o):(.debug_line)
    4d21     4d21        0     1                 .Lline_table_start0
    4ddf     4ddf       b3     1         /Users/mabez/Development/rust/embedded/experiments/esp32c3-experiments/target/riscv32imac-unknown-none-elf/debug/deps/libriscv_atomic_emulation_trap-9111affe446510c3.rlib(riscv_atomic_emulation_trap-9111affe446510c3.r9quz5yo0c3c66a.rcgu.o):(.debug_line)
    4ddf     4ddf        0     1                 .Lline_table_start0
    4e92     4e92       ab     1         /Users/mabez/Development/rust/embedded/experiments/esp32c3-experiments/target/riscv32imac-unknown-none-elf/debug/deps/libriscv_atomic_emulation_trap-9111affe446510c3.rlib(riscv_atomic_emulation_trap-9111affe446510c3.um9btop5pm89mqk.rcgu.o):(.debug_line)
    4e92     4e92        0     1                 .Lline_table_start0
    4f3d     4f3d      4ba     1         /Users/mabez/Development/rust/embedded/experiments/esp32c3-experiments/target/riscv32imac-unknown-none-elf/debug/deps/libriscv-e6570dc03e37c02b.rlib(riscv-e6570dc03e37c02b.riscv.6a3f384f-cgu.0.rcgu.o):(.debug_line)
    4f3d     4f3d        0     1                 .Lline_table_start0
    53f7     53f7      2df     1         /Users/mabez/Development/rust/embedded/experiments/esp32c3-experiments/target/riscv32imac-unknown-none-elf/debug/deps/libriscv-e6570dc03e37c02b.rlib(riscv-e6570dc03e37c02b.riscv.6a3f384f-cgu.10.rcgu.o):(.debug_line)
    53f7     53f7        0     1                 .Lline_table_start0
    56d6     56d6      1f4     1         /Users/mabez/Development/rust/embedded/experiments/esp32c3-experiments/target/riscv32imac-unknown-none-elf/debug/deps/libriscv-e6570dc03e37c02b.rlib(riscv-e6570dc03e37c02b.riscv.6a3f384f-cgu.11.rcgu.o):(.debug_line)
    56d6     56d6        0     1                 .Lline_table_start0
    58ca     58ca      171     1         /Users/mabez/Development/rust/embedded/experiments/esp32c3-experiments/target/riscv32imac-unknown-none-elf/debug/deps/libriscv-e6570dc03e37c02b.rlib(riscv-e6570dc03e37c02b.riscv.6a3f384f-cgu.4.rcgu.o):(.debug_line)
    58ca     58ca        0     1                 .Lline_table_start0
    5a3b     5a3b      25b     1         /Users/mabez/Development/rust/embedded/experiments/esp32c3-experiments/target/riscv32imac-unknown-none-elf/debug/deps/libriscv-e6570dc03e37c02b.rlib(riscv-e6570dc03e37c02b.riscv.6a3f384f-cgu.8.rcgu.o):(.debug_line)
    5a3b     5a3b        0     1                 .Lline_table_start0
    5c96     5c96       bf     1         /Users/mabez/Development/rust/embedded/experiments/esp32c3-experiments/target/riscv32imac-unknown-none-elf/debug/deps/libvoid-d8bfa8eb72c6fce6.rlib(void-d8bfa8eb72c6fce6.void.0c48974b-cgu.0.rcgu.o):(.debug_line)
    5c96     5c96        0     1                 .Lline_table_start0
    5d55     5d55    27ac0     1         /Users/mabez/.rustup/toolchains/nightly-aarch64-apple-darwin/lib/rustlib/riscv32imac-unknown-none-elf/lib/libcore-081fd8405fc18f2e.rlib(core-081fd8405fc18f2e.core.756fe54c-cgu.0.rcgu.o):(.debug_line)
    5d55     5d55        0     1                 .Lline_table_start0
   2d815    2d815      20f     1         /Users/mabez/.rustup/toolchains/nightly-aarch64-apple-darwin/lib/rustlib/riscv32imac-unknown-none-elf/lib/libcompiler_builtins-1e32d751d3fb162c.rlib(compiler_builtins-1e32d751d3fb162c.compiler_builtins.864c03ce-cgu.104.rcgu.o):(.debug_line)
   2d815    2d815        0     1                 .Lline_table_start0
   2da24    2da24      41a     1         /Users/mabez/.rustup/toolchains/nightly-aarch64-apple-darwin/lib/rustlib/riscv32imac-unknown-none-elf/lib/libcompiler_builtins-1e32d751d3fb162c.rlib(compiler_builtins-1e32d751d3fb162c.compiler_builtins.864c03ce-cgu.106.rcgu.o):(.debug_line)
   2da24    2da24        0     1                 .Lline_table_start0
   2de3e    2de3e      191     1         /Users/mabez/.rustup/toolchains/nightly-aarch64-apple-darwin/lib/rustlib/riscv32imac-unknown-none-elf/lib/libcompiler_builtins-1e32d751d3fb162c.rlib(compiler_builtins-1e32d751d3fb162c.compiler_builtins.864c03ce-cgu.11.rcgu.o):(.debug_line)
   2de3e    2de3e        0     1                 .Lline_table_start0
   2dfcf    2dfcf      30a     1         /Users/mabez/.rustup/toolchains/nightly-aarch64-apple-darwin/lib/rustlib/riscv32imac-unknown-none-elf/lib/libcompiler_builtins-1e32d751d3fb162c.rlib(compiler_builtins-1e32d751d3fb162c.compiler_builtins.864c03ce-cgu.111.rcgu.o):(.debug_line)
   2dfcf    2dfcf        0     1                 .Lline_table_start0
   2e2d9    2e2d9      245     1         /Users/mabez/.rustup/toolchains/nightly-aarch64-apple-darwin/lib/rustlib/riscv32imac-unknown-none-elf/lib/libcompiler_builtins-1e32d751d3fb162c.rlib(compiler_builtins-1e32d751d3fb162c.compiler_builtins.864c03ce-cgu.2.rcgu.o):(.debug_line)
   2e2d9    2e2d9        0     1                 .Lline_table_start0
   2e51e    2e51e      682     1         /Users/mabez/.rustup/toolchains/nightly-aarch64-apple-darwin/lib/rustlib/riscv32imac-unknown-none-elf/lib/libcompiler_builtins-1e32d751d3fb162c.rlib(compiler_builtins-1e32d751d3fb162c.compiler_builtins.864c03ce-cgu.20.rcgu.o):(.debug_line)
   2e51e    2e51e        0     1                 .Lline_table_start0
   2eba0    2eba0       fc     1         /Users/mabez/.rustup/toolchains/nightly-aarch64-apple-darwin/lib/rustlib/riscv32imac-unknown-none-elf/lib/libcompiler_builtins-1e32d751d3fb162c.rlib(compiler_builtins-1e32d751d3fb162c.compiler_builtins.864c03ce-cgu.21.rcgu.o):(.debug_line)
   2eba0    2eba0        0     1                 .Lline_table_start0
   2ec9c    2ec9c      269     1         /Users/mabez/.rustup/toolchains/nightly-aarch64-apple-darwin/lib/rustlib/riscv32imac-unknown-none-elf/lib/libcompiler_builtins-1e32d751d3fb162c.rlib(compiler_builtins-1e32d751d3fb162c.compiler_builtins.864c03ce-cgu.27.rcgu.o):(.debug_line)
   2ec9c    2ec9c        0     1                 .Lline_table_start0
   2ef05    2ef05       fc     1         /Users/mabez/.rustup/toolchains/nightly-aarch64-apple-darwin/lib/rustlib/riscv32imac-unknown-none-elf/lib/libcompiler_builtins-1e32d751d3fb162c.rlib(compiler_builtins-1e32d751d3fb162c.compiler_builtins.864c03ce-cgu.28.rcgu.o):(.debug_line)
   2ef05    2ef05        0     1                 .Lline_table_start0
   2f001    2f001      28a     1         /Users/mabez/.rustup/toolchains/nightly-aarch64-apple-darwin/lib/rustlib/riscv32imac-unknown-none-elf/lib/libcompiler_builtins-1e32d751d3fb162c.rlib(compiler_builtins-1e32d751d3fb162c.compiler_builtins.864c03ce-cgu.69.rcgu.o):(.debug_line)
   2f001    2f001        0     1                 .Lline_table_start0
   2f28b    2f28b      33a     1         /Users/mabez/.rustup/toolchains/nightly-aarch64-apple-darwin/lib/rustlib/riscv32imac-unknown-none-elf/lib/libcompiler_builtins-1e32d751d3fb162c.rlib(compiler_builtins-1e32d751d3fb162c.compiler_builtins.864c03ce-cgu.7.rcgu.o):(.debug_line)
   2f28b    2f28b        0     1                 .Lline_table_start0
   2f5c5    2f5c5       fc     1         /Users/mabez/.rustup/toolchains/nightly-aarch64-apple-darwin/lib/rustlib/riscv32imac-unknown-none-elf/lib/libcompiler_builtins-1e32d751d3fb162c.rlib(compiler_builtins-1e32d751d3fb162c.compiler_builtins.864c03ce-cgu.70.rcgu.o):(.debug_line)
   2f5c5    2f5c5        0     1                 .Lline_table_start0
   2f6c1    2f6c1      245     1         /Users/mabez/.rustup/toolchains/nightly-aarch64-apple-darwin/lib/rustlib/riscv32imac-unknown-none-elf/lib/libcompiler_builtins-1e32d751d3fb162c.rlib(compiler_builtins-1e32d751d3fb162c.compiler_builtins.864c03ce-cgu.71.rcgu.o):(.debug_line)
   2f6c1    2f6c1        0     1                 .Lline_table_start0
   2f906    2f906      211     1         /Users/mabez/.rustup/toolchains/nightly-aarch64-apple-darwin/lib/rustlib/riscv32imac-unknown-none-elf/lib/libcompiler_builtins-1e32d751d3fb162c.rlib(compiler_builtins-1e32d751d3fb162c.compiler_builtins.864c03ce-cgu.79.rcgu.o):(.debug_line)
   2f906    2f906        0     1                 .Lline_table_start0
   2fb17    2fb17      41a     1         /Users/mabez/.rustup/toolchains/nightly-aarch64-apple-darwin/lib/rustlib/riscv32imac-unknown-none-elf/lib/libcompiler_builtins-1e32d751d3fb162c.rlib(compiler_builtins-1e32d751d3fb162c.compiler_builtins.864c03ce-cgu.8.rcgu.o):(.debug_line)
   2fb17    2fb17        0     1                 .Lline_table_start0
   2ff31    2ff31      b8c     1         /Users/mabez/.rustup/toolchains/nightly-aarch64-apple-darwin/lib/rustlib/riscv32imac-unknown-none-elf/lib/libcompiler_builtins-1e32d751d3fb162c.rlib(compiler_builtins-1e32d751d3fb162c.compiler_builtins.864c03ce-cgu.82.rcgu.o):(.debug_line)
   2ff31    2ff31        0     1                 .Lline_table_start0
   30abd    30abd      28e     1         /Users/mabez/.rustup/toolchains/nightly-aarch64-apple-darwin/lib/rustlib/riscv32imac-unknown-none-elf/lib/libcompiler_builtins-1e32d751d3fb162c.rlib(compiler_builtins-1e32d751d3fb162c.compiler_builtins.864c03ce-cgu.120.rcgu.o):(.debug_line)
   30abd    30abd        0     1                 .Lline_table_start0
   30d4b    30d4b      211     1         /Users/mabez/.rustup/toolchains/nightly-aarch64-apple-darwin/lib/rustlib/riscv32imac-unknown-none-elf/lib/libcompiler_builtins-1e32d751d3fb162c.rlib(compiler_builtins-1e32d751d3fb162c.compiler_builtins.864c03ce-cgu.92.rcgu.o):(.debug_line)
   30d4b    30d4b        0     1                 .Lline_table_start0
   30f5c    30f5c      25a     1         /Users/mabez/Development/rust/embedded/experiments/esp32c3-experiments/target/riscv32imac-unknown-none-elf/debug/deps/libriscv_rt-792395b706c7e295.rlib(riscv-rt.o):(.debug_line)
   311b6    311b6      1de     1         /Users/mabez/Development/rust/embedded/experiments/esp32c3-experiments/target/riscv32imac-unknown-none-elf/debug/deps/libriscv_atomic_emulation_trap-9111affe446510c3.rlib(riscv-atomic-emulation-trap.o):(.debug_line)
       0        0       70     1 .debug_loc
       0        0       38     1         /Users/mabez/Development/rust/embedded/experiments/esp32c3-experiments/target/riscv32imac-unknown-none-elf/debug/deps/esp32c3-5c92695bd7d79a0b.4d3o56o4s3rmpew1.rcgu.o:(.debug_loc)
       0        0        0     1                 
      1c       1c        0     1                 
      38       38       38     1         /Users/mabez/Development/rust/embedded/experiments/esp32c3-experiments/target/riscv32imac-unknown-none-elf/debug/deps/libriscv_atomic_emulation_trap-9111affe446510c3.rlib(riscv_atomic_emulation_trap-9111affe446510c3.4em3hgrap6mo60l5.rcgu.o):(.debug_loc)
      38       38        0     1                 
      54       54        0     1                 
       0        0       10     1 .debug_line_str
       0        0       10     1         <internal>:(.debug_line_str)
       0        0       20     1 .debug_rnglists
       0        0       20     1         /Users/mabez/Development/rust/embedded/experiments/esp32c3-experiments/target/riscv32imac-unknown-none-elf/debug/deps/libriscv_rt-792395b706c7e295.rlib(riscv-rt.o):(.debug_rnglists)
       c        c        0     1                 .L0 
       0        0       13     1 .comment
       0        0       13     1         <internal>:(.comment)
       0        0    1c430     4 .symtab
       0        0    1c430     4         <internal>:(.symtab)
       0        0      120     1 .shstrtab
       0        0      120     1         <internal>:(.shstrtab)
       0        0     4d7e     1 .strtab
       0        0     4d7e     1         <internal>:(.strtab)
